
ft.C.x:     file format elf64-x86-64


Disassembly of section .init:

0000000000002000 <_init>:
    2000:	f3 0f 1e fa          	endbr64 
    2004:	48 83 ec 08          	sub    $0x8,%rsp
    2008:	48 8b 05 c1 8f 00 00 	mov    0x8fc1(%rip),%rax        # afd0 <__gmon_start__@Base>
    200f:	48 85 c0             	test   %rax,%rax
    2012:	74 02                	je     2016 <_init+0x16>
    2014:	ff d0                	call   *%rax
    2016:	48 83 c4 08          	add    $0x8,%rsp
    201a:	c3                   	ret    

Disassembly of section .plt:

0000000000002020 <_gfortran_transfer_real_write@plt-0x10>:
    2020:	ff 35 92 8e 00 00    	push   0x8e92(%rip)        # aeb8 <_GLOBAL_OFFSET_TABLE_+0x8>
    2026:	ff 25 94 8e 00 00    	jmp    *0x8e94(%rip)        # aec0 <_GLOBAL_OFFSET_TABLE_+0x10>
    202c:	0f 1f 40 00          	nopl   0x0(%rax)

0000000000002030 <_gfortran_transfer_real_write@plt>:
    2030:	ff 25 92 8e 00 00    	jmp    *0x8e92(%rip)        # aec8 <_gfortran_transfer_real_write@GFORTRAN_8>
    2036:	68 00 00 00 00       	push   $0x0
    203b:	e9 e0 ff ff ff       	jmp    2020 <_init+0x20>

0000000000002040 <_gfortran_stop_string@plt>:
    2040:	ff 25 8a 8e 00 00    	jmp    *0x8e8a(%rip)        # aed0 <_gfortran_stop_string@GFORTRAN_8>
    2046:	68 01 00 00 00       	push   $0x1
    204b:	e9 d0 ff ff ff       	jmp    2020 <_init+0x20>

0000000000002050 <memset@plt>:
    2050:	ff 25 82 8e 00 00    	jmp    *0x8e82(%rip)        # aed8 <memset@GLIBC_2.2.5>
    2056:	68 02 00 00 00       	push   $0x2
    205b:	e9 c0 ff ff ff       	jmp    2020 <_init+0x20>

0000000000002060 <omp_get_num_threads@plt>:
    2060:	ff 25 7a 8e 00 00    	jmp    *0x8e7a(%rip)        # aee0 <omp_get_num_threads@OMP_1.0>
    2066:	68 03 00 00 00       	push   $0x3
    206b:	e9 b0 ff ff ff       	jmp    2020 <_init+0x20>

0000000000002070 <exp@plt>:
    2070:	ff 25 72 8e 00 00    	jmp    *0x8e72(%rip)        # aee8 <exp@GLIBC_2.29>
    2076:	68 04 00 00 00       	push   $0x4
    207b:	e9 a0 ff ff ff       	jmp    2020 <_init+0x20>

0000000000002080 <gettimeofday@plt>:
    2080:	ff 25 6a 8e 00 00    	jmp    *0x8e6a(%rip)        # aef0 <gettimeofday@GLIBC_2.2.5>
    2086:	68 05 00 00 00       	push   $0x5
    208b:	e9 90 ff ff ff       	jmp    2020 <_init+0x20>

0000000000002090 <_gfortran_ieee_procedure_entry@plt>:
    2090:	ff 25 62 8e 00 00    	jmp    *0x8e62(%rip)        # aef8 <_gfortran_ieee_procedure_entry@GFORTRAN_8>
    2096:	68 06 00 00 00       	push   $0x6
    209b:	e9 80 ff ff ff       	jmp    2020 <_init+0x20>

00000000000020a0 <_gfortran_st_close@plt>:
    20a0:	ff 25 5a 8e 00 00    	jmp    *0x8e5a(%rip)        # af00 <_gfortran_st_close@GFORTRAN_8>
    20a6:	68 07 00 00 00       	push   $0x7
    20ab:	e9 70 ff ff ff       	jmp    2020 <_init+0x20>

00000000000020b0 <malloc@plt>:
    20b0:	ff 25 52 8e 00 00    	jmp    *0x8e52(%rip)        # af08 <malloc@GLIBC_2.2.5>
    20b6:	68 08 00 00 00       	push   $0x8
    20bb:	e9 60 ff ff ff       	jmp    2020 <_init+0x20>

00000000000020c0 <_gfortran_ieee_procedure_exit@plt>:
    20c0:	ff 25 4a 8e 00 00    	jmp    *0x8e4a(%rip)        # af10 <_gfortran_ieee_procedure_exit@GFORTRAN_8>
    20c6:	68 09 00 00 00       	push   $0x9
    20cb:	e9 50 ff ff ff       	jmp    2020 <_init+0x20>

00000000000020d0 <_gfortran_transfer_integer_write@plt>:
    20d0:	ff 25 42 8e 00 00    	jmp    *0x8e42(%rip)        # af18 <_gfortran_transfer_integer_write@GFORTRAN_8>
    20d6:	68 0a 00 00 00       	push   $0xa
    20db:	e9 40 ff ff ff       	jmp    2020 <_init+0x20>

00000000000020e0 <_gfortran_transfer_complex_write@plt>:
    20e0:	ff 25 3a 8e 00 00    	jmp    *0x8e3a(%rip)        # af20 <_gfortran_transfer_complex_write@GFORTRAN_8>
    20e6:	68 0b 00 00 00       	push   $0xb
    20eb:	e9 30 ff ff ff       	jmp    2020 <_init+0x20>

00000000000020f0 <omp_get_thread_num@plt>:
    20f0:	ff 25 32 8e 00 00    	jmp    *0x8e32(%rip)        # af28 <omp_get_thread_num@OMP_1.0>
    20f6:	68 0c 00 00 00       	push   $0xc
    20fb:	e9 20 ff ff ff       	jmp    2020 <_init+0x20>

0000000000002100 <_gfortran_st_open@plt>:
    2100:	ff 25 2a 8e 00 00    	jmp    *0x8e2a(%rip)        # af30 <_gfortran_st_open@GFORTRAN_8>
    2106:	68 0d 00 00 00       	push   $0xd
    210b:	e9 10 ff ff ff       	jmp    2020 <_init+0x20>

0000000000002110 <_gfortran_transfer_character_write@plt>:
    2110:	ff 25 22 8e 00 00    	jmp    *0x8e22(%rip)        # af38 <_gfortran_transfer_character_write@GFORTRAN_8>
    2116:	68 0e 00 00 00       	push   $0xe
    211b:	e9 00 ff ff ff       	jmp    2020 <_init+0x20>

0000000000002120 <GOMP_atomic_end@plt>:
    2120:	ff 25 1a 8e 00 00    	jmp    *0x8e1a(%rip)        # af40 <GOMP_atomic_end@GOMP_1.0>
    2126:	68 0f 00 00 00       	push   $0xf
    212b:	e9 f0 fe ff ff       	jmp    2020 <_init+0x20>

0000000000002130 <_gfortran_get_environment_variable_i4@plt>:
    2130:	ff 25 12 8e 00 00    	jmp    *0x8e12(%rip)        # af48 <_gfortran_get_environment_variable_i4@GFORTRAN_8>
    2136:	68 10 00 00 00       	push   $0x10
    213b:	e9 e0 fe ff ff       	jmp    2020 <_init+0x20>

0000000000002140 <omp_get_num_threads_@plt>:
    2140:	ff 25 0a 8e 00 00    	jmp    *0x8e0a(%rip)        # af50 <omp_get_num_threads_@OMP_1.0>
    2146:	68 11 00 00 00       	push   $0x11
    214b:	e9 d0 fe ff ff       	jmp    2020 <_init+0x20>

0000000000002150 <cabs@plt>:
    2150:	ff 25 02 8e 00 00    	jmp    *0x8e02(%rip)        # af58 <cabs@GLIBC_2.2.5>
    2156:	68 12 00 00 00       	push   $0x12
    215b:	e9 c0 fe ff ff       	jmp    2020 <_init+0x20>

0000000000002160 <_gfortran_compare_string@plt>:
    2160:	ff 25 fa 8d 00 00    	jmp    *0x8dfa(%rip)        # af60 <_gfortran_compare_string@GFORTRAN_8>
    2166:	68 13 00 00 00       	push   $0x13
    216b:	e9 b0 fe ff ff       	jmp    2020 <_init+0x20>

0000000000002170 <GOMP_atomic_start@plt>:
    2170:	ff 25 f2 8d 00 00    	jmp    *0x8df2(%rip)        # af68 <GOMP_atomic_start@GOMP_1.0>
    2176:	68 14 00 00 00       	push   $0x14
    217b:	e9 a0 fe ff ff       	jmp    2020 <_init+0x20>

0000000000002180 <__powidf2@plt>:
    2180:	ff 25 ea 8d 00 00    	jmp    *0x8dea(%rip)        # af70 <__powidf2@GCC_4.0.0>
    2186:	68 15 00 00 00       	push   $0x15
    218b:	e9 90 fe ff ff       	jmp    2020 <_init+0x20>

0000000000002190 <omp_get_wtime_@plt>:
    2190:	ff 25 e2 8d 00 00    	jmp    *0x8de2(%rip)        # af78 <omp_get_wtime_@OMP_2.0>
    2196:	68 16 00 00 00       	push   $0x16
    219b:	e9 80 fe ff ff       	jmp    2020 <_init+0x20>

00000000000021a0 <GOMP_parallel@plt>:
    21a0:	ff 25 da 8d 00 00    	jmp    *0x8dda(%rip)        # af80 <GOMP_parallel@GOMP_4.0>
    21a6:	68 17 00 00 00       	push   $0x17
    21ab:	e9 70 fe ff ff       	jmp    2020 <_init+0x20>

00000000000021b0 <_gfortran_st_write_done@plt>:
    21b0:	ff 25 d2 8d 00 00    	jmp    *0x8dd2(%rip)        # af88 <_gfortran_st_write_done@GFORTRAN_8>
    21b6:	68 18 00 00 00       	push   $0x18
    21bb:	e9 60 fe ff ff       	jmp    2020 <_init+0x20>

00000000000021c0 <sincos@plt>:
    21c0:	ff 25 ca 8d 00 00    	jmp    *0x8dca(%rip)        # af90 <sincos@GLIBC_2.2.5>
    21c6:	68 19 00 00 00       	push   $0x19
    21cb:	e9 50 fe ff ff       	jmp    2020 <_init+0x20>

00000000000021d0 <_ZGVbN2v_exp@plt>:
    21d0:	ff 25 c2 8d 00 00    	jmp    *0x8dc2(%rip)        # af98 <_ZGVbN2v_exp@GLIBC_2.22>
    21d6:	68 1a 00 00 00       	push   $0x1a
    21db:	e9 40 fe ff ff       	jmp    2020 <_init+0x20>

00000000000021e0 <__stack_chk_fail@plt>:
    21e0:	ff 25 ba 8d 00 00    	jmp    *0x8dba(%rip)        # afa0 <__stack_chk_fail@GLIBC_2.4>
    21e6:	68 1b 00 00 00       	push   $0x1b
    21eb:	e9 30 fe ff ff       	jmp    2020 <_init+0x20>

00000000000021f0 <omp_get_max_threads_@plt>:
    21f0:	ff 25 b2 8d 00 00    	jmp    *0x8db2(%rip)        # afa8 <omp_get_max_threads_@OMP_1.0>
    21f6:	68 1c 00 00 00       	push   $0x1c
    21fb:	e9 20 fe ff ff       	jmp    2020 <_init+0x20>

0000000000002200 <_gfortran_set_options@plt>:
    2200:	ff 25 aa 8d 00 00    	jmp    *0x8daa(%rip)        # afb0 <_gfortran_set_options@GFORTRAN_8>
    2206:	68 1d 00 00 00       	push   $0x1d
    220b:	e9 10 fe ff ff       	jmp    2020 <_init+0x20>

0000000000002210 <_gfortran_set_args@plt>:
    2210:	ff 25 a2 8d 00 00    	jmp    *0x8da2(%rip)        # afb8 <_gfortran_set_args@GFORTRAN_8>
    2216:	68 1e 00 00 00       	push   $0x1e
    221b:	e9 00 fe ff ff       	jmp    2020 <_init+0x20>

0000000000002220 <_gfortran_st_write@plt>:
    2220:	ff 25 9a 8d 00 00    	jmp    *0x8d9a(%rip)        # afc0 <_gfortran_st_write@GFORTRAN_8>
    2226:	68 1f 00 00 00       	push   $0x1f
    222b:	e9 f0 fd ff ff       	jmp    2020 <_init+0x20>

0000000000002230 <memcpy@plt>:
    2230:	ff 25 92 8d 00 00    	jmp    *0x8d92(%rip)        # afc8 <memcpy@GLIBC_2.14>
    2236:	68 20 00 00 00       	push   $0x20
    223b:	e9 e0 fd ff ff       	jmp    2020 <_init+0x20>

Disassembly of section .plt.got:

0000000000002240 <__cxa_finalize@plt>:
    2240:	ff 25 a2 8d 00 00    	jmp    *0x8da2(%rip)        # afe8 <__cxa_finalize@GLIBC_2.2.5>
    2246:	66 90                	xchg   %ax,%ax

Disassembly of section .text:

0000000000002250 <main>:
    2250:	41 57                	push   %r15
    2252:	41 56                	push   %r14
    2254:	41 55                	push   %r13
    2256:	41 54                	push   %r12
    2258:	55                   	push   %rbp
    2259:	53                   	push   %rbx
    225a:	48 81 ec b8 00 00 00 	sub    $0xb8,%rsp
    2261:	e8 aa ff ff ff       	call   2210 <_gfortran_set_args@plt>
    2266:	bf 07 00 00 00       	mov    $0x7,%edi
    226b:	48 8d 5c 24 2c       	lea    0x2c(%rsp),%rbx
    2270:	48 8d 35 79 65 00 00 	lea    0x6579(%rip),%rsi        # 87f0 <options.171.0>
    2277:	e8 84 ff ff ff       	call   2200 <_gfortran_set_options@plt>
    227c:	c7 44 24 2c 01 00 00 	movl   $0x1,0x2c(%rsp)
    2283:	00 
    2284:	0f 1f 40 00          	nopl   0x0(%rax)
    2288:	48 89 df             	mov    %rbx,%rdi
    228b:	e8 d0 55 00 00       	call   7860 <timer_clear_>
    2290:	8b 44 24 2c          	mov    0x2c(%rsp),%eax
    2294:	83 c0 01             	add    $0x1,%eax
    2297:	89 44 24 2c          	mov    %eax,0x2c(%rsp)
    229b:	83 f8 08             	cmp    $0x8,%eax
    229e:	7e e8                	jle    2288 <main+0x38>
    22a0:	31 c0                	xor    %eax,%eax
    22a2:	e8 89 48 00 00       	call   6b30 <alloc_space_>
    22a7:	e8 54 46 00 00       	call   6900 <setup_>
    22ac:	4c 8d 0d 35 b1 00 00 	lea    0xb135(%rip),%r9        # d3e8 <__ft_data_MOD_dims+0x8>
    22b3:	48 8b 15 e6 8e 00 00 	mov    0x8ee6(%rip),%rdx        # b1a0 <__ft_fields_MOD_twiddle>
    22ba:	48 8b 35 5f 8e 00 00 	mov    0x8e5f(%rip),%rsi        # b120 <__ft_fields_MOD_u1>
    22c1:	4d 8d 41 fc          	lea    -0x4(%r9),%r8
    22c5:	48 8b 3d 94 8e 00 00 	mov    0x8e94(%rip),%rdi        # b160 <__ft_fields_MOD_u0>
    22cc:	49 8d 68 fc          	lea    -0x4(%r8),%rbp
    22d0:	4c 8d 65 08          	lea    0x8(%rbp),%r12
    22d4:	48 89 e9             	mov    %rbp,%rcx
    22d7:	e8 44 45 00 00       	call   6820 <init_ui_>
    22dc:	4d 8d 6c 24 fc       	lea    -0x4(%r12),%r13
    22e1:	4c 89 e1             	mov    %r12,%rcx
    22e4:	48 89 ee             	mov    %rbp,%rsi
    22e7:	48 8b 3d b2 8e 00 00 	mov    0x8eb2(%rip),%rdi        # b1a0 <__ft_fields_MOD_twiddle>
    22ee:	4c 89 ea             	mov    %r13,%rdx
    22f1:	e8 7a 2d 00 00       	call   5070 <compute_indexmap_>
    22f6:	4c 89 e1             	mov    %r12,%rcx
    22f9:	4c 89 ea             	mov    %r13,%rdx
    22fc:	48 89 ee             	mov    %rbp,%rsi
    22ff:	48 8b 3d 1a 8e 00 00 	mov    0x8e1a(%rip),%rdi        # b120 <__ft_fields_MOD_u1>
    2306:	e8 b5 2b 00 00       	call   4ec0 <compute_initial_conditions_>
    230b:	48 89 ef             	mov    %rbp,%rdi
    230e:	e8 5d 2a 00 00       	call   4d70 <fft_init_>
    2313:	48 8b 15 46 8e 00 00 	mov    0x8e46(%rip),%rdx        # b160 <__ft_fields_MOD_u0>
    231a:	48 8b 35 ff 8d 00 00 	mov    0x8dff(%rip),%rsi        # b120 <__ft_fields_MOD_u1>
    2321:	48 8d 3d 08 5d 00 00 	lea    0x5d08(%rip),%rdi        # 8030 <_IO_stdin_used+0x30>
    2328:	e8 93 33 00 00       	call   56c0 <fft_>
    232d:	c7 44 24 2c 01 00 00 	movl   $0x1,0x2c(%rsp)
    2334:	00 
    2335:	0f 1f 00             	nopl   (%rax)
    2338:	48 89 df             	mov    %rbx,%rdi
    233b:	e8 20 55 00 00       	call   7860 <timer_clear_>
    2340:	8b 44 24 2c          	mov    0x2c(%rsp),%eax
    2344:	83 c0 01             	add    $0x1,%eax
    2347:	89 44 24 2c          	mov    %eax,0x2c(%rsp)
    234b:	83 f8 08             	cmp    $0x8,%eax
    234e:	7e e8                	jle    2338 <main+0xe8>
    2350:	48 8d 3d d9 5c 00 00 	lea    0x5cd9(%rip),%rdi        # 8030 <_IO_stdin_used+0x30>
    2357:	e8 24 55 00 00       	call   7880 <timer_start_>
    235c:	44 8b 35 0d af 00 00 	mov    0xaf0d(%rip),%r14d        # d270 <__ft_data_MOD_timers_enabled>
    2363:	45 85 f6             	test   %r14d,%r14d
    2366:	0f 85 fc 03 00 00    	jne    2768 <main+0x518>
    236c:	48 8b 3d 2d 8e 00 00 	mov    0x8e2d(%rip),%rdi        # b1a0 <__ft_fields_MOD_twiddle>
    2373:	4c 89 e1             	mov    %r12,%rcx
    2376:	4c 89 ea             	mov    %r13,%rdx
    2379:	48 89 ee             	mov    %rbp,%rsi
    237c:	e8 ef 2c 00 00       	call   5070 <compute_indexmap_>
    2381:	4c 89 e1             	mov    %r12,%rcx
    2384:	4c 89 ea             	mov    %r13,%rdx
    2387:	48 89 ee             	mov    %rbp,%rsi
    238a:	48 8b 3d 8f 8d 00 00 	mov    0x8d8f(%rip),%rdi        # b120 <__ft_fields_MOD_u1>
    2391:	e8 2a 2b 00 00       	call   4ec0 <compute_initial_conditions_>
    2396:	48 89 ef             	mov    %rbp,%rdi
    2399:	e8 d2 29 00 00       	call   4d70 <fft_init_>
    239e:	44 8b 25 cb ae 00 00 	mov    0xaecb(%rip),%r12d        # d270 <__ft_data_MOD_timers_enabled>
    23a5:	45 85 e4             	test   %r12d,%r12d
    23a8:	0f 85 e6 03 00 00    	jne    2794 <main+0x544>
    23ae:	48 8b 15 ab 8d 00 00 	mov    0x8dab(%rip),%rdx        # b160 <__ft_fields_MOD_u0>
    23b5:	48 8b 35 64 8d 00 00 	mov    0x8d64(%rip),%rsi        # b120 <__ft_fields_MOD_u1>
    23bc:	48 8d 3d 6d 5c 00 00 	lea    0x5c6d(%rip),%rdi        # 8030 <_IO_stdin_used+0x30>
    23c3:	e8 f8 32 00 00       	call   56c0 <fft_>
    23c8:	8b 1d a2 ae 00 00    	mov    0xaea2(%rip),%ebx        # d270 <__ft_data_MOD_timers_enabled>
    23ce:	85 db                	test   %ebx,%ebx
    23d0:	0f 85 ad 03 00 00    	jne    2783 <main+0x533>
    23d6:	8b 05 f4 af 00 00    	mov    0xaff4(%rip),%eax        # d3d0 <__ft_data_MOD_niter>
    23dc:	c7 44 24 30 01 00 00 	movl   $0x1,0x30(%rsp)
    23e3:	00 
    23e4:	89 44 24 14          	mov    %eax,0x14(%rsp)
    23e8:	85 c0                	test   %eax,%eax
    23ea:	0f 8e ce 03 00 00    	jle    27be <main+0x56e>
    23f0:	48 8d 44 24 40       	lea    0x40(%rsp),%rax
    23f5:	bb 01 00 00 00       	mov    $0x1,%ebx
    23fa:	4c 8d 3d 9f 8d 00 00 	lea    0x8d9f(%rip),%r15        # b1a0 <__ft_fields_MOD_twiddle>
    2401:	48 89 44 24 08       	mov    %rax,0x8(%rsp)
    2406:	48 8d 44 24 30       	lea    0x30(%rsp),%rax
    240b:	4c 8d 35 4e 8d 00 00 	lea    0x8d4e(%rip),%r14        # b160 <__ft_fields_MOD_u0>
    2412:	48 89 44 24 18       	mov    %rax,0x18(%rsp)
    2417:	4c 8d 25 02 8d 00 00 	lea    0x8d02(%rip),%r12        # b120 <__ft_fields_MOD_u1>
    241e:	66 90                	xchg   %ax,%ax
    2420:	44 8b 1d 49 ae 00 00 	mov    0xae49(%rip),%r11d        # d270 <__ft_data_MOD_timers_enabled>
    2427:	45 85 db             	test   %r11d,%r11d
    242a:	0f 85 9d 02 00 00    	jne    26cd <main+0x47d>
    2430:	8b 45 00             	mov    0x0(%rbp),%eax
    2433:	31 d2                	xor    %edx,%edx
    2435:	49 8b 37             	mov    (%r15),%rsi
    2438:	48 8d 3d a1 05 00 00 	lea    0x5a1(%rip),%rdi        # 29e0 <evolve_._omp_fn.0>
    243f:	66 0f 6e 05 a1 af 00 	movd   0xafa1(%rip),%xmm0        # d3e8 <__ft_data_MOD_dims+0x8>
    2446:	00 
    2447:	f3 41 0f 7e 16       	movq   (%r14),%xmm2
    244c:	48 89 6c 24 58       	mov    %rbp,0x58(%rsp)
    2451:	83 c0 01             	add    $0x1,%eax
    2454:	66 0f 6e 2d 88 af 00 	movd   0xaf88(%rip),%xmm5        # d3e4 <__ft_data_MOD_dims+0x4>
    245b:	00 
    245c:	48 89 74 24 50       	mov    %rsi,0x50(%rsp)
    2461:	48 98                	cltq   
    2463:	48 8b 74 24 08       	mov    0x8(%rsp),%rsi
    2468:	41 0f 16 14 24       	movhps (%r12),%xmm2
    246d:	48 85 c0             	test   %rax,%rax
    2470:	66 0f 62 c5          	punpckldq %xmm5,%xmm0
    2474:	0f 29 54 24 40       	movaps %xmm2,0x40(%rsp)
    2479:	66 0f d6 84 24 a8 00 	movq   %xmm0,0xa8(%rsp)
    2480:	00 00 
    2482:	48 0f 48 c2          	cmovs  %rdx,%rax
    2486:	31 c9                	xor    %ecx,%ecx
    2488:	48 63 15 55 af 00 00 	movslq 0xaf55(%rip),%rdx        # d3e4 <__ft_data_MOD_dims+0x4>
    248f:	48 0f af d0          	imul   %rax,%rdx
    2493:	66 48 0f 6e f0       	movq   %rax,%xmm6
    2498:	66 48 0f 6e d8       	movq   %rax,%xmm3
    249d:	48 85 d2             	test   %rdx,%rdx
    24a0:	48 0f 48 d1          	cmovs  %rcx,%rdx
    24a4:	48 89 c1             	mov    %rax,%rcx
    24a7:	48 f7 d1             	not    %rcx
    24aa:	48 29 d1             	sub    %rdx,%rcx
    24ad:	66 48 0f 6e e2       	movq   %rdx,%xmm4
    24b2:	66 48 0f 6e c1       	movq   %rcx,%xmm0
    24b7:	66 48 0f 6e c9       	movq   %rcx,%xmm1
    24bc:	66 0f 6c dc          	punpcklqdq %xmm4,%xmm3
    24c0:	48 89 8c 24 a0 00 00 	mov    %rcx,0xa0(%rsp)
    24c7:	00 
    24c8:	66 0f 6c c6          	punpcklqdq %xmm6,%xmm0
    24cc:	31 c9                	xor    %ecx,%ecx
    24ce:	0f 29 5c 24 60       	movaps %xmm3,0x60(%rsp)
    24d3:	0f 29 44 24 70       	movaps %xmm0,0x70(%rsp)
    24d8:	66 48 0f 6e c2       	movq   %rdx,%xmm0
    24dd:	31 d2                	xor    %edx,%edx
    24df:	66 0f 6c c1          	punpcklqdq %xmm1,%xmm0
    24e3:	0f 29 9c 24 90 00 00 	movaps %xmm3,0x90(%rsp)
    24ea:	00 
    24eb:	0f 29 84 24 80 00 00 	movaps %xmm0,0x80(%rsp)
    24f2:	00 
    24f3:	e8 a8 fc ff ff       	call   21a0 <GOMP_parallel@plt>
    24f8:	44 8b 15 71 ad 00 00 	mov    0xad71(%rip),%r10d        # d270 <__ft_data_MOD_timers_enabled>
    24ff:	45 85 d2             	test   %r10d,%r10d
    2502:	0f 85 d8 01 00 00    	jne    26e0 <main+0x490>
    2508:	49 8b 34 24          	mov    (%r12),%rsi
    250c:	48 8d 3d c1 62 00 00 	lea    0x62c1(%rip),%rdi        # 87d4 <_IO_stdin_used+0x7d4>
    2513:	48 89 f2             	mov    %rsi,%rdx
    2516:	e8 a5 31 00 00       	call   56c0 <fft_>
    251b:	44 8b 05 4e ad 00 00 	mov    0xad4e(%rip),%r8d        # d270 <__ft_data_MOD_timers_enabled>
    2522:	45 85 c0             	test   %r8d,%r8d
    2525:	0f 85 e5 01 00 00    	jne    2710 <main+0x4c0>
    252b:	49 8b 34 24          	mov    (%r12),%rsi
    252f:	48 8b 7c 24 18       	mov    0x18(%rsp),%rdi
    2534:	4c 89 e9             	mov    %r13,%rcx
    2537:	48 89 ea             	mov    %rbp,%rdx
    253a:	4c 8d 05 a7 ae 00 00 	lea    0xaea7(%rip),%r8        # d3e8 <__ft_data_MOD_dims+0x8>
    2541:	e8 fa 25 00 00       	call   4b40 <checksum_>
    2546:	8b 35 24 ad 00 00    	mov    0xad24(%rip),%esi        # d270 <__ft_data_MOD_timers_enabled>
    254c:	85 f6                	test   %esi,%esi
    254e:	0f 85 4c 01 00 00    	jne    26a0 <main+0x450>
    2554:	83 c3 01             	add    $0x1,%ebx
    2557:	89 5c 24 30          	mov    %ebx,0x30(%rsp)
    255b:	39 5c 24 14          	cmp    %ebx,0x14(%rsp)
    255f:	0f 8d bb fe ff ff    	jge    2420 <main+0x1d0>
    2565:	48 8d 6c 24 2b       	lea    0x2b(%rsp),%rbp
    256a:	48 8d 5c 24 34       	lea    0x34(%rsp),%rbx
    256f:	48 83 ec 08          	sub    $0x8,%rsp
    2573:	6a 01                	push   $0x1
    2575:	4c 8d 25 5c 62 00 00 	lea    0x625c(%rip),%r12        # 87d8 <_IO_stdin_used+0x7d8>
    257c:	49 89 e9             	mov    %rbp,%r9
    257f:	49 89 d8             	mov    %rbx,%r8
    2582:	48 8d 0d 47 ae 00 00 	lea    0xae47(%rip),%rcx        # d3d0 <__ft_data_MOD_niter>
    2589:	4c 89 e2             	mov    %r12,%rdx
    258c:	4c 89 e6             	mov    %r12,%rsi
    258f:	4c 89 e7             	mov    %r12,%rdi
    2592:	e8 19 12 00 00       	call   37b0 <verify_>
    2597:	48 8d 3d 92 5a 00 00 	lea    0x5a92(%rip),%rdi        # 8030 <_IO_stdin_used+0x30>
    259e:	e8 fd 52 00 00       	call   78a0 <timer_stop_>
    25a3:	48 8d 3d 86 5a 00 00 	lea    0x5a86(%rip),%rdi        # 8030 <_IO_stdin_used+0x30>
    25aa:	e8 21 53 00 00       	call   78d0 <timer_read_>
    25af:	66 0f ef ff          	pxor   %xmm7,%xmm7
    25b3:	66 0f 2e c7          	ucomisd %xmm7,%xmm0
    25b7:	f2 0f 11 44 24 50    	movsd  %xmm0,0x50(%rsp)
    25bd:	5a                   	pop    %rdx
    25be:	59                   	pop    %rcx
    25bf:	0f 8a 76 01 00 00    	jp     273b <main+0x4eb>
    25c5:	66 0f ef c9          	pxor   %xmm1,%xmm1
    25c9:	0f 85 6c 01 00 00    	jne    273b <main+0x4eb>
    25cf:	f2 0f 11 4c 24 38    	movsd  %xmm1,0x38(%rsp)
    25d5:	48 83 ec 08          	sub    $0x8,%rsp
    25d9:	4c 89 e1             	mov    %r12,%rcx
    25dc:	4c 89 e2             	mov    %r12,%rdx
    25df:	48 8d 05 39 62 00 00 	lea    0x6239(%rip),%rax        # 881f <options.171.0+0x2f>
    25e6:	6a 06                	push   $0x6
    25e8:	48 89 ee             	mov    %rbp,%rsi
    25eb:	4c 8d 0d de ad 00 00 	lea    0xadde(%rip),%r9        # d3d0 <__ft_data_MOD_niter>
    25f2:	6a 09                	push   $0x9
    25f4:	4c 8d 05 dd 61 00 00 	lea    0x61dd(%rip),%r8        # 87d8 <_IO_stdin_used+0x7d8>
    25fb:	48 8d 3d 1a 62 00 00 	lea    0x621a(%rip),%rdi        # 881c <options.171.0+0x2c>
    2602:	6a 0c                	push   $0xc
    2604:	6a 06                	push   $0x6
    2606:	6a 06                	push   $0x6
    2608:	6a 05                	push   $0x5
    260a:	6a 08                	push   $0x8
    260c:	6a 0b                	push   $0xb
    260e:	6a 05                	push   $0x5
    2610:	6a 18                	push   $0x18
    2612:	6a 01                	push   $0x1
    2614:	6a 02                	push   $0x2
    2616:	50                   	push   %rax
    2617:	48 8d 05 08 62 00 00 	lea    0x6208(%rip),%rax        # 8826 <options.171.0+0x36>
    261e:	50                   	push   %rax
    261f:	48 8d 05 0a 62 00 00 	lea    0x620a(%rip),%rax        # 8830 <options.171.0+0x40>
    2626:	50                   	push   %rax
    2627:	48 8d 05 0f 62 00 00 	lea    0x620f(%rip),%rax        # 883d <options.171.0+0x4d>
    262e:	50                   	push   %rax
    262f:	50                   	push   %rax
    2630:	48 8d 05 0d 62 00 00 	lea    0x620d(%rip),%rax        # 8844 <options.171.0+0x54>
    2637:	50                   	push   %rax
    2638:	48 8d 05 0b 62 00 00 	lea    0x620b(%rip),%rax        # 884a <options.171.0+0x5a>
    263f:	50                   	push   %rax
    2640:	48 8d 05 0c 62 00 00 	lea    0x620c(%rip),%rax        # 8853 <options.171.0+0x63>
    2647:	50                   	push   %rax
    2648:	48 8d 05 10 62 00 00 	lea    0x6210(%rip),%rax        # 885f <options.171.0+0x6f>
    264f:	50                   	push   %rax
    2650:	48 8d 05 0e 62 00 00 	lea    0x620e(%rip),%rax        # 8865 <options.171.0+0x75>
    2657:	53                   	push   %rbx
    2658:	50                   	push   %rax
    2659:	48 8d 84 24 f8 00 00 	lea    0xf8(%rsp),%rax
    2660:	00 
    2661:	50                   	push   %rax
    2662:	ff b4 24 d0 00 00 00 	push   0xd0(%rsp)
    2669:	e8 42 48 00 00       	call   6eb0 <print_results_>
    266e:	8b 05 fc ab 00 00    	mov    0xabfc(%rip),%eax        # d270 <__ft_data_MOD_timers_enabled>
    2674:	48 81 c4 d0 00 00 00 	add    $0xd0,%rsp
    267b:	85 c0                	test   %eax,%eax
    267d:	0f 85 f6 00 00 00    	jne    2779 <main+0x529>
    2683:	48 81 c4 b8 00 00 00 	add    $0xb8,%rsp
    268a:	31 c0                	xor    %eax,%eax
    268c:	5b                   	pop    %rbx
    268d:	5d                   	pop    %rbp
    268e:	41 5c                	pop    %r12
    2690:	41 5d                	pop    %r13
    2692:	41 5e                	pop    %r14
    2694:	41 5f                	pop    %r15
    2696:	c3                   	ret    
    2697:	66 0f 1f 84 00 00 00 	nopw   0x0(%rax,%rax,1)
    269e:	00 00 
    26a0:	48 8d 3d 41 61 00 00 	lea    0x6141(%rip),%rdi        # 87e8 <_IO_stdin_used+0x7e8>
    26a7:	83 c3 01             	add    $0x1,%ebx
    26aa:	e8 f1 51 00 00       	call   78a0 <timer_stop_>
    26af:	89 5c 24 30          	mov    %ebx,0x30(%rsp)
    26b3:	39 5c 24 14          	cmp    %ebx,0x14(%rsp)
    26b7:	0f 8c a8 fe ff ff    	jl     2565 <main+0x315>
    26bd:	44 8b 1d ac ab 00 00 	mov    0xabac(%rip),%r11d        # d270 <__ft_data_MOD_timers_enabled>
    26c4:	45 85 db             	test   %r11d,%r11d
    26c7:	0f 84 63 fd ff ff    	je     2430 <main+0x1e0>
    26cd:	48 8d 3d 10 61 00 00 	lea    0x6110(%rip),%rdi        # 87e4 <_IO_stdin_used+0x7e4>
    26d4:	e8 a7 51 00 00       	call   7880 <timer_start_>
    26d9:	e9 52 fd ff ff       	jmp    2430 <main+0x1e0>
    26de:	66 90                	xchg   %ax,%ax
    26e0:	48 8d 3d fd 60 00 00 	lea    0x60fd(%rip),%rdi        # 87e4 <_IO_stdin_used+0x7e4>
    26e7:	e8 b4 51 00 00       	call   78a0 <timer_stop_>
    26ec:	44 8b 0d 7d ab 00 00 	mov    0xab7d(%rip),%r9d        # d270 <__ft_data_MOD_timers_enabled>
    26f3:	45 85 c9             	test   %r9d,%r9d
    26f6:	0f 84 0c fe ff ff    	je     2508 <main+0x2b8>
    26fc:	48 8d 3d dd 60 00 00 	lea    0x60dd(%rip),%rdi        # 87e0 <_IO_stdin_used+0x7e0>
    2703:	e8 78 51 00 00       	call   7880 <timer_start_>
    2708:	e9 fb fd ff ff       	jmp    2508 <main+0x2b8>
    270d:	0f 1f 00             	nopl   (%rax)
    2710:	48 8d 3d c9 60 00 00 	lea    0x60c9(%rip),%rdi        # 87e0 <_IO_stdin_used+0x7e0>
    2717:	e8 84 51 00 00       	call   78a0 <timer_stop_>
    271c:	8b 3d 4e ab 00 00    	mov    0xab4e(%rip),%edi        # d270 <__ft_data_MOD_timers_enabled>
    2722:	85 ff                	test   %edi,%edi
    2724:	0f 84 01 fe ff ff    	je     252b <main+0x2db>
    272a:	48 8d 3d b7 60 00 00 	lea    0x60b7(%rip),%rdi        # 87e8 <_IO_stdin_used+0x7e8>
    2731:	e8 4a 51 00 00       	call   7880 <timer_start_>
    2736:	e9 f0 fd ff ff       	jmp    252b <main+0x2db>
    273b:	66 0f ef c9          	pxor   %xmm1,%xmm1
    273f:	f2 0f 2a 0d 89 ac 00 	cvtsi2sdl 0xac89(%rip),%xmm1        # d3d0 <__ft_data_MOD_niter>
    2746:	00 
    2747:	f2 0f 59 0d f1 63 00 	mulsd  0x63f1(%rip),%xmm1        # 8b40 <options.171.0+0x350>
    274e:	00 
    274f:	f2 0f 58 0d f1 63 00 	addsd  0x63f1(%rip),%xmm1        # 8b48 <options.171.0+0x358>
    2756:	00 
    2757:	f2 0f 59 0d f1 63 00 	mulsd  0x63f1(%rip),%xmm1        # 8b50 <options.171.0+0x360>
    275e:	00 
    275f:	f2 0f 5e c8          	divsd  %xmm0,%xmm1
    2763:	e9 67 fe ff ff       	jmp    25cf <main+0x37f>
    2768:	48 8d 3d 6d 60 00 00 	lea    0x606d(%rip),%rdi        # 87dc <_IO_stdin_used+0x7dc>
    276f:	e8 0c 51 00 00       	call   7880 <timer_start_>
    2774:	e9 f3 fb ff ff       	jmp    236c <main+0x11c>
    2779:	e8 d2 0e 00 00       	call   3650 <print_timers_>
    277e:	e9 00 ff ff ff       	jmp    2683 <main+0x433>
    2783:	48 8d 3d 56 60 00 00 	lea    0x6056(%rip),%rdi        # 87e0 <_IO_stdin_used+0x7e0>
    278a:	e8 11 51 00 00       	call   78a0 <timer_stop_>
    278f:	e9 42 fc ff ff       	jmp    23d6 <main+0x186>
    2794:	48 8d 3d 41 60 00 00 	lea    0x6041(%rip),%rdi        # 87dc <_IO_stdin_used+0x7dc>
    279b:	e8 00 51 00 00       	call   78a0 <timer_stop_>
    27a0:	83 3d c9 aa 00 00 00 	cmpl   $0x0,0xaac9(%rip)        # d270 <__ft_data_MOD_timers_enabled>
    27a7:	0f 84 01 fc ff ff    	je     23ae <main+0x15e>
    27ad:	48 8d 3d 2c 60 00 00 	lea    0x602c(%rip),%rdi        # 87e0 <_IO_stdin_used+0x7e0>
    27b4:	e8 c7 50 00 00       	call   7880 <timer_start_>
    27b9:	e9 f0 fb ff ff       	jmp    23ae <main+0x15e>
    27be:	48 8d 44 24 40       	lea    0x40(%rsp),%rax
    27c3:	48 89 44 24 08       	mov    %rax,0x8(%rsp)
    27c8:	e9 98 fd ff ff       	jmp    2565 <main+0x315>
    27cd:	0f 1f 00             	nopl   (%rax)

00000000000027d0 <_start>:
    27d0:	f3 0f 1e fa          	endbr64 
    27d4:	31 ed                	xor    %ebp,%ebp
    27d6:	49 89 d1             	mov    %rdx,%r9
    27d9:	5e                   	pop    %rsi
    27da:	48 89 e2             	mov    %rsp,%rdx
    27dd:	48 83 e4 f0          	and    $0xfffffffffffffff0,%rsp
    27e1:	50                   	push   %rax
    27e2:	54                   	push   %rsp
    27e3:	45 31 c0             	xor    %r8d,%r8d
    27e6:	31 c9                	xor    %ecx,%ecx
    27e8:	48 8d 3d 61 fa ff ff 	lea    -0x59f(%rip),%rdi        # 2250 <main>
    27ef:	ff 15 fb 87 00 00    	call   *0x87fb(%rip)        # aff0 <__libc_start_main@GLIBC_2.34>
    27f5:	f4                   	hlt    
    27f6:	66 2e 0f 1f 84 00 00 	cs nopw 0x0(%rax,%rax,1)
    27fd:	00 00 00 

0000000000002800 <deregister_tm_clones>:
    2800:	48 8d 3d e9 88 00 00 	lea    0x88e9(%rip),%rdi        # b0f0 <__TMC_END__>
    2807:	48 8d 05 e2 88 00 00 	lea    0x88e2(%rip),%rax        # b0f0 <__TMC_END__>
    280e:	48 39 f8             	cmp    %rdi,%rax
    2811:	74 15                	je     2828 <deregister_tm_clones+0x28>
    2813:	48 8b 05 be 87 00 00 	mov    0x87be(%rip),%rax        # afd8 <_ITM_deregisterTMCloneTable@Base>
    281a:	48 85 c0             	test   %rax,%rax
    281d:	74 09                	je     2828 <deregister_tm_clones+0x28>
    281f:	ff e0                	jmp    *%rax
    2821:	0f 1f 80 00 00 00 00 	nopl   0x0(%rax)
    2828:	c3                   	ret    
    2829:	0f 1f 80 00 00 00 00 	nopl   0x0(%rax)

0000000000002830 <register_tm_clones>:
    2830:	48 8d 3d b9 88 00 00 	lea    0x88b9(%rip),%rdi        # b0f0 <__TMC_END__>
    2837:	48 8d 35 b2 88 00 00 	lea    0x88b2(%rip),%rsi        # b0f0 <__TMC_END__>
    283e:	48 29 fe             	sub    %rdi,%rsi
    2841:	48 89 f0             	mov    %rsi,%rax
    2844:	48 c1 ee 3f          	shr    $0x3f,%rsi
    2848:	48 c1 f8 03          	sar    $0x3,%rax
    284c:	48 01 c6             	add    %rax,%rsi
    284f:	48 d1 fe             	sar    %rsi
    2852:	74 14                	je     2868 <register_tm_clones+0x38>
    2854:	48 8b 05 85 87 00 00 	mov    0x8785(%rip),%rax        # afe0 <_ITM_registerTMCloneTable@Base>
    285b:	48 85 c0             	test   %rax,%rax
    285e:	74 08                	je     2868 <register_tm_clones+0x38>
    2860:	ff e0                	jmp    *%rax
    2862:	66 0f 1f 44 00 00    	nopw   0x0(%rax,%rax,1)
    2868:	c3                   	ret    
    2869:	0f 1f 80 00 00 00 00 	nopl   0x0(%rax)

0000000000002870 <__do_global_dtors_aux>:
    2870:	f3 0f 1e fa          	endbr64 
    2874:	80 3d 85 88 00 00 00 	cmpb   $0x0,0x8885(%rip)        # b100 <completed.0>
    287b:	75 2b                	jne    28a8 <__do_global_dtors_aux+0x38>
    287d:	55                   	push   %rbp
    287e:	48 83 3d 62 87 00 00 	cmpq   $0x0,0x8762(%rip)        # afe8 <__cxa_finalize@GLIBC_2.2.5>
    2885:	00 
    2886:	48 89 e5             	mov    %rsp,%rbp
    2889:	74 0c                	je     2897 <__do_global_dtors_aux+0x27>
    288b:	48 8b 3d 76 87 00 00 	mov    0x8776(%rip),%rdi        # b008 <__dso_handle>
    2892:	e8 a9 f9 ff ff       	call   2240 <__cxa_finalize@plt>
    2897:	e8 64 ff ff ff       	call   2800 <deregister_tm_clones>
    289c:	c6 05 5d 88 00 00 01 	movb   $0x1,0x885d(%rip)        # b100 <completed.0>
    28a3:	5d                   	pop    %rbp
    28a4:	c3                   	ret    
    28a5:	0f 1f 00             	nopl   (%rax)
    28a8:	c3                   	ret    
    28a9:	0f 1f 80 00 00 00 00 	nopl   0x0(%rax)

00000000000028b0 <frame_dummy>:
    28b0:	f3 0f 1e fa          	endbr64 
    28b4:	e9 77 ff ff ff       	jmp    2830 <register_tm_clones>
    28b9:	0f 1f 80 00 00 00 00 	nopl   0x0(%rax)

00000000000028c0 <checksum_._omp_fn.0>:
    28c0:	41 56                	push   %r14
    28c2:	41 55                	push   %r13
    28c4:	41 54                	push   %r12
    28c6:	55                   	push   %rbp
    28c7:	53                   	push   %rbx
    28c8:	48 89 fb             	mov    %rdi,%rbx
    28cb:	48 83 ec 10          	sub    $0x10,%rsp
    28cf:	48 8b 6f 18          	mov    0x18(%rdi),%rbp
    28d3:	4c 8b 67 10          	mov    0x10(%rdi),%r12
    28d7:	4c 8b 6f 08          	mov    0x8(%rdi),%r13
    28db:	e8 80 f7 ff ff       	call   2060 <omp_get_num_threads@plt>
    28e0:	41 89 c6             	mov    %eax,%r14d
    28e3:	e8 08 f8 ff ff       	call   20f0 <omp_get_thread_num@plt>
    28e8:	89 c6                	mov    %eax,%esi
    28ea:	b8 00 04 00 00       	mov    $0x400,%eax
    28ef:	99                   	cltd   
    28f0:	41 f7 fe             	idiv   %r14d
    28f3:	39 d6                	cmp    %edx,%esi
    28f5:	0f 8c d5 00 00 00    	jl     29d0 <checksum_._omp_fn.0+0x110>
    28fb:	0f af f0             	imul   %eax,%esi
    28fe:	66 0f ef c0          	pxor   %xmm0,%xmm0
    2902:	01 f2                	add    %esi,%edx
    2904:	01 d0                	add    %edx,%eax
    2906:	39 c2                	cmp    %eax,%edx
    2908:	0f 8d 8d 00 00 00    	jge    299b <checksum_._omp_fn.0+0xdb>
    290e:	48 8b 33             	mov    (%rbx),%rsi
    2911:	83 c2 01             	add    $0x1,%edx
    2914:	8d 48 01             	lea    0x1(%rax),%ecx
    2917:	66 0f 1f 84 00 00 00 	nopw   0x0(%rax,%rax,1)
    291e:	00 00 
    2920:	8d 04 92             	lea    (%rdx,%rdx,4),%eax
    2923:	89 c7                	mov    %eax,%edi
    2925:	c1 ff 1f             	sar    $0x1f,%edi
    2928:	c1 ef 17             	shr    $0x17,%edi
    292b:	01 f8                	add    %edi,%eax
    292d:	25 ff 01 00 00       	and    $0x1ff,%eax
    2932:	29 f8                	sub    %edi,%eax
    2934:	83 c0 01             	add    $0x1,%eax
    2937:	48 98                	cltq   
    2939:	49 0f af c4          	imul   %r12,%rax
    293d:	48 8d 3c 28          	lea    (%rax,%rbp,1),%rdi
    2941:	8d 04 52             	lea    (%rdx,%rdx,2),%eax
    2944:	41 89 c0             	mov    %eax,%r8d
    2947:	41 c1 f8 1f          	sar    $0x1f,%r8d
    294b:	41 c1 e8 17          	shr    $0x17,%r8d
    294f:	44 01 c0             	add    %r8d,%eax
    2952:	25 ff 01 00 00       	and    $0x1ff,%eax
    2957:	44 29 c0             	sub    %r8d,%eax
    295a:	41 89 d0             	mov    %edx,%r8d
    295d:	83 c0 01             	add    $0x1,%eax
    2960:	41 c1 f8 1f          	sar    $0x1f,%r8d
    2964:	48 98                	cltq   
    2966:	41 c1 e8 17          	shr    $0x17,%r8d
    296a:	49 0f af c5          	imul   %r13,%rax
    296e:	48 01 f8             	add    %rdi,%rax
    2971:	42 8d 3c 02          	lea    (%rdx,%r8,1),%edi
    2975:	83 c2 01             	add    $0x1,%edx
    2978:	81 e7 ff 01 00 00    	and    $0x1ff,%edi
    297e:	44 29 c7             	sub    %r8d,%edi
    2981:	83 c7 01             	add    $0x1,%edi
    2984:	48 63 ff             	movslq %edi,%rdi
    2987:	48 01 f8             	add    %rdi,%rax
    298a:	48 c1 e0 04          	shl    $0x4,%rax
    298e:	66 0f 10 0c 06       	movupd (%rsi,%rax,1),%xmm1
    2993:	66 0f 58 c1          	addpd  %xmm1,%xmm0
    2997:	39 ca                	cmp    %ecx,%edx
    2999:	75 85                	jne    2920 <checksum_._omp_fn.0+0x60>
    299b:	0f 29 04 24          	movaps %xmm0,(%rsp)
    299f:	e8 cc f7 ff ff       	call   2170 <GOMP_atomic_start@plt>
    29a4:	66 0f 10 53 20       	movupd 0x20(%rbx),%xmm2
    29a9:	66 0f 28 04 24       	movapd (%rsp),%xmm0
    29ae:	66 0f 58 c2          	addpd  %xmm2,%xmm0
    29b2:	0f 11 43 20          	movups %xmm0,0x20(%rbx)
    29b6:	48 83 c4 10          	add    $0x10,%rsp
    29ba:	5b                   	pop    %rbx
    29bb:	5d                   	pop    %rbp
    29bc:	41 5c                	pop    %r12
    29be:	41 5d                	pop    %r13
    29c0:	41 5e                	pop    %r14
    29c2:	e9 59 f7 ff ff       	jmp    2120 <GOMP_atomic_end@plt>
    29c7:	66 0f 1f 84 00 00 00 	nopw   0x0(%rax,%rax,1)
    29ce:	00 00 
    29d0:	83 c0 01             	add    $0x1,%eax
    29d3:	31 d2                	xor    %edx,%edx
    29d5:	e9 21 ff ff ff       	jmp    28fb <checksum_._omp_fn.0+0x3b>
    29da:	66 0f 1f 44 00 00    	nopw   0x0(%rax,%rax,1)

00000000000029e0 <evolve_._omp_fn.0>:
    29e0:	41 57                	push   %r15
    29e2:	41 56                	push   %r14
    29e4:	41 55                	push   %r13
    29e6:	41 54                	push   %r12
    29e8:	55                   	push   %rbp
    29e9:	53                   	push   %rbx
    29ea:	48 81 ec 98 00 00 00 	sub    $0x98,%rsp
    29f1:	44 8b 7f 6c          	mov    0x6c(%rdi),%r15d
    29f5:	8b 5f 68             	mov    0x68(%rdi),%ebx
    29f8:	44 89 7c 24 70       	mov    %r15d,0x70(%rsp)
    29fd:	85 db                	test   %ebx,%ebx
    29ff:	0f 8e 2b 03 00 00    	jle    2d30 <evolve_._omp_fn.0+0x350>
    2a05:	45 85 ff             	test   %r15d,%r15d
    2a08:	0f 8e 22 03 00 00    	jle    2d30 <evolve_._omp_fn.0+0x350>
    2a0e:	48 89 fd             	mov    %rdi,%rbp
    2a11:	e8 4a f6 ff ff       	call   2060 <omp_get_num_threads@plt>
    2a16:	41 89 c4             	mov    %eax,%r12d
    2a19:	e8 d2 f6 ff ff       	call   20f0 <omp_get_thread_num@plt>
    2a1e:	31 d2                	xor    %edx,%edx
    2a20:	89 c6                	mov    %eax,%esi
    2a22:	89 d8                	mov    %ebx,%eax
    2a24:	41 0f af c7          	imul   %r15d,%eax
    2a28:	41 f7 f4             	div    %r12d
    2a2b:	89 c1                	mov    %eax,%ecx
    2a2d:	39 d6                	cmp    %edx,%esi
    2a2f:	0f 82 b4 03 00 00    	jb     2de9 <evolve_._omp_fn.0+0x409>
    2a35:	0f af f1             	imul   %ecx,%esi
    2a38:	8d 04 16             	lea    (%rsi,%rdx,1),%eax
    2a3b:	8d 14 01             	lea    (%rcx,%rax,1),%edx
    2a3e:	39 d0                	cmp    %edx,%eax
    2a40:	0f 83 ea 02 00 00    	jae    2d30 <evolve_._omp_fn.0+0x350>
    2a46:	31 d2                	xor    %edx,%edx
    2a48:	48 8b 5d 60          	mov    0x60(%rbp),%rbx
    2a4c:	4c 8b 55 00          	mov    0x0(%rbp),%r10
    2a50:	f7 74 24 70          	divl   0x70(%rsp)
    2a54:	48 89 5c 24 10       	mov    %rbx,0x10(%rsp)
    2a59:	48 8b 5d 58          	mov    0x58(%rbp),%rbx
    2a5d:	48 89 5c 24 38       	mov    %rbx,0x38(%rsp)
    2a62:	48 8b 5d 50          	mov    0x50(%rbp),%rbx
    2a66:	48 89 5c 24 40       	mov    %rbx,0x40(%rsp)
    2a6b:	48 8b 5d 48          	mov    0x48(%rbp),%rbx
    2a6f:	48 89 5c 24 18       	mov    %rbx,0x18(%rsp)
    2a74:	48 8b 5d 40          	mov    0x40(%rbp),%rbx
    2a78:	48 89 5c 24 48       	mov    %rbx,0x48(%rsp)
    2a7d:	48 8b 5d 38          	mov    0x38(%rbp),%rbx
    2a81:	48 89 5c 24 50       	mov    %rbx,0x50(%rsp)
    2a86:	48 8b 5d 30          	mov    0x30(%rbp),%rbx
    2a8a:	48 89 5c 24 58       	mov    %rbx,0x58(%rsp)
    2a8f:	48 8b 5d 28          	mov    0x28(%rbp),%rbx
    2a93:	48 89 5c 24 60       	mov    %rbx,0x60(%rsp)
    2a98:	48 8b 5d 20          	mov    0x20(%rbp),%rbx
    2a9c:	48 89 5c 24 68       	mov    %rbx,0x68(%rsp)
    2aa1:	8d 5a 01             	lea    0x1(%rdx),%ebx
    2aa4:	8d 50 01             	lea    0x1(%rax),%edx
    2aa7:	48 8b 45 18          	mov    0x18(%rbp),%rax
    2aab:	89 5c 24 20          	mov    %ebx,0x20(%rsp)
    2aaf:	48 8b 5d 10          	mov    0x10(%rbp),%rbx
    2ab3:	8b 30                	mov    (%rax),%esi
    2ab5:	48 8b 6d 08          	mov    0x8(%rbp),%rbp
    2ab9:	89 54 24 7c          	mov    %edx,0x7c(%rsp)
    2abd:	89 74 24 2c          	mov    %esi,0x2c(%rsp)
    2ac1:	85 f6                	test   %esi,%esi
    2ac3:	0f 8e 67 02 00 00    	jle    2d30 <evolve_._omp_fn.0+0x350>
    2ac9:	8d 41 ff             	lea    -0x1(%rcx),%eax
    2acc:	c7 44 24 24 00 00 00 	movl   $0x0,0x24(%rsp)
    2ad3:	00 
    2ad4:	41 89 f1             	mov    %esi,%r9d
    2ad7:	66 0f ef db          	pxor   %xmm3,%xmm3
    2adb:	89 44 24 74          	mov    %eax,0x74(%rsp)
    2adf:	89 f0                	mov    %esi,%eax
    2ae1:	41 83 c9 01          	or     $0x1,%r9d
    2ae5:	d1 e8                	shr    %eax
    2ae7:	83 e8 01             	sub    $0x1,%eax
    2aea:	48 83 c0 01          	add    $0x1,%rax
    2aee:	48 c1 e0 04          	shl    $0x4,%rax
    2af2:	49 89 c7             	mov    %rax,%r15
    2af5:	89 f0                	mov    %esi,%eax
    2af7:	83 e0 fe             	and    $0xfffffffe,%eax
    2afa:	89 44 24 78          	mov    %eax,0x78(%rsp)
    2afe:	48 63 c2             	movslq %edx,%rax
    2b01:	48 89 44 24 30       	mov    %rax,0x30(%rsp)
    2b06:	48 63 c6             	movslq %esi,%rax
    2b09:	48 83 c0 01          	add    $0x1,%rax
    2b0d:	48 89 44 24 08       	mov    %rax,0x8(%rsp)
    2b12:	8d 46 ff             	lea    -0x1(%rsi),%eax
    2b15:	48 89 84 24 80 00 00 	mov    %rax,0x80(%rsp)
    2b1c:	00 
    2b1d:	48 8d 43 10          	lea    0x10(%rbx),%rax
    2b21:	48 89 84 24 88 00 00 	mov    %rax,0x88(%rsp)
    2b28:	00 
    2b29:	0f 1f 80 00 00 00 00 	nopl   0x0(%rax)
    2b30:	48 8b 54 24 30       	mov    0x30(%rsp),%rdx
    2b35:	48 63 7c 24 20       	movslq 0x20(%rsp),%rdi
    2b3a:	4c 8b 5c 24 60       	mov    0x60(%rsp),%r11
    2b3f:	4c 8b 64 24 68       	mov    0x68(%rsp),%r12
    2b44:	48 8b 4c 24 48       	mov    0x48(%rsp),%rcx
    2b49:	4c 8b 74 24 58       	mov    0x58(%rsp),%r14
    2b4e:	4c 0f af e7          	imul   %rdi,%r12
    2b52:	4c 8b 6c 24 50       	mov    0x50(%rsp),%r13
    2b57:	4c 8b 44 24 38       	mov    0x38(%rsp),%r8
    2b5c:	4c 0f af da          	imul   %rdx,%r11
    2b60:	48 8b 44 24 18       	mov    0x18(%rsp),%rax
    2b65:	48 0f af ca          	imul   %rdx,%rcx
    2b69:	4c 0f af c2          	imul   %rdx,%r8
    2b6d:	48 8b 54 24 10       	mov    0x10(%rsp),%rdx
    2b72:	4c 0f af ef          	imul   %rdi,%r13
    2b76:	4b 8d 34 1e          	lea    (%r14,%r11,1),%rsi
    2b7a:	4d 01 e3             	add    %r12,%r11
    2b7d:	4d 01 f3             	add    %r14,%r11
    2b80:	48 0f af 7c 24 40    	imul   0x40(%rsp),%rdi
    2b86:	48 01 c8             	add    %rcx,%rax
    2b89:	4c 01 e6             	add    %r12,%rsi
    2b8c:	4c 8b 74 24 08       	mov    0x8(%rsp),%r14
    2b91:	4c 01 c2             	add    %r8,%rdx
    2b94:	4c 01 e8             	add    %r13,%rax
    2b97:	49 01 cd             	add    %rcx,%r13
    2b9a:	4c 03 6c 24 18       	add    0x18(%rsp),%r13
    2b9f:	4f 8d 24 1e          	lea    (%r14,%r11,1),%r12
    2ba3:	48 01 fa             	add    %rdi,%rdx
    2ba6:	4e 8d 5c db 08       	lea    0x8(%rbx,%r11,8),%r11
    2bab:	4c 01 c7             	add    %r8,%rdi
    2bae:	4e 8d 34 e3          	lea    (%rbx,%r12,8),%r14
    2bb2:	48 03 7c 24 10       	add    0x10(%rsp),%rdi
    2bb7:	4d 8d 65 01          	lea    0x1(%r13),%r12
    2bbb:	4c 03 6c 24 08       	add    0x8(%rsp),%r13
    2bc0:	4c 8d 47 01          	lea    0x1(%rdi),%r8
    2bc4:	49 c1 e5 04          	shl    $0x4,%r13
    2bc8:	49 c1 e4 04          	shl    $0x4,%r12
    2bcc:	49 c1 e0 04          	shl    $0x4,%r8
    2bd0:	4d 01 d5             	add    %r10,%r13
    2bd3:	4b 8d 0c 22          	lea    (%r10,%r12,1),%rcx
    2bd7:	49 01 e8             	add    %rbp,%r8
    2bda:	4d 39 eb             	cmp    %r13,%r11
    2bdd:	0f 93 44 24 2b       	setae  0x2b(%rsp)
    2be2:	4c 39 f1             	cmp    %r14,%rcx
    2be5:	41 0f 93 c5          	setae  %r13b
    2be9:	48 03 7c 24 08       	add    0x8(%rsp),%rdi
    2bee:	44 0a 6c 24 2b       	or     0x2b(%rsp),%r13b
    2bf3:	48 c1 e7 04          	shl    $0x4,%rdi
    2bf7:	48 01 ef             	add    %rbp,%rdi
    2bfa:	49 39 fb             	cmp    %rdi,%r11
    2bfd:	40 0f 93 c7          	setae  %dil
    2c01:	4d 39 f0             	cmp    %r14,%r8
    2c04:	41 0f 93 c6          	setae  %r14b
    2c08:	44 09 f7             	or     %r14d,%edi
    2c0b:	44 21 ef             	and    %r13d,%edi
    2c0e:	83 7c 24 2c 01       	cmpl   $0x1,0x2c(%rsp)
    2c13:	41 0f 95 c5          	setne  %r13b
    2c17:	44 84 ef             	test   %r13b,%dil
    2c1a:	0f 84 28 01 00 00    	je     2d48 <evolve_._omp_fn.0+0x368>
    2c20:	4b 8d 7c 22 10       	lea    0x10(%r10,%r12,1),%rdi
    2c25:	4d 89 c4             	mov    %r8,%r12
    2c28:	49 29 fc             	sub    %rdi,%r12
    2c2b:	31 ff                	xor    %edi,%edi
    2c2d:	49 83 c4 08          	add    $0x8,%r12
    2c31:	49 83 fc 10          	cmp    $0x10,%r12
    2c35:	0f 86 0d 01 00 00    	jbe    2d48 <evolve_._omp_fn.0+0x368>
    2c3b:	0f 1f 44 00 00       	nopl   0x0(%rax,%rax,1)
    2c40:	66 0f 10 0c 79       	movupd (%rcx,%rdi,2),%xmm1
    2c45:	66 0f 10 54 79 10    	movupd 0x10(%rcx,%rdi,2),%xmm2
    2c4b:	66 0f 12 54 79 08    	movlpd 0x8(%rcx,%rdi,2),%xmm2
    2c51:	66 41 0f 10 04 3b    	movupd (%r11,%rdi,1),%xmm0
    2c57:	66 41 0f 10 2c 3b    	movupd (%r11,%rdi,1),%xmm5
    2c5d:	66 0f 16 4c 79 10    	movhpd 0x10(%rcx,%rdi,2),%xmm1
    2c63:	66 0f 59 c1          	mulpd  %xmm1,%xmm0
    2c67:	66 0f 28 e2          	movapd %xmm2,%xmm4
    2c6b:	66 0f 59 e3          	mulpd  %xmm3,%xmm4
    2c6f:	66 0f 59 d5          	mulpd  %xmm5,%xmm2
    2c73:	66 0f 59 cb          	mulpd  %xmm3,%xmm1
    2c77:	66 0f 5c c4          	subpd  %xmm4,%xmm0
    2c7b:	66 0f 58 ca          	addpd  %xmm2,%xmm1
    2c7f:	66 0f 28 d0          	movapd %xmm0,%xmm2
    2c83:	66 0f 14 d1          	unpcklpd %xmm1,%xmm2
    2c87:	66 0f 15 c1          	unpckhpd %xmm1,%xmm0
    2c8b:	0f 11 14 79          	movups %xmm2,(%rcx,%rdi,2)
    2c8f:	0f 11 44 79 10       	movups %xmm0,0x10(%rcx,%rdi,2)
    2c94:	41 0f 11 14 78       	movups %xmm2,(%r8,%rdi,2)
    2c99:	41 0f 11 44 78 10    	movups %xmm0,0x10(%r8,%rdi,2)
    2c9f:	48 83 c7 10          	add    $0x10,%rdi
    2ca3:	4c 39 ff             	cmp    %r15,%rdi
    2ca6:	75 98                	jne    2c40 <evolve_._omp_fn.0+0x260>
    2ca8:	8b 7c 24 78          	mov    0x78(%rsp),%edi
    2cac:	39 7c 24 2c          	cmp    %edi,0x2c(%rsp)
    2cb0:	74 4f                	je     2d01 <evolve_._omp_fn.0+0x321>
    2cb2:	4c 01 c8             	add    %r9,%rax
    2cb5:	4c 01 ce             	add    %r9,%rsi
    2cb8:	4c 01 ca             	add    %r9,%rdx
    2cbb:	48 c1 e0 04          	shl    $0x4,%rax
    2cbf:	f2 0f 10 24 f3       	movsd  (%rbx,%rsi,8),%xmm4
    2cc4:	48 c1 e2 04          	shl    $0x4,%rdx
    2cc8:	4c 01 d0             	add    %r10,%rax
    2ccb:	f2 0f 10 40 08       	movsd  0x8(%rax),%xmm0
    2cd0:	f2 0f 10 08          	movsd  (%rax),%xmm1
    2cd4:	66 0f 10 10          	movupd (%rax),%xmm2
    2cd8:	f2 0f 59 cc          	mulsd  %xmm4,%xmm1
    2cdc:	f2 0f 59 c4          	mulsd  %xmm4,%xmm0
    2ce0:	66 0f 59 d3          	mulpd  %xmm3,%xmm2
    2ce4:	66 0f 14 c1          	unpcklpd %xmm1,%xmm0
    2ce8:	66 0f 28 c8          	movapd %xmm0,%xmm1
    2cec:	66 0f 58 c2          	addpd  %xmm2,%xmm0
    2cf0:	66 0f 5c ca          	subpd  %xmm2,%xmm1
    2cf4:	66 0f c6 c8 01       	shufpd $0x1,%xmm0,%xmm1
    2cf9:	0f 11 08             	movups %xmm1,(%rax)
    2cfc:	0f 11 4c 15 00       	movups %xmm1,0x0(%rbp,%rdx,1)
    2d01:	8b 74 24 74          	mov    0x74(%rsp),%esi
    2d05:	39 74 24 24          	cmp    %esi,0x24(%rsp)
    2d09:	74 25                	je     2d30 <evolve_._omp_fn.0+0x350>
    2d0b:	8b 74 24 20          	mov    0x20(%rsp),%esi
    2d0f:	8d 46 01             	lea    0x1(%rsi),%eax
    2d12:	3b 74 24 70          	cmp    0x70(%rsp),%esi
    2d16:	0f 8d b4 00 00 00    	jge    2dd0 <evolve_._omp_fn.0+0x3f0>
    2d1c:	83 44 24 24 01       	addl   $0x1,0x24(%rsp)
    2d21:	89 44 24 20          	mov    %eax,0x20(%rsp)
    2d25:	e9 06 fe ff ff       	jmp    2b30 <evolve_._omp_fn.0+0x150>
    2d2a:	66 0f 1f 44 00 00    	nopw   0x0(%rax,%rax,1)
    2d30:	48 81 c4 98 00 00 00 	add    $0x98,%rsp
    2d37:	5b                   	pop    %rbx
    2d38:	5d                   	pop    %rbp
    2d39:	41 5c                	pop    %r12
    2d3b:	41 5d                	pop    %r13
    2d3d:	41 5e                	pop    %r14
    2d3f:	41 5f                	pop    %r15
    2d41:	c3                   	ret    
    2d42:	66 0f 1f 44 00 00    	nopw   0x0(%rax,%rax,1)
    2d48:	48 8b bc 24 88 00 00 	mov    0x88(%rsp),%rdi
    2d4f:	00 
    2d50:	48 83 c2 01          	add    $0x1,%rdx
    2d54:	48 c1 e0 04          	shl    $0x4,%rax
    2d58:	48 8d 4c f3 08       	lea    0x8(%rbx,%rsi,8),%rcx
    2d5d:	48 c1 e2 04          	shl    $0x4,%rdx
    2d61:	48 03 b4 24 80 00 00 	add    0x80(%rsp),%rsi
    2d68:	00 
    2d69:	4c 01 d0             	add    %r10,%rax
    2d6c:	48 01 ea             	add    %rbp,%rdx
    2d6f:	48 8d 34 f7          	lea    (%rdi,%rsi,8),%rsi
    2d73:	0f 1f 44 00 00       	nopl   0x0(%rax,%rax,1)
    2d78:	f2 0f 10 21          	movsd  (%rcx),%xmm4
    2d7c:	48 83 c1 08          	add    $0x8,%rcx
    2d80:	48 83 c0 10          	add    $0x10,%rax
    2d84:	f2 0f 10 08          	movsd  (%rax),%xmm1
    2d88:	f2 0f 10 40 08       	movsd  0x8(%rax),%xmm0
    2d8d:	66 0f 10 10          	movupd (%rax),%xmm2
    2d91:	48 83 c2 10          	add    $0x10,%rdx
    2d95:	f2 0f 59 cc          	mulsd  %xmm4,%xmm1
    2d99:	f2 0f 59 c4          	mulsd  %xmm4,%xmm0
    2d9d:	66 0f 59 d3          	mulpd  %xmm3,%xmm2
    2da1:	66 0f 14 c1          	unpcklpd %xmm1,%xmm0
    2da5:	66 0f 28 c8          	movapd %xmm0,%xmm1
    2da9:	66 0f 58 c2          	addpd  %xmm2,%xmm0
    2dad:	66 0f 5c ca          	subpd  %xmm2,%xmm1
    2db1:	66 0f c6 c8 01       	shufpd $0x1,%xmm0,%xmm1
    2db6:	0f 11 08             	movups %xmm1,(%rax)
    2db9:	0f 11 4a f0          	movups %xmm1,-0x10(%rdx)
    2dbd:	48 39 f1             	cmp    %rsi,%rcx
    2dc0:	75 b6                	jne    2d78 <evolve_._omp_fn.0+0x398>
    2dc2:	e9 3a ff ff ff       	jmp    2d01 <evolve_._omp_fn.0+0x321>
    2dc7:	66 0f 1f 84 00 00 00 	nopw   0x0(%rax,%rax,1)
    2dce:	00 00 
    2dd0:	83 44 24 7c 01       	addl   $0x1,0x7c(%rsp)
    2dd5:	48 63 74 24 7c       	movslq 0x7c(%rsp),%rsi
    2dda:	b8 01 00 00 00       	mov    $0x1,%eax
    2ddf:	48 89 74 24 30       	mov    %rsi,0x30(%rsp)
    2de4:	e9 33 ff ff ff       	jmp    2d1c <evolve_._omp_fn.0+0x33c>
    2de9:	83 c1 01             	add    $0x1,%ecx
    2dec:	31 d2                	xor    %edx,%edx
    2dee:	e9 42 fc ff ff       	jmp    2a35 <evolve_._omp_fn.0+0x55>
    2df3:	66 66 2e 0f 1f 84 00 	data16 cs nopw 0x0(%rax,%rax,1)
    2dfa:	00 00 00 00 
    2dfe:	66 90                	xchg   %ax,%ax

0000000000002e00 <compute_initial_conditions_._omp_fn.0>:
    2e00:	41 57                	push   %r15
    2e02:	41 56                	push   %r14
    2e04:	41 55                	push   %r13
    2e06:	41 54                	push   %r12
    2e08:	55                   	push   %rbp
    2e09:	53                   	push   %rbx
    2e0a:	48 89 fb             	mov    %rdi,%rbx
    2e0d:	48 83 ec 58          	sub    $0x58,%rsp
    2e11:	e8 4a f2 ff ff       	call   2060 <omp_get_num_threads@plt>
    2e16:	89 c5                	mov    %eax,%ebp
    2e18:	e8 d3 f2 ff ff       	call   20f0 <omp_get_thread_num@plt>
    2e1d:	89 c1                	mov    %eax,%ecx
    2e1f:	8b 43 28             	mov    0x28(%rbx),%eax
    2e22:	99                   	cltd   
    2e23:	f7 fd                	idiv   %ebp
    2e25:	39 d1                	cmp    %edx,%ecx
    2e27:	0f 8c 0a 01 00 00    	jl     2f37 <compute_initial_conditions_._omp_fn.0+0x137>
    2e2d:	0f af c8             	imul   %eax,%ecx
    2e30:	01 ca                	add    %ecx,%edx
    2e32:	8d 0c 10             	lea    (%rax,%rdx,1),%ecx
    2e35:	39 ca                	cmp    %ecx,%edx
    2e37:	0f 8d eb 00 00 00    	jge    2f28 <compute_initial_conditions_._omp_fn.0+0x128>
    2e3d:	8d 4a 01             	lea    0x1(%rdx),%ecx
    2e40:	83 e8 01             	sub    $0x1,%eax
    2e43:	48 63 d2             	movslq %edx,%rdx
    2e46:	48 63 c9             	movslq %ecx,%rcx
    2e49:	48 01 d0             	add    %rdx,%rax
    2e4c:	4c 8d 7c 24 48       	lea    0x48(%rsp),%r15
    2e51:	48 8d 79 ff          	lea    -0x1(%rcx),%rdi
    2e55:	48 89 44 24 28       	mov    %rax,0x28(%rsp)
    2e5a:	48 8b 43 10          	mov    0x10(%rbx),%rax
    2e5e:	4c 8d 35 ab 51 00 00 	lea    0x51ab(%rip),%r14        # 8010 <_IO_stdin_used+0x10>
    2e65:	48 89 7c 24 18       	mov    %rdi,0x18(%rsp)
    2e6a:	48 8b 7b 18          	mov    0x18(%rbx),%rdi
    2e6e:	4c 8d 2d a3 51 00 00 	lea    0x51a3(%rip),%r13        # 8018 <_IO_stdin_used+0x18>
    2e75:	48 c1 e0 04          	shl    $0x4,%rax
    2e79:	48 0f af cf          	imul   %rdi,%rcx
    2e7d:	48 89 44 24 10       	mov    %rax,0x10(%rsp)
    2e82:	48 03 4b 20          	add    0x20(%rbx),%rcx
    2e86:	48 83 c0 10          	add    $0x10,%rax
    2e8a:	48 89 7c 24 30       	mov    %rdi,0x30(%rsp)
    2e8f:	48 89 4c 24 20       	mov    %rcx,0x20(%rsp)
    2e94:	48 89 44 24 38       	mov    %rax,0x38(%rsp)
    2e99:	0f 1f 80 00 00 00 00 	nopl   0x0(%rax)
    2ea0:	48 8b 43 08          	mov    0x8(%rbx),%rax
    2ea4:	48 8b 74 24 18       	mov    0x18(%rsp),%rsi
    2ea9:	f2 0f 10 04 f0       	movsd  (%rax,%rsi,8),%xmm0
    2eae:	8b 05 30 a5 00 00    	mov    0xa530(%rip),%eax        # d3e4 <__ft_data_MOD_dims+0x4>
    2eb4:	f2 0f 11 44 24 48    	movsd  %xmm0,0x48(%rsp)
    2eba:	89 44 24 0c          	mov    %eax,0xc(%rsp)
    2ebe:	85 c0                	test   %eax,%eax
    2ec0:	7e 66                	jle    2f28 <compute_initial_conditions_._omp_fn.0+0x128>
    2ec2:	48 8b 44 24 20       	mov    0x20(%rsp),%rax
    2ec7:	48 8b 7c 24 38       	mov    0x38(%rsp),%rdi
    2ecc:	41 bc 01 00 00 00    	mov    $0x1,%r12d
    2ed2:	48 c1 e0 04          	shl    $0x4,%rax
    2ed6:	48 8d 2c 07          	lea    (%rdi,%rax,1),%rbp
    2eda:	66 0f 1f 44 00 00    	nopw   0x0(%rax,%rax,1)
    2ee0:	48 8b 0b             	mov    (%rbx),%rcx
    2ee3:	4c 89 f2             	mov    %r14,%rdx
    2ee6:	4c 89 fe             	mov    %r15,%rsi
    2ee9:	4c 89 ef             	mov    %r13,%rdi
    2eec:	41 83 c4 01          	add    $0x1,%r12d
    2ef0:	48 01 e9             	add    %rbp,%rcx
    2ef3:	e8 28 3f 00 00       	call   6e20 <vranlc_>
    2ef8:	48 03 6c 24 10       	add    0x10(%rsp),%rbp
    2efd:	44 39 64 24 0c       	cmp    %r12d,0xc(%rsp)
    2f02:	7d dc                	jge    2ee0 <compute_initial_conditions_._omp_fn.0+0xe0>
    2f04:	48 8b 74 24 18       	mov    0x18(%rsp),%rsi
    2f09:	48 39 74 24 28       	cmp    %rsi,0x28(%rsp)
    2f0e:	74 18                	je     2f28 <compute_initial_conditions_._omp_fn.0+0x128>
    2f10:	48 8b 54 24 30       	mov    0x30(%rsp),%rdx
    2f15:	48 83 44 24 18 01    	addq   $0x1,0x18(%rsp)
    2f1b:	48 01 54 24 20       	add    %rdx,0x20(%rsp)
    2f20:	e9 7b ff ff ff       	jmp    2ea0 <compute_initial_conditions_._omp_fn.0+0xa0>
    2f25:	0f 1f 00             	nopl   (%rax)
    2f28:	48 83 c4 58          	add    $0x58,%rsp
    2f2c:	5b                   	pop    %rbx
    2f2d:	5d                   	pop    %rbp
    2f2e:	41 5c                	pop    %r12
    2f30:	41 5d                	pop    %r13
    2f32:	41 5e                	pop    %r14
    2f34:	41 5f                	pop    %r15
    2f36:	c3                   	ret    
    2f37:	83 c0 01             	add    $0x1,%eax
    2f3a:	31 d2                	xor    %edx,%edx
    2f3c:	e9 ec fe ff ff       	jmp    2e2d <compute_initial_conditions_._omp_fn.0+0x2d>
    2f41:	66 66 2e 0f 1f 84 00 	data16 cs nopw 0x0(%rax,%rax,1)
    2f48:	00 00 00 00 
    2f4c:	0f 1f 40 00          	nopl   0x0(%rax)

0000000000002f50 <compute_indexmap_._omp_fn.0>:
    2f50:	41 57                	push   %r15
    2f52:	41 56                	push   %r14
    2f54:	41 55                	push   %r13
    2f56:	41 54                	push   %r12
    2f58:	55                   	push   %rbp
    2f59:	53                   	push   %rbx
    2f5a:	48 81 ec b8 00 00 00 	sub    $0xb8,%rsp
    2f61:	44 8b 77 2c          	mov    0x2c(%rdi),%r14d
    2f65:	8b 6f 28             	mov    0x28(%rdi),%ebp
    2f68:	44 89 74 24 64       	mov    %r14d,0x64(%rsp)
    2f6d:	85 ed                	test   %ebp,%ebp
    2f6f:	0f 8e 53 03 00 00    	jle    32c8 <compute_indexmap_._omp_fn.0+0x378>
    2f75:	45 85 f6             	test   %r14d,%r14d
    2f78:	0f 8e 4a 03 00 00    	jle    32c8 <compute_indexmap_._omp_fn.0+0x378>
    2f7e:	48 89 fb             	mov    %rdi,%rbx
    2f81:	e8 da f0 ff ff       	call   2060 <omp_get_num_threads@plt>
    2f86:	41 89 c4             	mov    %eax,%r12d
    2f89:	e8 62 f1 ff ff       	call   20f0 <omp_get_thread_num@plt>
    2f8e:	31 d2                	xor    %edx,%edx
    2f90:	89 c1                	mov    %eax,%ecx
    2f92:	89 e8                	mov    %ebp,%eax
    2f94:	41 0f af c6          	imul   %r14d,%eax
    2f98:	41 f7 f4             	div    %r12d
    2f9b:	89 c6                	mov    %eax,%esi
    2f9d:	39 d1                	cmp    %edx,%ecx
    2f9f:	0f 82 73 03 00 00    	jb     3318 <compute_indexmap_._omp_fn.0+0x3c8>
    2fa5:	0f af ce             	imul   %esi,%ecx
    2fa8:	8d 04 11             	lea    (%rcx,%rdx,1),%eax
    2fab:	8d 14 06             	lea    (%rsi,%rax,1),%edx
    2fae:	39 d0                	cmp    %edx,%eax
    2fb0:	0f 83 12 03 00 00    	jae    32c8 <compute_indexmap_._omp_fn.0+0x378>
    2fb6:	31 d2                	xor    %edx,%edx
    2fb8:	48 8b 7b 18          	mov    0x18(%rbx),%rdi
    2fbc:	48 8b 4b 20          	mov    0x20(%rbx),%rcx
    2fc0:	f7 74 24 64          	divl   0x64(%rsp)
    2fc4:	f2 0f 10 73 08       	movsd  0x8(%rbx),%xmm6
    2fc9:	4c 8b 33             	mov    (%rbx),%r14
    2fcc:	48 89 7c 24 78       	mov    %rdi,0x78(%rsp)
    2fd1:	48 8b 7b 10          	mov    0x10(%rbx),%rdi
    2fd5:	48 89 4c 24 70       	mov    %rcx,0x70(%rsp)
    2fda:	48 89 bc 24 80 00 00 	mov    %rdi,0x80(%rsp)
    2fe1:	00 
    2fe2:	8b 3d f8 a3 00 00    	mov    0xa3f8(%rip),%edi        # d3e0 <__ft_data_MOD_dims>
    2fe8:	f2 0f 11 74 24 50    	movsd  %xmm6,0x50(%rsp)
    2fee:	89 7c 24 60          	mov    %edi,0x60(%rsp)
    2ff2:	44 8d 40 01          	lea    0x1(%rax),%r8d
    2ff6:	44 8d 6a 01          	lea    0x1(%rdx),%r13d
    2ffa:	44 89 84 24 ac 00 00 	mov    %r8d,0xac(%rsp)
    3001:	00 
    3002:	85 ff                	test   %edi,%edi
    3004:	0f 8e be 02 00 00    	jle    32c8 <compute_indexmap_._omp_fn.0+0x378>
    300a:	89 fa                	mov    %edi,%edx
    300c:	83 ee 01             	sub    $0x1,%esi
    300f:	66 0f 28 fe          	movapd %xmm6,%xmm7
    3013:	05 00 01 00 00       	add    $0x100,%eax
    3018:	c1 ea 02             	shr    $0x2,%edx
    301b:	89 b4 24 90 00 00 00 	mov    %esi,0x90(%rsp)
    3022:	8d 77 ff             	lea    -0x1(%rdi),%esi
    3025:	83 e7 fc             	and    $0xfffffffc,%edi
    3028:	83 ea 01             	sub    $0x1,%edx
    302b:	89 84 24 88 00 00 00 	mov    %eax,0x88(%rsp)
    3032:	49 63 c0             	movslq %r8d,%rax
    3035:	66 0f 14 ff          	unpcklpd %xmm7,%xmm7
    3039:	48 83 c2 01          	add    $0x1,%rdx
    303d:	89 b4 24 8c 00 00 00 	mov    %esi,0x8c(%rsp)
    3044:	8d 77 01             	lea    0x1(%rdi),%esi
    3047:	48 89 44 24 68       	mov    %rax,0x68(%rsp)
    304c:	48 c1 e2 05          	shl    $0x5,%rdx
    3050:	48 8d 41 01          	lea    0x1(%rcx),%rax
    3054:	89 bc 24 94 00 00 00 	mov    %edi,0x94(%rsp)
    305b:	89 b4 24 a8 00 00 00 	mov    %esi,0xa8(%rsp)
    3062:	c7 44 24 5c 00 00 00 	movl   $0x0,0x5c(%rsp)
    3069:	00 
    306a:	48 89 84 24 98 00 00 	mov    %rax,0x98(%rsp)
    3071:	00 
    3072:	48 89 94 24 a0 00 00 	mov    %rdx,0xa0(%rsp)
    3079:	00 
    307a:	0f 29 7c 24 40       	movaps %xmm7,0x40(%rsp)
    307f:	90                   	nop
    3080:	8b bc 24 88 00 00 00 	mov    0x88(%rsp),%edi
    3087:	48 8b 74 24 70       	mov    0x70(%rsp),%rsi
    308c:	49 63 d5             	movslq %r13d,%rdx
    308f:	48 0f af 94 24 80 00 	imul   0x80(%rsp),%rdx
    3096:	00 00 
    3098:	89 f8                	mov    %edi,%eax
    309a:	c1 f8 1f             	sar    $0x1f,%eax
    309d:	c1 e8 17             	shr    $0x17,%eax
    30a0:	8d 1c 07             	lea    (%rdi,%rax,1),%ebx
    30a3:	81 e3 ff 01 00 00    	and    $0x1ff,%ebx
    30a9:	29 c3                	sub    %eax,%ebx
    30ab:	41 8d 85 ff 00 00 00 	lea    0xff(%r13),%eax
    30b2:	25 ff 01 00 00       	and    $0x1ff,%eax
    30b7:	81 eb 00 01 00 00    	sub    $0x100,%ebx
    30bd:	2d 00 01 00 00       	sub    $0x100,%eax
    30c2:	0f af db             	imul   %ebx,%ebx
    30c5:	0f af c0             	imul   %eax,%eax
    30c8:	01 c3                	add    %eax,%ebx
    30ca:	48 8b 44 24 68       	mov    0x68(%rsp),%rax
    30cf:	48 0f af 44 24 78    	imul   0x78(%rsp),%rax
    30d5:	4c 8d 24 06          	lea    (%rsi,%rax,1),%r12
    30d9:	49 01 d4             	add    %rdx,%r12
    30dc:	83 bc 24 8c 00 00 00 	cmpl   $0x2,0x8c(%rsp)
    30e3:	02 
    30e4:	0f 86 1f 02 00 00    	jbe    3309 <compute_indexmap_._omp_fn.0+0x3b9>
    30ea:	48 03 84 24 98 00 00 	add    0x98(%rsp),%rax
    30f1:	00 
    30f2:	66 0f 6e fb          	movd   %ebx,%xmm7
    30f6:	66 0f 6f 15 72 59 00 	movdqa 0x5972(%rip),%xmm2        # 8a70 <options.171.0+0x280>
    30fd:	00 
    30fe:	48 01 d0             	add    %rdx,%rax
    3101:	66 0f 70 ff 00       	pshufd $0x0,%xmm7,%xmm7
    3106:	4d 8d 3c c6          	lea    (%r14,%rax,8),%r15
    310a:	48 8b 84 24 a0 00 00 	mov    0xa0(%rsp),%rax
    3111:	00 
    3112:	0f 29 7c 24 30       	movaps %xmm7,0x30(%rsp)
    3117:	4a 8d 2c 38          	lea    (%rax,%r15,1),%rbp
    311b:	0f 1f 44 00 00       	nopl   0x0(%rax,%rax,1)
    3120:	66 0f 6f c2          	movdqa %xmm2,%xmm0
    3124:	66 0f fe 05 64 59 00 	paddd  0x5964(%rip),%xmm0        # 8a90 <options.171.0+0x2a0>
    312b:	00 
    312c:	66 0f db 05 6c 59 00 	pand   0x596c(%rip),%xmm0        # 8aa0 <options.171.0+0x2b0>
    3133:	00 
    3134:	49 83 c7 20          	add    $0x20,%r15
    3138:	66 0f fe 05 70 59 00 	paddd  0x5970(%rip),%xmm0        # 8ab0 <options.171.0+0x2c0>
    313f:	00 
    3140:	66 0f 28 64 24 40    	movapd 0x40(%rsp),%xmm4
    3146:	66 0f fe 15 32 59 00 	paddd  0x5932(%rip),%xmm2        # 8a80 <options.171.0+0x290>
    314d:	00 
    314e:	66 0f 6f c8          	movdqa %xmm0,%xmm1
    3152:	66 0f f4 c8          	pmuludq %xmm0,%xmm1
    3156:	66 0f 73 d0 20       	psrlq  $0x20,%xmm0
    315b:	0f 29 54 24 20       	movaps %xmm2,0x20(%rsp)
    3160:	66 0f f4 c0          	pmuludq %xmm0,%xmm0
    3164:	66 0f 70 c9 08       	pshufd $0x8,%xmm1,%xmm1
    3169:	66 0f 70 c0 08       	pshufd $0x8,%xmm0,%xmm0
    316e:	66 0f 62 c8          	punpckldq %xmm0,%xmm1
    3172:	66 0f fe 4c 24 30    	paddd  0x30(%rsp),%xmm1
    3178:	66 0f 6f c1          	movdqa %xmm1,%xmm0
    317c:	66 0f 70 c9 ee       	pshufd $0xee,%xmm1,%xmm1
    3181:	f3 0f e6 c9          	cvtdq2pd %xmm1,%xmm1
    3185:	f3 0f e6 c0          	cvtdq2pd %xmm0,%xmm0
    3189:	66 0f 59 cc          	mulpd  %xmm4,%xmm1
    318d:	66 0f 59 c4          	mulpd  %xmm4,%xmm0
    3191:	0f 29 4c 24 10       	movaps %xmm1,0x10(%rsp)
    3196:	e8 35 f0 ff ff       	call   21d0 <_ZGVbN2v_exp@plt>
    319b:	66 0f 28 4c 24 10    	movapd 0x10(%rsp),%xmm1
    31a1:	0f 29 04 24          	movaps %xmm0,(%rsp)
    31a5:	66 0f 28 c1          	movapd %xmm1,%xmm0
    31a9:	e8 22 f0 ff ff       	call   21d0 <_ZGVbN2v_exp@plt>
    31ae:	66 0f 28 1c 24       	movapd (%rsp),%xmm3
    31b3:	66 0f 6f 54 24 20    	movdqa 0x20(%rsp),%xmm2
    31b9:	41 0f 11 47 f0       	movups %xmm0,-0x10(%r15)
    31be:	41 0f 11 5f e0       	movups %xmm3,-0x20(%r15)
    31c3:	49 39 ef             	cmp    %rbp,%r15
    31c6:	0f 85 54 ff ff ff    	jne    3120 <compute_indexmap_._omp_fn.0+0x1d0>
    31cc:	8b 7c 24 60          	mov    0x60(%rsp),%edi
    31d0:	39 bc 24 94 00 00 00 	cmp    %edi,0x94(%rsp)
    31d7:	0f 84 c0 00 00 00    	je     329d <compute_indexmap_._omp_fn.0+0x34d>
    31dd:	8b ac 24 a8 00 00 00 	mov    0xa8(%rsp),%ebp
    31e4:	41 89 ff             	mov    %edi,%r15d
    31e7:	8d 85 ff 00 00 00    	lea    0xff(%rbp),%eax
    31ed:	66 0f ef c0          	pxor   %xmm0,%xmm0
    31f1:	25 ff 01 00 00       	and    $0x1ff,%eax
    31f6:	2d 00 01 00 00       	sub    $0x100,%eax
    31fb:	0f af c0             	imul   %eax,%eax
    31fe:	01 d8                	add    %ebx,%eax
    3200:	f2 0f 2a c0          	cvtsi2sd %eax,%xmm0
    3204:	f2 0f 59 44 24 50    	mulsd  0x50(%rsp),%xmm0
    320a:	e8 61 ee ff ff       	call   2070 <exp@plt>
    320f:	8d 55 01             	lea    0x1(%rbp),%edx
    3212:	48 63 c5             	movslq %ebp,%rax
    3215:	4c 01 e0             	add    %r12,%rax
    3218:	44 39 fa             	cmp    %r15d,%edx
    321b:	89 14 24             	mov    %edx,(%rsp)
    321e:	f2 41 0f 11 04 c6    	movsd  %xmm0,(%r14,%rax,8)
    3224:	7f 77                	jg     329d <compute_indexmap_._omp_fn.0+0x34d>
    3226:	8d 85 00 01 00 00    	lea    0x100(%rbp),%eax
    322c:	66 0f ef c0          	pxor   %xmm0,%xmm0
    3230:	25 ff 01 00 00       	and    $0x1ff,%eax
    3235:	2d 00 01 00 00       	sub    $0x100,%eax
    323a:	0f af c0             	imul   %eax,%eax
    323d:	01 d8                	add    %ebx,%eax
    323f:	f2 0f 2a c0          	cvtsi2sd %eax,%xmm0
    3243:	f2 0f 59 44 24 50    	mulsd  0x50(%rsp),%xmm0
    3249:	e8 22 ee ff ff       	call   2070 <exp@plt>
    324e:	48 63 14 24          	movslq (%rsp),%rdx
    3252:	4c 01 e2             	add    %r12,%rdx
    3255:	f2 41 0f 11 04 d6    	movsd  %xmm0,(%r14,%rdx,8)
    325b:	8d 55 02             	lea    0x2(%rbp),%edx
    325e:	41 39 d7             	cmp    %edx,%r15d
    3261:	89 14 24             	mov    %edx,(%rsp)
    3264:	7c 37                	jl     329d <compute_indexmap_._omp_fn.0+0x34d>
    3266:	81 c5 01 01 00 00    	add    $0x101,%ebp
    326c:	66 0f ef c0          	pxor   %xmm0,%xmm0
    3270:	81 e5 ff 01 00 00    	and    $0x1ff,%ebp
    3276:	8d 85 00 ff ff ff    	lea    -0x100(%rbp),%eax
    327c:	0f af c0             	imul   %eax,%eax
    327f:	01 d8                	add    %ebx,%eax
    3281:	f2 0f 2a c0          	cvtsi2sd %eax,%xmm0
    3285:	f2 0f 59 44 24 50    	mulsd  0x50(%rsp),%xmm0
    328b:	e8 e0 ed ff ff       	call   2070 <exp@plt>
    3290:	48 63 14 24          	movslq (%rsp),%rdx
    3294:	4c 01 e2             	add    %r12,%rdx
    3297:	f2 41 0f 11 04 d6    	movsd  %xmm0,(%r14,%rdx,8)
    329d:	8b 74 24 5c          	mov    0x5c(%rsp),%esi
    32a1:	39 b4 24 90 00 00 00 	cmp    %esi,0x90(%rsp)
    32a8:	74 1e                	je     32c8 <compute_indexmap_._omp_fn.0+0x378>
    32aa:	41 8d 45 01          	lea    0x1(%r13),%eax
    32ae:	44 3b 6c 24 64       	cmp    0x64(%rsp),%r13d
    32b3:	7d 2b                	jge    32e0 <compute_indexmap_._omp_fn.0+0x390>
    32b5:	83 44 24 5c 01       	addl   $0x1,0x5c(%rsp)
    32ba:	41 89 c5             	mov    %eax,%r13d
    32bd:	e9 be fd ff ff       	jmp    3080 <compute_indexmap_._omp_fn.0+0x130>
    32c2:	66 0f 1f 44 00 00    	nopw   0x0(%rax,%rax,1)
    32c8:	48 81 c4 b8 00 00 00 	add    $0xb8,%rsp
    32cf:	5b                   	pop    %rbx
    32d0:	5d                   	pop    %rbp
    32d1:	41 5c                	pop    %r12
    32d3:	41 5d                	pop    %r13
    32d5:	41 5e                	pop    %r14
    32d7:	41 5f                	pop    %r15
    32d9:	c3                   	ret    
    32da:	66 0f 1f 44 00 00    	nopw   0x0(%rax,%rax,1)
    32e0:	83 84 24 ac 00 00 00 	addl   $0x1,0xac(%rsp)
    32e7:	01 
    32e8:	48 63 b4 24 ac 00 00 	movslq 0xac(%rsp),%rsi
    32ef:	00 
    32f0:	b8 01 00 00 00       	mov    $0x1,%eax
    32f5:	8d 8e ff 00 00 00    	lea    0xff(%rsi),%ecx
    32fb:	48 89 74 24 68       	mov    %rsi,0x68(%rsp)
    3300:	89 8c 24 88 00 00 00 	mov    %ecx,0x88(%rsp)
    3307:	eb ac                	jmp    32b5 <compute_indexmap_._omp_fn.0+0x365>
    3309:	44 8b 7c 24 60       	mov    0x60(%rsp),%r15d
    330e:	bd 01 00 00 00       	mov    $0x1,%ebp
    3313:	e9 cf fe ff ff       	jmp    31e7 <compute_indexmap_._omp_fn.0+0x297>
    3318:	83 c6 01             	add    $0x1,%esi
    331b:	31 d2                	xor    %edx,%edx
    331d:	e9 83 fc ff ff       	jmp    2fa5 <compute_indexmap_._omp_fn.0+0x55>
    3322:	66 66 2e 0f 1f 84 00 	data16 cs nopw 0x0(%rax,%rax,1)
    3329:	00 00 00 00 
    332d:	0f 1f 00             	nopl   (%rax)

0000000000003330 <init_ui_._omp_fn.0>:
    3330:	41 57                	push   %r15
    3332:	41 56                	push   %r14
    3334:	41 55                	push   %r13
    3336:	41 54                	push   %r12
    3338:	55                   	push   %rbp
    3339:	53                   	push   %rbx
    333a:	48 81 ec 88 00 00 00 	sub    $0x88,%rsp
    3341:	44 8b 77 6c          	mov    0x6c(%rdi),%r14d
    3345:	8b 6f 68             	mov    0x68(%rdi),%ebp
    3348:	44 89 74 24 68       	mov    %r14d,0x68(%rsp)
    334d:	85 ed                	test   %ebp,%ebp
    334f:	0f 8e 6b 02 00 00    	jle    35c0 <init_ui_._omp_fn.0+0x290>
    3355:	45 85 f6             	test   %r14d,%r14d
    3358:	0f 8e 62 02 00 00    	jle    35c0 <init_ui_._omp_fn.0+0x290>
    335e:	48 89 fb             	mov    %rdi,%rbx
    3361:	e8 fa ec ff ff       	call   2060 <omp_get_num_threads@plt>
    3366:	41 89 c4             	mov    %eax,%r12d
    3369:	e8 82 ed ff ff       	call   20f0 <omp_get_thread_num@plt>
    336e:	31 d2                	xor    %edx,%edx
    3370:	89 c1                	mov    %eax,%ecx
    3372:	89 e8                	mov    %ebp,%eax
    3374:	41 0f af c6          	imul   %r14d,%eax
    3378:	41 f7 f4             	div    %r12d
    337b:	89 c6                	mov    %eax,%esi
    337d:	39 d1                	cmp    %edx,%ecx
    337f:	0f 82 b5 02 00 00    	jb     363a <init_ui_._omp_fn.0+0x30a>
    3385:	0f af ce             	imul   %esi,%ecx
    3388:	8d 04 11             	lea    (%rcx,%rdx,1),%eax
    338b:	8d 14 06             	lea    (%rsi,%rax,1),%edx
    338e:	39 d0                	cmp    %edx,%eax
    3390:	0f 83 2a 02 00 00    	jae    35c0 <init_ui_._omp_fn.0+0x290>
    3396:	31 d2                	xor    %edx,%edx
    3398:	48 8b 4b 60          	mov    0x60(%rbx),%rcx
    339c:	48 8b 7b 08          	mov    0x8(%rbx),%rdi
    33a0:	f7 74 24 68          	divl   0x68(%rsp)
    33a4:	4c 8b 33             	mov    (%rbx),%r14
    33a7:	48 8b 6b 10          	mov    0x10(%rbx),%rbp
    33ab:	48 89 4c 24 20       	mov    %rcx,0x20(%rsp)
    33b0:	48 8b 4b 58          	mov    0x58(%rbx),%rcx
    33b4:	48 89 3c 24          	mov    %rdi,(%rsp)
    33b8:	48 89 4c 24 28       	mov    %rcx,0x28(%rsp)
    33bd:	48 8b 4b 50          	mov    0x50(%rbx),%rcx
    33c1:	48 89 4c 24 30       	mov    %rcx,0x30(%rsp)
    33c6:	48 8b 4b 48          	mov    0x48(%rbx),%rcx
    33ca:	48 89 4c 24 38       	mov    %rcx,0x38(%rsp)
    33cf:	48 8b 4b 40          	mov    0x40(%rbx),%rcx
    33d3:	48 89 4c 24 40       	mov    %rcx,0x40(%rsp)
    33d8:	48 8b 4b 38          	mov    0x38(%rbx),%rcx
    33dc:	48 89 4c 24 48       	mov    %rcx,0x48(%rsp)
    33e1:	48 8b 4b 30          	mov    0x30(%rbx),%rcx
    33e5:	48 89 4c 24 50       	mov    %rcx,0x50(%rsp)
    33ea:	48 8b 4b 28          	mov    0x28(%rbx),%rcx
    33ee:	48 89 4c 24 58       	mov    %rcx,0x58(%rsp)
    33f3:	48 8b 4b 20          	mov    0x20(%rbx),%rcx
    33f7:	48 89 4c 24 60       	mov    %rcx,0x60(%rsp)
    33fc:	8d 48 01             	lea    0x1(%rax),%ecx
    33ff:	48 8b 43 18          	mov    0x18(%rbx),%rax
    3403:	44 8d 62 01          	lea    0x1(%rdx),%r12d
    3407:	89 4c 24 7c          	mov    %ecx,0x7c(%rsp)
    340b:	8b 00                	mov    (%rax),%eax
    340d:	85 c0                	test   %eax,%eax
    340f:	0f 8e ab 01 00 00    	jle    35c0 <init_ui_._omp_fn.0+0x290>
    3415:	89 c2                	mov    %eax,%edx
    3417:	8d 5e ff             	lea    -0x1(%rsi),%ebx
    341a:	83 c0 01             	add    $0x1,%eax
    341d:	c7 44 24 14 00 00 00 	movl   $0x0,0x14(%rsp)
    3424:	00 
    3425:	89 5c 24 6c          	mov    %ebx,0x6c(%rsp)
    3429:	48 8d 1c d5 00 00 00 	lea    0x0(,%rdx,8),%rbx
    3430:	00 
    3431:	49 89 d5             	mov    %rdx,%r13
    3434:	48 89 5c 24 70       	mov    %rbx,0x70(%rsp)
    3439:	48 63 d9             	movslq %ecx,%rbx
    343c:	49 c1 e5 04          	shl    $0x4,%r13
    3440:	48 89 5c 24 18       	mov    %rbx,0x18(%rsp)
    3445:	89 44 24 78          	mov    %eax,0x78(%rsp)
    3449:	eb 0d                	jmp    3458 <init_ui_._omp_fn.0+0x128>
    344b:	0f 1f 44 00 00       	nopl   0x0(%rax,%rax,1)
    3450:	83 44 24 14 01       	addl   $0x1,0x14(%rsp)
    3455:	41 89 c4             	mov    %eax,%r12d
    3458:	4c 8b 7c 24 48       	mov    0x48(%rsp),%r15
    345d:	48 8b 44 24 30       	mov    0x30(%rsp),%rax
    3462:	49 63 d4             	movslq %r12d,%rdx
    3465:	48 8b 74 24 18       	mov    0x18(%rsp),%rsi
    346a:	4c 8b 44 24 58       	mov    0x58(%rsp),%r8
    346f:	4c 0f af fa          	imul   %rdx,%r15
    3473:	44 8b 5c 24 78       	mov    0x78(%rsp),%r11d
    3478:	4c 8b 4c 24 40       	mov    0x40(%rsp),%r9
    347d:	48 0f af c2          	imul   %rdx,%rax
    3481:	4c 8b 54 24 28       	mov    0x28(%rsp),%r10
    3486:	48 0f af 54 24 60    	imul   0x60(%rsp),%rdx
    348c:	4c 0f af c6          	imul   %rsi,%r8
    3490:	4c 03 44 24 50       	add    0x50(%rsp),%r8
    3495:	4c 0f af ce          	imul   %rsi,%r9
    3499:	4c 03 4c 24 38       	add    0x38(%rsp),%r9
    349e:	49 8d 3c 10          	lea    (%r8,%rdx,1),%rdi
    34a2:	4b 8d 0c 39          	lea    (%r9,%r15,1),%rcx
    34a6:	4c 0f af d6          	imul   %rsi,%r10
    34aa:	4b 8d 34 1f          	lea    (%r15,%r11,1),%rsi
    34ae:	4c 03 54 24 20       	add    0x20(%rsp),%r10
    34b3:	48 89 7c 24 08       	mov    %rdi,0x8(%rsp)
    34b8:	4c 01 ce             	add    %r9,%rsi
    34bb:	4a 8d 7c 10 01       	lea    0x1(%rax,%r10,1),%rdi
    34c0:	49 8d 1c 02          	lea    (%r10,%rax,1),%rbx
    34c4:	4c 01 d8             	add    %r11,%rax
    34c7:	4f 8d 4c 0f 01       	lea    0x1(%r15,%r9,1),%r9
    34cc:	48 c1 e6 04          	shl    $0x4,%rsi
    34d0:	4c 01 d0             	add    %r10,%rax
    34d3:	48 c1 e7 04          	shl    $0x4,%rdi
    34d7:	49 c1 e1 04          	shl    $0x4,%r9
    34db:	4e 8d 54 02 01       	lea    0x1(%rdx,%r8,1),%r10
    34e0:	48 c1 e0 04          	shl    $0x4,%rax
    34e4:	4c 01 da             	add    %r11,%rdx
    34e7:	4d 01 f1             	add    %r14,%r9
    34ea:	48 03 04 24          	add    (%rsp),%rax
    34ee:	4c 01 f6             	add    %r14,%rsi
    34f1:	4c 01 c2             	add    %r8,%rdx
    34f4:	48 03 3c 24          	add    (%rsp),%rdi
    34f8:	49 39 c1             	cmp    %rax,%r9
    34fb:	4c 8d 44 d5 00       	lea    0x0(%rbp,%rdx,8),%r8
    3500:	41 0f 93 c3          	setae  %r11b
    3504:	48 39 f7             	cmp    %rsi,%rdi
    3507:	4e 8d 54 d5 00       	lea    0x0(%rbp,%r10,8),%r10
    350c:	0f 93 c2             	setae  %dl
    350f:	44 09 da             	or     %r11d,%edx
    3512:	49 39 f2             	cmp    %rsi,%r10
    3515:	40 0f 93 c6          	setae  %sil
    3519:	4d 39 c8             	cmp    %r9,%r8
    351c:	41 0f 96 c1          	setbe  %r9b
    3520:	44 09 ce             	or     %r9d,%esi
    3523:	40 84 f2             	test   %sil,%dl
    3526:	0f 84 a6 00 00 00    	je     35d2 <init_ui_._omp_fn.0+0x2a2>
    352c:	49 39 c2             	cmp    %rax,%r10
    352f:	0f 93 c0             	setae  %al
    3532:	49 39 f8             	cmp    %rdi,%r8
    3535:	0f 96 c2             	setbe  %dl
    3538:	08 c2                	or     %al,%dl
    353a:	0f 84 92 00 00 00    	je     35d2 <init_ui_._omp_fn.0+0x2a2>
    3540:	48 8d 79 01          	lea    0x1(%rcx),%rdi
    3544:	4c 89 ea             	mov    %r13,%rdx
    3547:	31 f6                	xor    %esi,%esi
    3549:	48 89 f9             	mov    %rdi,%rcx
    354c:	48 c1 e1 04          	shl    $0x4,%rcx
    3550:	49 8d 3c 0e          	lea    (%r14,%rcx,1),%rdi
    3554:	e8 f7 ea ff ff       	call   2050 <memset@plt>
    3559:	48 8d 7b 01          	lea    0x1(%rbx),%rdi
    355d:	48 8b 04 24          	mov    (%rsp),%rax
    3561:	4c 89 ea             	mov    %r13,%rdx
    3564:	48 89 fb             	mov    %rdi,%rbx
    3567:	31 f6                	xor    %esi,%esi
    3569:	48 c1 e3 04          	shl    $0x4,%rbx
    356d:	48 8d 3c 18          	lea    (%rax,%rbx,1),%rdi
    3571:	e8 da ea ff ff       	call   2050 <memset@plt>
    3576:	48 8b 44 24 08       	mov    0x8(%rsp),%rax
    357b:	48 8b 54 24 70       	mov    0x70(%rsp),%rdx
    3580:	31 f6                	xor    %esi,%esi
    3582:	48 8d 7c c5 08       	lea    0x8(%rbp,%rax,8),%rdi
    3587:	e8 c4 ea ff ff       	call   2050 <memset@plt>
    358c:	8b 4c 24 6c          	mov    0x6c(%rsp),%ecx
    3590:	39 4c 24 14          	cmp    %ecx,0x14(%rsp)
    3594:	74 2a                	je     35c0 <init_ui_._omp_fn.0+0x290>
    3596:	41 8d 44 24 01       	lea    0x1(%r12),%eax
    359b:	44 3b 64 24 68       	cmp    0x68(%rsp),%r12d
    35a0:	0f 8c aa fe ff ff    	jl     3450 <init_ui_._omp_fn.0+0x120>
    35a6:	83 44 24 7c 01       	addl   $0x1,0x7c(%rsp)
    35ab:	48 63 5c 24 7c       	movslq 0x7c(%rsp),%rbx
    35b0:	b8 01 00 00 00       	mov    $0x1,%eax
    35b5:	48 89 5c 24 18       	mov    %rbx,0x18(%rsp)
    35ba:	e9 91 fe ff ff       	jmp    3450 <init_ui_._omp_fn.0+0x120>
    35bf:	90                   	nop
    35c0:	48 81 c4 88 00 00 00 	add    $0x88,%rsp
    35c7:	5b                   	pop    %rbx
    35c8:	5d                   	pop    %rbp
    35c9:	41 5c                	pop    %r12
    35cb:	41 5d                	pop    %r13
    35cd:	41 5e                	pop    %r14
    35cf:	41 5f                	pop    %r15
    35d1:	c3                   	ret    
    35d2:	48 8b 44 24 08       	mov    0x8(%rsp),%rax
    35d7:	48 c1 e1 04          	shl    $0x4,%rcx
    35db:	48 c1 e3 04          	shl    $0x4,%rbx
    35df:	4c 01 f1             	add    %r14,%rcx
    35e2:	48 8d 74 c5 08       	lea    0x8(%rbp,%rax,8),%rsi
    35e7:	48 8b 04 24          	mov    (%rsp),%rax
    35eb:	48 8d 14 18          	lea    (%rax,%rbx,1),%rdx
    35ef:	31 c0                	xor    %eax,%eax
    35f1:	0f 1f 80 00 00 00 00 	nopl   0x0(%rax)
    35f8:	f2 0f 10 05 20 4a 00 	movsd  0x4a20(%rip),%xmm0        # 8020 <_IO_stdin_used+0x20>
    35ff:	00 
    3600:	f2 0f 10 0d 20 4a 00 	movsd  0x4a20(%rip),%xmm1        # 8028 <_IO_stdin_used+0x28>
    3607:	00 
    3608:	48 83 c6 08          	add    $0x8,%rsi
    360c:	f2 0f 11 44 01 10    	movsd  %xmm0,0x10(%rcx,%rax,1)
    3612:	f2 0f 11 4c 01 18    	movsd  %xmm1,0x18(%rcx,%rax,1)
    3618:	f2 0f 11 44 02 10    	movsd  %xmm0,0x10(%rdx,%rax,1)
    361e:	f2 0f 11 4c 02 18    	movsd  %xmm1,0x18(%rdx,%rax,1)
    3624:	48 83 c0 10          	add    $0x10,%rax
    3628:	48 c7 46 f8 00 00 00 	movq   $0x0,-0x8(%rsi)
    362f:	00 
    3630:	4c 39 e8             	cmp    %r13,%rax
    3633:	75 c3                	jne    35f8 <init_ui_._omp_fn.0+0x2c8>
    3635:	e9 52 ff ff ff       	jmp    358c <init_ui_._omp_fn.0+0x25c>
    363a:	83 c6 01             	add    $0x1,%esi
    363d:	31 d2                	xor    %edx,%edx
    363f:	e9 41 fd ff ff       	jmp    3385 <init_ui_._omp_fn.0+0x55>
    3644:	66 66 2e 0f 1f 84 00 	data16 cs nopw 0x0(%rax,%rax,1)
    364b:	00 00 00 00 
    364f:	90                   	nop

0000000000003650 <print_timers_>:
    3650:	41 57                	push   %r15
    3652:	48 8d 3d d7 49 00 00 	lea    0x49d7(%rip),%rdi        # 8030 <_IO_stdin_used+0x30>
    3659:	41 56                	push   %r14
    365b:	41 55                	push   %r13
    365d:	41 54                	push   %r12
    365f:	55                   	push   %rbp
    3660:	53                   	push   %rbx
    3661:	48 81 ec 48 02 00 00 	sub    $0x248,%rsp
    3668:	e8 63 42 00 00       	call   78d0 <timer_read_>
    366d:	66 0f 28 d0          	movapd %xmm0,%xmm2
    3671:	f2 0f 11 44 24 08    	movsd  %xmm0,0x8(%rsp)
    3677:	66 0f ef c0          	pxor   %xmm0,%xmm0
    367b:	66 0f 2f c2          	comisd %xmm2,%xmm0
    367f:	72 0e                	jb     368f <print_timers_+0x3f>
    3681:	f2 0f 10 1d 67 54 00 	movsd  0x5467(%rip),%xmm3        # 8af0 <options.171.0+0x300>
    3688:	00 
    3689:	f2 0f 11 5c 24 08    	movsd  %xmm3,0x8(%rsp)
    368f:	c7 44 24 1c 01 00 00 	movl   $0x1,0x1c(%rsp)
    3696:	00 
    3697:	48 8d 6c 24 1c       	lea    0x1c(%rsp),%rbp
    369c:	48 8d 5c 24 30       	lea    0x30(%rsp),%rbx
    36a1:	4c 8d 3d 64 51 00 00 	lea    0x5164(%rip),%r15        # 880c <options.171.0+0x1c>
    36a8:	4c 8d 6c 24 20       	lea    0x20(%rsp),%r13
    36ad:	4c 8d 64 24 28       	lea    0x28(%rsp),%r12
    36b2:	66 0f 1f 44 00 00    	nopw   0x0(%rax,%rax,1)
    36b8:	48 89 ef             	mov    %rbp,%rdi
    36bb:	e8 10 42 00 00       	call   78d0 <timer_read_>
    36c0:	48 8d 05 b9 51 00 00 	lea    0x51b9(%rip),%rax        # 8880 <options.171.0+0x90>
    36c7:	48 89 df             	mov    %rbx,%rdi
    36ca:	4c 89 7c 24 38       	mov    %r15,0x38(%rsp)
    36cf:	48 89 84 24 80 00 00 	mov    %rax,0x80(%rsp)
    36d6:	00 
    36d7:	48 8b 05 1a 54 00 00 	mov    0x541a(%rip),%rax        # 8af8 <options.171.0+0x308>
    36de:	f2 0f 11 44 24 20    	movsd  %xmm0,0x20(%rsp)
    36e4:	f2 0f 11 04 24       	movsd  %xmm0,(%rsp)
    36e9:	48 89 44 24 30       	mov    %rax,0x30(%rsp)
    36ee:	c7 44 24 40 c8 01 00 	movl   $0x1c8,0x40(%rsp)
    36f5:	00 
    36f6:	48 c7 84 24 88 00 00 	movq   $0x37,0x88(%rsp)
    36fd:	00 37 00 00 00 
    3702:	e8 19 eb ff ff       	call   2220 <_gfortran_st_write@plt>
    3707:	ba 04 00 00 00       	mov    $0x4,%edx
    370c:	48 89 ee             	mov    %rbp,%rsi
    370f:	48 89 df             	mov    %rbx,%rdi
    3712:	e8 b9 e9 ff ff       	call   20d0 <_gfortran_transfer_integer_write@plt>
    3717:	48 63 54 24 1c       	movslq 0x1c(%rsp),%rdx
    371c:	48 8d 05 fd 78 00 00 	lea    0x78fd(%rip),%rax        # b020 <tstrings.1>
    3723:	48 89 df             	mov    %rbx,%rdi
    3726:	49 89 d6             	mov    %rdx,%r14
    3729:	48 8d 54 92 fb       	lea    -0x5(%rdx,%rdx,4),%rdx
    372e:	48 8d 34 92          	lea    (%rdx,%rdx,4),%rsi
    3732:	ba 19 00 00 00       	mov    $0x19,%edx
    3737:	48 01 c6             	add    %rax,%rsi
    373a:	e8 d1 e9 ff ff       	call   2110 <_gfortran_transfer_character_write@plt>
    373f:	ba 08 00 00 00       	mov    $0x8,%edx
    3744:	4c 89 ee             	mov    %r13,%rsi
    3747:	48 89 df             	mov    %rbx,%rdi
    374a:	e8 e1 e8 ff ff       	call   2030 <_gfortran_transfer_real_write@plt>
    374f:	f2 0f 10 04 24       	movsd  (%rsp),%xmm0
    3754:	4c 89 e6             	mov    %r12,%rsi
    3757:	48 89 df             	mov    %rbx,%rdi
    375a:	f2 0f 59 05 9e 53 00 	mulsd  0x539e(%rip),%xmm0        # 8b00 <options.171.0+0x310>
    3761:	00 
    3762:	ba 08 00 00 00       	mov    $0x8,%edx
    3767:	f2 0f 5e 44 24 08    	divsd  0x8(%rsp),%xmm0
    376d:	f2 0f 11 44 24 28    	movsd  %xmm0,0x28(%rsp)
    3773:	e8 b8 e8 ff ff       	call   2030 <_gfortran_transfer_real_write@plt>
    3778:	48 89 df             	mov    %rbx,%rdi
    377b:	e8 30 ea ff ff       	call   21b0 <_gfortran_st_write_done@plt>
    3780:	41 8d 46 01          	lea    0x1(%r14),%eax
    3784:	89 44 24 1c          	mov    %eax,0x1c(%rsp)
    3788:	83 f8 08             	cmp    $0x8,%eax
    378b:	0f 8e 27 ff ff ff    	jle    36b8 <print_timers_+0x68>
    3791:	48 81 c4 48 02 00 00 	add    $0x248,%rsp
    3798:	5b                   	pop    %rbx
    3799:	5d                   	pop    %rbp
    379a:	41 5c                	pop    %r12
    379c:	41 5d                	pop    %r13
    379e:	41 5e                	pop    %r14
    37a0:	41 5f                	pop    %r15
    37a2:	c3                   	ret    
    37a3:	66 66 2e 0f 1f 84 00 	data16 cs nopw 0x0(%rax,%rax,1)
    37aa:	00 00 00 00 
    37ae:	66 90                	xchg   %ax,%ax

00000000000037b0 <verify_>:
    37b0:	41 57                	push   %r15
    37b2:	49 89 f7             	mov    %rsi,%r15
    37b5:	41 56                	push   %r14
    37b7:	49 89 ce             	mov    %rcx,%r14
    37ba:	41 55                	push   %r13
    37bc:	41 54                	push   %r12
    37be:	49 89 fc             	mov    %rdi,%r12
    37c1:	55                   	push   %rbp
    37c2:	4c 89 cd             	mov    %r9,%rbp
    37c5:	53                   	push   %rbx
    37c6:	48 89 d3             	mov    %rdx,%rbx
    37c9:	48 81 ec e8 03 00 00 	sub    $0x3e8,%rsp
    37d0:	4c 8d 6c 24 10       	lea    0x10(%rsp),%r13
    37d5:	4c 89 44 24 08       	mov    %r8,0x8(%rsp)
    37da:	4c 89 ef             	mov    %r13,%rdi
    37dd:	e8 ae e8 ff ff       	call   2090 <_gfortran_ieee_procedure_entry@plt>
    37e2:	48 8b 44 24 08       	mov    0x8(%rsp),%rax
    37e7:	c6 45 00 55          	movb   $0x55,0x0(%rbp)
    37eb:	c7 00 00 00 00 00    	movl   $0x0,(%rax)
    37f1:	41 8b 04 24          	mov    (%r12),%eax
    37f5:	83 f8 40             	cmp    $0x40,%eax
    37f8:	0f 84 32 0d 00 00    	je     4530 <verify_+0xd80>
    37fe:	3d 80 00 00 00       	cmp    $0x80,%eax
    3803:	0f 85 8f 00 00 00    	jne    3898 <verify_+0xe8>
    3809:	41 81 3f 80 00 00 00 	cmpl   $0x80,(%r15)
    3810:	0f 84 2a 0f 00 00    	je     4740 <verify_+0xf90>
    3816:	48 8d 05 ef 4f 00 00 	lea    0x4fef(%rip),%rax        # 880c <options.171.0+0x1c>
    381d:	4c 8d a4 24 d0 01 00 	lea    0x1d0(%rsp),%r12
    3824:	00 
    3825:	c7 84 24 e0 01 00 00 	movl   $0x468,0x1e0(%rsp)
    382c:	68 04 00 00 
    3830:	48 89 84 24 d8 01 00 	mov    %rax,0x1d8(%rsp)
    3837:	00 
    3838:	48 8b 05 d1 52 00 00 	mov    0x52d1(%rip),%rax        # 8b10 <options.171.0+0x320>
    383f:	4c 89 e7             	mov    %r12,%rdi
    3842:	48 89 84 24 d0 01 00 	mov    %rax,0x1d0(%rsp)
    3849:	00 
    384a:	e8 d1 e9 ff ff       	call   2220 <_gfortran_st_write@plt>
    384f:	4c 89 e7             	mov    %r12,%rdi
    3852:	ba 08 00 00 00       	mov    $0x8,%edx
    3857:	48 8d 35 b5 4f 00 00 	lea    0x4fb5(%rip),%rsi        # 8813 <options.171.0+0x23>
    385e:	e8 ad e8 ff ff       	call   2110 <_gfortran_transfer_character_write@plt>
    3863:	48 89 ee             	mov    %rbp,%rsi
    3866:	ba 01 00 00 00       	mov    $0x1,%edx
    386b:	4c 89 e7             	mov    %r12,%rdi
    386e:	e8 9d e8 ff ff       	call   2110 <_gfortran_transfer_character_write@plt>
    3873:	4c 89 e7             	mov    %r12,%rdi
    3876:	e8 35 e9 ff ff       	call   21b0 <_gfortran_st_write_done@plt>
    387b:	4c 89 ef             	mov    %r13,%rdi
    387e:	e8 3d e8 ff ff       	call   20c0 <_gfortran_ieee_procedure_exit@plt>
    3883:	48 81 c4 e8 03 00 00 	add    $0x3e8,%rsp
    388a:	5b                   	pop    %rbx
    388b:	5d                   	pop    %rbp
    388c:	41 5c                	pop    %r12
    388e:	41 5d                	pop    %r13
    3890:	41 5e                	pop    %r14
    3892:	41 5f                	pop    %r15
    3894:	c3                   	ret    
    3895:	0f 1f 00             	nopl   (%rax)
    3898:	3d 00 01 00 00       	cmp    $0x100,%eax
    389d:	0f 85 e5 00 00 00    	jne    3988 <verify_+0x1d8>
    38a3:	41 81 3f 00 01 00 00 	cmpl   $0x100,(%r15)
    38aa:	0f 85 66 ff ff ff    	jne    3816 <verify_+0x66>
    38b0:	81 3b 80 00 00 00    	cmpl   $0x80,(%rbx)
    38b6:	0f 85 5a ff ff ff    	jne    3816 <verify_+0x66>
    38bc:	41 8b 1e             	mov    (%r14),%ebx
    38bf:	83 fb 06             	cmp    $0x6,%ebx
    38c2:	0f 85 4e ff ff ff    	jne    3816 <verify_+0x66>
    38c8:	f2 0f 10 05 68 47 00 	movsd  0x4768(%rip),%xmm0        # 8038 <_IO_stdin_used+0x38>
    38cf:	00 
    38d0:	c6 45 00 41          	movb   $0x41,0x0(%rbp)
    38d4:	f2 0f 11 44 24 40    	movsd  %xmm0,0x40(%rsp)
    38da:	f2 0f 10 05 5e 47 00 	movsd  0x475e(%rip),%xmm0        # 8040 <_IO_stdin_used+0x40>
    38e1:	00 
    38e2:	f2 0f 11 44 24 48    	movsd  %xmm0,0x48(%rsp)
    38e8:	f2 0f 10 05 58 47 00 	movsd  0x4758(%rip),%xmm0        # 8048 <_IO_stdin_used+0x48>
    38ef:	00 
    38f0:	f2 0f 11 44 24 50    	movsd  %xmm0,0x50(%rsp)
    38f6:	f2 0f 10 05 52 47 00 	movsd  0x4752(%rip),%xmm0        # 8050 <_IO_stdin_used+0x50>
    38fd:	00 
    38fe:	f2 0f 11 44 24 58    	movsd  %xmm0,0x58(%rsp)
    3904:	f2 0f 10 05 4c 47 00 	movsd  0x474c(%rip),%xmm0        # 8058 <_IO_stdin_used+0x58>
    390b:	00 
    390c:	f2 0f 11 44 24 60    	movsd  %xmm0,0x60(%rsp)
    3912:	f2 0f 10 05 46 47 00 	movsd  0x4746(%rip),%xmm0        # 8060 <_IO_stdin_used+0x60>
    3919:	00 
    391a:	f2 0f 11 44 24 68    	movsd  %xmm0,0x68(%rsp)
    3920:	f2 0f 10 05 40 47 00 	movsd  0x4740(%rip),%xmm0        # 8068 <_IO_stdin_used+0x68>
    3927:	00 
    3928:	f2 0f 11 44 24 70    	movsd  %xmm0,0x70(%rsp)
    392e:	f2 0f 10 05 3a 47 00 	movsd  0x473a(%rip),%xmm0        # 8070 <_IO_stdin_used+0x70>
    3935:	00 
    3936:	f2 0f 11 44 24 78    	movsd  %xmm0,0x78(%rsp)
    393c:	f2 0f 10 05 34 47 00 	movsd  0x4734(%rip),%xmm0        # 8078 <_IO_stdin_used+0x78>
    3943:	00 
    3944:	f2 0f 11 84 24 80 00 	movsd  %xmm0,0x80(%rsp)
    394b:	00 00 
    394d:	f2 0f 10 05 2b 47 00 	movsd  0x472b(%rip),%xmm0        # 8080 <_IO_stdin_used+0x80>
    3954:	00 
    3955:	f2 0f 11 84 24 88 00 	movsd  %xmm0,0x88(%rsp)
    395c:	00 00 
    395e:	f2 0f 10 05 22 47 00 	movsd  0x4722(%rip),%xmm0        # 8088 <_IO_stdin_used+0x88>
    3965:	00 
    3966:	f2 0f 11 84 24 90 00 	movsd  %xmm0,0x90(%rsp)
    396d:	00 00 
    396f:	f2 0f 10 05 19 47 00 	movsd  0x4719(%rip),%xmm0        # 8090 <_IO_stdin_used+0x90>
    3976:	00 
    3977:	f2 0f 11 84 24 98 00 	movsd  %xmm0,0x98(%rsp)
    397e:	00 00 
    3980:	e9 8b 0c 00 00       	jmp    4610 <verify_+0xe60>
    3985:	0f 1f 00             	nopl   (%rax)
    3988:	3d 00 02 00 00       	cmp    $0x200,%eax
    398d:	0f 85 cd 02 00 00    	jne    3c60 <verify_+0x4b0>
    3993:	41 8b 07             	mov    (%r15),%eax
    3996:	3d 00 01 00 00       	cmp    $0x100,%eax
    399b:	0f 84 77 0e 00 00    	je     4818 <verify_+0x1068>
    39a1:	3d 00 02 00 00       	cmp    $0x200,%eax
    39a6:	0f 85 6a fe ff ff    	jne    3816 <verify_+0x66>
    39ac:	81 3b 00 02 00 00    	cmpl   $0x200,(%rbx)
    39b2:	0f 85 5e fe ff ff    	jne    3816 <verify_+0x66>
    39b8:	41 8b 1e             	mov    (%r14),%ebx
    39bb:	83 fb 14             	cmp    $0x14,%ebx
    39be:	0f 85 52 fe ff ff    	jne    3816 <verify_+0x66>
    39c4:	f2 0f 10 05 cc 46 00 	movsd  0x46cc(%rip),%xmm0        # 8098 <_IO_stdin_used+0x98>
    39cb:	00 
    39cc:	c6 45 00 43          	movb   $0x43,0x0(%rbp)
    39d0:	f2 0f 11 44 24 40    	movsd  %xmm0,0x40(%rsp)
    39d6:	f2 0f 10 05 c2 46 00 	movsd  0x46c2(%rip),%xmm0        # 80a0 <_IO_stdin_used+0xa0>
    39dd:	00 
    39de:	f2 0f 11 44 24 48    	movsd  %xmm0,0x48(%rsp)
    39e4:	f2 0f 10 05 bc 46 00 	movsd  0x46bc(%rip),%xmm0        # 80a8 <_IO_stdin_used+0xa8>
    39eb:	00 
    39ec:	f2 0f 11 44 24 50    	movsd  %xmm0,0x50(%rsp)
    39f2:	f2 0f 10 05 b6 46 00 	movsd  0x46b6(%rip),%xmm0        # 80b0 <_IO_stdin_used+0xb0>
    39f9:	00 
    39fa:	f2 0f 11 44 24 58    	movsd  %xmm0,0x58(%rsp)
    3a00:	f2 0f 10 05 b0 46 00 	movsd  0x46b0(%rip),%xmm0        # 80b8 <_IO_stdin_used+0xb8>
    3a07:	00 
    3a08:	f2 0f 11 44 24 60    	movsd  %xmm0,0x60(%rsp)
    3a0e:	f2 0f 10 05 aa 46 00 	movsd  0x46aa(%rip),%xmm0        # 80c0 <_IO_stdin_used+0xc0>
    3a15:	00 
    3a16:	f2 0f 11 44 24 68    	movsd  %xmm0,0x68(%rsp)
    3a1c:	f2 0f 10 05 a4 46 00 	movsd  0x46a4(%rip),%xmm0        # 80c8 <_IO_stdin_used+0xc8>
    3a23:	00 
    3a24:	f2 0f 11 44 24 70    	movsd  %xmm0,0x70(%rsp)
    3a2a:	f2 0f 10 05 9e 46 00 	movsd  0x469e(%rip),%xmm0        # 80d0 <_IO_stdin_used+0xd0>
    3a31:	00 
    3a32:	f2 0f 11 44 24 78    	movsd  %xmm0,0x78(%rsp)
    3a38:	f2 0f 10 05 98 46 00 	movsd  0x4698(%rip),%xmm0        # 80d8 <_IO_stdin_used+0xd8>
    3a3f:	00 
    3a40:	f2 0f 11 84 24 80 00 	movsd  %xmm0,0x80(%rsp)
    3a47:	00 00 
    3a49:	f2 0f 10 05 8f 46 00 	movsd  0x468f(%rip),%xmm0        # 80e0 <_IO_stdin_used+0xe0>
    3a50:	00 
    3a51:	f2 0f 11 84 24 88 00 	movsd  %xmm0,0x88(%rsp)
    3a58:	00 00 
    3a5a:	f2 0f 10 05 86 46 00 	movsd  0x4686(%rip),%xmm0        # 80e8 <_IO_stdin_used+0xe8>
    3a61:	00 
    3a62:	f2 0f 11 84 24 90 00 	movsd  %xmm0,0x90(%rsp)
    3a69:	00 00 
    3a6b:	f2 0f 10 05 7d 46 00 	movsd  0x467d(%rip),%xmm0        # 80f0 <_IO_stdin_used+0xf0>
    3a72:	00 
    3a73:	f2 0f 11 84 24 98 00 	movsd  %xmm0,0x98(%rsp)
    3a7a:	00 00 
    3a7c:	f2 0f 10 05 74 46 00 	movsd  0x4674(%rip),%xmm0        # 80f8 <_IO_stdin_used+0xf8>
    3a83:	00 
    3a84:	f2 0f 11 84 24 a0 00 	movsd  %xmm0,0xa0(%rsp)
    3a8b:	00 00 
    3a8d:	f2 0f 10 05 6b 46 00 	movsd  0x466b(%rip),%xmm0        # 8100 <_IO_stdin_used+0x100>
    3a94:	00 
    3a95:	f2 0f 11 84 24 a8 00 	movsd  %xmm0,0xa8(%rsp)
    3a9c:	00 00 
    3a9e:	f2 0f 10 05 62 46 00 	movsd  0x4662(%rip),%xmm0        # 8108 <_IO_stdin_used+0x108>
    3aa5:	00 
    3aa6:	f2 0f 11 84 24 b0 00 	movsd  %xmm0,0xb0(%rsp)
    3aad:	00 00 
    3aaf:	f2 0f 10 05 59 46 00 	movsd  0x4659(%rip),%xmm0        # 8110 <_IO_stdin_used+0x110>
    3ab6:	00 
    3ab7:	f2 0f 11 84 24 b8 00 	movsd  %xmm0,0xb8(%rsp)
    3abe:	00 00 
    3ac0:	f2 0f 10 05 50 46 00 	movsd  0x4650(%rip),%xmm0        # 8118 <_IO_stdin_used+0x118>
    3ac7:	00 
    3ac8:	f2 0f 11 84 24 c0 00 	movsd  %xmm0,0xc0(%rsp)
    3acf:	00 00 
    3ad1:	f2 0f 10 05 47 46 00 	movsd  0x4647(%rip),%xmm0        # 8120 <_IO_stdin_used+0x120>
    3ad8:	00 
    3ad9:	f2 0f 11 84 24 c8 00 	movsd  %xmm0,0xc8(%rsp)
    3ae0:	00 00 
    3ae2:	f2 0f 10 05 3e 46 00 	movsd  0x463e(%rip),%xmm0        # 8128 <_IO_stdin_used+0x128>
    3ae9:	00 
    3aea:	f2 0f 11 84 24 d0 00 	movsd  %xmm0,0xd0(%rsp)
    3af1:	00 00 
    3af3:	f2 0f 10 05 35 46 00 	movsd  0x4635(%rip),%xmm0        # 8130 <_IO_stdin_used+0x130>
    3afa:	00 
    3afb:	f2 0f 11 84 24 d8 00 	movsd  %xmm0,0xd8(%rsp)
    3b02:	00 00 
    3b04:	f2 0f 10 05 2c 46 00 	movsd  0x462c(%rip),%xmm0        # 8138 <_IO_stdin_used+0x138>
    3b0b:	00 
    3b0c:	f2 0f 11 84 24 e0 00 	movsd  %xmm0,0xe0(%rsp)
    3b13:	00 00 
    3b15:	f2 0f 10 05 23 46 00 	movsd  0x4623(%rip),%xmm0        # 8140 <_IO_stdin_used+0x140>
    3b1c:	00 
    3b1d:	f2 0f 11 84 24 e8 00 	movsd  %xmm0,0xe8(%rsp)
    3b24:	00 00 
    3b26:	f2 0f 10 05 1a 46 00 	movsd  0x461a(%rip),%xmm0        # 8148 <_IO_stdin_used+0x148>
    3b2d:	00 
    3b2e:	f2 0f 11 84 24 f0 00 	movsd  %xmm0,0xf0(%rsp)
    3b35:	00 00 
    3b37:	f2 0f 10 05 11 46 00 	movsd  0x4611(%rip),%xmm0        # 8150 <_IO_stdin_used+0x150>
    3b3e:	00 
    3b3f:	f2 0f 11 84 24 f8 00 	movsd  %xmm0,0xf8(%rsp)
    3b46:	00 00 
    3b48:	f2 0f 10 05 08 46 00 	movsd  0x4608(%rip),%xmm0        # 8158 <_IO_stdin_used+0x158>
    3b4f:	00 
    3b50:	f2 0f 11 84 24 00 01 	movsd  %xmm0,0x100(%rsp)
    3b57:	00 00 
    3b59:	f2 0f 10 05 ff 45 00 	movsd  0x45ff(%rip),%xmm0        # 8160 <_IO_stdin_used+0x160>
    3b60:	00 
    3b61:	f2 0f 11 84 24 08 01 	movsd  %xmm0,0x108(%rsp)
    3b68:	00 00 
    3b6a:	f2 0f 10 05 f6 45 00 	movsd  0x45f6(%rip),%xmm0        # 8168 <_IO_stdin_used+0x168>
    3b71:	00 
    3b72:	f2 0f 11 84 24 10 01 	movsd  %xmm0,0x110(%rsp)
    3b79:	00 00 
    3b7b:	f2 0f 10 05 ed 45 00 	movsd  0x45ed(%rip),%xmm0        # 8170 <_IO_stdin_used+0x170>
    3b82:	00 
    3b83:	f2 0f 11 84 24 18 01 	movsd  %xmm0,0x118(%rsp)
    3b8a:	00 00 
    3b8c:	f2 0f 10 05 e4 45 00 	movsd  0x45e4(%rip),%xmm0        # 8178 <_IO_stdin_used+0x178>
    3b93:	00 
    3b94:	f2 0f 11 84 24 20 01 	movsd  %xmm0,0x120(%rsp)
    3b9b:	00 00 
    3b9d:	f2 0f 10 05 db 45 00 	movsd  0x45db(%rip),%xmm0        # 8180 <_IO_stdin_used+0x180>
    3ba4:	00 
    3ba5:	f2 0f 11 84 24 28 01 	movsd  %xmm0,0x128(%rsp)
    3bac:	00 00 
    3bae:	f2 0f 10 05 d2 45 00 	movsd  0x45d2(%rip),%xmm0        # 8188 <_IO_stdin_used+0x188>
    3bb5:	00 
    3bb6:	f2 0f 11 84 24 30 01 	movsd  %xmm0,0x130(%rsp)
    3bbd:	00 00 
    3bbf:	f2 0f 10 05 c9 45 00 	movsd  0x45c9(%rip),%xmm0        # 8190 <_IO_stdin_used+0x190>
    3bc6:	00 
    3bc7:	f2 0f 11 84 24 38 01 	movsd  %xmm0,0x138(%rsp)
    3bce:	00 00 
    3bd0:	f2 0f 10 05 c0 45 00 	movsd  0x45c0(%rip),%xmm0        # 8198 <_IO_stdin_used+0x198>
    3bd7:	00 
    3bd8:	f2 0f 11 84 24 40 01 	movsd  %xmm0,0x140(%rsp)
    3bdf:	00 00 
    3be1:	f2 0f 10 05 b7 45 00 	movsd  0x45b7(%rip),%xmm0        # 81a0 <_IO_stdin_used+0x1a0>
    3be8:	00 
    3be9:	f2 0f 11 84 24 48 01 	movsd  %xmm0,0x148(%rsp)
    3bf0:	00 00 
    3bf2:	f2 0f 10 05 ae 45 00 	movsd  0x45ae(%rip),%xmm0        # 81a8 <_IO_stdin_used+0x1a8>
    3bf9:	00 
    3bfa:	f2 0f 11 84 24 50 01 	movsd  %xmm0,0x150(%rsp)
    3c01:	00 00 
    3c03:	f2 0f 10 05 a5 45 00 	movsd  0x45a5(%rip),%xmm0        # 81b0 <_IO_stdin_used+0x1b0>
    3c0a:	00 
    3c0b:	f2 0f 11 84 24 58 01 	movsd  %xmm0,0x158(%rsp)
    3c12:	00 00 
    3c14:	f2 0f 10 05 9c 45 00 	movsd  0x459c(%rip),%xmm0        # 81b8 <_IO_stdin_used+0x1b8>
    3c1b:	00 
    3c1c:	f2 0f 11 84 24 60 01 	movsd  %xmm0,0x160(%rsp)
    3c23:	00 00 
    3c25:	f2 0f 10 05 93 45 00 	movsd  0x4593(%rip),%xmm0        # 81c0 <_IO_stdin_used+0x1c0>
    3c2c:	00 
    3c2d:	f2 0f 11 84 24 68 01 	movsd  %xmm0,0x168(%rsp)
    3c34:	00 00 
    3c36:	f2 0f 10 05 8a 45 00 	movsd  0x458a(%rip),%xmm0        # 81c8 <_IO_stdin_used+0x1c8>
    3c3d:	00 
    3c3e:	f2 0f 11 84 24 70 01 	movsd  %xmm0,0x170(%rsp)
    3c45:	00 00 
    3c47:	f2 0f 10 05 81 45 00 	movsd  0x4581(%rip),%xmm0        # 81d0 <_IO_stdin_used+0x1d0>
    3c4e:	00 
    3c4f:	f2 0f 11 84 24 78 01 	movsd  %xmm0,0x178(%rsp)
    3c56:	00 00 
    3c58:	e9 b3 09 00 00       	jmp    4610 <verify_+0xe60>
    3c5d:	0f 1f 00             	nopl   (%rax)
    3c60:	3d 00 08 00 00       	cmp    $0x800,%eax
    3c65:	0f 85 e5 02 00 00    	jne    3f50 <verify_+0x7a0>
    3c6b:	41 81 3f 00 04 00 00 	cmpl   $0x400,(%r15)
    3c72:	0f 85 9e fb ff ff    	jne    3816 <verify_+0x66>
    3c78:	81 3b 00 04 00 00    	cmpl   $0x400,(%rbx)
    3c7e:	0f 85 92 fb ff ff    	jne    3816 <verify_+0x66>
    3c84:	41 8b 1e             	mov    (%r14),%ebx
    3c87:	83 fb 19             	cmp    $0x19,%ebx
    3c8a:	0f 85 86 fb ff ff    	jne    3816 <verify_+0x66>
    3c90:	f2 0f 10 05 40 45 00 	movsd  0x4540(%rip),%xmm0        # 81d8 <_IO_stdin_used+0x1d8>
    3c97:	00 
    3c98:	c6 45 00 44          	movb   $0x44,0x0(%rbp)
    3c9c:	f2 0f 11 44 24 40    	movsd  %xmm0,0x40(%rsp)
    3ca2:	f2 0f 10 05 36 45 00 	movsd  0x4536(%rip),%xmm0        # 81e0 <_IO_stdin_used+0x1e0>
    3ca9:	00 
    3caa:	f2 0f 11 44 24 48    	movsd  %xmm0,0x48(%rsp)
    3cb0:	f2 0f 10 05 30 45 00 	movsd  0x4530(%rip),%xmm0        # 81e8 <_IO_stdin_used+0x1e8>
    3cb7:	00 
    3cb8:	f2 0f 11 44 24 50    	movsd  %xmm0,0x50(%rsp)
    3cbe:	f2 0f 10 05 2a 45 00 	movsd  0x452a(%rip),%xmm0        # 81f0 <_IO_stdin_used+0x1f0>
    3cc5:	00 
    3cc6:	f2 0f 11 44 24 58    	movsd  %xmm0,0x58(%rsp)
    3ccc:	f2 0f 10 05 24 45 00 	movsd  0x4524(%rip),%xmm0        # 81f8 <_IO_stdin_used+0x1f8>
    3cd3:	00 
    3cd4:	f2 0f 11 44 24 60    	movsd  %xmm0,0x60(%rsp)
    3cda:	f2 0f 10 05 1e 45 00 	movsd  0x451e(%rip),%xmm0        # 8200 <_IO_stdin_used+0x200>
    3ce1:	00 
    3ce2:	f2 0f 11 44 24 68    	movsd  %xmm0,0x68(%rsp)
    3ce8:	f2 0f 10 05 18 45 00 	movsd  0x4518(%rip),%xmm0        # 8208 <_IO_stdin_used+0x208>
    3cef:	00 
    3cf0:	f2 0f 11 44 24 70    	movsd  %xmm0,0x70(%rsp)
    3cf6:	f2 0f 10 05 12 45 00 	movsd  0x4512(%rip),%xmm0        # 8210 <_IO_stdin_used+0x210>
    3cfd:	00 
    3cfe:	f2 0f 11 44 24 78    	movsd  %xmm0,0x78(%rsp)
    3d04:	f2 0f 10 05 0c 45 00 	movsd  0x450c(%rip),%xmm0        # 8218 <_IO_stdin_used+0x218>
    3d0b:	00 
    3d0c:	f2 0f 11 84 24 80 00 	movsd  %xmm0,0x80(%rsp)
    3d13:	00 00 
    3d15:	f2 0f 10 05 03 45 00 	movsd  0x4503(%rip),%xmm0        # 8220 <_IO_stdin_used+0x220>
    3d1c:	00 
    3d1d:	f2 0f 11 84 24 88 00 	movsd  %xmm0,0x88(%rsp)
    3d24:	00 00 
    3d26:	f2 0f 10 05 fa 44 00 	movsd  0x44fa(%rip),%xmm0        # 8228 <_IO_stdin_used+0x228>
    3d2d:	00 
    3d2e:	f2 0f 11 84 24 90 00 	movsd  %xmm0,0x90(%rsp)
    3d35:	00 00 
    3d37:	f2 0f 10 05 f1 44 00 	movsd  0x44f1(%rip),%xmm0        # 8230 <_IO_stdin_used+0x230>
    3d3e:	00 
    3d3f:	f2 0f 11 84 24 98 00 	movsd  %xmm0,0x98(%rsp)
    3d46:	00 00 
    3d48:	f2 0f 10 05 e8 44 00 	movsd  0x44e8(%rip),%xmm0        # 8238 <_IO_stdin_used+0x238>
    3d4f:	00 
    3d50:	f2 0f 11 84 24 a0 00 	movsd  %xmm0,0xa0(%rsp)
    3d57:	00 00 
    3d59:	f2 0f 10 05 df 44 00 	movsd  0x44df(%rip),%xmm0        # 8240 <_IO_stdin_used+0x240>
    3d60:	00 
    3d61:	f2 0f 11 84 24 a8 00 	movsd  %xmm0,0xa8(%rsp)
    3d68:	00 00 
    3d6a:	f2 0f 10 05 d6 44 00 	movsd  0x44d6(%rip),%xmm0        # 8248 <_IO_stdin_used+0x248>
    3d71:	00 
    3d72:	f2 0f 11 84 24 b0 00 	movsd  %xmm0,0xb0(%rsp)
    3d79:	00 00 
    3d7b:	f2 0f 10 05 cd 44 00 	movsd  0x44cd(%rip),%xmm0        # 8250 <_IO_stdin_used+0x250>
    3d82:	00 
    3d83:	f2 0f 11 84 24 b8 00 	movsd  %xmm0,0xb8(%rsp)
    3d8a:	00 00 
    3d8c:	f2 0f 10 05 c4 44 00 	movsd  0x44c4(%rip),%xmm0        # 8258 <_IO_stdin_used+0x258>
    3d93:	00 
    3d94:	f2 0f 11 84 24 c0 00 	movsd  %xmm0,0xc0(%rsp)
    3d9b:	00 00 
    3d9d:	f2 0f 10 05 bb 44 00 	movsd  0x44bb(%rip),%xmm0        # 8260 <_IO_stdin_used+0x260>
    3da4:	00 
    3da5:	f2 0f 11 84 24 c8 00 	movsd  %xmm0,0xc8(%rsp)
    3dac:	00 00 
    3dae:	f2 0f 10 05 b2 44 00 	movsd  0x44b2(%rip),%xmm0        # 8268 <_IO_stdin_used+0x268>
    3db5:	00 
    3db6:	f2 0f 11 84 24 d0 00 	movsd  %xmm0,0xd0(%rsp)
    3dbd:	00 00 
    3dbf:	f2 0f 10 05 a9 44 00 	movsd  0x44a9(%rip),%xmm0        # 8270 <_IO_stdin_used+0x270>
    3dc6:	00 
    3dc7:	f2 0f 11 84 24 d8 00 	movsd  %xmm0,0xd8(%rsp)
    3dce:	00 00 
    3dd0:	f2 0f 10 05 a0 44 00 	movsd  0x44a0(%rip),%xmm0        # 8278 <_IO_stdin_used+0x278>
    3dd7:	00 
    3dd8:	f2 0f 11 84 24 e0 00 	movsd  %xmm0,0xe0(%rsp)
    3ddf:	00 00 
    3de1:	f2 0f 10 05 97 44 00 	movsd  0x4497(%rip),%xmm0        # 8280 <_IO_stdin_used+0x280>
    3de8:	00 
    3de9:	f2 0f 11 84 24 e8 00 	movsd  %xmm0,0xe8(%rsp)
    3df0:	00 00 
    3df2:	f2 0f 10 05 8e 44 00 	movsd  0x448e(%rip),%xmm0        # 8288 <_IO_stdin_used+0x288>
    3df9:	00 
    3dfa:	f2 0f 11 84 24 f0 00 	movsd  %xmm0,0xf0(%rsp)
    3e01:	00 00 
    3e03:	f2 0f 10 05 85 44 00 	movsd  0x4485(%rip),%xmm0        # 8290 <_IO_stdin_used+0x290>
    3e0a:	00 
    3e0b:	f2 0f 11 84 24 f8 00 	movsd  %xmm0,0xf8(%rsp)
    3e12:	00 00 
    3e14:	f2 0f 10 05 7c 44 00 	movsd  0x447c(%rip),%xmm0        # 8298 <_IO_stdin_used+0x298>
    3e1b:	00 
    3e1c:	f2 0f 11 84 24 00 01 	movsd  %xmm0,0x100(%rsp)
    3e23:	00 00 
    3e25:	f2 0f 10 05 73 44 00 	movsd  0x4473(%rip),%xmm0        # 82a0 <_IO_stdin_used+0x2a0>
    3e2c:	00 
    3e2d:	f2 0f 11 84 24 08 01 	movsd  %xmm0,0x108(%rsp)
    3e34:	00 00 
    3e36:	f2 0f 10 05 6a 44 00 	movsd  0x446a(%rip),%xmm0        # 82a8 <_IO_stdin_used+0x2a8>
    3e3d:	00 
    3e3e:	f2 0f 11 84 24 10 01 	movsd  %xmm0,0x110(%rsp)
    3e45:	00 00 
    3e47:	f2 0f 10 05 61 44 00 	movsd  0x4461(%rip),%xmm0        # 82b0 <_IO_stdin_used+0x2b0>
    3e4e:	00 
    3e4f:	f2 0f 11 84 24 18 01 	movsd  %xmm0,0x118(%rsp)
    3e56:	00 00 
    3e58:	f2 0f 10 05 58 44 00 	movsd  0x4458(%rip),%xmm0        # 82b8 <_IO_stdin_used+0x2b8>
    3e5f:	00 
    3e60:	f2 0f 11 84 24 20 01 	movsd  %xmm0,0x120(%rsp)
    3e67:	00 00 
    3e69:	f2 0f 10 05 4f 44 00 	movsd  0x444f(%rip),%xmm0        # 82c0 <_IO_stdin_used+0x2c0>
    3e70:	00 
    3e71:	f2 0f 11 84 24 28 01 	movsd  %xmm0,0x128(%rsp)
    3e78:	00 00 
    3e7a:	f2 0f 10 05 46 44 00 	movsd  0x4446(%rip),%xmm0        # 82c8 <_IO_stdin_used+0x2c8>
    3e81:	00 
    3e82:	f2 0f 11 84 24 30 01 	movsd  %xmm0,0x130(%rsp)
    3e89:	00 00 
    3e8b:	f2 0f 10 05 3d 44 00 	movsd  0x443d(%rip),%xmm0        # 82d0 <_IO_stdin_used+0x2d0>
    3e92:	00 
    3e93:	f2 0f 11 84 24 38 01 	movsd  %xmm0,0x138(%rsp)
    3e9a:	00 00 
    3e9c:	f2 0f 10 05 34 44 00 	movsd  0x4434(%rip),%xmm0        # 82d8 <_IO_stdin_used+0x2d8>
    3ea3:	00 
    3ea4:	f2 0f 11 84 24 40 01 	movsd  %xmm0,0x140(%rsp)
    3eab:	00 00 
    3ead:	f2 0f 10 05 2b 44 00 	movsd  0x442b(%rip),%xmm0        # 82e0 <_IO_stdin_used+0x2e0>
    3eb4:	00 
    3eb5:	f2 0f 11 84 24 48 01 	movsd  %xmm0,0x148(%rsp)
    3ebc:	00 00 
    3ebe:	f2 0f 10 05 22 44 00 	movsd  0x4422(%rip),%xmm0        # 82e8 <_IO_stdin_used+0x2e8>
    3ec5:	00 
    3ec6:	f2 0f 11 84 24 50 01 	movsd  %xmm0,0x150(%rsp)
    3ecd:	00 00 
    3ecf:	f2 0f 10 05 19 44 00 	movsd  0x4419(%rip),%xmm0        # 82f0 <_IO_stdin_used+0x2f0>
    3ed6:	00 
    3ed7:	f2 0f 11 84 24 58 01 	movsd  %xmm0,0x158(%rsp)
    3ede:	00 00 
    3ee0:	f2 0f 10 05 10 44 00 	movsd  0x4410(%rip),%xmm0        # 82f8 <_IO_stdin_used+0x2f8>
    3ee7:	00 
    3ee8:	f2 0f 11 84 24 60 01 	movsd  %xmm0,0x160(%rsp)
    3eef:	00 00 
    3ef1:	f2 0f 10 05 07 44 00 	movsd  0x4407(%rip),%xmm0        # 8300 <_IO_stdin_used+0x300>
    3ef8:	00 
    3ef9:	f2 0f 11 84 24 68 01 	movsd  %xmm0,0x168(%rsp)
    3f00:	00 00 
    3f02:	f2 0f 10 05 fe 43 00 	movsd  0x43fe(%rip),%xmm0        # 8308 <_IO_stdin_used+0x308>
    3f09:	00 
    3f0a:	f2 0f 11 84 24 70 01 	movsd  %xmm0,0x170(%rsp)
    3f11:	00 00 
    3f13:	f2 0f 10 05 f5 43 00 	movsd  0x43f5(%rip),%xmm0        # 8310 <_IO_stdin_used+0x310>
    3f1a:	00 
    3f1b:	f2 0f 11 84 24 78 01 	movsd  %xmm0,0x178(%rsp)
    3f22:	00 00 
    3f24:	f2 0f 10 05 ec 43 00 	movsd  0x43ec(%rip),%xmm0        # 8318 <_IO_stdin_used+0x318>
    3f2b:	00 
    3f2c:	f2 0f 11 84 24 80 01 	movsd  %xmm0,0x180(%rsp)
    3f33:	00 00 
    3f35:	f2 0f 10 05 e3 43 00 	movsd  0x43e3(%rip),%xmm0        # 8320 <_IO_stdin_used+0x320>
    3f3c:	00 
    3f3d:	f2 0f 11 84 24 88 01 	movsd  %xmm0,0x188(%rsp)
    3f44:	00 00 
    3f46:	e9 c5 06 00 00       	jmp    4610 <verify_+0xe60>
    3f4b:	0f 1f 44 00 00       	nopl   0x0(%rax,%rax,1)
    3f50:	3d 00 10 00 00       	cmp    $0x1000,%eax
    3f55:	0f 85 e5 02 00 00    	jne    4240 <verify_+0xa90>
    3f5b:	41 81 3f 00 08 00 00 	cmpl   $0x800,(%r15)
    3f62:	0f 85 ae f8 ff ff    	jne    3816 <verify_+0x66>
    3f68:	81 3b 00 08 00 00    	cmpl   $0x800,(%rbx)
    3f6e:	0f 85 a2 f8 ff ff    	jne    3816 <verify_+0x66>
    3f74:	41 8b 1e             	mov    (%r14),%ebx
    3f77:	83 fb 19             	cmp    $0x19,%ebx
    3f7a:	0f 85 96 f8 ff ff    	jne    3816 <verify_+0x66>
    3f80:	f2 0f 10 05 a0 43 00 	movsd  0x43a0(%rip),%xmm0        # 8328 <_IO_stdin_used+0x328>
    3f87:	00 
    3f88:	c6 45 00 45          	movb   $0x45,0x0(%rbp)
    3f8c:	f2 0f 11 44 24 40    	movsd  %xmm0,0x40(%rsp)
    3f92:	f2 0f 10 05 96 43 00 	movsd  0x4396(%rip),%xmm0        # 8330 <_IO_stdin_used+0x330>
    3f99:	00 
    3f9a:	f2 0f 11 44 24 48    	movsd  %xmm0,0x48(%rsp)
    3fa0:	f2 0f 10 05 90 43 00 	movsd  0x4390(%rip),%xmm0        # 8338 <_IO_stdin_used+0x338>
    3fa7:	00 
    3fa8:	f2 0f 11 44 24 50    	movsd  %xmm0,0x50(%rsp)
    3fae:	f2 0f 10 05 8a 43 00 	movsd  0x438a(%rip),%xmm0        # 8340 <_IO_stdin_used+0x340>
    3fb5:	00 
    3fb6:	f2 0f 11 44 24 58    	movsd  %xmm0,0x58(%rsp)
    3fbc:	f2 0f 10 05 84 43 00 	movsd  0x4384(%rip),%xmm0        # 8348 <_IO_stdin_used+0x348>
    3fc3:	00 
    3fc4:	f2 0f 11 44 24 60    	movsd  %xmm0,0x60(%rsp)
    3fca:	f2 0f 10 05 7e 43 00 	movsd  0x437e(%rip),%xmm0        # 8350 <_IO_stdin_used+0x350>
    3fd1:	00 
    3fd2:	f2 0f 11 44 24 68    	movsd  %xmm0,0x68(%rsp)
    3fd8:	f2 0f 10 05 78 43 00 	movsd  0x4378(%rip),%xmm0        # 8358 <_IO_stdin_used+0x358>
    3fdf:	00 
    3fe0:	f2 0f 11 44 24 70    	movsd  %xmm0,0x70(%rsp)
    3fe6:	f2 0f 10 05 72 43 00 	movsd  0x4372(%rip),%xmm0        # 8360 <_IO_stdin_used+0x360>
    3fed:	00 
    3fee:	f2 0f 11 44 24 78    	movsd  %xmm0,0x78(%rsp)
    3ff4:	f2 0f 10 05 6c 43 00 	movsd  0x436c(%rip),%xmm0        # 8368 <_IO_stdin_used+0x368>
    3ffb:	00 
    3ffc:	f2 0f 11 84 24 80 00 	movsd  %xmm0,0x80(%rsp)
    4003:	00 00 
    4005:	f2 0f 10 05 63 43 00 	movsd  0x4363(%rip),%xmm0        # 8370 <_IO_stdin_used+0x370>
    400c:	00 
    400d:	f2 0f 11 84 24 88 00 	movsd  %xmm0,0x88(%rsp)
    4014:	00 00 
    4016:	f2 0f 10 05 5a 43 00 	movsd  0x435a(%rip),%xmm0        # 8378 <_IO_stdin_used+0x378>
    401d:	00 
    401e:	f2 0f 11 84 24 90 00 	movsd  %xmm0,0x90(%rsp)
    4025:	00 00 
    4027:	f2 0f 10 05 51 43 00 	movsd  0x4351(%rip),%xmm0        # 8380 <_IO_stdin_used+0x380>
    402e:	00 
    402f:	f2 0f 11 84 24 98 00 	movsd  %xmm0,0x98(%rsp)
    4036:	00 00 
    4038:	f2 0f 10 05 48 43 00 	movsd  0x4348(%rip),%xmm0        # 8388 <_IO_stdin_used+0x388>
    403f:	00 
    4040:	f2 0f 11 84 24 a0 00 	movsd  %xmm0,0xa0(%rsp)
    4047:	00 00 
    4049:	f2 0f 10 05 3f 43 00 	movsd  0x433f(%rip),%xmm0        # 8390 <_IO_stdin_used+0x390>
    4050:	00 
    4051:	f2 0f 11 84 24 a8 00 	movsd  %xmm0,0xa8(%rsp)
    4058:	00 00 
    405a:	f2 0f 10 05 36 43 00 	movsd  0x4336(%rip),%xmm0        # 8398 <_IO_stdin_used+0x398>
    4061:	00 
    4062:	f2 0f 11 84 24 b0 00 	movsd  %xmm0,0xb0(%rsp)
    4069:	00 00 
    406b:	f2 0f 10 05 2d 43 00 	movsd  0x432d(%rip),%xmm0        # 83a0 <_IO_stdin_used+0x3a0>
    4072:	00 
    4073:	f2 0f 11 84 24 b8 00 	movsd  %xmm0,0xb8(%rsp)
    407a:	00 00 
    407c:	f2 0f 10 05 24 43 00 	movsd  0x4324(%rip),%xmm0        # 83a8 <_IO_stdin_used+0x3a8>
    4083:	00 
    4084:	f2 0f 11 84 24 c0 00 	movsd  %xmm0,0xc0(%rsp)
    408b:	00 00 
    408d:	f2 0f 10 05 1b 43 00 	movsd  0x431b(%rip),%xmm0        # 83b0 <_IO_stdin_used+0x3b0>
    4094:	00 
    4095:	f2 0f 11 84 24 c8 00 	movsd  %xmm0,0xc8(%rsp)
    409c:	00 00 
    409e:	f2 0f 10 05 12 43 00 	movsd  0x4312(%rip),%xmm0        # 83b8 <_IO_stdin_used+0x3b8>
    40a5:	00 
    40a6:	f2 0f 11 84 24 d0 00 	movsd  %xmm0,0xd0(%rsp)
    40ad:	00 00 
    40af:	f2 0f 10 05 09 43 00 	movsd  0x4309(%rip),%xmm0        # 83c0 <_IO_stdin_used+0x3c0>
    40b6:	00 
    40b7:	f2 0f 11 84 24 d8 00 	movsd  %xmm0,0xd8(%rsp)
    40be:	00 00 
    40c0:	f2 0f 10 05 00 43 00 	movsd  0x4300(%rip),%xmm0        # 83c8 <_IO_stdin_used+0x3c8>
    40c7:	00 
    40c8:	f2 0f 11 84 24 e0 00 	movsd  %xmm0,0xe0(%rsp)
    40cf:	00 00 
    40d1:	f2 0f 10 05 f7 42 00 	movsd  0x42f7(%rip),%xmm0        # 83d0 <_IO_stdin_used+0x3d0>
    40d8:	00 
    40d9:	f2 0f 11 84 24 e8 00 	movsd  %xmm0,0xe8(%rsp)
    40e0:	00 00 
    40e2:	f2 0f 10 05 ee 42 00 	movsd  0x42ee(%rip),%xmm0        # 83d8 <_IO_stdin_used+0x3d8>
    40e9:	00 
    40ea:	f2 0f 11 84 24 f0 00 	movsd  %xmm0,0xf0(%rsp)
    40f1:	00 00 
    40f3:	f2 0f 10 05 e5 42 00 	movsd  0x42e5(%rip),%xmm0        # 83e0 <_IO_stdin_used+0x3e0>
    40fa:	00 
    40fb:	f2 0f 11 84 24 f8 00 	movsd  %xmm0,0xf8(%rsp)
    4102:	00 00 
    4104:	f2 0f 10 05 dc 42 00 	movsd  0x42dc(%rip),%xmm0        # 83e8 <_IO_stdin_used+0x3e8>
    410b:	00 
    410c:	f2 0f 11 84 24 00 01 	movsd  %xmm0,0x100(%rsp)
    4113:	00 00 
    4115:	f2 0f 10 05 d3 42 00 	movsd  0x42d3(%rip),%xmm0        # 83f0 <_IO_stdin_used+0x3f0>
    411c:	00 
    411d:	f2 0f 11 84 24 08 01 	movsd  %xmm0,0x108(%rsp)
    4124:	00 00 
    4126:	f2 0f 10 05 ca 42 00 	movsd  0x42ca(%rip),%xmm0        # 83f8 <_IO_stdin_used+0x3f8>
    412d:	00 
    412e:	f2 0f 11 84 24 10 01 	movsd  %xmm0,0x110(%rsp)
    4135:	00 00 
    4137:	f2 0f 10 05 c1 42 00 	movsd  0x42c1(%rip),%xmm0        # 8400 <_IO_stdin_used+0x400>
    413e:	00 
    413f:	f2 0f 11 84 24 18 01 	movsd  %xmm0,0x118(%rsp)
    4146:	00 00 
    4148:	f2 0f 10 05 b8 42 00 	movsd  0x42b8(%rip),%xmm0        # 8408 <_IO_stdin_used+0x408>
    414f:	00 
    4150:	f2 0f 11 84 24 20 01 	movsd  %xmm0,0x120(%rsp)
    4157:	00 00 
    4159:	f2 0f 10 05 af 42 00 	movsd  0x42af(%rip),%xmm0        # 8410 <_IO_stdin_used+0x410>
    4160:	00 
    4161:	f2 0f 11 84 24 28 01 	movsd  %xmm0,0x128(%rsp)
    4168:	00 00 
    416a:	f2 0f 10 05 a6 42 00 	movsd  0x42a6(%rip),%xmm0        # 8418 <_IO_stdin_used+0x418>
    4171:	00 
    4172:	f2 0f 11 84 24 30 01 	movsd  %xmm0,0x130(%rsp)
    4179:	00 00 
    417b:	f2 0f 10 05 9d 42 00 	movsd  0x429d(%rip),%xmm0        # 8420 <_IO_stdin_used+0x420>
    4182:	00 
    4183:	f2 0f 11 84 24 38 01 	movsd  %xmm0,0x138(%rsp)
    418a:	00 00 
    418c:	f2 0f 10 05 94 42 00 	movsd  0x4294(%rip),%xmm0        # 8428 <_IO_stdin_used+0x428>
    4193:	00 
    4194:	f2 0f 11 84 24 40 01 	movsd  %xmm0,0x140(%rsp)
    419b:	00 00 
    419d:	f2 0f 10 05 8b 42 00 	movsd  0x428b(%rip),%xmm0        # 8430 <_IO_stdin_used+0x430>
    41a4:	00 
    41a5:	f2 0f 11 84 24 48 01 	movsd  %xmm0,0x148(%rsp)
    41ac:	00 00 
    41ae:	f2 0f 10 05 82 42 00 	movsd  0x4282(%rip),%xmm0        # 8438 <_IO_stdin_used+0x438>
    41b5:	00 
    41b6:	f2 0f 11 84 24 50 01 	movsd  %xmm0,0x150(%rsp)
    41bd:	00 00 
    41bf:	f2 0f 10 05 79 42 00 	movsd  0x4279(%rip),%xmm0        # 8440 <_IO_stdin_used+0x440>
    41c6:	00 
    41c7:	f2 0f 11 84 24 58 01 	movsd  %xmm0,0x158(%rsp)
    41ce:	00 00 
    41d0:	f2 0f 10 05 70 42 00 	movsd  0x4270(%rip),%xmm0        # 8448 <_IO_stdin_used+0x448>
    41d7:	00 
    41d8:	f2 0f 11 84 24 60 01 	movsd  %xmm0,0x160(%rsp)
    41df:	00 00 
    41e1:	f2 0f 10 05 67 42 00 	movsd  0x4267(%rip),%xmm0        # 8450 <_IO_stdin_used+0x450>
    41e8:	00 
    41e9:	f2 0f 11 84 24 68 01 	movsd  %xmm0,0x168(%rsp)
    41f0:	00 00 
    41f2:	f2 0f 10 05 5e 42 00 	movsd  0x425e(%rip),%xmm0        # 8458 <_IO_stdin_used+0x458>
    41f9:	00 
    41fa:	f2 0f 11 84 24 70 01 	movsd  %xmm0,0x170(%rsp)
    4201:	00 00 
    4203:	f2 0f 10 05 55 42 00 	movsd  0x4255(%rip),%xmm0        # 8460 <_IO_stdin_used+0x460>
    420a:	00 
    420b:	f2 0f 11 84 24 78 01 	movsd  %xmm0,0x178(%rsp)
    4212:	00 00 
    4214:	f2 0f 10 05 4c 42 00 	movsd  0x424c(%rip),%xmm0        # 8468 <_IO_stdin_used+0x468>
    421b:	00 
    421c:	f2 0f 11 84 24 80 01 	movsd  %xmm0,0x180(%rsp)
    4223:	00 00 
    4225:	f2 0f 10 05 43 42 00 	movsd  0x4243(%rip),%xmm0        # 8470 <_IO_stdin_used+0x470>
    422c:	00 
    422d:	f2 0f 11 84 24 88 01 	movsd  %xmm0,0x188(%rsp)
    4234:	00 00 
    4236:	e9 d5 03 00 00       	jmp    4610 <verify_+0xe60>
    423b:	0f 1f 44 00 00       	nopl   0x0(%rax,%rax,1)
    4240:	3d 00 20 00 00       	cmp    $0x2000,%eax
    4245:	0f 85 cb f5 ff ff    	jne    3816 <verify_+0x66>
    424b:	41 81 3f 00 10 00 00 	cmpl   $0x1000,(%r15)
    4252:	0f 85 be f5 ff ff    	jne    3816 <verify_+0x66>
    4258:	81 3b 00 10 00 00    	cmpl   $0x1000,(%rbx)
    425e:	0f 85 b2 f5 ff ff    	jne    3816 <verify_+0x66>
    4264:	41 8b 1e             	mov    (%r14),%ebx
    4267:	83 fb 19             	cmp    $0x19,%ebx
    426a:	0f 85 a6 f5 ff ff    	jne    3816 <verify_+0x66>
    4270:	f2 0f 10 05 00 42 00 	movsd  0x4200(%rip),%xmm0        # 8478 <_IO_stdin_used+0x478>
    4277:	00 
    4278:	c6 45 00 46          	movb   $0x46,0x0(%rbp)
    427c:	f2 0f 11 44 24 40    	movsd  %xmm0,0x40(%rsp)
    4282:	f2 0f 10 05 f6 41 00 	movsd  0x41f6(%rip),%xmm0        # 8480 <_IO_stdin_used+0x480>
    4289:	00 
    428a:	f2 0f 11 44 24 48    	movsd  %xmm0,0x48(%rsp)
    4290:	f2 0f 10 05 f0 41 00 	movsd  0x41f0(%rip),%xmm0        # 8488 <_IO_stdin_used+0x488>
    4297:	00 
    4298:	f2 0f 11 44 24 50    	movsd  %xmm0,0x50(%rsp)
    429e:	f2 0f 10 05 ea 41 00 	movsd  0x41ea(%rip),%xmm0        # 8490 <_IO_stdin_used+0x490>
    42a5:	00 
    42a6:	f2 0f 11 44 24 58    	movsd  %xmm0,0x58(%rsp)
    42ac:	f2 0f 10 05 e4 41 00 	movsd  0x41e4(%rip),%xmm0        # 8498 <_IO_stdin_used+0x498>
    42b3:	00 
    42b4:	f2 0f 11 44 24 60    	movsd  %xmm0,0x60(%rsp)
    42ba:	f2 0f 10 05 de 41 00 	movsd  0x41de(%rip),%xmm0        # 84a0 <_IO_stdin_used+0x4a0>
    42c1:	00 
    42c2:	f2 0f 11 44 24 68    	movsd  %xmm0,0x68(%rsp)
    42c8:	f2 0f 10 05 d8 41 00 	movsd  0x41d8(%rip),%xmm0        # 84a8 <_IO_stdin_used+0x4a8>
    42cf:	00 
    42d0:	f2 0f 11 44 24 70    	movsd  %xmm0,0x70(%rsp)
    42d6:	f2 0f 10 05 d2 41 00 	movsd  0x41d2(%rip),%xmm0        # 84b0 <_IO_stdin_used+0x4b0>
    42dd:	00 
    42de:	f2 0f 11 44 24 78    	movsd  %xmm0,0x78(%rsp)
    42e4:	f2 0f 10 05 cc 41 00 	movsd  0x41cc(%rip),%xmm0        # 84b8 <_IO_stdin_used+0x4b8>
    42eb:	00 
    42ec:	f2 0f 11 84 24 80 00 	movsd  %xmm0,0x80(%rsp)
    42f3:	00 00 
    42f5:	f2 0f 10 05 c3 41 00 	movsd  0x41c3(%rip),%xmm0        # 84c0 <_IO_stdin_used+0x4c0>
    42fc:	00 
    42fd:	f2 0f 11 84 24 88 00 	movsd  %xmm0,0x88(%rsp)
    4304:	00 00 
    4306:	f2 0f 10 05 ba 41 00 	movsd  0x41ba(%rip),%xmm0        # 84c8 <_IO_stdin_used+0x4c8>
    430d:	00 
    430e:	f2 0f 11 84 24 90 00 	movsd  %xmm0,0x90(%rsp)
    4315:	00 00 
    4317:	f2 0f 10 05 b1 41 00 	movsd  0x41b1(%rip),%xmm0        # 84d0 <_IO_stdin_used+0x4d0>
    431e:	00 
    431f:	f2 0f 11 84 24 98 00 	movsd  %xmm0,0x98(%rsp)
    4326:	00 00 
    4328:	f2 0f 10 05 a8 41 00 	movsd  0x41a8(%rip),%xmm0        # 84d8 <_IO_stdin_used+0x4d8>
    432f:	00 
    4330:	f2 0f 11 84 24 a0 00 	movsd  %xmm0,0xa0(%rsp)
    4337:	00 00 
    4339:	f2 0f 10 05 9f 41 00 	movsd  0x419f(%rip),%xmm0        # 84e0 <_IO_stdin_used+0x4e0>
    4340:	00 
    4341:	f2 0f 11 84 24 a8 00 	movsd  %xmm0,0xa8(%rsp)
    4348:	00 00 
    434a:	f2 0f 10 05 96 41 00 	movsd  0x4196(%rip),%xmm0        # 84e8 <_IO_stdin_used+0x4e8>
    4351:	00 
    4352:	f2 0f 11 84 24 b0 00 	movsd  %xmm0,0xb0(%rsp)
    4359:	00 00 
    435b:	f2 0f 10 05 8d 41 00 	movsd  0x418d(%rip),%xmm0        # 84f0 <_IO_stdin_used+0x4f0>
    4362:	00 
    4363:	f2 0f 11 84 24 b8 00 	movsd  %xmm0,0xb8(%rsp)
    436a:	00 00 
    436c:	f2 0f 10 05 84 41 00 	movsd  0x4184(%rip),%xmm0        # 84f8 <_IO_stdin_used+0x4f8>
    4373:	00 
    4374:	f2 0f 11 84 24 c0 00 	movsd  %xmm0,0xc0(%rsp)
    437b:	00 00 
    437d:	f2 0f 10 05 7b 41 00 	movsd  0x417b(%rip),%xmm0        # 8500 <_IO_stdin_used+0x500>
    4384:	00 
    4385:	f2 0f 11 84 24 c8 00 	movsd  %xmm0,0xc8(%rsp)
    438c:	00 00 
    438e:	f2 0f 10 05 72 41 00 	movsd  0x4172(%rip),%xmm0        # 8508 <_IO_stdin_used+0x508>
    4395:	00 
    4396:	f2 0f 11 84 24 d0 00 	movsd  %xmm0,0xd0(%rsp)
    439d:	00 00 
    439f:	f2 0f 10 05 69 41 00 	movsd  0x4169(%rip),%xmm0        # 8510 <_IO_stdin_used+0x510>
    43a6:	00 
    43a7:	f2 0f 11 84 24 d8 00 	movsd  %xmm0,0xd8(%rsp)
    43ae:	00 00 
    43b0:	f2 0f 10 05 60 41 00 	movsd  0x4160(%rip),%xmm0        # 8518 <_IO_stdin_used+0x518>
    43b7:	00 
    43b8:	f2 0f 11 84 24 e0 00 	movsd  %xmm0,0xe0(%rsp)
    43bf:	00 00 
    43c1:	f2 0f 10 05 57 41 00 	movsd  0x4157(%rip),%xmm0        # 8520 <_IO_stdin_used+0x520>
    43c8:	00 
    43c9:	f2 0f 11 84 24 e8 00 	movsd  %xmm0,0xe8(%rsp)
    43d0:	00 00 
    43d2:	f2 0f 10 05 4e 41 00 	movsd  0x414e(%rip),%xmm0        # 8528 <_IO_stdin_used+0x528>
    43d9:	00 
    43da:	f2 0f 11 84 24 f0 00 	movsd  %xmm0,0xf0(%rsp)
    43e1:	00 00 
    43e3:	f2 0f 10 05 45 41 00 	movsd  0x4145(%rip),%xmm0        # 8530 <_IO_stdin_used+0x530>
    43ea:	00 
    43eb:	f2 0f 11 84 24 f8 00 	movsd  %xmm0,0xf8(%rsp)
    43f2:	00 00 
    43f4:	f2 0f 10 05 3c 41 00 	movsd  0x413c(%rip),%xmm0        # 8538 <_IO_stdin_used+0x538>
    43fb:	00 
    43fc:	f2 0f 11 84 24 00 01 	movsd  %xmm0,0x100(%rsp)
    4403:	00 00 
    4405:	f2 0f 10 05 33 41 00 	movsd  0x4133(%rip),%xmm0        # 8540 <_IO_stdin_used+0x540>
    440c:	00 
    440d:	f2 0f 11 84 24 08 01 	movsd  %xmm0,0x108(%rsp)
    4414:	00 00 
    4416:	f2 0f 10 05 2a 41 00 	movsd  0x412a(%rip),%xmm0        # 8548 <_IO_stdin_used+0x548>
    441d:	00 
    441e:	f2 0f 11 84 24 10 01 	movsd  %xmm0,0x110(%rsp)
    4425:	00 00 
    4427:	f2 0f 10 05 21 41 00 	movsd  0x4121(%rip),%xmm0        # 8550 <_IO_stdin_used+0x550>
    442e:	00 
    442f:	f2 0f 11 84 24 18 01 	movsd  %xmm0,0x118(%rsp)
    4436:	00 00 
    4438:	f2 0f 10 05 18 41 00 	movsd  0x4118(%rip),%xmm0        # 8558 <_IO_stdin_used+0x558>
    443f:	00 
    4440:	f2 0f 11 84 24 20 01 	movsd  %xmm0,0x120(%rsp)
    4447:	00 00 
    4449:	f2 0f 10 05 0f 41 00 	movsd  0x410f(%rip),%xmm0        # 8560 <_IO_stdin_used+0x560>
    4450:	00 
    4451:	f2 0f 11 84 24 28 01 	movsd  %xmm0,0x128(%rsp)
    4458:	00 00 
    445a:	f2 0f 10 05 06 41 00 	movsd  0x4106(%rip),%xmm0        # 8568 <_IO_stdin_used+0x568>
    4461:	00 
    4462:	f2 0f 11 84 24 30 01 	movsd  %xmm0,0x130(%rsp)
    4469:	00 00 
    446b:	f2 0f 10 05 fd 40 00 	movsd  0x40fd(%rip),%xmm0        # 8570 <_IO_stdin_used+0x570>
    4472:	00 
    4473:	f2 0f 11 84 24 38 01 	movsd  %xmm0,0x138(%rsp)
    447a:	00 00 
    447c:	f2 0f 10 05 f4 40 00 	movsd  0x40f4(%rip),%xmm0        # 8578 <_IO_stdin_used+0x578>
    4483:	00 
    4484:	f2 0f 11 84 24 40 01 	movsd  %xmm0,0x140(%rsp)
    448b:	00 00 
    448d:	f2 0f 10 05 eb 40 00 	movsd  0x40eb(%rip),%xmm0        # 8580 <_IO_stdin_used+0x580>
    4494:	00 
    4495:	f2 0f 11 84 24 48 01 	movsd  %xmm0,0x148(%rsp)
    449c:	00 00 
    449e:	f2 0f 10 05 e2 40 00 	movsd  0x40e2(%rip),%xmm0        # 8588 <_IO_stdin_used+0x588>
    44a5:	00 
    44a6:	f2 0f 11 84 24 50 01 	movsd  %xmm0,0x150(%rsp)
    44ad:	00 00 
    44af:	f2 0f 10 05 d9 40 00 	movsd  0x40d9(%rip),%xmm0        # 8590 <_IO_stdin_used+0x590>
    44b6:	00 
    44b7:	f2 0f 11 84 24 58 01 	movsd  %xmm0,0x158(%rsp)
    44be:	00 00 
    44c0:	f2 0f 10 05 d0 40 00 	movsd  0x40d0(%rip),%xmm0        # 8598 <_IO_stdin_used+0x598>
    44c7:	00 
    44c8:	f2 0f 11 84 24 60 01 	movsd  %xmm0,0x160(%rsp)
    44cf:	00 00 
    44d1:	f2 0f 10 05 c7 40 00 	movsd  0x40c7(%rip),%xmm0        # 85a0 <_IO_stdin_used+0x5a0>
    44d8:	00 
    44d9:	f2 0f 11 84 24 68 01 	movsd  %xmm0,0x168(%rsp)
    44e0:	00 00 
    44e2:	f2 0f 10 05 be 40 00 	movsd  0x40be(%rip),%xmm0        # 85a8 <_IO_stdin_used+0x5a8>
    44e9:	00 
    44ea:	f2 0f 11 84 24 70 01 	movsd  %xmm0,0x170(%rsp)
    44f1:	00 00 
    44f3:	f2 0f 10 05 b5 40 00 	movsd  0x40b5(%rip),%xmm0        # 85b0 <_IO_stdin_used+0x5b0>
    44fa:	00 
    44fb:	f2 0f 11 84 24 78 01 	movsd  %xmm0,0x178(%rsp)
    4502:	00 00 
    4504:	f2 0f 10 05 ac 40 00 	movsd  0x40ac(%rip),%xmm0        # 85b8 <_IO_stdin_used+0x5b8>
    450b:	00 
    450c:	f2 0f 11 84 24 80 01 	movsd  %xmm0,0x180(%rsp)
    4513:	00 00 
    4515:	f2 0f 10 05 a3 40 00 	movsd  0x40a3(%rip),%xmm0        # 85c0 <_IO_stdin_used+0x5c0>
    451c:	00 
    451d:	f2 0f 11 84 24 88 01 	movsd  %xmm0,0x188(%rsp)
    4524:	00 00 
    4526:	e9 e5 00 00 00       	jmp    4610 <verify_+0xe60>
    452b:	0f 1f 44 00 00       	nopl   0x0(%rax,%rax,1)
    4530:	41 83 3f 40          	cmpl   $0x40,(%r15)
    4534:	0f 85 dc f2 ff ff    	jne    3816 <verify_+0x66>
    453a:	83 3b 40             	cmpl   $0x40,(%rbx)
    453d:	0f 85 d3 f2 ff ff    	jne    3816 <verify_+0x66>
    4543:	41 8b 1e             	mov    (%r14),%ebx
    4546:	83 fb 06             	cmp    $0x6,%ebx
    4549:	0f 85 c7 f2 ff ff    	jne    3816 <verify_+0x66>
    454f:	f2 0f 10 05 71 40 00 	movsd  0x4071(%rip),%xmm0        # 85c8 <_IO_stdin_used+0x5c8>
    4556:	00 
    4557:	c6 45 00 53          	movb   $0x53,0x0(%rbp)
    455b:	f2 0f 11 44 24 40    	movsd  %xmm0,0x40(%rsp)
    4561:	f2 0f 10 05 67 40 00 	movsd  0x4067(%rip),%xmm0        # 85d0 <_IO_stdin_used+0x5d0>
    4568:	00 
    4569:	f2 0f 11 44 24 48    	movsd  %xmm0,0x48(%rsp)
    456f:	f2 0f 10 05 61 40 00 	movsd  0x4061(%rip),%xmm0        # 85d8 <_IO_stdin_used+0x5d8>
    4576:	00 
    4577:	f2 0f 11 44 24 50    	movsd  %xmm0,0x50(%rsp)
    457d:	f2 0f 10 05 5b 40 00 	movsd  0x405b(%rip),%xmm0        # 85e0 <_IO_stdin_used+0x5e0>
    4584:	00 
    4585:	f2 0f 11 44 24 58    	movsd  %xmm0,0x58(%rsp)
    458b:	f2 0f 10 05 55 40 00 	movsd  0x4055(%rip),%xmm0        # 85e8 <_IO_stdin_used+0x5e8>
    4592:	00 
    4593:	f2 0f 11 44 24 60    	movsd  %xmm0,0x60(%rsp)
    4599:	f2 0f 10 05 4f 40 00 	movsd  0x404f(%rip),%xmm0        # 85f0 <_IO_stdin_used+0x5f0>
    45a0:	00 
    45a1:	f2 0f 11 44 24 68    	movsd  %xmm0,0x68(%rsp)
    45a7:	f2 0f 10 05 49 40 00 	movsd  0x4049(%rip),%xmm0        # 85f8 <_IO_stdin_used+0x5f8>
    45ae:	00 
    45af:	f2 0f 11 44 24 70    	movsd  %xmm0,0x70(%rsp)
    45b5:	f2 0f 10 05 43 40 00 	movsd  0x4043(%rip),%xmm0        # 8600 <_IO_stdin_used+0x600>
    45bc:	00 
    45bd:	f2 0f 11 44 24 78    	movsd  %xmm0,0x78(%rsp)
    45c3:	f2 0f 10 05 3d 40 00 	movsd  0x403d(%rip),%xmm0        # 8608 <_IO_stdin_used+0x608>
    45ca:	00 
    45cb:	f2 0f 11 84 24 80 00 	movsd  %xmm0,0x80(%rsp)
    45d2:	00 00 
    45d4:	f2 0f 10 05 34 40 00 	movsd  0x4034(%rip),%xmm0        # 8610 <_IO_stdin_used+0x610>
    45db:	00 
    45dc:	f2 0f 11 84 24 88 00 	movsd  %xmm0,0x88(%rsp)
    45e3:	00 00 
    45e5:	f2 0f 10 05 2b 40 00 	movsd  0x402b(%rip),%xmm0        # 8618 <_IO_stdin_used+0x618>
    45ec:	00 
    45ed:	f2 0f 11 84 24 90 00 	movsd  %xmm0,0x90(%rsp)
    45f4:	00 00 
    45f6:	f2 0f 10 05 22 40 00 	movsd  0x4022(%rip),%xmm0        # 8620 <_IO_stdin_used+0x620>
    45fd:	00 
    45fe:	f2 0f 11 84 24 98 00 	movsd  %xmm0,0x98(%rsp)
    4605:	00 00 
    4607:	66 0f 1f 84 00 00 00 	nopw   0x0(%rax,%rax,1)
    460e:	00 00 
    4610:	4c 8d 3d 79 8c 00 00 	lea    0x8c79(%rip),%r15        # d290 <__ft_data_MOD_sums+0x10>
    4617:	4c 8d 74 24 40       	lea    0x40(%rsp),%r14
    461c:	41 bc 01 00 00 00    	mov    $0x1,%r12d
    4622:	eb 66                	jmp    468a <verify_+0xeda>
    4624:	0f 1f 40 00          	nopl   0x0(%rax)
    4628:	66 0f 28 e2          	movapd %xmm2,%xmm4
    462c:	f2 0f 5e e0          	divsd  %xmm0,%xmm4
    4630:	f2 0f 59 d4          	mulsd  %xmm4,%xmm2
    4634:	f2 0f 58 d0          	addsd  %xmm0,%xmm2
    4638:	66 0f 28 c4          	movapd %xmm4,%xmm0
    463c:	f2 0f 59 e1          	mulsd  %xmm1,%xmm4
    4640:	f2 0f 59 c3          	mulsd  %xmm3,%xmm0
    4644:	f2 0f 5c e3          	subsd  %xmm3,%xmm4
    4648:	f2 0f 58 c1          	addsd  %xmm1,%xmm0
    464c:	66 0f 28 cc          	movapd %xmm4,%xmm1
    4650:	f2 0f 5e c2          	divsd  %xmm2,%xmm0
    4654:	f2 0f 5e ca          	divsd  %xmm2,%xmm1
    4658:	e8 f3 da ff ff       	call   2150 <cabs@plt>
    465d:	66 0f 2e c0          	ucomisd %xmm0,%xmm0
    4661:	0f 8a 9e 00 00 00    	jp     4705 <verify_+0xf55>
    4667:	66 0f 2f 05 99 44 00 	comisd 0x4499(%rip),%xmm0        # 8b08 <options.171.0+0x318>
    466e:	00 
    466f:	0f 87 90 00 00 00    	ja     4705 <verify_+0xf55>
    4675:	41 83 c4 01          	add    $0x1,%r12d
    4679:	49 83 c7 10          	add    $0x10,%r15
    467d:	49 83 c6 10          	add    $0x10,%r14
    4681:	41 39 dc             	cmp    %ebx,%r12d
    4684:	0f 8f 46 04 00 00    	jg     4ad0 <verify_+0x1320>
    468a:	f2 41 0f 10 16       	movsd  (%r14),%xmm2
    468f:	f2 41 0f 10 46 08    	movsd  0x8(%r14),%xmm0
    4695:	f2 41 0f 10 1f       	movsd  (%r15),%xmm3
    469a:	f2 41 0f 10 4f 08    	movsd  0x8(%r15),%xmm1
    46a0:	66 0f 28 e2          	movapd %xmm2,%xmm4
    46a4:	66 0f 28 e8          	movapd %xmm0,%xmm5
    46a8:	66 0f 54 25 10 44 00 	andpd  0x4410(%rip),%xmm4        # 8ac0 <options.171.0+0x2d0>
    46af:	00 
    46b0:	66 0f 54 2d 08 44 00 	andpd  0x4408(%rip),%xmm5        # 8ac0 <options.171.0+0x2d0>
    46b7:	00 
    46b8:	f2 0f 5c da          	subsd  %xmm2,%xmm3
    46bc:	f2 0f 5c c8          	subsd  %xmm0,%xmm1
    46c0:	66 0f 2f ec          	comisd %xmm4,%xmm5
    46c4:	0f 87 5e ff ff ff    	ja     4628 <verify_+0xe78>
    46ca:	66 0f 28 e0          	movapd %xmm0,%xmm4
    46ce:	f2 0f 5e e2          	divsd  %xmm2,%xmm4
    46d2:	f2 0f 59 c4          	mulsd  %xmm4,%xmm0
    46d6:	f2 0f 58 d0          	addsd  %xmm0,%xmm2
    46da:	66 0f 28 c1          	movapd %xmm1,%xmm0
    46de:	f2 0f 59 c4          	mulsd  %xmm4,%xmm0
    46e2:	f2 0f 59 e3          	mulsd  %xmm3,%xmm4
    46e6:	f2 0f 58 c3          	addsd  %xmm3,%xmm0
    46ea:	f2 0f 5c cc          	subsd  %xmm4,%xmm1
    46ee:	f2 0f 5e c2          	divsd  %xmm2,%xmm0
    46f2:	f2 0f 5e ca          	divsd  %xmm2,%xmm1
    46f6:	e8 55 da ff ff       	call   2150 <cabs@plt>
    46fb:	66 0f 2e c0          	ucomisd %xmm0,%xmm0
    46ff:	0f 8b 62 ff ff ff    	jnp    4667 <verify_+0xeb7>
    4705:	48 8d 05 00 41 00 00 	lea    0x4100(%rip),%rax        # 880c <options.171.0+0x1c>
    470c:	c7 84 24 e0 01 00 00 	movl   $0x464,0x1e0(%rsp)
    4713:	64 04 00 00 
    4717:	48 89 84 24 d8 01 00 	mov    %rax,0x1d8(%rsp)
    471e:	00 
    471f:	48 8d 05 ba 41 00 00 	lea    0x41ba(%rip),%rax        # 88e0 <options.171.0+0xf0>
    4726:	48 89 84 24 20 02 00 	mov    %rax,0x220(%rsp)
    472d:	00 
    472e:	48 c7 84 24 28 02 00 	movq   $0x1f,0x228(%rsp)
    4735:	00 1f 00 00 00 
    473a:	e9 d1 03 00 00       	jmp    4b10 <verify_+0x1360>
    473f:	90                   	nop
    4740:	83 3b 20             	cmpl   $0x20,(%rbx)
    4743:	0f 85 cd f0 ff ff    	jne    3816 <verify_+0x66>
    4749:	41 8b 1e             	mov    (%r14),%ebx
    474c:	83 fb 06             	cmp    $0x6,%ebx
    474f:	0f 85 c1 f0 ff ff    	jne    3816 <verify_+0x66>
    4755:	f2 0f 10 05 cb 3e 00 	movsd  0x3ecb(%rip),%xmm0        # 8628 <_IO_stdin_used+0x628>
    475c:	00 
    475d:	c6 45 00 57          	movb   $0x57,0x0(%rbp)
    4761:	f2 0f 11 44 24 40    	movsd  %xmm0,0x40(%rsp)
    4767:	f2 0f 10 05 c1 3e 00 	movsd  0x3ec1(%rip),%xmm0        # 8630 <_IO_stdin_used+0x630>
    476e:	00 
    476f:	f2 0f 11 44 24 48    	movsd  %xmm0,0x48(%rsp)
    4775:	f2 0f 10 05 bb 3e 00 	movsd  0x3ebb(%rip),%xmm0        # 8638 <_IO_stdin_used+0x638>
    477c:	00 
    477d:	f2 0f 11 44 24 50    	movsd  %xmm0,0x50(%rsp)
    4783:	f2 0f 10 05 b5 3e 00 	movsd  0x3eb5(%rip),%xmm0        # 8640 <_IO_stdin_used+0x640>
    478a:	00 
    478b:	f2 0f 11 44 24 58    	movsd  %xmm0,0x58(%rsp)
    4791:	f2 0f 10 05 af 3e 00 	movsd  0x3eaf(%rip),%xmm0        # 8648 <_IO_stdin_used+0x648>
    4798:	00 
    4799:	f2 0f 11 44 24 60    	movsd  %xmm0,0x60(%rsp)
    479f:	f2 0f 10 05 a9 3e 00 	movsd  0x3ea9(%rip),%xmm0        # 8650 <_IO_stdin_used+0x650>
    47a6:	00 
    47a7:	f2 0f 11 44 24 68    	movsd  %xmm0,0x68(%rsp)
    47ad:	f2 0f 10 05 a3 3e 00 	movsd  0x3ea3(%rip),%xmm0        # 8658 <_IO_stdin_used+0x658>
    47b4:	00 
    47b5:	f2 0f 11 44 24 70    	movsd  %xmm0,0x70(%rsp)
    47bb:	f2 0f 10 05 9d 3e 00 	movsd  0x3e9d(%rip),%xmm0        # 8660 <_IO_stdin_used+0x660>
    47c2:	00 
    47c3:	f2 0f 11 44 24 78    	movsd  %xmm0,0x78(%rsp)
    47c9:	f2 0f 10 05 97 3e 00 	movsd  0x3e97(%rip),%xmm0        # 8668 <_IO_stdin_used+0x668>
    47d0:	00 
    47d1:	f2 0f 11 84 24 80 00 	movsd  %xmm0,0x80(%rsp)
    47d8:	00 00 
    47da:	f2 0f 10 05 8e 3e 00 	movsd  0x3e8e(%rip),%xmm0        # 8670 <_IO_stdin_used+0x670>
    47e1:	00 
    47e2:	f2 0f 11 84 24 88 00 	movsd  %xmm0,0x88(%rsp)
    47e9:	00 00 
    47eb:	f2 0f 10 05 85 3e 00 	movsd  0x3e85(%rip),%xmm0        # 8678 <_IO_stdin_used+0x678>
    47f2:	00 
    47f3:	f2 0f 11 84 24 90 00 	movsd  %xmm0,0x90(%rsp)
    47fa:	00 00 
    47fc:	f2 0f 10 05 7c 3e 00 	movsd  0x3e7c(%rip),%xmm0        # 8680 <_IO_stdin_used+0x680>
    4803:	00 
    4804:	f2 0f 11 84 24 98 00 	movsd  %xmm0,0x98(%rsp)
    480b:	00 00 
    480d:	e9 fe fd ff ff       	jmp    4610 <verify_+0xe60>
    4812:	66 0f 1f 44 00 00    	nopw   0x0(%rax,%rax,1)
    4818:	81 3b 00 01 00 00    	cmpl   $0x100,(%rbx)
    481e:	0f 85 f2 ef ff ff    	jne    3816 <verify_+0x66>
    4824:	41 8b 1e             	mov    (%r14),%ebx
    4827:	83 fb 14             	cmp    $0x14,%ebx
    482a:	0f 85 e6 ef ff ff    	jne    3816 <verify_+0x66>
    4830:	f2 0f 10 05 50 3e 00 	movsd  0x3e50(%rip),%xmm0        # 8688 <_IO_stdin_used+0x688>
    4837:	00 
    4838:	c6 45 00 42          	movb   $0x42,0x0(%rbp)
    483c:	f2 0f 11 44 24 40    	movsd  %xmm0,0x40(%rsp)
    4842:	f2 0f 10 05 46 3e 00 	movsd  0x3e46(%rip),%xmm0        # 8690 <_IO_stdin_used+0x690>
    4849:	00 
    484a:	f2 0f 11 44 24 48    	movsd  %xmm0,0x48(%rsp)
    4850:	f2 0f 10 05 40 3e 00 	movsd  0x3e40(%rip),%xmm0        # 8698 <_IO_stdin_used+0x698>
    4857:	00 
    4858:	f2 0f 11 44 24 50    	movsd  %xmm0,0x50(%rsp)
    485e:	f2 0f 10 05 3a 3e 00 	movsd  0x3e3a(%rip),%xmm0        # 86a0 <_IO_stdin_used+0x6a0>
    4865:	00 
    4866:	f2 0f 11 44 24 58    	movsd  %xmm0,0x58(%rsp)
    486c:	f2 0f 10 05 34 3e 00 	movsd  0x3e34(%rip),%xmm0        # 86a8 <_IO_stdin_used+0x6a8>
    4873:	00 
    4874:	f2 0f 11 44 24 60    	movsd  %xmm0,0x60(%rsp)
    487a:	f2 0f 10 05 2e 3e 00 	movsd  0x3e2e(%rip),%xmm0        # 86b0 <_IO_stdin_used+0x6b0>
    4881:	00 
    4882:	f2 0f 11 44 24 68    	movsd  %xmm0,0x68(%rsp)
    4888:	f2 0f 10 05 28 3e 00 	movsd  0x3e28(%rip),%xmm0        # 86b8 <_IO_stdin_used+0x6b8>
    488f:	00 
    4890:	f2 0f 11 44 24 70    	movsd  %xmm0,0x70(%rsp)
    4896:	f2 0f 10 05 22 3e 00 	movsd  0x3e22(%rip),%xmm0        # 86c0 <_IO_stdin_used+0x6c0>
    489d:	00 
    489e:	f2 0f 11 44 24 78    	movsd  %xmm0,0x78(%rsp)
    48a4:	f2 0f 10 05 1c 3e 00 	movsd  0x3e1c(%rip),%xmm0        # 86c8 <_IO_stdin_used+0x6c8>
    48ab:	00 
    48ac:	f2 0f 11 84 24 80 00 	movsd  %xmm0,0x80(%rsp)
    48b3:	00 00 
    48b5:	f2 0f 10 05 13 3e 00 	movsd  0x3e13(%rip),%xmm0        # 86d0 <_IO_stdin_used+0x6d0>
    48bc:	00 
    48bd:	f2 0f 11 84 24 88 00 	movsd  %xmm0,0x88(%rsp)
    48c4:	00 00 
    48c6:	f2 0f 10 05 0a 3e 00 	movsd  0x3e0a(%rip),%xmm0        # 86d8 <_IO_stdin_used+0x6d8>
    48cd:	00 
    48ce:	f2 0f 11 84 24 90 00 	movsd  %xmm0,0x90(%rsp)
    48d5:	00 00 
    48d7:	f2 0f 10 05 01 3e 00 	movsd  0x3e01(%rip),%xmm0        # 86e0 <_IO_stdin_used+0x6e0>
    48de:	00 
    48df:	f2 0f 11 84 24 98 00 	movsd  %xmm0,0x98(%rsp)
    48e6:	00 00 
    48e8:	f2 0f 10 05 f8 3d 00 	movsd  0x3df8(%rip),%xmm0        # 86e8 <_IO_stdin_used+0x6e8>
    48ef:	00 
    48f0:	f2 0f 11 84 24 a0 00 	movsd  %xmm0,0xa0(%rsp)
    48f7:	00 00 
    48f9:	f2 0f 10 05 ef 3d 00 	movsd  0x3def(%rip),%xmm0        # 86f0 <_IO_stdin_used+0x6f0>
    4900:	00 
    4901:	f2 0f 11 84 24 a8 00 	movsd  %xmm0,0xa8(%rsp)
    4908:	00 00 
    490a:	f2 0f 10 05 e6 3d 00 	movsd  0x3de6(%rip),%xmm0        # 86f8 <_IO_stdin_used+0x6f8>
    4911:	00 
    4912:	f2 0f 11 84 24 b0 00 	movsd  %xmm0,0xb0(%rsp)
    4919:	00 00 
    491b:	f2 0f 10 05 dd 3d 00 	movsd  0x3ddd(%rip),%xmm0        # 8700 <_IO_stdin_used+0x700>
    4922:	00 
    4923:	f2 0f 11 84 24 b8 00 	movsd  %xmm0,0xb8(%rsp)
    492a:	00 00 
    492c:	f2 0f 10 05 d4 3d 00 	movsd  0x3dd4(%rip),%xmm0        # 8708 <_IO_stdin_used+0x708>
    4933:	00 
    4934:	f2 0f 11 84 24 c0 00 	movsd  %xmm0,0xc0(%rsp)
    493b:	00 00 
    493d:	f2 0f 10 05 cb 3d 00 	movsd  0x3dcb(%rip),%xmm0        # 8710 <_IO_stdin_used+0x710>
    4944:	00 
    4945:	f2 0f 11 84 24 c8 00 	movsd  %xmm0,0xc8(%rsp)
    494c:	00 00 
    494e:	f2 0f 10 05 c2 3d 00 	movsd  0x3dc2(%rip),%xmm0        # 8718 <_IO_stdin_used+0x718>
    4955:	00 
    4956:	f2 0f 11 84 24 d0 00 	movsd  %xmm0,0xd0(%rsp)
    495d:	00 00 
    495f:	f2 0f 10 05 b9 3d 00 	movsd  0x3db9(%rip),%xmm0        # 8720 <_IO_stdin_used+0x720>
    4966:	00 
    4967:	f2 0f 11 84 24 d8 00 	movsd  %xmm0,0xd8(%rsp)
    496e:	00 00 
    4970:	f2 0f 10 05 b0 3d 00 	movsd  0x3db0(%rip),%xmm0        # 8728 <_IO_stdin_used+0x728>
    4977:	00 
    4978:	f2 0f 11 84 24 e0 00 	movsd  %xmm0,0xe0(%rsp)
    497f:	00 00 
    4981:	f2 0f 10 05 a7 3d 00 	movsd  0x3da7(%rip),%xmm0        # 8730 <_IO_stdin_used+0x730>
    4988:	00 
    4989:	f2 0f 11 84 24 e8 00 	movsd  %xmm0,0xe8(%rsp)
    4990:	00 00 
    4992:	f2 0f 10 05 9e 3d 00 	movsd  0x3d9e(%rip),%xmm0        # 8738 <_IO_stdin_used+0x738>
    4999:	00 
    499a:	f2 0f 11 84 24 f0 00 	movsd  %xmm0,0xf0(%rsp)
    49a1:	00 00 
    49a3:	f2 0f 10 05 95 3d 00 	movsd  0x3d95(%rip),%xmm0        # 8740 <_IO_stdin_used+0x740>
    49aa:	00 
    49ab:	f2 0f 11 84 24 f8 00 	movsd  %xmm0,0xf8(%rsp)
    49b2:	00 00 
    49b4:	f2 0f 10 05 8c 3d 00 	movsd  0x3d8c(%rip),%xmm0        # 8748 <_IO_stdin_used+0x748>
    49bb:	00 
    49bc:	f2 0f 11 84 24 00 01 	movsd  %xmm0,0x100(%rsp)
    49c3:	00 00 
    49c5:	f2 0f 10 05 83 3d 00 	movsd  0x3d83(%rip),%xmm0        # 8750 <_IO_stdin_used+0x750>
    49cc:	00 
    49cd:	f2 0f 11 84 24 08 01 	movsd  %xmm0,0x108(%rsp)
    49d4:	00 00 
    49d6:	f2 0f 10 05 7a 3d 00 	movsd  0x3d7a(%rip),%xmm0        # 8758 <_IO_stdin_used+0x758>
    49dd:	00 
    49de:	f2 0f 11 84 24 10 01 	movsd  %xmm0,0x110(%rsp)
    49e5:	00 00 
    49e7:	f2 0f 10 05 71 3d 00 	movsd  0x3d71(%rip),%xmm0        # 8760 <_IO_stdin_used+0x760>
    49ee:	00 
    49ef:	f2 0f 11 84 24 18 01 	movsd  %xmm0,0x118(%rsp)
    49f6:	00 00 
    49f8:	f2 0f 10 05 68 3d 00 	movsd  0x3d68(%rip),%xmm0        # 8768 <_IO_stdin_used+0x768>
    49ff:	00 
    4a00:	f2 0f 11 84 24 20 01 	movsd  %xmm0,0x120(%rsp)
    4a07:	00 00 
    4a09:	f2 0f 10 05 5f 3d 00 	movsd  0x3d5f(%rip),%xmm0        # 8770 <_IO_stdin_used+0x770>
    4a10:	00 
    4a11:	f2 0f 11 84 24 28 01 	movsd  %xmm0,0x128(%rsp)
    4a18:	00 00 
    4a1a:	f2 0f 10 05 56 3d 00 	movsd  0x3d56(%rip),%xmm0        # 8778 <_IO_stdin_used+0x778>
    4a21:	00 
    4a22:	f2 0f 11 84 24 30 01 	movsd  %xmm0,0x130(%rsp)
    4a29:	00 00 
    4a2b:	f2 0f 10 05 4d 3d 00 	movsd  0x3d4d(%rip),%xmm0        # 8780 <_IO_stdin_used+0x780>
    4a32:	00 
    4a33:	f2 0f 11 84 24 38 01 	movsd  %xmm0,0x138(%rsp)
    4a3a:	00 00 
    4a3c:	f2 0f 10 05 44 3d 00 	movsd  0x3d44(%rip),%xmm0        # 8788 <_IO_stdin_used+0x788>
    4a43:	00 
    4a44:	f2 0f 11 84 24 40 01 	movsd  %xmm0,0x140(%rsp)
    4a4b:	00 00 
    4a4d:	f2 0f 10 05 3b 3d 00 	movsd  0x3d3b(%rip),%xmm0        # 8790 <_IO_stdin_used+0x790>
    4a54:	00 
    4a55:	f2 0f 11 84 24 48 01 	movsd  %xmm0,0x148(%rsp)
    4a5c:	00 00 
    4a5e:	f2 0f 10 05 32 3d 00 	movsd  0x3d32(%rip),%xmm0        # 8798 <_IO_stdin_used+0x798>
    4a65:	00 
    4a66:	f2 0f 11 84 24 50 01 	movsd  %xmm0,0x150(%rsp)
    4a6d:	00 00 
    4a6f:	f2 0f 10 05 29 3d 00 	movsd  0x3d29(%rip),%xmm0        # 87a0 <_IO_stdin_used+0x7a0>
    4a76:	00 
    4a77:	f2 0f 11 84 24 58 01 	movsd  %xmm0,0x158(%rsp)
    4a7e:	00 00 
    4a80:	f2 0f 10 05 20 3d 00 	movsd  0x3d20(%rip),%xmm0        # 87a8 <_IO_stdin_used+0x7a8>
    4a87:	00 
    4a88:	f2 0f 11 84 24 60 01 	movsd  %xmm0,0x160(%rsp)
    4a8f:	00 00 
    4a91:	f2 0f 10 05 17 3d 00 	movsd  0x3d17(%rip),%xmm0        # 87b0 <_IO_stdin_used+0x7b0>
    4a98:	00 
    4a99:	f2 0f 11 84 24 68 01 	movsd  %xmm0,0x168(%rsp)
    4aa0:	00 00 
    4aa2:	f2 0f 10 05 0e 3d 00 	movsd  0x3d0e(%rip),%xmm0        # 87b8 <_IO_stdin_used+0x7b8>
    4aa9:	00 
    4aaa:	f2 0f 11 84 24 70 01 	movsd  %xmm0,0x170(%rsp)
    4ab1:	00 00 
    4ab3:	f2 0f 10 05 05 3d 00 	movsd  0x3d05(%rip),%xmm0        # 87c0 <_IO_stdin_used+0x7c0>
    4aba:	00 
    4abb:	f2 0f 11 84 24 78 01 	movsd  %xmm0,0x178(%rsp)
    4ac2:	00 00 
    4ac4:	e9 47 fb ff ff       	jmp    4610 <verify_+0xe60>
    4ac9:	0f 1f 80 00 00 00 00 	nopl   0x0(%rax)
    4ad0:	c7 84 24 e0 01 00 00 	movl   $0x461,0x1e0(%rsp)
    4ad7:	61 04 00 00 
    4adb:	48 8b 44 24 08       	mov    0x8(%rsp),%rax
    4ae0:	48 c7 84 24 28 02 00 	movq   $0x23,0x228(%rsp)
    4ae7:	00 23 00 00 00 
    4aec:	c7 00 01 00 00 00    	movl   $0x1,(%rax)
    4af2:	48 8d 05 13 3d 00 00 	lea    0x3d13(%rip),%rax        # 880c <options.171.0+0x1c>
    4af9:	48 89 84 24 d8 01 00 	mov    %rax,0x1d8(%rsp)
    4b00:	00 
    4b01:	48 8d 05 b0 3d 00 00 	lea    0x3db0(%rip),%rax        # 88b8 <options.171.0+0xc8>
    4b08:	48 89 84 24 20 02 00 	mov    %rax,0x220(%rsp)
    4b0f:	00 
    4b10:	48 8b 05 e1 3f 00 00 	mov    0x3fe1(%rip),%rax        # 8af8 <options.171.0+0x308>
    4b17:	4c 8d a4 24 d0 01 00 	lea    0x1d0(%rsp),%r12
    4b1e:	00 
    4b1f:	4c 89 e7             	mov    %r12,%rdi
    4b22:	48 89 84 24 d0 01 00 	mov    %rax,0x1d0(%rsp)
    4b29:	00 
    4b2a:	e8 f1 d6 ff ff       	call   2220 <_gfortran_st_write@plt>
    4b2f:	4c 89 e7             	mov    %r12,%rdi
    4b32:	e8 79 d6 ff ff       	call   21b0 <_gfortran_st_write_done@plt>
    4b37:	e9 da ec ff ff       	jmp    3816 <verify_+0x66>
    4b3c:	0f 1f 40 00          	nopl   0x0(%rax)

0000000000004b40 <checksum_>:
    4b40:	55                   	push   %rbp
    4b41:	53                   	push   %rbx
    4b42:	48 89 fb             	mov    %rdi,%rbx
    4b45:	48 8d 3d 74 dd ff ff 	lea    -0x228c(%rip),%rdi        # 28c0 <checksum_._omp_fn.0>
    4b4c:	48 81 ec 38 02 00 00 	sub    $0x238,%rsp
    4b53:	8b 02                	mov    (%rdx),%eax
    4b55:	31 d2                	xor    %edx,%edx
    4b57:	f2 0f 10 05 c1 34 00 	movsd  0x34c1(%rip),%xmm0        # 8020 <_IO_stdin_used+0x20>
    4b5e:	00 
    4b5f:	48 8d 6c 24 20       	lea    0x20(%rsp),%rbp
    4b64:	48 89 74 24 20       	mov    %rsi,0x20(%rsp)
    4b69:	83 c0 01             	add    $0x1,%eax
    4b6c:	f2 0f 11 44 24 40    	movsd  %xmm0,0x40(%rsp)
    4b72:	48 89 ee             	mov    %rbp,%rsi
    4b75:	f2 0f 10 05 ab 34 00 	movsd  0x34ab(%rip),%xmm0        # 8028 <_IO_stdin_used+0x28>
    4b7c:	00 
    4b7d:	48 98                	cltq   
    4b7f:	48 85 c0             	test   %rax,%rax
    4b82:	f2 0f 11 44 24 48    	movsd  %xmm0,0x48(%rsp)
    4b88:	48 0f 48 c2          	cmovs  %rdx,%rax
    4b8c:	48 63 11             	movslq (%rcx),%rdx
    4b8f:	31 c9                	xor    %ecx,%ecx
    4b91:	48 0f af d0          	imul   %rax,%rdx
    4b95:	66 48 0f 6e c0       	movq   %rax,%xmm0
    4b9a:	48 85 d2             	test   %rdx,%rdx
    4b9d:	48 0f 48 d1          	cmovs  %rcx,%rdx
    4ba1:	48 89 c1             	mov    %rax,%rcx
    4ba4:	48 f7 d1             	not    %rcx
    4ba7:	66 48 0f 6e da       	movq   %rdx,%xmm3
    4bac:	48 29 d1             	sub    %rdx,%rcx
    4baf:	31 d2                	xor    %edx,%edx
    4bb1:	66 0f 6c c3          	punpcklqdq %xmm3,%xmm0
    4bb5:	48 89 4c 24 38       	mov    %rcx,0x38(%rsp)
    4bba:	31 c9                	xor    %ecx,%ecx
    4bbc:	0f 11 44 24 28       	movups %xmm0,0x28(%rsp)
    4bc1:	e8 da d5 ff ff       	call   21a0 <GOMP_parallel@plt>
    4bc6:	66 0f 28 44 24 40    	movapd 0x40(%rsp),%xmm0
    4bcc:	66 0f ef c9          	pxor   %xmm1,%xmm1
    4bd0:	48 89 ef             	mov    %rbp,%rdi
    4bd3:	48 8d 05 32 3c 00 00 	lea    0x3c32(%rip),%rax        # 880c <options.171.0+0x1c>
    4bda:	c7 44 24 30 5d 03 00 	movl   $0x35d,0x30(%rsp)
    4be1:	00 
    4be2:	66 0f 59 c8          	mulpd  %xmm0,%xmm1
    4be6:	66 0f 28 d0          	movapd %xmm0,%xmm2
    4bea:	48 89 44 24 28       	mov    %rax,0x28(%rsp)
    4bef:	48 8d 05 0a 3d 00 00 	lea    0x3d0a(%rip),%rax        # 8900 <options.171.0+0x110>
    4bf6:	48 89 44 24 70       	mov    %rax,0x70(%rsp)
    4bfb:	48 8b 05 f6 3e 00 00 	mov    0x3ef6(%rip),%rax        # 8af8 <options.171.0+0x308>
    4c02:	48 c7 44 24 78 25 00 	movq   $0x25,0x78(%rsp)
    4c09:	00 00 
    4c0b:	48 89 44 24 20       	mov    %rax,0x20(%rsp)
    4c10:	66 0f c6 c9 01       	shufpd $0x1,%xmm1,%xmm1
    4c15:	66 0f 58 d1          	addpd  %xmm1,%xmm2
    4c19:	66 0f 5c c1          	subpd  %xmm1,%xmm0
    4c1d:	f2 0f 10 c2          	movsd  %xmm2,%xmm0
    4c21:	66 0f 59 05 a7 3e 00 	mulpd  0x3ea7(%rip),%xmm0        # 8ad0 <options.171.0+0x2e0>
    4c28:	00 
    4c29:	0f 29 44 24 10       	movaps %xmm0,0x10(%rsp)
    4c2e:	0f 29 04 24          	movaps %xmm0,(%rsp)
    4c32:	e8 e9 d5 ff ff       	call   2220 <_gfortran_st_write@plt>
    4c37:	48 89 de             	mov    %rbx,%rsi
    4c3a:	48 89 ef             	mov    %rbp,%rdi
    4c3d:	ba 04 00 00 00       	mov    $0x4,%edx
    4c42:	e8 89 d4 ff ff       	call   20d0 <_gfortran_transfer_integer_write@plt>
    4c47:	48 8d 74 24 10       	lea    0x10(%rsp),%rsi
    4c4c:	ba 08 00 00 00       	mov    $0x8,%edx
    4c51:	48 89 ef             	mov    %rbp,%rdi
    4c54:	e8 87 d4 ff ff       	call   20e0 <_gfortran_transfer_complex_write@plt>
    4c59:	48 89 ef             	mov    %rbp,%rdi
    4c5c:	e8 4f d5 ff ff       	call   21b0 <_gfortran_st_write_done@plt>
    4c61:	48 63 03             	movslq (%rbx),%rax
    4c64:	66 0f 28 04 24       	movapd (%rsp),%xmm0
    4c69:	48 8d 15 10 86 00 00 	lea    0x8610(%rip),%rdx        # d280 <__ft_data_MOD_sums>
    4c70:	48 c1 e0 04          	shl    $0x4,%rax
    4c74:	0f 11 04 02          	movups %xmm0,(%rdx,%rax,1)
    4c78:	48 81 c4 38 02 00 00 	add    $0x238,%rsp
    4c7f:	5b                   	pop    %rbx
    4c80:	5d                   	pop    %rbp
    4c81:	c3                   	ret    
    4c82:	66 66 2e 0f 1f 84 00 	data16 cs nopw 0x0(%rax,%rax,1)
    4c89:	00 00 00 00 
    4c8d:	0f 1f 00             	nopl   (%rax)

0000000000004c90 <evolve_>:
    4c90:	41 54                	push   %r12
    4c92:	49 89 d4             	mov    %rdx,%r12
    4c95:	31 d2                	xor    %edx,%edx
    4c97:	49 89 fa             	mov    %rdi,%r10
    4c9a:	49 89 f3             	mov    %rsi,%r11
    4c9d:	48 89 ce             	mov    %rcx,%rsi
    4ca0:	66 49 0f 6e f3       	movq   %r11,%xmm6
    4ca5:	66 48 0f 6e fe       	movq   %rsi,%xmm7
    4caa:	48 83 ec 70          	sub    $0x70,%rsp
    4cae:	8b 01                	mov    (%rcx),%eax
    4cb0:	66 41 0f 6e 01       	movd   (%r9),%xmm0
    4cb5:	48 89 e6             	mov    %rsp,%rsi
    4cb8:	83 c0 01             	add    $0x1,%eax
    4cbb:	48 98                	cltq   
    4cbd:	48 85 c0             	test   %rax,%rax
    4cc0:	48 0f 48 c2          	cmovs  %rdx,%rax
    4cc4:	49 63 10             	movslq (%r8),%rdx
    4cc7:	31 c9                	xor    %ecx,%ecx
    4cc9:	48 89 d7             	mov    %rdx,%rdi
    4ccc:	48 0f af d0          	imul   %rax,%rdx
    4cd0:	66 48 0f 6e e8       	movq   %rax,%xmm5
    4cd5:	66 0f 6e e7          	movd   %edi,%xmm4
    4cd9:	66 48 0f 6e d0       	movq   %rax,%xmm2
    4cde:	48 8d 3d fb dc ff ff 	lea    -0x2305(%rip),%rdi        # 29e0 <evolve_._omp_fn.0>
    4ce5:	66 0f 62 c4          	punpckldq %xmm4,%xmm0
    4ce9:	48 85 d2             	test   %rdx,%rdx
    4cec:	66 0f d6 44 24 68    	movq   %xmm0,0x68(%rsp)
    4cf2:	48 0f 48 d1          	cmovs  %rcx,%rdx
    4cf6:	48 89 c1             	mov    %rax,%rcx
    4cf9:	48 f7 d1             	not    %rcx
    4cfc:	48 29 d1             	sub    %rdx,%rcx
    4cff:	66 48 0f 6e da       	movq   %rdx,%xmm3
    4d04:	66 48 0f 6e c1       	movq   %rcx,%xmm0
    4d09:	66 48 0f 6e c9       	movq   %rcx,%xmm1
    4d0e:	48 89 4c 24 60       	mov    %rcx,0x60(%rsp)
    4d13:	66 0f 6c d3          	punpcklqdq %xmm3,%xmm2
    4d17:	66 0f 6c c5          	punpcklqdq %xmm5,%xmm0
    4d1b:	31 c9                	xor    %ecx,%ecx
    4d1d:	0f 29 54 24 20       	movaps %xmm2,0x20(%rsp)
    4d22:	0f 29 44 24 30       	movaps %xmm0,0x30(%rsp)
    4d27:	66 48 0f 6e c2       	movq   %rdx,%xmm0
    4d2c:	31 d2                	xor    %edx,%edx
    4d2e:	66 0f 6c c1          	punpcklqdq %xmm1,%xmm0
    4d32:	0f 29 54 24 50       	movaps %xmm2,0x50(%rsp)
    4d37:	0f 29 44 24 40       	movaps %xmm0,0x40(%rsp)
    4d3c:	66 49 0f 6e c2       	movq   %r10,%xmm0
    4d41:	66 0f 6c c6          	punpcklqdq %xmm6,%xmm0
    4d45:	0f 29 04 24          	movaps %xmm0,(%rsp)
    4d49:	66 49 0f 6e c4       	movq   %r12,%xmm0
    4d4e:	66 0f 6c c7          	punpcklqdq %xmm7,%xmm0
    4d52:	0f 29 44 24 10       	movaps %xmm0,0x10(%rsp)
    4d57:	e8 44 d4 ff ff       	call   21a0 <GOMP_parallel@plt>
    4d5c:	48 83 c4 70          	add    $0x70,%rsp
    4d60:	41 5c                	pop    %r12
    4d62:	c3                   	ret    
    4d63:	66 66 2e 0f 1f 84 00 	data16 cs nopw 0x0(%rax,%rax,1)
    4d6a:	00 00 00 00 
    4d6e:	66 90                	xchg   %ax,%ax

0000000000004d70 <fft_init_>:
    4d70:	41 57                	push   %r15
    4d72:	41 56                	push   %r14
    4d74:	41 55                	push   %r13
    4d76:	41 54                	push   %r12
    4d78:	55                   	push   %rbp
    4d79:	53                   	push   %rbx
    4d7a:	48 83 ec 28          	sub    $0x28,%rsp
    4d7e:	e8 6d 1d 00 00       	call   6af0 <ilog2_>
    4d83:	66 0f ef c0          	pxor   %xmm0,%xmm0
    4d87:	48 c7 05 d6 64 00 00 	movq   $0x0,0x64d6(%rip)        # b268 <__ft_data_MOD_u+0x8>
    4d8e:	00 00 00 00 
    4d92:	f2 0f 2a c0          	cvtsi2sd %eax,%xmm0
    4d96:	f2 0f 11 05 c2 64 00 	movsd  %xmm0,0x64c2(%rip)        # b260 <__ft_data_MOD_u>
    4d9d:	00 
    4d9e:	85 c0                	test   %eax,%eax
    4da0:	0f 8e 0a 01 00 00    	jle    4eb0 <fft_init_+0x140>
    4da6:	83 c0 01             	add    $0x1,%eax
    4da9:	f2 0f 10 05 3f 3d 00 	movsd  0x3d3f(%rip),%xmm0        # 8af0 <options.171.0+0x300>
    4db0:	00 
    4db1:	66 0f ef d2          	pxor   %xmm2,%xmm2
    4db5:	c7 44 24 08 01 00 00 	movl   $0x1,0x8(%rsp)
    4dbc:	00 
    4dbd:	89 44 24 0c          	mov    %eax,0xc(%rsp)
    4dc1:	bb 01 00 00 00       	mov    $0x1,%ebx
    4dc6:	41 bc 02 00 00 00    	mov    $0x2,%r12d
    4dcc:	48 8d 6c 24 18       	lea    0x18(%rsp),%rbp
    4dd1:	66 0f 28 c8          	movapd %xmm0,%xmm1
    4dd5:	0f 1f 00             	nopl   (%rax)
    4dd8:	41 8d 44 24 ff       	lea    -0x1(%r12),%eax
    4ddd:	f2 0f 10 25 33 3d 00 	movsd  0x3d33(%rip),%xmm4        # 8b18 <options.171.0+0x328>
    4de4:	00 
    4de5:	66 0f 14 c2          	unpcklpd %xmm2,%xmm0
    4de9:	48 8d 0d 70 64 00 00 	lea    0x6470(%rip),%rcx        # b260 <__ft_data_MOD_u>
    4df0:	48 98                	cltq   
    4df2:	f2 0f 5e e1          	divsd  %xmm1,%xmm4
    4df6:	48 c1 e0 04          	shl    $0x4,%rax
    4dfa:	0f 11 04 01          	movups %xmm0,(%rcx,%rax,1)
    4dfe:	f2 0f 11 24 24       	movsd  %xmm4,(%rsp)
    4e03:	83 fb 01             	cmp    $0x1,%ebx
    4e06:	74 49                	je     4e51 <fft_init_+0xe1>
    4e08:	49 63 d4             	movslq %r12d,%rdx
    4e0b:	41 be 01 00 00 00    	mov    $0x1,%r14d
    4e11:	4c 8d 7c 24 10       	lea    0x10(%rsp),%r15
    4e16:	48 c1 e2 04          	shl    $0x4,%rdx
    4e1a:	4c 8d 2c 11          	lea    (%rcx,%rdx,1),%r13
    4e1e:	66 90                	xchg   %ax,%ax
    4e20:	66 0f ef c0          	pxor   %xmm0,%xmm0
    4e24:	4c 89 fe             	mov    %r15,%rsi
    4e27:	48 89 ef             	mov    %rbp,%rdi
    4e2a:	49 83 c5 10          	add    $0x10,%r13
    4e2e:	f2 41 0f 2a c6       	cvtsi2sd %r14d,%xmm0
    4e33:	f2 0f 59 04 24       	mulsd  (%rsp),%xmm0
    4e38:	41 83 c6 01          	add    $0x1,%r14d
    4e3c:	e8 7f d3 ff ff       	call   21c0 <sincos@plt>
    4e41:	66 0f 10 44 24 10    	movupd 0x10(%rsp),%xmm0
    4e47:	41 0f 11 45 f0       	movups %xmm0,-0x10(%r13)
    4e4c:	41 39 de             	cmp    %ebx,%r14d
    4e4f:	75 cf                	jne    4e20 <fft_init_+0xb0>
    4e51:	83 44 24 08 01       	addl   $0x1,0x8(%rsp)
    4e56:	41 01 dc             	add    %ebx,%r12d
    4e59:	8b 44 24 08          	mov    0x8(%rsp),%eax
    4e5d:	01 db                	add    %ebx,%ebx
    4e5f:	39 44 24 0c          	cmp    %eax,0xc(%rsp)
    4e63:	74 4b                	je     4eb0 <fft_init_+0x140>
    4e65:	66 0f ef c9          	pxor   %xmm1,%xmm1
    4e69:	66 0f ef ed          	pxor   %xmm5,%xmm5
    4e6d:	4c 8d 7c 24 10       	lea    0x10(%rsp),%r15
    4e72:	48 89 ef             	mov    %rbp,%rdi
    4e75:	f2 0f 2a cb          	cvtsi2sd %ebx,%xmm1
    4e79:	f2 0f 10 05 97 3c 00 	movsd  0x3c97(%rip),%xmm0        # 8b18 <options.171.0+0x328>
    4e80:	00 
    4e81:	4c 89 fe             	mov    %r15,%rsi
    4e84:	f2 0f 5e c1          	divsd  %xmm1,%xmm0
    4e88:	f2 0f 11 0c 24       	movsd  %xmm1,(%rsp)
    4e8d:	f2 0f 59 c5          	mulsd  %xmm5,%xmm0
    4e91:	e8 2a d3 ff ff       	call   21c0 <sincos@plt>
    4e96:	f2 0f 10 44 24 10    	movsd  0x10(%rsp),%xmm0
    4e9c:	f2 0f 10 54 24 18    	movsd  0x18(%rsp),%xmm2
    4ea2:	f2 0f 10 0c 24       	movsd  (%rsp),%xmm1
    4ea7:	e9 2c ff ff ff       	jmp    4dd8 <fft_init_+0x68>
    4eac:	0f 1f 40 00          	nopl   0x0(%rax)
    4eb0:	48 83 c4 28          	add    $0x28,%rsp
    4eb4:	5b                   	pop    %rbx
    4eb5:	5d                   	pop    %rbp
    4eb6:	41 5c                	pop    %r12
    4eb8:	41 5d                	pop    %r13
    4eba:	41 5e                	pop    %r14
    4ebc:	41 5f                	pop    %r15
    4ebe:	c3                   	ret    
    4ebf:	90                   	nop

0000000000004ec0 <compute_initial_conditions_>:
    4ec0:	41 57                	push   %r15
    4ec2:	31 c9                	xor    %ecx,%ecx
    4ec4:	41 56                	push   %r14
    4ec6:	41 55                	push   %r13
    4ec8:	41 54                	push   %r12
    4eca:	55                   	push   %rbp
    4ecb:	bd 00 00 08 00       	mov    $0x80000,%ebp
    4ed0:	53                   	push   %rbx
    4ed1:	48 81 ec 68 10 00 00 	sub    $0x1068,%rsp
    4ed8:	8b 06                	mov    (%rsi),%eax
    4eda:	48 63 12             	movslq (%rdx),%rdx
    4edd:	4c 8d 6c 24 20       	lea    0x20(%rsp),%r13
    4ee2:	4c 8d 74 24 28       	lea    0x28(%rsp),%r14
    4ee7:	48 89 7c 24 18       	mov    %rdi,0x18(%rsp)
    4eec:	f2 0f 10 0d fc 3b 00 	movsd  0x3bfc(%rip),%xmm1        # 8af0 <options.171.0+0x300>
    4ef3:	00 
    4ef4:	83 c0 01             	add    $0x1,%eax
    4ef7:	4c 89 ee             	mov    %r13,%rsi
    4efa:	4c 8d 64 24 30       	lea    0x30(%rsp),%r12
    4eff:	4c 89 f7             	mov    %r14,%rdi
    4f02:	48 98                	cltq   
    4f04:	f2 0f 11 4c 24 20    	movsd  %xmm1,0x20(%rsp)
    4f0a:	48 8d 5c 24 60       	lea    0x60(%rsp),%rbx
    4f0f:	48 85 c0             	test   %rax,%rax
    4f12:	48 0f 48 c1          	cmovs  %rcx,%rax
    4f16:	48 0f af d0          	imul   %rax,%rdx
    4f1a:	66 48 0f 6e d0       	movq   %rax,%xmm2
    4f1f:	48 f7 d0             	not    %rax
    4f22:	48 85 d2             	test   %rdx,%rdx
    4f25:	48 0f 48 d1          	cmovs  %rcx,%rdx
    4f29:	48 29 d0             	sub    %rdx,%rax
    4f2c:	66 48 0f 6e da       	movq   %rdx,%xmm3
    4f31:	48 89 44 24 10       	mov    %rax,0x10(%rsp)
    4f36:	48 8b 05 e3 3b 00 00 	mov    0x3be3(%rip),%rax        # 8b20 <options.171.0+0x330>
    4f3d:	66 0f 6c d3          	punpcklqdq %xmm3,%xmm2
    4f41:	0f 29 14 24          	movaps %xmm2,(%rsp)
    4f45:	48 89 44 24 28       	mov    %rax,0x28(%rsp)
    4f4a:	e8 91 1e 00 00       	call   6de0 <randlc_>
    4f4f:	48 8b 05 9a 3b 00 00 	mov    0x3b9a(%rip),%rax        # 8af0 <options.171.0+0x300>
    4f56:	66 48 0f 6e c8       	movq   %rax,%xmm1
    4f5b:	48 89 44 24 20       	mov    %rax,0x20(%rsp)
    4f60:	48 8b 05 c1 3b 00 00 	mov    0x3bc1(%rip),%rax        # 8b28 <options.171.0+0x338>
    4f67:	f2 0f 11 4c 24 60    	movsd  %xmm1,0x60(%rsp)
    4f6d:	48 89 44 24 30       	mov    %rax,0x30(%rsp)
    4f72:	66 0f 1f 44 00 00    	nopw   0x0(%rax,%rax,1)
    4f78:	41 89 ef             	mov    %ebp,%r15d
    4f7b:	4c 89 e6             	mov    %r12,%rsi
    4f7e:	41 d1 ff             	sar    %r15d
    4f81:	40 f6 c5 01          	test   $0x1,%bpl
    4f85:	0f 84 bd 00 00 00    	je     5048 <compute_initial_conditions_+0x188>
    4f8b:	48 89 df             	mov    %rbx,%rdi
    4f8e:	83 ed 01             	sub    $0x1,%ebp
    4f91:	e8 4a 1e 00 00       	call   6de0 <randlc_>
    4f96:	83 fd 01             	cmp    $0x1,%ebp
    4f99:	75 dd                	jne    4f78 <compute_initial_conditions_+0xb8>
    4f9b:	4c 89 e6             	mov    %r12,%rsi
    4f9e:	48 89 df             	mov    %rbx,%rdi
    4fa1:	e8 3a 1e 00 00       	call   6de0 <randlc_>
    4fa6:	f2 0f 10 44 24 60    	movsd  0x60(%rsp),%xmm0
    4fac:	8b 2d 36 84 00 00    	mov    0x8436(%rip),%ebp        # d3e8 <__ft_data_MOD_dims+0x8>
    4fb2:	f2 0f 11 44 24 20    	movsd  %xmm0,0x20(%rsp)
    4fb8:	f2 0f 10 44 24 28    	movsd  0x28(%rsp),%xmm0
    4fbe:	f2 0f 11 44 24 60    	movsd  %xmm0,0x60(%rsp)
    4fc4:	83 fd 01             	cmp    $0x1,%ebp
    4fc7:	7e 2e                	jle    4ff7 <compute_initial_conditions_+0x137>
    4fc9:	41 bf 02 00 00 00    	mov    $0x2,%r15d
    4fcf:	90                   	nop
    4fd0:	4c 89 ee             	mov    %r13,%rsi
    4fd3:	4c 89 f7             	mov    %r14,%rdi
    4fd6:	e8 05 1e 00 00       	call   6de0 <randlc_>
    4fdb:	f2 0f 10 44 24 28    	movsd  0x28(%rsp),%xmm0
    4fe1:	f2 42 0f 11 44 fb f8 	movsd  %xmm0,-0x8(%rbx,%r15,8)
    4fe8:	49 83 c7 01          	add    $0x1,%r15
    4fec:	44 39 fd             	cmp    %r15d,%ebp
    4fef:	7d df                	jge    4fd0 <compute_initial_conditions_+0x110>
    4ff1:	8b 2d f1 83 00 00    	mov    0x83f1(%rip),%ebp        # d3e8 <__ft_data_MOD_dims+0x8>
    4ff7:	48 8b 44 24 10       	mov    0x10(%rsp),%rax
    4ffc:	66 0f 6f 24 24       	movdqa (%rsp),%xmm4
    5001:	4c 89 e6             	mov    %r12,%rsi
    5004:	31 c9                	xor    %ecx,%ecx
    5006:	31 d2                	xor    %edx,%edx
    5008:	48 8d 3d f1 dd ff ff 	lea    -0x220f(%rip),%rdi        # 2e00 <compute_initial_conditions_._omp_fn.0>
    500f:	89 6c 24 58          	mov    %ebp,0x58(%rsp)
    5013:	48 89 44 24 50       	mov    %rax,0x50(%rsp)
    5018:	48 8b 44 24 18       	mov    0x18(%rsp),%rax
    501d:	48 89 5c 24 38       	mov    %rbx,0x38(%rsp)
    5022:	48 89 44 24 30       	mov    %rax,0x30(%rsp)
    5027:	0f 29 64 24 40       	movaps %xmm4,0x40(%rsp)
    502c:	e8 6f d1 ff ff       	call   21a0 <GOMP_parallel@plt>
    5031:	48 81 c4 68 10 00 00 	add    $0x1068,%rsp
    5038:	5b                   	pop    %rbx
    5039:	5d                   	pop    %rbp
    503a:	41 5c                	pop    %r12
    503c:	41 5d                	pop    %r13
    503e:	41 5e                	pop    %r14
    5040:	41 5f                	pop    %r15
    5042:	c3                   	ret    
    5043:	0f 1f 44 00 00       	nopl   0x0(%rax,%rax,1)
    5048:	4c 89 e7             	mov    %r12,%rdi
    504b:	e8 90 1d 00 00       	call   6de0 <randlc_>
    5050:	41 83 ff 01          	cmp    $0x1,%r15d
    5054:	0f 84 41 ff ff ff    	je     4f9b <compute_initial_conditions_+0xdb>
    505a:	44 89 fd             	mov    %r15d,%ebp
    505d:	e9 16 ff ff ff       	jmp    4f78 <compute_initial_conditions_+0xb8>
    5062:	66 66 2e 0f 1f 84 00 	data16 cs nopw 0x0(%rax,%rax,1)
    5069:	00 00 00 00 
    506d:	0f 1f 00             	nopl   (%rax)

0000000000005070 <compute_indexmap_>:
    5070:	48 83 ec 38          	sub    $0x38,%rsp
    5074:	8b 06                	mov    (%rsi),%eax
    5076:	31 c9                	xor    %ecx,%ecx
    5078:	48 63 12             	movslq (%rdx),%rdx
    507b:	f3 0f 7e 05 61 83 00 	movq   0x8361(%rip),%xmm0        # d3e4 <__ft_data_MOD_dims+0x4>
    5082:	00 
    5083:	48 89 3c 24          	mov    %rdi,(%rsp)
    5087:	48 89 e6             	mov    %rsp,%rsi
    508a:	48 8d 3d bf de ff ff 	lea    -0x2141(%rip),%rdi        # 2f50 <compute_indexmap_._omp_fn.0>
    5091:	83 c0 01             	add    $0x1,%eax
    5094:	48 98                	cltq   
    5096:	66 0f 70 c0 e1       	pshufd $0xe1,%xmm0,%xmm0
    509b:	48 85 c0             	test   %rax,%rax
    509e:	66 0f d6 44 24 28    	movq   %xmm0,0x28(%rsp)
    50a4:	48 0f 48 c1          	cmovs  %rcx,%rax
    50a8:	48 0f af d0          	imul   %rax,%rdx
    50ac:	66 48 0f 6e c0       	movq   %rax,%xmm0
    50b1:	48 85 d2             	test   %rdx,%rdx
    50b4:	48 0f 48 d1          	cmovs  %rcx,%rdx
    50b8:	48 89 c1             	mov    %rax,%rcx
    50bb:	48 8b 05 6e 3a 00 00 	mov    0x3a6e(%rip),%rax        # 8b30 <options.171.0+0x340>
    50c2:	48 f7 d1             	not    %rcx
    50c5:	48 29 d1             	sub    %rdx,%rcx
    50c8:	66 48 0f 6e ca       	movq   %rdx,%xmm1
    50cd:	31 d2                	xor    %edx,%edx
    50cf:	48 89 44 24 08       	mov    %rax,0x8(%rsp)
    50d4:	48 89 4c 24 20       	mov    %rcx,0x20(%rsp)
    50d9:	66 0f 6c c1          	punpcklqdq %xmm1,%xmm0
    50dd:	31 c9                	xor    %ecx,%ecx
    50df:	0f 29 44 24 10       	movaps %xmm0,0x10(%rsp)
    50e4:	e8 b7 d0 ff ff       	call   21a0 <GOMP_parallel@plt>
    50e9:	48 83 c4 38          	add    $0x38,%rsp
    50ed:	c3                   	ret    
    50ee:	66 90                	xchg   %ax,%ax

00000000000050f0 <cffts1_>:
    50f0:	41 55                	push   %r13
    50f2:	31 c0                	xor    %eax,%eax
    50f4:	49 89 d5             	mov    %rdx,%r13
    50f7:	66 49 0f 6e f9       	movq   %r9,%xmm7
    50fc:	41 54                	push   %r12
    50fe:	49 89 f4             	mov    %rsi,%r12
    5101:	66 49 0f 6e c8       	movq   %r8,%xmm1
    5106:	55                   	push   %rbp
    5107:	48 89 cd             	mov    %rcx,%rbp
    510a:	66 0f 6c cf          	punpcklqdq %xmm7,%xmm1
    510e:	53                   	push   %rbx
    510f:	48 89 fb             	mov    %rdi,%rbx
    5112:	4c 89 e7             	mov    %r12,%rdi
    5115:	48 81 ec f8 00 00 00 	sub    $0xf8,%rsp
    511c:	48 63 0d b1 82 00 00 	movslq 0x82b1(%rip),%rcx        # d3d4 <__ft_data_MOD_fftblockpad>
    5123:	48 63 16             	movslq (%rsi),%rdx
    5126:	0f 29 0c 24          	movaps %xmm1,(%rsp)
    512a:	48 85 c9             	test   %rcx,%rcx
    512d:	48 0f 48 c8          	cmovs  %rax,%rcx
    5131:	48 89 d0             	mov    %rdx,%rax
    5134:	31 f6                	xor    %esi,%esi
    5136:	48 0f af d1          	imul   %rcx,%rdx
    513a:	66 48 0f 6e d9       	movq   %rcx,%xmm3
    513f:	48 85 d2             	test   %rdx,%rdx
    5142:	48 0f 48 d6          	cmovs  %rsi,%rdx
    5146:	83 c0 01             	add    $0x1,%eax
    5149:	48 98                	cltq   
    514b:	48 c1 e2 04          	shl    $0x4,%rdx
    514f:	66 48 0f 6e d2       	movq   %rdx,%xmm2
    5154:	48 89 ca             	mov    %rcx,%rdx
    5157:	48 f7 d2             	not    %rdx
    515a:	66 0f 6c d2          	punpcklqdq %xmm2,%xmm2
    515e:	66 48 0f 6e fa       	movq   %rdx,%xmm7
    5163:	31 d2                	xor    %edx,%edx
    5165:	48 85 c0             	test   %rax,%rax
    5168:	0f 29 54 24 50       	movaps %xmm2,0x50(%rsp)
    516d:	48 0f 48 c2          	cmovs  %rdx,%rax
    5171:	49 63 55 00          	movslq 0x0(%r13),%rdx
    5175:	31 c9                	xor    %ecx,%ecx
    5177:	66 0f 6c df          	punpcklqdq %xmm7,%xmm3
    517b:	0f 29 5c 24 10       	movaps %xmm3,0x10(%rsp)
    5180:	48 0f af d0          	imul   %rax,%rdx
    5184:	66 48 0f 6e e0       	movq   %rax,%xmm4
    5189:	66 48 0f 6e c8       	movq   %rax,%xmm1
    518e:	48 85 d2             	test   %rdx,%rdx
    5191:	48 0f 48 d1          	cmovs  %rcx,%rdx
    5195:	48 89 c1             	mov    %rax,%rcx
    5198:	48 f7 d1             	not    %rcx
    519b:	48 29 d1             	sub    %rdx,%rcx
    519e:	66 48 0f 6e fa       	movq   %rdx,%xmm7
    51a3:	66 48 0f 6e f2       	movq   %rdx,%xmm6
    51a8:	66 48 0f 6e c1       	movq   %rcx,%xmm0
    51ad:	66 48 0f 6e e9       	movq   %rcx,%xmm5
    51b2:	66 0f 6c e7          	punpcklqdq %xmm7,%xmm4
    51b6:	66 0f 6c e9          	punpcklqdq %xmm1,%xmm5
    51ba:	66 0f 6c f0          	punpcklqdq %xmm0,%xmm6
    51be:	0f 29 64 24 40       	movaps %xmm4,0x40(%rsp)
    51c3:	0f 29 6c 24 30       	movaps %xmm5,0x30(%rsp)
    51c8:	0f 29 74 24 20       	movaps %xmm6,0x20(%rsp)
    51cd:	e8 1e 19 00 00       	call   6af0 <ilog2_>
    51d2:	8b 15 98 80 00 00    	mov    0x8098(%rip),%edx        # d270 <__ft_data_MOD_timers_enabled>
    51d8:	89 44 24 6c          	mov    %eax,0x6c(%rsp)
    51dc:	85 d2                	test   %edx,%edx
    51de:	0f 85 c4 00 00 00    	jne    52a8 <cffts1_+0x1b8>
    51e4:	41 8b 45 00          	mov    0x0(%r13),%eax
    51e8:	66 0f 6e 45 00       	movd   0x0(%rbp),%xmm0
    51ed:	48 8d 74 24 70       	lea    0x70(%rsp),%rsi
    51f2:	31 c9                	xor    %ecx,%ecx
    51f4:	66 0f 6f 5c 24 50    	movdqa 0x50(%rsp),%xmm3
    51fa:	66 0f 6f 64 24 40    	movdqa 0x40(%rsp),%xmm4
    5200:	48 8d 3d a9 0c 00 00 	lea    0xca9(%rip),%rdi        # 5eb0 <cffts1_._omp_fn.0>
    5207:	4c 89 a4 24 d0 00 00 	mov    %r12,0xd0(%rsp)
    520e:	00 
    520f:	99                   	cltd   
    5210:	66 0f 6f 6c 24 30    	movdqa 0x30(%rsp),%xmm5
    5216:	66 0f 6f 0c 24       	movdqa (%rsp),%xmm1
    521b:	48 89 9c 24 e0 00 00 	mov    %rbx,0xe0(%rsp)
    5222:	00 
    5223:	f7 3d af 81 00 00    	idivl  0x81af(%rip)        # d3d8 <__ft_data_MOD_fftblock>
    5229:	66 0f 6f 74 24 20    	movdqa 0x20(%rsp),%xmm6
    522f:	66 0f 6f 7c 24 10    	movdqa 0x10(%rsp),%xmm7
    5235:	0f 29 9c 24 c0 00 00 	movaps %xmm3,0xc0(%rsp)
    523c:	00 
    523d:	0f 29 a4 24 80 00 00 	movaps %xmm4,0x80(%rsp)
    5244:	00 
    5245:	0f 29 ac 24 90 00 00 	movaps %xmm5,0x90(%rsp)
    524c:	00 
    524d:	0f 29 b4 24 a0 00 00 	movaps %xmm6,0xa0(%rsp)
    5254:	00 
    5255:	0f 29 bc 24 b0 00 00 	movaps %xmm7,0xb0(%rsp)
    525c:	00 
    525d:	0f 29 4c 24 70       	movaps %xmm1,0x70(%rsp)
    5262:	31 d2                	xor    %edx,%edx
    5264:	83 e8 01             	sub    $0x1,%eax
    5267:	66 0f 6e d0          	movd   %eax,%xmm2
    526b:	48 8d 44 24 6c       	lea    0x6c(%rsp),%rax
    5270:	66 0f 62 c2          	punpckldq %xmm2,%xmm0
    5274:	48 89 84 24 d8 00 00 	mov    %rax,0xd8(%rsp)
    527b:	00 
    527c:	66 0f d6 84 24 e8 00 	movq   %xmm0,0xe8(%rsp)
    5283:	00 00 
    5285:	e8 16 cf ff ff       	call   21a0 <GOMP_parallel@plt>
    528a:	8b 05 e0 7f 00 00    	mov    0x7fe0(%rip),%eax        # d270 <__ft_data_MOD_timers_enabled>
    5290:	85 c0                	test   %eax,%eax
    5292:	75 2c                	jne    52c0 <cffts1_+0x1d0>
    5294:	48 81 c4 f8 00 00 00 	add    $0xf8,%rsp
    529b:	5b                   	pop    %rbx
    529c:	5d                   	pop    %rbp
    529d:	41 5c                	pop    %r12
    529f:	41 5d                	pop    %r13
    52a1:	c3                   	ret    
    52a2:	66 0f 1f 44 00 00    	nopw   0x0(%rax,%rax,1)
    52a8:	48 8d 3d 19 35 00 00 	lea    0x3519(%rip),%rdi        # 87c8 <_IO_stdin_used+0x7c8>
    52af:	e8 cc 25 00 00       	call   7880 <timer_start_>
    52b4:	e9 2b ff ff ff       	jmp    51e4 <cffts1_+0xf4>
    52b9:	0f 1f 80 00 00 00 00 	nopl   0x0(%rax)
    52c0:	48 8d 3d 01 35 00 00 	lea    0x3501(%rip),%rdi        # 87c8 <_IO_stdin_used+0x7c8>
    52c7:	e8 d4 25 00 00       	call   78a0 <timer_stop_>
    52cc:	48 81 c4 f8 00 00 00 	add    $0xf8,%rsp
    52d3:	5b                   	pop    %rbx
    52d4:	5d                   	pop    %rbp
    52d5:	41 5c                	pop    %r12
    52d7:	41 5d                	pop    %r13
    52d9:	c3                   	ret    
    52da:	66 0f 1f 44 00 00    	nopw   0x0(%rax,%rax,1)

00000000000052e0 <cffts2_>:
    52e0:	41 55                	push   %r13
    52e2:	49 89 f5             	mov    %rsi,%r13
    52e5:	66 49 0f 6e f9       	movq   %r9,%xmm7
    52ea:	66 49 0f 6e c8       	movq   %r8,%xmm1
    52ef:	41 54                	push   %r12
    52f1:	49 89 d4             	mov    %rdx,%r12
    52f4:	31 d2                	xor    %edx,%edx
    52f6:	66 0f 6c cf          	punpcklqdq %xmm7,%xmm1
    52fa:	55                   	push   %rbp
    52fb:	48 89 cd             	mov    %rcx,%rbp
    52fe:	53                   	push   %rbx
    52ff:	48 89 fb             	mov    %rdi,%rbx
    5302:	4c 89 e7             	mov    %r12,%rdi
    5305:	48 81 ec f8 00 00 00 	sub    $0xf8,%rsp
    530c:	48 63 05 c1 80 00 00 	movslq 0x80c1(%rip),%rax        # d3d4 <__ft_data_MOD_fftblockpad>
    5313:	0f 29 0c 24          	movaps %xmm1,(%rsp)
    5317:	48 85 c0             	test   %rax,%rax
    531a:	48 0f 48 c2          	cmovs  %rdx,%rax
    531e:	49 63 14 24          	movslq (%r12),%rdx
    5322:	31 f6                	xor    %esi,%esi
    5324:	48 89 c1             	mov    %rax,%rcx
    5327:	66 48 0f 6e d8       	movq   %rax,%xmm3
    532c:	48 0f af ca          	imul   %rdx,%rcx
    5330:	48 85 c9             	test   %rcx,%rcx
    5333:	48 0f 48 ce          	cmovs  %rsi,%rcx
    5337:	48 c1 e1 04          	shl    $0x4,%rcx
    533b:	66 48 0f 6e d1       	movq   %rcx,%xmm2
    5340:	48 89 c1             	mov    %rax,%rcx
    5343:	41 8b 45 00          	mov    0x0(%r13),%eax
    5347:	48 f7 d1             	not    %rcx
    534a:	66 0f 6c d2          	punpcklqdq %xmm2,%xmm2
    534e:	83 c0 01             	add    $0x1,%eax
    5351:	66 48 0f 6e f9       	movq   %rcx,%xmm7
    5356:	31 c9                	xor    %ecx,%ecx
    5358:	0f 29 54 24 50       	movaps %xmm2,0x50(%rsp)
    535d:	48 98                	cltq   
    535f:	66 0f 6c df          	punpcklqdq %xmm7,%xmm3
    5363:	48 85 c0             	test   %rax,%rax
    5366:	0f 29 5c 24 10       	movaps %xmm3,0x10(%rsp)
    536b:	48 0f 48 c1          	cmovs  %rcx,%rax
    536f:	48 0f af d0          	imul   %rax,%rdx
    5373:	66 48 0f 6e e0       	movq   %rax,%xmm4
    5378:	66 48 0f 6e c8       	movq   %rax,%xmm1
    537d:	48 85 d2             	test   %rdx,%rdx
    5380:	48 0f 48 d1          	cmovs  %rcx,%rdx
    5384:	48 89 c1             	mov    %rax,%rcx
    5387:	48 f7 d1             	not    %rcx
    538a:	48 29 d1             	sub    %rdx,%rcx
    538d:	66 48 0f 6e fa       	movq   %rdx,%xmm7
    5392:	66 48 0f 6e f2       	movq   %rdx,%xmm6
    5397:	66 48 0f 6e c1       	movq   %rcx,%xmm0
    539c:	66 48 0f 6e e9       	movq   %rcx,%xmm5
    53a1:	66 0f 6c e7          	punpcklqdq %xmm7,%xmm4
    53a5:	66 0f 6c e9          	punpcklqdq %xmm1,%xmm5
    53a9:	66 0f 6c f0          	punpcklqdq %xmm0,%xmm6
    53ad:	0f 29 64 24 40       	movaps %xmm4,0x40(%rsp)
    53b2:	0f 29 6c 24 30       	movaps %xmm5,0x30(%rsp)
    53b7:	0f 29 74 24 20       	movaps %xmm6,0x20(%rsp)
    53bc:	e8 2f 17 00 00       	call   6af0 <ilog2_>
    53c1:	8b 15 a9 7e 00 00    	mov    0x7ea9(%rip),%edx        # d270 <__ft_data_MOD_timers_enabled>
    53c7:	89 44 24 6c          	mov    %eax,0x6c(%rsp)
    53cb:	85 d2                	test   %edx,%edx
    53cd:	0f 85 c5 00 00 00    	jne    5498 <cffts2_+0x1b8>
    53d3:	41 8b 45 00          	mov    0x0(%r13),%eax
    53d7:	66 0f 6e 45 00       	movd   0x0(%rbp),%xmm0
    53dc:	48 8d 74 24 70       	lea    0x70(%rsp),%rsi
    53e1:	31 c9                	xor    %ecx,%ecx
    53e3:	66 0f 6f 5c 24 50    	movdqa 0x50(%rsp),%xmm3
    53e9:	66 0f 6f 64 24 40    	movdqa 0x40(%rsp),%xmm4
    53ef:	48 8d 3d 9a 0d 00 00 	lea    0xd9a(%rip),%rdi        # 6190 <cffts2_._omp_fn.0>
    53f6:	4c 89 a4 24 d0 00 00 	mov    %r12,0xd0(%rsp)
    53fd:	00 
    53fe:	99                   	cltd   
    53ff:	66 0f 6f 6c 24 30    	movdqa 0x30(%rsp),%xmm5
    5405:	66 0f 6f 0c 24       	movdqa (%rsp),%xmm1
    540a:	48 89 9c 24 e0 00 00 	mov    %rbx,0xe0(%rsp)
    5411:	00 
    5412:	f7 3d c0 7f 00 00    	idivl  0x7fc0(%rip)        # d3d8 <__ft_data_MOD_fftblock>
    5418:	66 0f 6f 74 24 20    	movdqa 0x20(%rsp),%xmm6
    541e:	66 0f 6f 7c 24 10    	movdqa 0x10(%rsp),%xmm7
    5424:	0f 29 9c 24 c0 00 00 	movaps %xmm3,0xc0(%rsp)
    542b:	00 
    542c:	0f 29 a4 24 80 00 00 	movaps %xmm4,0x80(%rsp)
    5433:	00 
    5434:	0f 29 ac 24 90 00 00 	movaps %xmm5,0x90(%rsp)
    543b:	00 
    543c:	0f 29 b4 24 a0 00 00 	movaps %xmm6,0xa0(%rsp)
    5443:	00 
    5444:	0f 29 bc 24 b0 00 00 	movaps %xmm7,0xb0(%rsp)
    544b:	00 
    544c:	0f 29 4c 24 70       	movaps %xmm1,0x70(%rsp)
    5451:	31 d2                	xor    %edx,%edx
    5453:	83 e8 01             	sub    $0x1,%eax
    5456:	66 0f 6e d0          	movd   %eax,%xmm2
    545a:	48 8d 44 24 6c       	lea    0x6c(%rsp),%rax
    545f:	66 0f 62 c2          	punpckldq %xmm2,%xmm0
    5463:	48 89 84 24 d8 00 00 	mov    %rax,0xd8(%rsp)
    546a:	00 
    546b:	66 0f d6 84 24 e8 00 	movq   %xmm0,0xe8(%rsp)
    5472:	00 00 
    5474:	e8 27 cd ff ff       	call   21a0 <GOMP_parallel@plt>
    5479:	8b 05 f1 7d 00 00    	mov    0x7df1(%rip),%eax        # d270 <__ft_data_MOD_timers_enabled>
    547f:	85 c0                	test   %eax,%eax
    5481:	75 2d                	jne    54b0 <cffts2_+0x1d0>
    5483:	48 81 c4 f8 00 00 00 	add    $0xf8,%rsp
    548a:	5b                   	pop    %rbx
    548b:	5d                   	pop    %rbp
    548c:	41 5c                	pop    %r12
    548e:	41 5d                	pop    %r13
    5490:	c3                   	ret    
    5491:	0f 1f 80 00 00 00 00 	nopl   0x0(%rax)
    5498:	48 8d 3d 2d 33 00 00 	lea    0x332d(%rip),%rdi        # 87cc <_IO_stdin_used+0x7cc>
    549f:	e8 dc 23 00 00       	call   7880 <timer_start_>
    54a4:	e9 2a ff ff ff       	jmp    53d3 <cffts2_+0xf3>
    54a9:	0f 1f 80 00 00 00 00 	nopl   0x0(%rax)
    54b0:	48 8d 3d 15 33 00 00 	lea    0x3315(%rip),%rdi        # 87cc <_IO_stdin_used+0x7cc>
    54b7:	e8 e4 23 00 00       	call   78a0 <timer_stop_>
    54bc:	48 81 c4 f8 00 00 00 	add    $0xf8,%rsp
    54c3:	5b                   	pop    %rbx
    54c4:	5d                   	pop    %rbp
    54c5:	41 5c                	pop    %r12
    54c7:	41 5d                	pop    %r13
    54c9:	c3                   	ret    
    54ca:	66 0f 1f 44 00 00    	nopw   0x0(%rax,%rax,1)

00000000000054d0 <cffts3_>:
    54d0:	41 55                	push   %r13
    54d2:	31 c0                	xor    %eax,%eax
    54d4:	66 48 0f 6e c9       	movq   %rcx,%xmm1
    54d9:	66 49 0f 6e f8       	movq   %r8,%xmm7
    54de:	41 54                	push   %r12
    54e0:	49 89 d4             	mov    %rdx,%r12
    54e3:	66 0f 6c cf          	punpcklqdq %xmm7,%xmm1
    54e7:	49 89 f5             	mov    %rsi,%r13
    54ea:	55                   	push   %rbp
    54eb:	4c 89 cd             	mov    %r9,%rbp
    54ee:	53                   	push   %rbx
    54ef:	48 89 fb             	mov    %rdi,%rbx
    54f2:	48 89 cf             	mov    %rcx,%rdi
    54f5:	48 81 ec f8 00 00 00 	sub    $0xf8,%rsp
    54fc:	48 63 15 d1 7e 00 00 	movslq 0x7ed1(%rip),%rdx        # d3d4 <__ft_data_MOD_fftblockpad>
    5503:	0f 29 0c 24          	movaps %xmm1,(%rsp)
    5507:	48 85 d2             	test   %rdx,%rdx
    550a:	48 0f 48 d0          	cmovs  %rax,%rdx
    550e:	48 63 01             	movslq (%rcx),%rax
    5511:	31 c9                	xor    %ecx,%ecx
    5513:	48 0f af c2          	imul   %rdx,%rax
    5517:	66 48 0f 6e da       	movq   %rdx,%xmm3
    551c:	48 85 c0             	test   %rax,%rax
    551f:	48 0f 48 c1          	cmovs  %rcx,%rax
    5523:	48 c1 e0 04          	shl    $0x4,%rax
    5527:	66 48 0f 6e d0       	movq   %rax,%xmm2
    552c:	48 89 d0             	mov    %rdx,%rax
    552f:	31 d2                	xor    %edx,%edx
    5531:	48 f7 d0             	not    %rax
    5534:	66 0f 6c d2          	punpcklqdq %xmm2,%xmm2
    5538:	66 48 0f 6e f8       	movq   %rax,%xmm7
    553d:	8b 06                	mov    (%rsi),%eax
    553f:	0f 29 54 24 50       	movaps %xmm2,0x50(%rsp)
    5544:	66 0f 6c df          	punpcklqdq %xmm7,%xmm3
    5548:	83 c0 01             	add    $0x1,%eax
    554b:	0f 29 5c 24 10       	movaps %xmm3,0x10(%rsp)
    5550:	48 98                	cltq   
    5552:	48 85 c0             	test   %rax,%rax
    5555:	48 0f 48 c2          	cmovs  %rdx,%rax
    5559:	49 63 14 24          	movslq (%r12),%rdx
    555d:	48 0f af d0          	imul   %rax,%rdx
    5561:	66 48 0f 6e e0       	movq   %rax,%xmm4
    5566:	66 48 0f 6e c8       	movq   %rax,%xmm1
    556b:	48 85 d2             	test   %rdx,%rdx
    556e:	48 0f 48 d1          	cmovs  %rcx,%rdx
    5572:	48 89 c1             	mov    %rax,%rcx
    5575:	48 f7 d1             	not    %rcx
    5578:	48 29 d1             	sub    %rdx,%rcx
    557b:	66 48 0f 6e fa       	movq   %rdx,%xmm7
    5580:	66 48 0f 6e f2       	movq   %rdx,%xmm6
    5585:	66 48 0f 6e c1       	movq   %rcx,%xmm0
    558a:	66 48 0f 6e e9       	movq   %rcx,%xmm5
    558f:	66 0f 6c e7          	punpcklqdq %xmm7,%xmm4
    5593:	66 0f 6c e9          	punpcklqdq %xmm1,%xmm5
    5597:	66 0f 6c f0          	punpcklqdq %xmm0,%xmm6
    559b:	0f 29 64 24 40       	movaps %xmm4,0x40(%rsp)
    55a0:	0f 29 6c 24 30       	movaps %xmm5,0x30(%rsp)
    55a5:	0f 29 74 24 20       	movaps %xmm6,0x20(%rsp)
    55aa:	e8 41 15 00 00       	call   6af0 <ilog2_>
    55af:	8b 15 bb 7c 00 00    	mov    0x7cbb(%rip),%edx        # d270 <__ft_data_MOD_timers_enabled>
    55b5:	89 44 24 6c          	mov    %eax,0x6c(%rsp)
    55b9:	85 d2                	test   %edx,%edx
    55bb:	0f 85 bf 00 00 00    	jne    5680 <cffts3_+0x1b0>
    55c1:	41 8b 45 00          	mov    0x0(%r13),%eax
    55c5:	66 41 0f 6e 04 24    	movd   (%r12),%xmm0
    55cb:	31 c9                	xor    %ecx,%ecx
    55cd:	48 8d 74 24 70       	lea    0x70(%rsp),%rsi
    55d2:	66 0f 6f 5c 24 50    	movdqa 0x50(%rsp),%xmm3
    55d8:	66 0f 6f 64 24 40    	movdqa 0x40(%rsp),%xmm4
    55de:	48 8d 3d 9b 0e 00 00 	lea    0xe9b(%rip),%rdi        # 6480 <cffts3_._omp_fn.0>
    55e5:	48 89 ac 24 80 00 00 	mov    %rbp,0x80(%rsp)
    55ec:	00 
    55ed:	99                   	cltd   
    55ee:	66 0f 6f 6c 24 30    	movdqa 0x30(%rsp),%xmm5
    55f4:	66 0f 6f 0c 24       	movdqa (%rsp),%xmm1
    55f9:	48 89 9c 24 e0 00 00 	mov    %rbx,0xe0(%rsp)
    5600:	00 
    5601:	f7 3d d1 7d 00 00    	idivl  0x7dd1(%rip)        # d3d8 <__ft_data_MOD_fftblock>
    5607:	66 0f 6f 74 24 20    	movdqa 0x20(%rsp),%xmm6
    560d:	66 0f 6f 7c 24 10    	movdqa 0x10(%rsp),%xmm7
    5613:	0f 29 9c 24 d0 00 00 	movaps %xmm3,0xd0(%rsp)
    561a:	00 
    561b:	0f 29 a4 24 90 00 00 	movaps %xmm4,0x90(%rsp)
    5622:	00 
    5623:	0f 29 ac 24 a0 00 00 	movaps %xmm5,0xa0(%rsp)
    562a:	00 
    562b:	0f 29 b4 24 b0 00 00 	movaps %xmm6,0xb0(%rsp)
    5632:	00 
    5633:	0f 29 bc 24 c0 00 00 	movaps %xmm7,0xc0(%rsp)
    563a:	00 
    563b:	0f 29 4c 24 70       	movaps %xmm1,0x70(%rsp)
    5640:	31 d2                	xor    %edx,%edx
    5642:	83 e8 01             	sub    $0x1,%eax
    5645:	66 0f 6e d0          	movd   %eax,%xmm2
    5649:	48 8d 44 24 6c       	lea    0x6c(%rsp),%rax
    564e:	66 0f 62 c2          	punpckldq %xmm2,%xmm0
    5652:	48 89 84 24 88 00 00 	mov    %rax,0x88(%rsp)
    5659:	00 
    565a:	66 0f d6 84 24 e8 00 	movq   %xmm0,0xe8(%rsp)
    5661:	00 00 
    5663:	e8 38 cb ff ff       	call   21a0 <GOMP_parallel@plt>
    5668:	8b 05 02 7c 00 00    	mov    0x7c02(%rip),%eax        # d270 <__ft_data_MOD_timers_enabled>
    566e:	85 c0                	test   %eax,%eax
    5670:	75 26                	jne    5698 <cffts3_+0x1c8>
    5672:	48 81 c4 f8 00 00 00 	add    $0xf8,%rsp
    5679:	5b                   	pop    %rbx
    567a:	5d                   	pop    %rbp
    567b:	41 5c                	pop    %r12
    567d:	41 5d                	pop    %r13
    567f:	c3                   	ret    
    5680:	48 8d 3d 49 31 00 00 	lea    0x3149(%rip),%rdi        # 87d0 <_IO_stdin_used+0x7d0>
    5687:	e8 f4 21 00 00       	call   7880 <timer_start_>
    568c:	e9 30 ff ff ff       	jmp    55c1 <cffts3_+0xf1>
    5691:	0f 1f 80 00 00 00 00 	nopl   0x0(%rax)
    5698:	48 8d 3d 31 31 00 00 	lea    0x3131(%rip),%rdi        # 87d0 <_IO_stdin_used+0x7d0>
    569f:	e8 fc 21 00 00       	call   78a0 <timer_stop_>
    56a4:	48 81 c4 f8 00 00 00 	add    $0xf8,%rsp
    56ab:	5b                   	pop    %rbx
    56ac:	5d                   	pop    %rbp
    56ad:	41 5c                	pop    %r12
    56af:	41 5d                	pop    %r13
    56b1:	c3                   	ret    
    56b2:	66 66 2e 0f 1f 84 00 	data16 cs nopw 0x0(%rax,%rax,1)
    56b9:	00 00 00 00 
    56bd:	0f 1f 00             	nopl   (%rax)

00000000000056c0 <fft_>:
    56c0:	41 57                	push   %r15
    56c2:	66 48 0f 6e d6       	movq   %rsi,%xmm2
    56c7:	41 56                	push   %r14
    56c9:	66 0f 6c d2          	punpcklqdq %xmm2,%xmm2
    56cd:	41 55                	push   %r13
    56cf:	41 54                	push   %r12
    56d1:	4c 8d 25 0c 7d 00 00 	lea    0x7d0c(%rip),%r12        # d3e4 <__ft_data_MOD_dims+0x4>
    56d8:	55                   	push   %rbp
    56d9:	66 49 0f 6e cc       	movq   %r12,%xmm1
    56de:	53                   	push   %rbx
    56df:	48 89 f3             	mov    %rsi,%rbx
    56e2:	48 81 ec 18 81 08 00 	sub    $0x88118,%rsp
    56e9:	83 3f 01             	cmpl   $0x1,(%rdi)
    56ec:	48 8d 84 24 8c 00 00 	lea    0x8c(%rsp),%rax
    56f3:	00 
    56f4:	48 89 54 24 70       	mov    %rdx,0x70(%rsp)
    56f9:	66 48 0f 6e d8       	movq   %rax,%xmm3
    56fe:	0f 29 14 24          	movaps %xmm2,(%rsp)
    5702:	66 0f 6c cb          	punpcklqdq %xmm3,%xmm1
    5706:	0f 29 4c 24 10       	movaps %xmm1,0x10(%rsp)
    570b:	0f 84 37 02 00 00    	je     5948 <fft_+0x288>
    5711:	4c 8d 2d d0 7c 00 00 	lea    0x7cd0(%rip),%r13        # d3e8 <__ft_data_MOD_dims+0x8>
    5718:	49 89 f0             	mov    %rsi,%r8
    571b:	49 89 f1             	mov    %rsi,%r9
    571e:	4c 89 e2             	mov    %r12,%rdx
    5721:	4c 8d bc 24 10 41 04 	lea    0x44110(%rsp),%r15
    5728:	00 
    5729:	49 8d 6c 24 fc       	lea    -0x4(%r12),%rbp
    572e:	4c 89 e9             	mov    %r13,%rcx
    5731:	41 57                	push   %r15
    5733:	4c 8d 35 9a 30 00 00 	lea    0x309a(%rip),%r14        # 87d4 <_IO_stdin_used+0x7d4>
    573a:	48 89 ee             	mov    %rbp,%rsi
    573d:	4c 89 f7             	mov    %r14,%rdi
    5740:	48 8d 84 24 18 01 00 	lea    0x118(%rsp),%rax
    5747:	00 
    5748:	48 89 84 24 80 00 00 	mov    %rax,0x80(%rsp)
    574f:	00 
    5750:	50                   	push   %rax
    5751:	e8 7a fd ff ff       	call   54d0 <cffts3_>
    5756:	48 63 05 77 7c 00 00 	movslq 0x7c77(%rip),%rax        # d3d4 <__ft_data_MOD_fftblockpad>
    575d:	31 d2                	xor    %edx,%edx
    575f:	4c 89 e7             	mov    %r12,%rdi
    5762:	48 85 c0             	test   %rax,%rax
    5765:	48 0f 48 c2          	cmovs  %rdx,%rax
    5769:	48 63 15 74 7c 00 00 	movslq 0x7c74(%rip),%rdx        # d3e4 <__ft_data_MOD_dims+0x4>
    5770:	31 f6                	xor    %esi,%esi
    5772:	48 89 c1             	mov    %rax,%rcx
    5775:	66 48 0f 6e e0       	movq   %rax,%xmm4
    577a:	48 0f af ca          	imul   %rdx,%rcx
    577e:	48 85 c9             	test   %rcx,%rcx
    5781:	48 0f 48 ce          	cmovs  %rsi,%rcx
    5785:	48 c1 e1 04          	shl    $0x4,%rcx
    5789:	66 48 0f 6e d9       	movq   %rcx,%xmm3
    578e:	48 89 c1             	mov    %rax,%rcx
    5791:	8b 05 49 7c 00 00    	mov    0x7c49(%rip),%eax        # d3e0 <__ft_data_MOD_dims>
    5797:	48 f7 d1             	not    %rcx
    579a:	66 0f 6c db          	punpcklqdq %xmm3,%xmm3
    579e:	83 c0 01             	add    $0x1,%eax
    57a1:	66 48 0f 6e e9       	movq   %rcx,%xmm5
    57a6:	31 c9                	xor    %ecx,%ecx
    57a8:	0f 29 5c 24 70       	movaps %xmm3,0x70(%rsp)
    57ad:	48 98                	cltq   
    57af:	66 0f 6c e5          	punpcklqdq %xmm5,%xmm4
    57b3:	48 85 c0             	test   %rax,%rax
    57b6:	0f 29 64 24 30       	movaps %xmm4,0x30(%rsp)
    57bb:	48 0f 48 c1          	cmovs  %rcx,%rax
    57bf:	48 0f af d0          	imul   %rax,%rdx
    57c3:	66 48 0f 6e f8       	movq   %rax,%xmm7
    57c8:	66 48 0f 6e e8       	movq   %rax,%xmm5
    57cd:	48 85 d2             	test   %rdx,%rdx
    57d0:	48 0f 48 d1          	cmovs  %rcx,%rdx
    57d4:	48 89 c1             	mov    %rax,%rcx
    57d7:	48 f7 d1             	not    %rcx
    57da:	48 29 d1             	sub    %rdx,%rcx
    57dd:	66 48 0f 6e e2       	movq   %rdx,%xmm4
    57e2:	66 48 0f 6e f1       	movq   %rcx,%xmm6
    57e7:	66 48 0f 6e c1       	movq   %rcx,%xmm0
    57ec:	66 0f 6c ec          	punpcklqdq %xmm4,%xmm5
    57f0:	66 0f 6c f7          	punpcklqdq %xmm7,%xmm6
    57f4:	66 48 0f 6e fa       	movq   %rdx,%xmm7
    57f9:	0f 29 6c 24 60       	movaps %xmm5,0x60(%rsp)
    57fe:	66 0f 6c f8          	punpcklqdq %xmm0,%xmm7
    5802:	0f 29 74 24 50       	movaps %xmm6,0x50(%rsp)
    5807:	0f 29 7c 24 40       	movaps %xmm7,0x40(%rsp)
    580c:	e8 df 12 00 00       	call   6af0 <ilog2_>
    5811:	44 8b 05 58 7a 00 00 	mov    0x7a58(%rip),%r8d        # d270 <__ft_data_MOD_timers_enabled>
    5818:	89 84 24 9c 00 00 00 	mov    %eax,0x9c(%rsp)
    581f:	5e                   	pop    %rsi
    5820:	5f                   	pop    %rdi
    5821:	45 85 c0             	test   %r8d,%r8d
    5824:	0f 85 06 01 00 00    	jne    5930 <fft_+0x270>
    582a:	8b 05 b0 7b 00 00    	mov    0x7bb0(%rip),%eax        # d3e0 <__ft_data_MOD_dims>
    5830:	66 0f 6e 05 b0 7b 00 	movd   0x7bb0(%rip),%xmm0        # d3e8 <__ft_data_MOD_dims+0x8>
    5837:	00 
    5838:	31 c9                	xor    %ecx,%ecx
    583a:	48 8d b4 24 90 00 00 	lea    0x90(%rsp),%rsi
    5841:	00 
    5842:	66 0f 6f 64 24 60    	movdqa 0x60(%rsp),%xmm4
    5848:	66 0f 6f 6c 24 50    	movdqa 0x50(%rsp),%xmm5
    584e:	48 8d 3d 3b 09 00 00 	lea    0x93b(%rip),%rdi        # 6190 <cffts2_._omp_fn.0>
    5855:	4c 89 b4 24 00 01 00 	mov    %r14,0x100(%rsp)
    585c:	00 
    585d:	99                   	cltd   
    585e:	66 0f 6f 7c 24 30    	movdqa 0x30(%rsp),%xmm7
    5864:	66 0f 6f 14 24       	movdqa (%rsp),%xmm2
    5869:	f7 3d 69 7b 00 00    	idivl  0x7b69(%rip)        # d3d8 <__ft_data_MOD_fftblock>
    586f:	66 0f 6f 4c 24 20    	movdqa 0x20(%rsp),%xmm1
    5875:	66 0f 6f 5c 24 10    	movdqa 0x10(%rsp),%xmm3
    587b:	0f 29 a4 24 e0 00 00 	movaps %xmm4,0xe0(%rsp)
    5882:	00 
    5883:	0f 29 ac 24 a0 00 00 	movaps %xmm5,0xa0(%rsp)
    588a:	00 
    588b:	0f 29 bc 24 c0 00 00 	movaps %xmm7,0xc0(%rsp)
    5892:	00 
    5893:	0f 29 8c 24 d0 00 00 	movaps %xmm1,0xd0(%rsp)
    589a:	00 
    589b:	0f 29 94 24 90 00 00 	movaps %xmm2,0x90(%rsp)
    58a2:	00 
    58a3:	0f 29 9c 24 f0 00 00 	movaps %xmm3,0xf0(%rsp)
    58aa:	00 
    58ab:	31 d2                	xor    %edx,%edx
    58ad:	83 e8 01             	sub    $0x1,%eax
    58b0:	66 0f 6e f0          	movd   %eax,%xmm6
    58b4:	66 0f 62 c6          	punpckldq %xmm6,%xmm0
    58b8:	66 0f 6f 74 24 40    	movdqa 0x40(%rsp),%xmm6
    58be:	66 0f d6 84 24 08 01 	movq   %xmm0,0x108(%rsp)
    58c5:	00 00 
    58c7:	0f 29 b4 24 b0 00 00 	movaps %xmm6,0xb0(%rsp)
    58ce:	00 
    58cf:	e8 cc c8 ff ff       	call   21a0 <GOMP_parallel@plt>
    58d4:	8b 0d 96 79 00 00    	mov    0x7996(%rip),%ecx        # d270 <__ft_data_MOD_timers_enabled>
    58da:	85 c9                	test   %ecx,%ecx
    58dc:	75 42                	jne    5920 <fft_+0x260>
    58de:	41 57                	push   %r15
    58e0:	4c 89 e2             	mov    %r12,%rdx
    58e3:	49 89 d8             	mov    %rbx,%r8
    58e6:	4c 89 e9             	mov    %r13,%rcx
    58e9:	ff b4 24 80 00 00 00 	push   0x80(%rsp)
    58f0:	48 89 ee             	mov    %rbp,%rsi
    58f3:	4c 89 f7             	mov    %r14,%rdi
    58f6:	4c 8b 8c 24 80 00 00 	mov    0x80(%rsp),%r9
    58fd:	00 
    58fe:	e8 ed f7 ff ff       	call   50f0 <cffts1_>
    5903:	58                   	pop    %rax
    5904:	5a                   	pop    %rdx
    5905:	48 81 c4 18 81 08 00 	add    $0x88118,%rsp
    590c:	5b                   	pop    %rbx
    590d:	5d                   	pop    %rbp
    590e:	41 5c                	pop    %r12
    5910:	41 5d                	pop    %r13
    5912:	41 5e                	pop    %r14
    5914:	41 5f                	pop    %r15
    5916:	c3                   	ret    
    5917:	66 0f 1f 84 00 00 00 	nopw   0x0(%rax,%rax,1)
    591e:	00 00 
    5920:	48 8d 3d a5 2e 00 00 	lea    0x2ea5(%rip),%rdi        # 87cc <_IO_stdin_used+0x7cc>
    5927:	e8 74 1f 00 00       	call   78a0 <timer_stop_>
    592c:	eb b0                	jmp    58de <fft_+0x21e>
    592e:	66 90                	xchg   %ax,%ax
    5930:	48 8d 3d 95 2e 00 00 	lea    0x2e95(%rip),%rdi        # 87cc <_IO_stdin_used+0x7cc>
    5937:	e8 44 1f 00 00       	call   7880 <timer_start_>
    593c:	e9 e9 fe ff ff       	jmp    582a <fft_+0x16a>
    5941:	0f 1f 80 00 00 00 00 	nopl   0x0(%rax)
    5948:	4d 8d 74 24 04       	lea    0x4(%r12),%r14
    594d:	4d 8d 6c 24 fc       	lea    -0x4(%r12),%r13
    5952:	49 89 f1             	mov    %rsi,%r9
    5955:	49 89 f0             	mov    %rsi,%r8
    5958:	48 8d 2d d1 26 00 00 	lea    0x26d1(%rip),%rbp        # 8030 <_IO_stdin_used+0x30>
    595f:	4c 89 f1             	mov    %r14,%rcx
    5962:	4c 89 e2             	mov    %r12,%rdx
    5965:	4c 89 ee             	mov    %r13,%rsi
    5968:	48 8d 84 24 10 41 04 	lea    0x44110(%rsp),%rax
    596f:	00 
    5970:	48 89 ef             	mov    %rbp,%rdi
    5973:	50                   	push   %rax
    5974:	4c 8d bc 24 18 01 00 	lea    0x118(%rsp),%r15
    597b:	00 
    597c:	48 89 44 24 08       	mov    %rax,0x8(%rsp)
    5981:	41 57                	push   %r15
    5983:	e8 68 f7 ff ff       	call   50f0 <cffts1_>
    5988:	48 8b 44 24 10       	mov    0x10(%rsp),%rax
    598d:	49 89 d9             	mov    %rbx,%r9
    5990:	49 89 d8             	mov    %rbx,%r8
    5993:	4c 89 f1             	mov    %r14,%rcx
    5996:	4c 89 e2             	mov    %r12,%rdx
    5999:	4c 89 ee             	mov    %r13,%rsi
    599c:	48 89 ef             	mov    %rbp,%rdi
    599f:	50                   	push   %rax
    59a0:	48 89 44 24 18       	mov    %rax,0x18(%rsp)
    59a5:	41 57                	push   %r15
    59a7:	e8 34 f9 ff ff       	call   52e0 <cffts2_>
    59ac:	48 8b 44 24 20       	mov    0x20(%rsp),%rax
    59b1:	49 89 d8             	mov    %rbx,%r8
    59b4:	4c 89 f1             	mov    %r14,%rcx
    59b7:	48 83 c4 20          	add    $0x20,%rsp
    59bb:	4c 89 e2             	mov    %r12,%rdx
    59be:	4c 89 ee             	mov    %r13,%rsi
    59c1:	48 89 ef             	mov    %rbp,%rdi
    59c4:	50                   	push   %rax
    59c5:	41 57                	push   %r15
    59c7:	4c 8b 8c 24 80 00 00 	mov    0x80(%rsp),%r9
    59ce:	00 
    59cf:	e8 fc fa ff ff       	call   54d0 <cffts3_>
    59d4:	41 59                	pop    %r9
    59d6:	41 5a                	pop    %r10
    59d8:	e9 28 ff ff ff       	jmp    5905 <fft_+0x245>
    59dd:	0f 1f 00             	nopl   (%rax)

00000000000059e0 <fftz2_>:
    59e0:	41 57                	push   %r15
    59e2:	49 89 f3             	mov    %rsi,%r11
    59e5:	49 89 d2             	mov    %rdx,%r10
    59e8:	ba 01 00 00 00       	mov    $0x1,%edx
    59ed:	41 56                	push   %r14
    59ef:	48 89 f8             	mov    %rdi,%rax
    59f2:	48 89 cf             	mov    %rcx,%rdi
    59f5:	41 55                	push   %r13
    59f7:	41 54                	push   %r12
    59f9:	55                   	push   %rbp
    59fa:	53                   	push   %rbx
    59fb:	48 8b 74 24 38       	mov    0x38(%rsp),%rsi
    5a00:	4c 8b 6c 24 40       	mov    0x40(%rsp),%r13
    5a05:	4c 89 44 24 e0       	mov    %r8,-0x20(%rsp)
    5a0a:	4d 89 c8             	mov    %r9,%r8
    5a0d:	45 8b 0b             	mov    (%r11),%r9d
    5a10:	41 89 d3             	mov    %edx,%r11d
    5a13:	41 8d 49 ff          	lea    -0x1(%r9),%ecx
    5a17:	41 d3 e3             	shl    %cl,%r11d
    5a1a:	83 f9 20             	cmp    $0x20,%ecx
    5a1d:	b9 00 00 00 00       	mov    $0x0,%ecx
    5a22:	41 0f 42 cb          	cmovb  %r11d,%ecx
    5a26:	41 89 cf             	mov    %ecx,%r15d
    5a29:	41 8b 0a             	mov    (%r10),%ecx
    5a2c:	44 29 c9             	sub    %r9d,%ecx
    5a2f:	83 f9 1f             	cmp    $0x1f,%ecx
    5a32:	76 0b                	jbe    5a3f <fftz2_+0x5f>
    5a34:	5b                   	pop    %rbx
    5a35:	5d                   	pop    %rbp
    5a36:	41 5c                	pop    %r12
    5a38:	41 5d                	pop    %r13
    5a3a:	41 5e                	pop    %r14
    5a3c:	41 5f                	pop    %r15
    5a3e:	c3                   	ret    
    5a3f:	d3 e2                	shl    %cl,%edx
    5a41:	85 d2                	test   %edx,%edx
    5a43:	7e ef                	jle    5a34 <fftz2_+0x54>
    5a45:	4d 63 20             	movslq (%r8),%r12
    5a48:	31 c9                	xor    %ecx,%ecx
    5a4a:	8b 00                	mov    (%rax),%eax
    5a4c:	c7 44 24 c0 01 00 00 	movl   $0x1,-0x40(%rsp)
    5a53:	00 
    5a54:	44 8b 07             	mov    (%rdi),%r8d
    5a57:	f3 0f 7e 35 81 30 00 	movq   0x3081(%rip),%xmm6        # 8ae0 <options.171.0+0x2f0>
    5a5e:	00 
    5a5f:	4d 85 e4             	test   %r12,%r12
    5a62:	89 44 24 c4          	mov    %eax,-0x3c(%rsp)
    5a66:	4c 0f 48 e1          	cmovs  %rcx,%r12
    5a6a:	48 63 ca             	movslq %edx,%rcx
    5a6d:	44 89 c7             	mov    %r8d,%edi
    5a70:	48 89 c8             	mov    %rcx,%rax
    5a73:	c1 ef 1f             	shr    $0x1f,%edi
    5a76:	48 c1 e0 04          	shl    $0x4,%rax
    5a7a:	44 01 c7             	add    %r8d,%edi
    5a7d:	4c 89 e3             	mov    %r12,%rbx
    5a80:	4c 89 e5             	mov    %r12,%rbp
    5a83:	d1 ff                	sar    %edi
    5a85:	48 01 f0             	add    %rsi,%rax
    5a88:	48 f7 d3             	not    %rbx
    5a8b:	48 c1 e5 04          	shl    $0x4,%rbp
    5a8f:	48 89 44 24 a0       	mov    %rax,-0x60(%rsp)
    5a94:	49 63 c7             	movslq %r15d,%rax
    5a97:	83 c7 01             	add    $0x1,%edi
    5a9a:	49 89 c6             	mov    %rax,%r14
    5a9d:	48 83 c0 01          	add    $0x1,%rax
    5aa1:	48 63 ff             	movslq %edi,%rdi
    5aa4:	48 89 5c 24 e8       	mov    %rbx,-0x18(%rsp)
    5aa9:	49 0f af c4          	imul   %r12,%rax
    5aad:	49 0f af fc          	imul   %r12,%rdi
    5ab1:	4d 0f af f4          	imul   %r12,%r14
    5ab5:	48 01 d8             	add    %rbx,%rax
    5ab8:	48 c1 e0 04          	shl    $0x4,%rax
    5abc:	48 01 df             	add    %rbx,%rdi
    5abf:	48 89 44 24 b8       	mov    %rax,-0x48(%rsp)
    5ac4:	8d 42 ff             	lea    -0x1(%rdx),%eax
    5ac7:	ba 01 00 00 00       	mov    $0x1,%edx
    5acc:	48 01 c8             	add    %rcx,%rax
    5acf:	48 89 7c 24 b0       	mov    %rdi,-0x50(%rsp)
    5ad4:	43 8d 3c 3f          	lea    (%r15,%r15,1),%edi
    5ad8:	48 c1 e0 04          	shl    $0x4,%rax
    5adc:	48 63 ff             	movslq %edi,%rdi
    5adf:	4c 89 74 24 c8       	mov    %r14,-0x38(%rsp)
    5ae4:	48 0f af fd          	imul   %rbp,%rdi
    5ae8:	48 8d 44 06 10       	lea    0x10(%rsi,%rax,1),%rax
    5aed:	48 89 44 24 d8       	mov    %rax,-0x28(%rsp)
    5af2:	48 8b 44 24 48       	mov    0x48(%rsp),%rax
    5af7:	48 83 c0 10          	add    $0x10,%rax
    5afb:	48 89 7c 24 d0       	mov    %rdi,-0x30(%rsp)
    5b00:	48 89 44 24 f0       	mov    %rax,-0x10(%rsp)
    5b05:	0f 1f 00             	nopl   (%rax)
    5b08:	41 8d 04 17          	lea    (%r15,%rdx,1),%eax
    5b0c:	89 44 24 ac          	mov    %eax,-0x54(%rsp)
    5b10:	48 8b 44 24 a0       	mov    -0x60(%rsp),%rax
    5b15:	f2 0f 10 58 08       	movsd  0x8(%rax),%xmm3
    5b1a:	f2 0f 10 20          	movsd  (%rax),%xmm4
    5b1e:	8b 44 24 c4          	mov    -0x3c(%rsp),%eax
    5b22:	85 c0                	test   %eax,%eax
    5b24:	7f 04                	jg     5b2a <fftz2_+0x14a>
    5b26:	66 0f 57 de          	xorpd  %xmm6,%xmm3
    5b2a:	66 0f 28 eb          	movapd %xmm3,%xmm5
    5b2e:	66 0f 14 ec          	unpcklpd %xmm4,%xmm5
    5b32:	45 85 ff             	test   %r15d,%r15d
    5b35:	0f 8e 0c 01 00 00    	jle    5c47 <fftz2_+0x267>
    5b3b:	48 8b 44 24 e0       	mov    -0x20(%rsp),%rax
    5b40:	8b 00                	mov    (%rax),%eax
    5b42:	85 c0                	test   %eax,%eax
    5b44:	0f 8e fd 00 00 00    	jle    5c47 <fftz2_+0x267>
    5b4a:	4c 63 54 24 c0       	movslq -0x40(%rsp),%r10
    5b4f:	48 63 d2             	movslq %edx,%rdx
    5b52:	48 8b 5c 24 e8       	mov    -0x18(%rsp),%rbx
    5b57:	8d 48 ff             	lea    -0x1(%rax),%ecx
    5b5a:	49 0f af d4          	imul   %r12,%rdx
    5b5e:	41 89 c6             	mov    %eax,%r14d
    5b61:	4c 8b 4c 24 b8       	mov    -0x48(%rsp),%r9
    5b66:	45 31 db             	xor    %r11d,%r11d
    5b69:	4d 0f af d4          	imul   %r12,%r10
    5b6d:	49 f7 de             	neg    %r14
    5b70:	49 c1 e6 04          	shl    $0x4,%r14
    5b74:	48 01 da             	add    %rbx,%rdx
    5b77:	49 01 da             	add    %rbx,%r10
    5b7a:	48 01 d1             	add    %rdx,%rcx
    5b7d:	48 8b 5c 24 f0       	mov    -0x10(%rsp),%rbx
    5b82:	49 89 d0             	mov    %rdx,%r8
    5b85:	48 c1 e1 04          	shl    $0x4,%rcx
    5b89:	49 f7 d8             	neg    %r8
    5b8c:	48 8d 3c 19          	lea    (%rcx,%rbx,1),%rdi
    5b90:	48 8b 5c 24 b0       	mov    -0x50(%rsp),%rbx
    5b95:	49 c1 e0 04          	shl    $0x4,%r8
    5b99:	0f 1f 80 00 00 00 00 	nopl   0x0(%rax)
    5ba0:	4c 89 d1             	mov    %r10,%rcx
    5ba3:	48 89 da             	mov    %rbx,%rdx
    5ba6:	49 8d 04 3e          	lea    (%r14,%rdi,1),%rax
    5baa:	48 c1 e1 04          	shl    $0x4,%rcx
    5bae:	48 c1 e2 04          	shl    $0x4,%rdx
    5bb2:	4c 01 e9             	add    %r13,%rcx
    5bb5:	4c 01 ea             	add    %r13,%rdx
    5bb8:	0f 1f 84 00 00 00 00 	nopl   0x0(%rax,%rax,1)
    5bbf:	00 
    5bc0:	66 0f 10 7a 10       	movupd 0x10(%rdx),%xmm7
    5bc5:	66 0f 10 41 10       	movupd 0x10(%rcx),%xmm0
    5bca:	4a 8d 34 00          	lea    (%rax,%r8,1),%rsi
    5bce:	48 83 c0 10          	add    $0x10,%rax
    5bd2:	f2 0f 10 49 10       	movsd  0x10(%rcx),%xmm1
    5bd7:	f2 0f 10 52 18       	movsd  0x18(%rdx),%xmm2
    5bdc:	48 83 c1 10          	add    $0x10,%rcx
    5be0:	48 83 c2 10          	add    $0x10,%rdx
    5be4:	66 0f 58 c7          	addpd  %xmm7,%xmm0
    5be8:	f2 0f 5c cf          	subsd  %xmm7,%xmm1
    5bec:	0f 11 00             	movups %xmm0,(%rax)
    5bef:	f2 0f 10 41 08       	movsd  0x8(%rcx),%xmm0
    5bf4:	f2 0f 5c c2          	subsd  %xmm2,%xmm0
    5bf8:	66 0f 28 d1          	movapd %xmm1,%xmm2
    5bfc:	f2 0f 59 d4          	mulsd  %xmm4,%xmm2
    5c00:	f2 0f 59 cb          	mulsd  %xmm3,%xmm1
    5c04:	66 0f 14 c0          	unpcklpd %xmm0,%xmm0
    5c08:	66 0f 59 c5          	mulpd  %xmm5,%xmm0
    5c0c:	66 0f 14 d1          	unpcklpd %xmm1,%xmm2
    5c10:	66 0f 28 ca          	movapd %xmm2,%xmm1
    5c14:	66 0f 5c c8          	subpd  %xmm0,%xmm1
    5c18:	66 0f 58 c2          	addpd  %xmm2,%xmm0
    5c1c:	f2 0f 10 c1          	movsd  %xmm1,%xmm0
    5c20:	41 0f 11 44 31 10    	movups %xmm0,0x10(%r9,%rsi,1)
    5c26:	48 39 c7             	cmp    %rax,%rdi
    5c29:	75 95                	jne    5bc0 <fftz2_+0x1e0>
    5c2b:	41 83 c3 01          	add    $0x1,%r11d
    5c2f:	4d 01 e2             	add    %r12,%r10
    5c32:	4c 01 e3             	add    %r12,%rbx
    5c35:	49 29 e8             	sub    %rbp,%r8
    5c38:	49 01 e9             	add    %rbp,%r9
    5c3b:	48 01 ef             	add    %rbp,%rdi
    5c3e:	45 39 df             	cmp    %r11d,%r15d
    5c41:	0f 85 59 ff ff ff    	jne    5ba0 <fftz2_+0x1c0>
    5c47:	8b 54 24 ac          	mov    -0x54(%rsp),%edx
    5c4b:	48 8b 7c 24 c8       	mov    -0x38(%rsp),%rdi
    5c50:	48 83 44 24 a0 10    	addq   $0x10,-0x60(%rsp)
    5c56:	48 8b 44 24 a0       	mov    -0x60(%rsp),%rax
    5c5b:	48 01 7c 24 b0       	add    %rdi,-0x50(%rsp)
    5c60:	44 01 fa             	add    %r15d,%edx
    5c63:	48 8b 7c 24 d0       	mov    -0x30(%rsp),%rdi
    5c68:	44 01 7c 24 c0       	add    %r15d,-0x40(%rsp)
    5c6d:	48 01 7c 24 b8       	add    %rdi,-0x48(%rsp)
    5c72:	48 3b 44 24 d8       	cmp    -0x28(%rsp),%rax
    5c77:	0f 85 8b fe ff ff    	jne    5b08 <fftz2_+0x128>
    5c7d:	5b                   	pop    %rbx
    5c7e:	5d                   	pop    %rbp
    5c7f:	41 5c                	pop    %r12
    5c81:	41 5d                	pop    %r13
    5c83:	41 5e                	pop    %r14
    5c85:	41 5f                	pop    %r15
    5c87:	c3                   	ret    
    5c88:	0f 1f 84 00 00 00 00 	nopl   0x0(%rax,%rax,1)
    5c8f:	00 

0000000000005c90 <cfftz_>:
    5c90:	41 57                	push   %r15
    5c92:	41 56                	push   %r14
    5c94:	49 89 fe             	mov    %rdi,%r14
    5c97:	41 55                	push   %r13
    5c99:	49 89 f5             	mov    %rsi,%r13
    5c9c:	41 54                	push   %r12
    5c9e:	49 89 d4             	mov    %rdx,%r12
    5ca1:	55                   	push   %rbp
    5ca2:	53                   	push   %rbx
    5ca3:	48 81 ec 48 02 00 00 	sub    $0x248,%rsp
    5caa:	8b 05 24 77 00 00    	mov    0x7724(%rip),%eax        # d3d4 <__ft_data_MOD_fftblockpad>
    5cb0:	89 44 24 1c          	mov    %eax,0x1c(%rsp)
    5cb4:	8b 02                	mov    (%rdx),%eax
    5cb6:	f2 0f 2c 15 a2 55 00 	cvttsd2si 0x55a2(%rip),%edx        # b260 <__ft_data_MOD_u>
    5cbd:	00 
    5cbe:	89 44 24 18          	mov    %eax,0x18(%rsp)
    5cc2:	8b 07                	mov    (%rdi),%eax
    5cc4:	83 c0 01             	add    $0x1,%eax
    5cc7:	83 e0 fd             	and    $0xfffffffd,%eax
    5cca:	89 54 24 2c          	mov    %edx,0x2c(%rsp)
    5cce:	0f 85 43 01 00 00    	jne    5e17 <cfftz_+0x187>
    5cd4:	8b 06                	mov    (%rsi),%eax
    5cd6:	89 44 24 08          	mov    %eax,0x8(%rsp)
    5cda:	39 c2                	cmp    %eax,%edx
    5cdc:	0f 8c 35 01 00 00    	jl     5e17 <cfftz_+0x187>
    5ce2:	85 c0                	test   %eax,%eax
    5ce4:	0f 8e 2d 01 00 00    	jle    5e17 <cfftz_+0x187>
    5cea:	83 e8 01             	sub    $0x1,%eax
    5ced:	48 89 cd             	mov    %rcx,%rbp
    5cf0:	4c 89 c3             	mov    %r8,%rbx
    5cf3:	41 bf 01 00 00 00    	mov    $0x1,%r15d
    5cf9:	83 e0 fe             	and    $0xfffffffe,%eax
    5cfc:	c7 44 24 28 01 00 00 	movl   $0x1,0x28(%rsp)
    5d03:	00 
    5d04:	83 c0 03             	add    $0x3,%eax
    5d07:	89 44 24 0c          	mov    %eax,0xc(%rsp)
    5d0b:	48 8d 44 24 28       	lea    0x28(%rsp),%rax
    5d10:	48 89 04 24          	mov    %rax,(%rsp)
    5d14:	48 8d 44 24 30       	lea    0x30(%rsp),%rax
    5d19:	48 89 44 24 10       	mov    %rax,0x10(%rsp)
    5d1e:	eb 4f                	jmp    5d6f <cfftz_+0xdf>
    5d20:	41 8d 57 01          	lea    0x1(%r15),%edx
    5d24:	48 83 ec 08          	sub    $0x8,%rsp
    5d28:	4c 89 e1             	mov    %r12,%rcx
    5d2b:	4c 89 f7             	mov    %r14,%rdi
    5d2e:	48 8d 05 2b 55 00 00 	lea    0x552b(%rip),%rax        # b260 <__ft_data_MOD_u>
    5d35:	89 54 24 38          	mov    %edx,0x38(%rsp)
    5d39:	41 83 c7 02          	add    $0x2,%r15d
    5d3d:	4c 8d 0d 90 76 00 00 	lea    0x7690(%rip),%r9        # d3d4 <__ft_data_MOD_fftblockpad>
    5d44:	55                   	push   %rbp
    5d45:	4c 8d 05 8c 76 00 00 	lea    0x768c(%rip),%r8        # d3d8 <__ft_data_MOD_fftblock>
    5d4c:	4c 89 ea             	mov    %r13,%rdx
    5d4f:	53                   	push   %rbx
    5d50:	50                   	push   %rax
    5d51:	48 8b 74 24 30       	mov    0x30(%rsp),%rsi
    5d56:	e8 85 fc ff ff       	call   59e0 <fftz2_>
    5d5b:	44 89 7c 24 48       	mov    %r15d,0x48(%rsp)
    5d60:	48 83 c4 20          	add    $0x20,%rsp
    5d64:	44 3b 7c 24 0c       	cmp    0xc(%rsp),%r15d
    5d69:	0f 84 96 00 00 00    	je     5e05 <cfftz_+0x175>
    5d6f:	48 83 ec 08          	sub    $0x8,%rsp
    5d73:	4c 89 e1             	mov    %r12,%rcx
    5d76:	4c 89 ea             	mov    %r13,%rdx
    5d79:	4c 89 f7             	mov    %r14,%rdi
    5d7c:	48 8d 05 dd 54 00 00 	lea    0x54dd(%rip),%rax        # b260 <__ft_data_MOD_u>
    5d83:	53                   	push   %rbx
    5d84:	4c 8d 0d 49 76 00 00 	lea    0x7649(%rip),%r9        # d3d4 <__ft_data_MOD_fftblockpad>
    5d8b:	55                   	push   %rbp
    5d8c:	4c 8d 05 45 76 00 00 	lea    0x7645(%rip),%r8        # d3d8 <__ft_data_MOD_fftblock>
    5d93:	50                   	push   %rax
    5d94:	48 8b 74 24 20       	mov    0x20(%rsp),%rsi
    5d99:	e8 42 fc ff ff       	call   59e0 <fftz2_>
    5d9e:	48 83 c4 20          	add    $0x20,%rsp
    5da2:	44 39 7c 24 08       	cmp    %r15d,0x8(%rsp)
    5da7:	0f 85 73 ff ff ff    	jne    5d20 <cfftz_+0x90>
    5dad:	8b 74 24 18          	mov    0x18(%rsp),%esi
    5db1:	85 f6                	test   %esi,%esi
    5db3:	7e 50                	jle    5e05 <cfftz_+0x175>
    5db5:	4c 63 6c 24 1c       	movslq 0x1c(%rsp),%r13
    5dba:	31 c0                	xor    %eax,%eax
    5dbc:	4d 85 ed             	test   %r13,%r13
    5dbf:	4c 0f 48 e8          	cmovs  %rax,%r13
    5dc3:	8b 05 0f 76 00 00    	mov    0x760f(%rip),%eax        # d3d8 <__ft_data_MOD_fftblock>
    5dc9:	85 c0                	test   %eax,%eax
    5dcb:	7e 38                	jle    5e05 <cfftz_+0x175>
    5dcd:	83 c6 01             	add    $0x1,%esi
    5dd0:	4c 63 f0             	movslq %eax,%r14
    5dd3:	49 c1 e5 04          	shl    $0x4,%r13
    5dd7:	41 bc 01 00 00 00    	mov    $0x1,%r12d
    5ddd:	41 89 f7             	mov    %esi,%r15d
    5de0:	49 c1 e6 04          	shl    $0x4,%r14
    5de4:	0f 1f 40 00          	nopl   0x0(%rax)
    5de8:	48 89 de             	mov    %rbx,%rsi
    5deb:	48 89 ef             	mov    %rbp,%rdi
    5dee:	4c 89 f2             	mov    %r14,%rdx
    5df1:	41 83 c4 01          	add    $0x1,%r12d
    5df5:	e8 36 c4 ff ff       	call   2230 <memcpy@plt>
    5dfa:	4c 01 ed             	add    %r13,%rbp
    5dfd:	4c 01 eb             	add    %r13,%rbx
    5e00:	45 39 fc             	cmp    %r15d,%r12d
    5e03:	75 e3                	jne    5de8 <cfftz_+0x158>
    5e05:	48 81 c4 48 02 00 00 	add    $0x248,%rsp
    5e0c:	5b                   	pop    %rbx
    5e0d:	5d                   	pop    %rbp
    5e0e:	41 5c                	pop    %r12
    5e10:	41 5d                	pop    %r13
    5e12:	41 5e                	pop    %r14
    5e14:	41 5f                	pop    %r15
    5e16:	c3                   	ret    
    5e17:	48 8d 05 ee 29 00 00 	lea    0x29ee(%rip),%rax        # 880c <options.171.0+0x1c>
    5e1e:	48 8d 6c 24 30       	lea    0x30(%rsp),%rbp
    5e23:	c7 44 24 40 cf 02 00 	movl   $0x2cf,0x40(%rsp)
    5e2a:	00 
    5e2b:	48 89 44 24 38       	mov    %rax,0x38(%rsp)
    5e30:	48 89 ef             	mov    %rbp,%rdi
    5e33:	48 8d 05 ee 2a 00 00 	lea    0x2aee(%rip),%rax        # 8928 <options.171.0+0x138>
    5e3a:	48 89 84 24 80 00 00 	mov    %rax,0x80(%rsp)
    5e41:	00 
    5e42:	48 8b 05 af 2c 00 00 	mov    0x2caf(%rip),%rax        # 8af8 <options.171.0+0x308>
    5e49:	48 c7 84 24 88 00 00 	movq   $0x6b,0x88(%rsp)
    5e50:	00 6b 00 00 00 
    5e55:	48 89 44 24 30       	mov    %rax,0x30(%rsp)
    5e5a:	e8 c1 c3 ff ff       	call   2220 <_gfortran_st_write@plt>
    5e5f:	ba 04 00 00 00       	mov    $0x4,%edx
    5e64:	4c 89 f6             	mov    %r14,%rsi
    5e67:	48 89 ef             	mov    %rbp,%rdi
    5e6a:	e8 61 c2 ff ff       	call   20d0 <_gfortran_transfer_integer_write@plt>
    5e6f:	ba 04 00 00 00       	mov    $0x4,%edx
    5e74:	4c 89 ee             	mov    %r13,%rsi
    5e77:	48 89 ef             	mov    %rbp,%rdi
    5e7a:	e8 51 c2 ff ff       	call   20d0 <_gfortran_transfer_integer_write@plt>
    5e7f:	48 8d 74 24 2c       	lea    0x2c(%rsp),%rsi
    5e84:	ba 04 00 00 00       	mov    $0x4,%edx
    5e89:	48 89 ef             	mov    %rbp,%rdi
    5e8c:	e8 3f c2 ff ff       	call   20d0 <_gfortran_transfer_integer_write@plt>
    5e91:	48 89 ef             	mov    %rbp,%rdi
    5e94:	e8 17 c3 ff ff       	call   21b0 <_gfortran_st_write_done@plt>
    5e99:	31 d2                	xor    %edx,%edx
    5e9b:	31 f6                	xor    %esi,%esi
    5e9d:	31 ff                	xor    %edi,%edi
    5e9f:	e8 9c c1 ff ff       	call   2040 <_gfortran_stop_string@plt>
    5ea4:	66 66 2e 0f 1f 84 00 	data16 cs nopw 0x0(%rax,%rax,1)
    5eab:	00 00 00 00 
    5eaf:	90                   	nop

0000000000005eb0 <cffts1_._omp_fn.0>:
    5eb0:	55                   	push   %rbp
    5eb1:	48 89 e5             	mov    %rsp,%rbp
    5eb4:	41 57                	push   %r15
    5eb6:	41 56                	push   %r14
    5eb8:	41 55                	push   %r13
    5eba:	49 89 fd             	mov    %rdi,%r13
    5ebd:	41 54                	push   %r12
    5ebf:	53                   	push   %rbx
    5ec0:	48 83 ec 78          	sub    $0x78,%rsp
    5ec4:	49 8b 45 48          	mov    0x48(%r13),%rax
    5ec8:	41 8b 75 78          	mov    0x78(%r13),%esi
    5ecc:	8b 7f 7c             	mov    0x7c(%rdi),%edi
    5ecf:	4d 8b 75 28          	mov    0x28(%r13),%r14
    5ed3:	48 89 45 c0          	mov    %rax,-0x40(%rbp)
    5ed7:	49 8b 45 40          	mov    0x40(%r13),%rax
    5edb:	89 7d 94             	mov    %edi,-0x6c(%rbp)
    5ede:	4d 8b 7d 10          	mov    0x10(%r13),%r15
    5ee2:	48 89 45 b8          	mov    %rax,-0x48(%rbp)
    5ee6:	49 8b 45 38          	mov    0x38(%r13),%rax
    5eea:	89 75 cc             	mov    %esi,-0x34(%rbp)
    5eed:	48 89 45 88          	mov    %rax,-0x78(%rbp)
    5ef1:	49 8b 45 30          	mov    0x30(%r13),%rax
    5ef5:	48 89 45 80          	mov    %rax,-0x80(%rbp)
    5ef9:	49 8b 45 20          	mov    0x20(%r13),%rax
    5efd:	48 89 85 78 ff ff ff 	mov    %rax,-0x88(%rbp)
    5f04:	49 8b 45 18          	mov    0x18(%r13),%rax
    5f08:	48 89 85 70 ff ff ff 	mov    %rax,-0x90(%rbp)
    5f0f:	49 8b 45 58          	mov    0x58(%r13),%rax
    5f13:	48 83 c0 0f          	add    $0xf,%rax
    5f17:	48 83 e0 f0          	and    $0xfffffffffffffff0,%rax
    5f1b:	48 29 c4             	sub    %rax,%rsp
    5f1e:	49 8b 45 50          	mov    0x50(%r13),%rax
    5f22:	48 89 e2             	mov    %rsp,%rdx
    5f25:	48 83 c0 0f          	add    $0xf,%rax
    5f29:	48 83 e0 f0          	and    $0xfffffffffffffff0,%rax
    5f2d:	48 29 c4             	sub    %rax,%rsp
    5f30:	85 f6                	test   %esi,%esi
    5f32:	0f 8e 30 02 00 00    	jle    6168 <cffts1_._omp_fn.0+0x2b8>
    5f38:	44 8d 67 01          	lea    0x1(%rdi),%r12d
    5f3c:	85 ff                	test   %edi,%edi
    5f3e:	0f 88 24 02 00 00    	js     6168 <cffts1_._omp_fn.0+0x2b8>
    5f44:	48 89 e0             	mov    %rsp,%rax
    5f47:	48 89 55 a0          	mov    %rdx,-0x60(%rbp)
    5f4b:	48 89 45 98          	mov    %rax,-0x68(%rbp)
    5f4f:	e8 0c c1 ff ff       	call   2060 <omp_get_num_threads@plt>
    5f54:	89 c3                	mov    %eax,%ebx
    5f56:	e8 95 c1 ff ff       	call   20f0 <omp_get_thread_num@plt>
    5f5b:	8b 75 cc             	mov    -0x34(%rbp),%esi
    5f5e:	31 d2                	xor    %edx,%edx
    5f60:	89 c1                	mov    %eax,%ecx
    5f62:	41 0f af f4          	imul   %r12d,%esi
    5f66:	89 f0                	mov    %esi,%eax
    5f68:	f7 f3                	div    %ebx
    5f6a:	89 c6                	mov    %eax,%esi
    5f6c:	39 d1                	cmp    %edx,%ecx
    5f6e:	0f 82 0b 02 00 00    	jb     617f <cffts1_._omp_fn.0+0x2cf>
    5f74:	0f af ce             	imul   %esi,%ecx
    5f77:	8d 04 11             	lea    (%rcx,%rdx,1),%eax
    5f7a:	8d 14 06             	lea    (%rsi,%rax,1),%edx
    5f7d:	39 d0                	cmp    %edx,%eax
    5f7f:	0f 83 e3 01 00 00    	jae    6168 <cffts1_._omp_fn.0+0x2b8>
    5f85:	31 d2                	xor    %edx,%edx
    5f87:	44 8b 1d 4a 74 00 00 	mov    0x744a(%rip),%r11d        # d3d8 <__ft_data_MOD_fftblock>
    5f8e:	41 f7 f4             	div    %r12d
    5f91:	4d 89 f4             	mov    %r14,%r12
    5f94:	49 c1 e4 04          	shl    $0x4,%r12
    5f98:	83 c0 01             	add    $0x1,%eax
    5f9b:	89 55 cc             	mov    %edx,-0x34(%rbp)
    5f9e:	89 45 c8             	mov    %eax,-0x38(%rbp)
    5fa1:	8d 46 ff             	lea    -0x1(%rsi),%eax
    5fa4:	48 8b 75 b8          	mov    -0x48(%rbp),%rsi
    5fa8:	89 45 90             	mov    %eax,-0x70(%rbp)
    5fab:	48 8b 45 c0          	mov    -0x40(%rbp),%rax
    5faf:	c7 45 b8 00 00 00 00 	movl   $0x0,-0x48(%rbp)
    5fb6:	48 8d 44 30 01       	lea    0x1(%rax,%rsi,1),%rax
    5fbb:	48 c1 e6 04          	shl    $0x4,%rsi
    5fbf:	48 c1 e0 04          	shl    $0x4,%rax
    5fc3:	48 03 45 a0          	add    -0x60(%rbp),%rax
    5fc7:	48 89 f3             	mov    %rsi,%rbx
    5fca:	48 89 45 b0          	mov    %rax,-0x50(%rbp)
    5fce:	4c 89 f8             	mov    %r15,%rax
    5fd1:	48 c1 e0 04          	shl    $0x4,%rax
    5fd5:	48 89 85 68 ff ff ff 	mov    %rax,-0x98(%rbp)
    5fdc:	89 d0                	mov    %edx,%eax
    5fde:	66 90                	xchg   %ax,%ax
    5fe0:	41 0f af c3          	imul   %r11d,%eax
    5fe4:	4d 8b 4d 60          	mov    0x60(%r13),%r9
    5fe8:	89 45 c0             	mov    %eax,-0x40(%rbp)
    5feb:	45 85 db             	test   %r11d,%r11d
    5fee:	0f 8e a2 00 00 00    	jle    6096 <cffts1_._omp_fn.0+0x1e6>
    5ff4:	41 8b 11             	mov    (%r9),%edx
    5ff7:	48 63 45 c8          	movslq -0x38(%rbp),%rax
    5ffb:	4d 8b 55 00          	mov    0x0(%r13),%r10
    5fff:	48 0f af 85 70 ff ff 	imul   -0x90(%rbp),%rax
    6006:	ff 
    6007:	48 03 85 78 ff ff ff 	add    -0x88(%rbp),%rax
    600e:	85 d2                	test   %edx,%edx
    6010:	0f 8e 80 00 00 00    	jle    6096 <cffts1_._omp_fn.0+0x1e6>
    6016:	48 63 75 c0          	movslq -0x40(%rbp),%rsi
    601a:	4c 8b 45 b0          	mov    -0x50(%rbp),%r8
    601e:	4c 89 75 a8          	mov    %r14,-0x58(%rbp)
    6022:	41 83 c3 01          	add    $0x1,%r11d
    6026:	4c 8b b5 68 ff ff ff 	mov    -0x98(%rbp),%r14
    602d:	bf 01 00 00 00       	mov    $0x1,%edi
    6032:	48 83 c6 01          	add    $0x1,%rsi
    6036:	49 0f af f7          	imul   %r15,%rsi
    603a:	48 01 c6             	add    %rax,%rsi
    603d:	8d 42 ff             	lea    -0x1(%rdx),%eax
    6040:	48 01 f0             	add    %rsi,%rax
    6043:	48 c1 e0 04          	shl    $0x4,%rax
    6047:	49 8d 4c 02 10       	lea    0x10(%r10,%rax,1),%rcx
    604c:	0f 1f 40 00          	nopl   0x0(%rax)
    6050:	48 89 f0             	mov    %rsi,%rax
    6053:	4c 89 c2             	mov    %r8,%rdx
    6056:	48 c1 e0 04          	shl    $0x4,%rax
    605a:	4c 01 d0             	add    %r10,%rax
    605d:	0f 1f 00             	nopl   (%rax)
    6060:	f2 0f 10 40 10       	movsd  0x10(%rax),%xmm0
    6065:	48 83 c0 10          	add    $0x10,%rax
    6069:	f2 0f 11 02          	movsd  %xmm0,(%rdx)
    606d:	f2 0f 10 40 08       	movsd  0x8(%rax),%xmm0
    6072:	f2 0f 11 42 08       	movsd  %xmm0,0x8(%rdx)
    6077:	48 01 da             	add    %rbx,%rdx
    607a:	48 39 c8             	cmp    %rcx,%rax
    607d:	75 e1                	jne    6060 <cffts1_._omp_fn.0+0x1b0>
    607f:	48 83 c7 01          	add    $0x1,%rdi
    6083:	49 83 c0 10          	add    $0x10,%r8
    6087:	4c 01 fe             	add    %r15,%rsi
    608a:	4c 01 f1             	add    %r14,%rcx
    608d:	4c 39 df             	cmp    %r11,%rdi
    6090:	75 be                	jne    6050 <cffts1_._omp_fn.0+0x1a0>
    6092:	4c 8b 75 a8          	mov    -0x58(%rbp),%r14
    6096:	49 8b 75 68          	mov    0x68(%r13),%rsi
    609a:	49 8b 7d 70          	mov    0x70(%r13),%rdi
    609e:	4c 89 ca             	mov    %r9,%rdx
    60a1:	4c 8b 45 98          	mov    -0x68(%rbp),%r8
    60a5:	48 8b 4d a0          	mov    -0x60(%rbp),%rcx
    60a9:	e8 e2 fb ff ff       	call   5c90 <cfftz_>
    60ae:	44 8b 1d 23 73 00 00 	mov    0x7323(%rip),%r11d        # d3d8 <__ft_data_MOD_fftblock>
    60b5:	45 85 db             	test   %r11d,%r11d
    60b8:	0f 8e 8b 00 00 00    	jle    6149 <cffts1_._omp_fn.0+0x299>
    60be:	49 8b 45 60          	mov    0x60(%r13),%rax
    60c2:	4d 8b 4d 08          	mov    0x8(%r13),%r9
    60c6:	8b 10                	mov    (%rax),%edx
    60c8:	48 63 45 c8          	movslq -0x38(%rbp),%rax
    60cc:	48 0f af 45 80       	imul   -0x80(%rbp),%rax
    60d1:	48 03 45 88          	add    -0x78(%rbp),%rax
    60d5:	85 d2                	test   %edx,%edx
    60d7:	7e 70                	jle    6149 <cffts1_._omp_fn.0+0x299>
    60d9:	48 63 75 c0          	movslq -0x40(%rbp),%rsi
    60dd:	4c 8b 45 b0          	mov    -0x50(%rbp),%r8
    60e1:	45 8d 53 01          	lea    0x1(%r11),%r10d
    60e5:	bf 01 00 00 00       	mov    $0x1,%edi
    60ea:	48 83 c6 01          	add    $0x1,%rsi
    60ee:	49 0f af f6          	imul   %r14,%rsi
    60f2:	48 01 c6             	add    %rax,%rsi
    60f5:	8d 42 ff             	lea    -0x1(%rdx),%eax
    60f8:	48 01 f0             	add    %rsi,%rax
    60fb:	48 c1 e0 04          	shl    $0x4,%rax
    60ff:	49 8d 4c 01 10       	lea    0x10(%r9,%rax,1),%rcx
    6104:	0f 1f 40 00          	nopl   0x0(%rax)
    6108:	48 89 f0             	mov    %rsi,%rax
    610b:	4c 89 c2             	mov    %r8,%rdx
    610e:	48 c1 e0 04          	shl    $0x4,%rax
    6112:	4c 01 c8             	add    %r9,%rax
    6115:	0f 1f 00             	nopl   (%rax)
    6118:	f2 0f 10 02          	movsd  (%rdx),%xmm0
    611c:	48 83 c0 10          	add    $0x10,%rax
    6120:	f2 0f 11 00          	movsd  %xmm0,(%rax)
    6124:	f2 0f 10 42 08       	movsd  0x8(%rdx),%xmm0
    6129:	48 01 da             	add    %rbx,%rdx
    612c:	f2 0f 11 40 08       	movsd  %xmm0,0x8(%rax)
    6131:	48 39 c1             	cmp    %rax,%rcx
    6134:	75 e2                	jne    6118 <cffts1_._omp_fn.0+0x268>
    6136:	48 83 c7 01          	add    $0x1,%rdi
    613a:	49 83 c0 10          	add    $0x10,%r8
    613e:	4c 01 f6             	add    %r14,%rsi
    6141:	4c 01 e1             	add    %r12,%rcx
    6144:	49 39 fa             	cmp    %rdi,%r10
    6147:	75 bf                	jne    6108 <cffts1_._omp_fn.0+0x258>
    6149:	8b 7d 90             	mov    -0x70(%rbp),%edi
    614c:	39 7d b8             	cmp    %edi,-0x48(%rbp)
    614f:	74 17                	je     6168 <cffts1_._omp_fn.0+0x2b8>
    6151:	8b 7d cc             	mov    -0x34(%rbp),%edi
    6154:	8d 47 01             	lea    0x1(%rdi),%eax
    6157:	3b 7d 94             	cmp    -0x6c(%rbp),%edi
    615a:	7d 1b                	jge    6177 <cffts1_._omp_fn.0+0x2c7>
    615c:	83 45 b8 01          	addl   $0x1,-0x48(%rbp)
    6160:	89 45 cc             	mov    %eax,-0x34(%rbp)
    6163:	e9 78 fe ff ff       	jmp    5fe0 <cffts1_._omp_fn.0+0x130>
    6168:	48 8d 65 d8          	lea    -0x28(%rbp),%rsp
    616c:	5b                   	pop    %rbx
    616d:	41 5c                	pop    %r12
    616f:	41 5d                	pop    %r13
    6171:	41 5e                	pop    %r14
    6173:	41 5f                	pop    %r15
    6175:	5d                   	pop    %rbp
    6176:	c3                   	ret    
    6177:	83 45 c8 01          	addl   $0x1,-0x38(%rbp)
    617b:	31 c0                	xor    %eax,%eax
    617d:	eb dd                	jmp    615c <cffts1_._omp_fn.0+0x2ac>
    617f:	83 c6 01             	add    $0x1,%esi
    6182:	31 d2                	xor    %edx,%edx
    6184:	e9 eb fd ff ff       	jmp    5f74 <cffts1_._omp_fn.0+0xc4>
    6189:	0f 1f 80 00 00 00 00 	nopl   0x0(%rax)

0000000000006190 <cffts2_._omp_fn.0>:
    6190:	55                   	push   %rbp
    6191:	48 89 e5             	mov    %rsp,%rbp
    6194:	41 57                	push   %r15
    6196:	41 56                	push   %r14
    6198:	41 55                	push   %r13
    619a:	41 54                	push   %r12
    619c:	53                   	push   %rbx
    619d:	48 81 ec 98 00 00 00 	sub    $0x98,%rsp
    61a4:	48 8b 47 48          	mov    0x48(%rdi),%rax
    61a8:	8b 5f 7c             	mov    0x7c(%rdi),%ebx
    61ab:	44 8b 7f 78          	mov    0x78(%rdi),%r15d
    61af:	4c 8b 67 40          	mov    0x40(%rdi),%r12
    61b3:	48 89 45 c8          	mov    %rax,-0x38(%rbp)
    61b7:	48 8b 47 38          	mov    0x38(%rdi),%rax
    61bb:	89 5d a0             	mov    %ebx,-0x60(%rbp)
    61be:	48 89 45 80          	mov    %rax,-0x80(%rbp)
    61c2:	48 8b 47 30          	mov    0x30(%rdi),%rax
    61c6:	48 89 85 78 ff ff ff 	mov    %rax,-0x88(%rbp)
    61cd:	48 8b 47 28          	mov    0x28(%rdi),%rax
    61d1:	48 89 85 60 ff ff ff 	mov    %rax,-0xa0(%rbp)
    61d8:	48 8b 47 20          	mov    0x20(%rdi),%rax
    61dc:	48 89 85 70 ff ff ff 	mov    %rax,-0x90(%rbp)
    61e3:	48 8b 47 18          	mov    0x18(%rdi),%rax
    61e7:	48 89 85 68 ff ff ff 	mov    %rax,-0x98(%rbp)
    61ee:	48 8b 47 10          	mov    0x10(%rdi),%rax
    61f2:	48 89 85 58 ff ff ff 	mov    %rax,-0xa8(%rbp)
    61f9:	48 8b 47 58          	mov    0x58(%rdi),%rax
    61fd:	48 83 c0 0f          	add    $0xf,%rax
    6201:	48 83 e0 f0          	and    $0xfffffffffffffff0,%rax
    6205:	48 29 c4             	sub    %rax,%rsp
    6208:	48 8b 47 50          	mov    0x50(%rdi),%rax
    620c:	48 89 e2             	mov    %rsp,%rdx
    620f:	48 83 c0 0f          	add    $0xf,%rax
    6213:	48 83 e0 f0          	and    $0xfffffffffffffff0,%rax
    6217:	48 29 c4             	sub    %rax,%rsp
    621a:	45 85 ff             	test   %r15d,%r15d
    621d:	0f 8e 3a 02 00 00    	jle    645d <cffts2_._omp_fn.0+0x2cd>
    6223:	44 8d 73 01          	lea    0x1(%rbx),%r14d
    6227:	85 db                	test   %ebx,%ebx
    6229:	0f 88 2e 02 00 00    	js     645d <cffts2_._omp_fn.0+0x2cd>
    622f:	48 89 e0             	mov    %rsp,%rax
    6232:	48 89 55 90          	mov    %rdx,-0x70(%rbp)
    6236:	49 89 fd             	mov    %rdi,%r13
    6239:	48 89 45 88          	mov    %rax,-0x78(%rbp)
    623d:	e8 1e be ff ff       	call   2060 <omp_get_num_threads@plt>
    6242:	89 c3                	mov    %eax,%ebx
    6244:	e8 a7 be ff ff       	call   20f0 <omp_get_thread_num@plt>
    6249:	31 d2                	xor    %edx,%edx
    624b:	89 c1                	mov    %eax,%ecx
    624d:	44 89 f8             	mov    %r15d,%eax
    6250:	41 0f af c6          	imul   %r14d,%eax
    6254:	f7 f3                	div    %ebx
    6256:	89 c6                	mov    %eax,%esi
    6258:	39 d1                	cmp    %edx,%ecx
    625a:	0f 82 14 02 00 00    	jb     6474 <cffts2_._omp_fn.0+0x2e4>
    6260:	0f af ce             	imul   %esi,%ecx
    6263:	8d 04 11             	lea    (%rcx,%rdx,1),%eax
    6266:	8d 14 06             	lea    (%rsi,%rax,1),%edx
    6269:	39 d0                	cmp    %edx,%eax
    626b:	0f 83 ec 01 00 00    	jae    645d <cffts2_._omp_fn.0+0x2cd>
    6271:	31 d2                	xor    %edx,%edx
    6273:	c7 45 a8 00 00 00 00 	movl   $0x0,-0x58(%rbp)
    627a:	4c 89 e3             	mov    %r12,%rbx
    627d:	41 f7 f6             	div    %r14d
    6280:	4c 89 6d b8          	mov    %r13,-0x48(%rbp)
    6284:	48 c1 e3 04          	shl    $0x4,%rbx
    6288:	83 c0 01             	add    $0x1,%eax
    628b:	89 55 c4             	mov    %edx,-0x3c(%rbp)
    628e:	89 45 ac             	mov    %eax,-0x54(%rbp)
    6291:	49 8b 45 60          	mov    0x60(%r13),%rax
    6295:	48 89 45 b0          	mov    %rax,-0x50(%rbp)
    6299:	8b 00                	mov    (%rax),%eax
    629b:	89 45 c0             	mov    %eax,-0x40(%rbp)
    629e:	8d 46 ff             	lea    -0x1(%rsi),%eax
    62a1:	89 d6                	mov    %edx,%esi
    62a3:	89 85 54 ff ff ff    	mov    %eax,-0xac(%rbp)
    62a9:	48 8b 45 c8          	mov    -0x38(%rbp),%rax
    62ad:	4a 8d 44 20 01       	lea    0x1(%rax,%r12,1),%rax
    62b2:	48 c1 e0 04          	shl    $0x4,%rax
    62b6:	48 03 45 90          	add    -0x70(%rbp),%rax
    62ba:	48 89 45 98          	mov    %rax,-0x68(%rbp)
    62be:	48 8b 85 58 ff ff ff 	mov    -0xa8(%rbp),%rax
    62c5:	48 c1 e0 04          	shl    $0x4,%rax
    62c9:	48 89 85 40 ff ff ff 	mov    %rax,-0xc0(%rbp)
    62d0:	48 8b 85 60 ff ff ff 	mov    -0xa0(%rbp),%rax
    62d7:	48 c1 e0 04          	shl    $0x4,%rax
    62db:	48 89 85 48 ff ff ff 	mov    %rax,-0xb8(%rbp)
    62e2:	66 0f 1f 44 00 00    	nopw   0x0(%rax,%rax,1)
    62e8:	8b 15 ea 70 00 00    	mov    0x70ea(%rip),%edx        # d3d8 <__ft_data_MOD_fftblock>
    62ee:	8b 7d c0             	mov    -0x40(%rbp),%edi
    62f1:	0f af f2             	imul   %edx,%esi
    62f4:	89 75 a4             	mov    %esi,-0x5c(%rbp)
    62f7:	85 ff                	test   %edi,%edi
    62f9:	0f 8e 7f 00 00 00    	jle    637e <cffts2_._omp_fn.0+0x1ee>
    62ff:	48 8b 4d b8          	mov    -0x48(%rbp),%rcx
    6303:	48 63 45 ac          	movslq -0x54(%rbp),%rax
    6307:	48 0f af 85 68 ff ff 	imul   -0x98(%rbp),%rax
    630e:	ff 
    630f:	48 03 85 70 ff ff ff 	add    -0x90(%rbp),%rax
    6316:	48 8b 09             	mov    (%rcx),%rcx
    6319:	85 d2                	test   %edx,%edx
    631b:	7e 61                	jle    637e <cffts2_._omp_fn.0+0x1ee>
    631d:	48 63 f6             	movslq %esi,%rsi
    6320:	48 03 85 58 ff ff ff 	add    -0xa8(%rbp),%rax
    6327:	4c 63 e2             	movslq %edx,%r12
    632a:	83 c7 01             	add    $0x1,%edi
    632d:	48 8d 44 06 01       	lea    0x1(%rsi,%rax,1),%rax
    6332:	49 c1 e4 04          	shl    $0x4,%r12
    6336:	89 7d c8             	mov    %edi,-0x38(%rbp)
    6339:	4c 8b b5 40 ff ff ff 	mov    -0xc0(%rbp),%r14
    6340:	48 c1 e0 04          	shl    $0x4,%rax
    6344:	48 8b 7d 98          	mov    -0x68(%rbp),%rdi
    6348:	41 bd 01 00 00 00    	mov    $0x1,%r13d
    634e:	4c 8d 3c 01          	lea    (%rcx,%rax,1),%r15
    6352:	4c 89 e0             	mov    %r12,%rax
    6355:	4d 89 fc             	mov    %r15,%r12
    6358:	49 89 c7             	mov    %rax,%r15
    635b:	0f 1f 44 00 00       	nopl   0x0(%rax,%rax,1)
    6360:	4c 89 e6             	mov    %r12,%rsi
    6363:	4c 89 fa             	mov    %r15,%rdx
    6366:	41 83 c5 01          	add    $0x1,%r13d
    636a:	4d 01 f4             	add    %r14,%r12
    636d:	e8 be be ff ff       	call   2230 <memcpy@plt>
    6372:	48 89 c7             	mov    %rax,%rdi
    6375:	48 01 df             	add    %rbx,%rdi
    6378:	44 3b 6d c8          	cmp    -0x38(%rbp),%r13d
    637c:	75 e2                	jne    6360 <cffts2_._omp_fn.0+0x1d0>
    637e:	4c 8b 7d b8          	mov    -0x48(%rbp),%r15
    6382:	4c 8b 45 88          	mov    -0x78(%rbp),%r8
    6386:	48 8b 4d 90          	mov    -0x70(%rbp),%rcx
    638a:	48 8b 55 b0          	mov    -0x50(%rbp),%rdx
    638e:	49 8b 77 68          	mov    0x68(%r15),%rsi
    6392:	49 8b 7f 70          	mov    0x70(%r15),%rdi
    6396:	e8 f5 f8 ff ff       	call   5c90 <cfftz_>
    639b:	49 8b 47 60          	mov    0x60(%r15),%rax
    639f:	48 89 45 b0          	mov    %rax,-0x50(%rbp)
    63a3:	8b 00                	mov    (%rax),%eax
    63a5:	89 45 c0             	mov    %eax,-0x40(%rbp)
    63a8:	85 c0                	test   %eax,%eax
    63aa:	0f 8e 89 00 00 00    	jle    6439 <cffts2_._omp_fn.0+0x2a9>
    63b0:	48 8b 75 b8          	mov    -0x48(%rbp),%rsi
    63b4:	8b 15 1e 70 00 00    	mov    0x701e(%rip),%edx        # d3d8 <__ft_data_MOD_fftblock>
    63ba:	48 63 45 ac          	movslq -0x54(%rbp),%rax
    63be:	48 0f af 85 78 ff ff 	imul   -0x88(%rbp),%rax
    63c5:	ff 
    63c6:	48 8b 4e 08          	mov    0x8(%rsi),%rcx
    63ca:	48 03 45 80          	add    -0x80(%rbp),%rax
    63ce:	85 d2                	test   %edx,%edx
    63d0:	7e 67                	jle    6439 <cffts2_._omp_fn.0+0x2a9>
    63d2:	48 63 75 a4          	movslq -0x5c(%rbp),%rsi
    63d6:	4c 8b 6d 98          	mov    -0x68(%rbp),%r13
    63da:	4c 63 e2             	movslq %edx,%r12
    63dd:	41 bf 01 00 00 00    	mov    $0x1,%r15d
    63e3:	48 03 85 60 ff ff ff 	add    -0xa0(%rbp),%rax
    63ea:	49 c1 e4 04          	shl    $0x4,%r12
    63ee:	48 8d 44 30 01       	lea    0x1(%rax,%rsi,1),%rax
    63f3:	4d 89 ee             	mov    %r13,%r14
    63f6:	45 89 fd             	mov    %r15d,%r13d
    63f9:	4d 89 e7             	mov    %r12,%r15
    63fc:	48 c1 e0 04          	shl    $0x4,%rax
    6400:	4c 8b a5 48 ff ff ff 	mov    -0xb8(%rbp),%r12
    6407:	48 01 c1             	add    %rax,%rcx
    640a:	8b 45 c0             	mov    -0x40(%rbp),%eax
    640d:	83 c0 01             	add    $0x1,%eax
    6410:	89 45 c8             	mov    %eax,-0x38(%rbp)
    6413:	0f 1f 44 00 00       	nopl   0x0(%rax,%rax,1)
    6418:	4c 89 f6             	mov    %r14,%rsi
    641b:	48 89 cf             	mov    %rcx,%rdi
    641e:	4c 89 fa             	mov    %r15,%rdx
    6421:	41 83 c5 01          	add    $0x1,%r13d
    6425:	e8 06 be ff ff       	call   2230 <memcpy@plt>
    642a:	49 01 de             	add    %rbx,%r14
    642d:	48 89 c1             	mov    %rax,%rcx
    6430:	4c 01 e1             	add    %r12,%rcx
    6433:	44 3b 6d c8          	cmp    -0x38(%rbp),%r13d
    6437:	75 df                	jne    6418 <cffts2_._omp_fn.0+0x288>
    6439:	8b 4d a8             	mov    -0x58(%rbp),%ecx
    643c:	39 8d 54 ff ff ff    	cmp    %ecx,-0xac(%rbp)
    6442:	74 19                	je     645d <cffts2_._omp_fn.0+0x2cd>
    6444:	8b 55 c4             	mov    -0x3c(%rbp),%edx
    6447:	8d 42 01             	lea    0x1(%rdx),%eax
    644a:	3b 55 a0             	cmp    -0x60(%rbp),%edx
    644d:	7d 1d                	jge    646c <cffts2_._omp_fn.0+0x2dc>
    644f:	83 45 a8 01          	addl   $0x1,-0x58(%rbp)
    6453:	89 c6                	mov    %eax,%esi
    6455:	89 45 c4             	mov    %eax,-0x3c(%rbp)
    6458:	e9 8b fe ff ff       	jmp    62e8 <cffts2_._omp_fn.0+0x158>
    645d:	48 8d 65 d8          	lea    -0x28(%rbp),%rsp
    6461:	5b                   	pop    %rbx
    6462:	41 5c                	pop    %r12
    6464:	41 5d                	pop    %r13
    6466:	41 5e                	pop    %r14
    6468:	41 5f                	pop    %r15
    646a:	5d                   	pop    %rbp
    646b:	c3                   	ret    
    646c:	83 45 ac 01          	addl   $0x1,-0x54(%rbp)
    6470:	31 c0                	xor    %eax,%eax
    6472:	eb db                	jmp    644f <cffts2_._omp_fn.0+0x2bf>
    6474:	83 c6 01             	add    $0x1,%esi
    6477:	31 d2                	xor    %edx,%edx
    6479:	e9 e2 fd ff ff       	jmp    6260 <cffts2_._omp_fn.0+0xd0>
    647e:	66 90                	xchg   %ax,%ax

0000000000006480 <cffts3_._omp_fn.0>:
    6480:	55                   	push   %rbp
    6481:	48 89 e5             	mov    %rsp,%rbp
    6484:	41 57                	push   %r15
    6486:	41 56                	push   %r14
    6488:	41 55                	push   %r13
    648a:	41 54                	push   %r12
    648c:	53                   	push   %rbx
    648d:	48 81 ec 98 00 00 00 	sub    $0x98,%rsp
    6494:	48 8b 47 58          	mov    0x58(%rdi),%rax
    6498:	8b 5f 7c             	mov    0x7c(%rdi),%ebx
    649b:	44 8b 77 78          	mov    0x78(%rdi),%r14d
    649f:	4c 8b 67 50          	mov    0x50(%rdi),%r12
    64a3:	48 89 45 c8          	mov    %rax,-0x38(%rbp)
    64a7:	48 8b 47 48          	mov    0x48(%rdi),%rax
    64ab:	89 5d 84             	mov    %ebx,-0x7c(%rbp)
    64ae:	48 89 85 60 ff ff ff 	mov    %rax,-0xa0(%rbp)
    64b5:	48 8b 47 40          	mov    0x40(%rdi),%rax
    64b9:	48 89 85 68 ff ff ff 	mov    %rax,-0x98(%rbp)
    64c0:	48 8b 47 38          	mov    0x38(%rdi),%rax
    64c4:	48 89 85 78 ff ff ff 	mov    %rax,-0x88(%rbp)
    64cb:	48 8b 47 30          	mov    0x30(%rdi),%rax
    64cf:	48 89 45 b8          	mov    %rax,-0x48(%rbp)
    64d3:	48 8b 47 28          	mov    0x28(%rdi),%rax
    64d7:	48 89 45 a0          	mov    %rax,-0x60(%rbp)
    64db:	48 8b 47 20          	mov    0x20(%rdi),%rax
    64df:	48 89 85 70 ff ff ff 	mov    %rax,-0x90(%rbp)
    64e6:	48 8b 47 68          	mov    0x68(%rdi),%rax
    64ea:	48 83 c0 0f          	add    $0xf,%rax
    64ee:	48 83 e0 f0          	and    $0xfffffffffffffff0,%rax
    64f2:	48 29 c4             	sub    %rax,%rsp
    64f5:	48 8b 47 60          	mov    0x60(%rdi),%rax
    64f9:	48 89 e2             	mov    %rsp,%rdx
    64fc:	48 83 c0 0f          	add    $0xf,%rax
    6500:	48 83 e0 f0          	and    $0xfffffffffffffff0,%rax
    6504:	48 29 c4             	sub    %rax,%rsp
    6507:	45 85 f6             	test   %r14d,%r14d
    650a:	0f 8e 42 02 00 00    	jle    6752 <cffts3_._omp_fn.0+0x2d2>
    6510:	44 8d 7b 01          	lea    0x1(%rbx),%r15d
    6514:	85 db                	test   %ebx,%ebx
    6516:	0f 88 36 02 00 00    	js     6752 <cffts3_._omp_fn.0+0x2d2>
    651c:	48 89 e0             	mov    %rsp,%rax
    651f:	48 89 55 90          	mov    %rdx,-0x70(%rbp)
    6523:	49 89 fd             	mov    %rdi,%r13
    6526:	48 89 45 88          	mov    %rax,-0x78(%rbp)
    652a:	e8 31 bb ff ff       	call   2060 <omp_get_num_threads@plt>
    652f:	89 c3                	mov    %eax,%ebx
    6531:	e8 ba bb ff ff       	call   20f0 <omp_get_thread_num@plt>
    6536:	44 89 f6             	mov    %r14d,%esi
    6539:	31 d2                	xor    %edx,%edx
    653b:	41 0f af f7          	imul   %r15d,%esi
    653f:	89 c1                	mov    %eax,%ecx
    6541:	89 f0                	mov    %esi,%eax
    6543:	f7 f3                	div    %ebx
    6545:	89 c6                	mov    %eax,%esi
    6547:	39 d1                	cmp    %edx,%ecx
    6549:	0f 82 1a 02 00 00    	jb     6769 <cffts3_._omp_fn.0+0x2e9>
    654f:	0f af ce             	imul   %esi,%ecx
    6552:	8d 04 11             	lea    (%rcx,%rdx,1),%eax
    6555:	8d 14 06             	lea    (%rsi,%rax,1),%edx
    6558:	39 d0                	cmp    %edx,%eax
    655a:	0f 83 f2 01 00 00    	jae    6752 <cffts3_._omp_fn.0+0x2d2>
    6560:	31 d2                	xor    %edx,%edx
    6562:	4c 89 e3             	mov    %r12,%rbx
    6565:	41 f7 f7             	div    %r15d
    6568:	48 c1 e3 04          	shl    $0x4,%rbx
    656c:	83 c0 01             	add    $0x1,%eax
    656f:	89 55 c4             	mov    %edx,-0x3c(%rbp)
    6572:	89 45 ac             	mov    %eax,-0x54(%rbp)
    6575:	49 8b 45 00          	mov    0x0(%r13),%rax
    6579:	48 89 45 b0          	mov    %rax,-0x50(%rbp)
    657d:	8b 00                	mov    (%rax),%eax
    657f:	89 45 c0             	mov    %eax,-0x40(%rbp)
    6582:	8d 46 ff             	lea    -0x1(%rsi),%eax
    6585:	89 d6                	mov    %edx,%esi
    6587:	89 45 80             	mov    %eax,-0x80(%rbp)
    658a:	48 8b 45 c8          	mov    -0x38(%rbp),%rax
    658e:	4a 8d 44 20 01       	lea    0x1(%rax,%r12,1),%rax
    6593:	48 c1 e0 04          	shl    $0x4,%rax
    6597:	48 03 45 90          	add    -0x70(%rbp),%rax
    659b:	48 89 45 98          	mov    %rax,-0x68(%rbp)
    659f:	48 8b 45 a0          	mov    -0x60(%rbp),%rax
    65a3:	c7 45 a0 00 00 00 00 	movl   $0x0,-0x60(%rbp)
    65aa:	48 89 c1             	mov    %rax,%rcx
    65ad:	48 c1 e1 04          	shl    $0x4,%rcx
    65b1:	48 89 8d 50 ff ff ff 	mov    %rcx,-0xb0(%rbp)
    65b8:	48 8b 8d 68 ff ff ff 	mov    -0x98(%rbp),%rcx
    65bf:	48 c1 e1 04          	shl    $0x4,%rcx
    65c3:	48 89 8d 58 ff ff ff 	mov    %rcx,-0xa8(%rbp)
    65ca:	48 8b 4d b8          	mov    -0x48(%rbp),%rcx
    65ce:	4c 89 6d b8          	mov    %r13,-0x48(%rbp)
    65d2:	48 01 c1             	add    %rax,%rcx
    65d5:	48 89 8d 48 ff ff ff 	mov    %rcx,-0xb8(%rbp)
    65dc:	0f 1f 40 00          	nopl   0x0(%rax)
    65e0:	8b 05 f2 6d 00 00    	mov    0x6df2(%rip),%eax        # d3d8 <__ft_data_MOD_fftblock>
    65e6:	8b 7d c0             	mov    -0x40(%rbp),%edi
    65e9:	0f af f0             	imul   %eax,%esi
    65ec:	89 75 a8             	mov    %esi,-0x58(%rbp)
    65ef:	85 ff                	test   %edi,%edi
    65f1:	7e 7b                	jle    666e <cffts3_._omp_fn.0+0x1ee>
    65f3:	48 8b 4d b8          	mov    -0x48(%rbp),%rcx
    65f7:	48 63 55 ac          	movslq -0x54(%rbp),%rdx
    65fb:	48 0f af 95 70 ff ff 	imul   -0x90(%rbp),%rdx
    6602:	ff 
    6603:	48 8b 49 08          	mov    0x8(%rcx),%rcx
    6607:	85 c0                	test   %eax,%eax
    6609:	7e 63                	jle    666e <cffts3_._omp_fn.0+0x1ee>
    660b:	48 03 95 48 ff ff ff 	add    -0xb8(%rbp),%rdx
    6612:	48 63 f6             	movslq %esi,%rsi
    6615:	4c 63 e0             	movslq %eax,%r12
    6618:	83 c7 01             	add    $0x1,%edi
    661b:	48 8d 54 32 01       	lea    0x1(%rdx,%rsi,1),%rdx
    6620:	49 c1 e4 04          	shl    $0x4,%r12
    6624:	89 7d c8             	mov    %edi,-0x38(%rbp)
    6627:	4c 8b b5 50 ff ff ff 	mov    -0xb0(%rbp),%r14
    662e:	48 c1 e2 04          	shl    $0x4,%rdx
    6632:	4c 89 e0             	mov    %r12,%rax
    6635:	48 8b 7d 98          	mov    -0x68(%rbp),%rdi
    6639:	41 bd 01 00 00 00    	mov    $0x1,%r13d
    663f:	4c 8d 3c 11          	lea    (%rcx,%rdx,1),%r15
    6643:	4d 89 fc             	mov    %r15,%r12
    6646:	49 89 c7             	mov    %rax,%r15
    6649:	0f 1f 80 00 00 00 00 	nopl   0x0(%rax)
    6650:	4c 89 e6             	mov    %r12,%rsi
    6653:	4c 89 fa             	mov    %r15,%rdx
    6656:	41 83 c5 01          	add    $0x1,%r13d
    665a:	4d 01 f4             	add    %r14,%r12
    665d:	e8 ce bb ff ff       	call   2230 <memcpy@plt>
    6662:	48 89 c7             	mov    %rax,%rdi
    6665:	48 01 df             	add    %rbx,%rdi
    6668:	44 39 6d c8          	cmp    %r13d,-0x38(%rbp)
    666c:	75 e2                	jne    6650 <cffts3_._omp_fn.0+0x1d0>
    666e:	4c 8b 7d b8          	mov    -0x48(%rbp),%r15
    6672:	4c 8b 45 88          	mov    -0x78(%rbp),%r8
    6676:	48 8b 4d 90          	mov    -0x70(%rbp),%rcx
    667a:	48 8b 55 b0          	mov    -0x50(%rbp),%rdx
    667e:	49 8b 77 18          	mov    0x18(%r15),%rsi
    6682:	49 8b 7f 70          	mov    0x70(%r15),%rdi
    6686:	e8 05 f6 ff ff       	call   5c90 <cfftz_>
    668b:	49 8b 07             	mov    (%r15),%rax
    668e:	48 89 45 b0          	mov    %rax,-0x50(%rbp)
    6692:	8b 00                	mov    (%rax),%eax
    6694:	89 45 c0             	mov    %eax,-0x40(%rbp)
    6697:	85 c0                	test   %eax,%eax
    6699:	0f 8e 92 00 00 00    	jle    6731 <cffts3_._omp_fn.0+0x2b1>
    669f:	48 8b 75 b8          	mov    -0x48(%rbp),%rsi
    66a3:	8b 05 2f 6d 00 00    	mov    0x6d2f(%rip),%eax        # d3d8 <__ft_data_MOD_fftblock>
    66a9:	48 63 55 ac          	movslq -0x54(%rbp),%rdx
    66ad:	48 0f af 95 78 ff ff 	imul   -0x88(%rbp),%rdx
    66b4:	ff 
    66b5:	48 8b 4e 10          	mov    0x10(%rsi),%rcx
    66b9:	85 c0                	test   %eax,%eax
    66bb:	7e 74                	jle    6731 <cffts3_._omp_fn.0+0x2b1>
    66bd:	48 8b b5 60 ff ff ff 	mov    -0xa0(%rbp),%rsi
    66c4:	48 03 b5 68 ff ff ff 	add    -0x98(%rbp),%rsi
    66cb:	4c 63 e0             	movslq %eax,%r12
    66ce:	41 bf 01 00 00 00    	mov    $0x1,%r15d
    66d4:	48 01 d6             	add    %rdx,%rsi
    66d7:	48 63 55 a8          	movslq -0x58(%rbp),%rdx
    66db:	4c 8b 6d 98          	mov    -0x68(%rbp),%r13
    66df:	49 c1 e4 04          	shl    $0x4,%r12
    66e3:	48 8d 54 16 01       	lea    0x1(%rsi,%rdx,1),%rdx
    66e8:	8b 75 c0             	mov    -0x40(%rbp),%esi
    66eb:	4d 89 ee             	mov    %r13,%r14
    66ee:	45 89 fd             	mov    %r15d,%r13d
    66f1:	48 c1 e2 04          	shl    $0x4,%rdx
    66f5:	4d 89 e7             	mov    %r12,%r15
    66f8:	4c 8b a5 58 ff ff ff 	mov    -0xa8(%rbp),%r12
    66ff:	48 01 d1             	add    %rdx,%rcx
    6702:	8d 56 01             	lea    0x1(%rsi),%edx
    6705:	89 55 c8             	mov    %edx,-0x38(%rbp)
    6708:	0f 1f 84 00 00 00 00 	nopl   0x0(%rax,%rax,1)
    670f:	00 
    6710:	4c 89 f6             	mov    %r14,%rsi
    6713:	48 89 cf             	mov    %rcx,%rdi
    6716:	4c 89 fa             	mov    %r15,%rdx
    6719:	41 83 c5 01          	add    $0x1,%r13d
    671d:	e8 0e bb ff ff       	call   2230 <memcpy@plt>
    6722:	49 01 de             	add    %rbx,%r14
    6725:	48 89 c1             	mov    %rax,%rcx
    6728:	4c 01 e1             	add    %r12,%rcx
    672b:	44 3b 6d c8          	cmp    -0x38(%rbp),%r13d
    672f:	75 df                	jne    6710 <cffts3_._omp_fn.0+0x290>
    6731:	8b 4d 80             	mov    -0x80(%rbp),%ecx
    6734:	39 4d a0             	cmp    %ecx,-0x60(%rbp)
    6737:	74 19                	je     6752 <cffts3_._omp_fn.0+0x2d2>
    6739:	8b 75 c4             	mov    -0x3c(%rbp),%esi
    673c:	8d 46 01             	lea    0x1(%rsi),%eax
    673f:	3b 75 84             	cmp    -0x7c(%rbp),%esi
    6742:	7d 1d                	jge    6761 <cffts3_._omp_fn.0+0x2e1>
    6744:	83 45 a0 01          	addl   $0x1,-0x60(%rbp)
    6748:	89 c6                	mov    %eax,%esi
    674a:	89 45 c4             	mov    %eax,-0x3c(%rbp)
    674d:	e9 8e fe ff ff       	jmp    65e0 <cffts3_._omp_fn.0+0x160>
    6752:	48 8d 65 d8          	lea    -0x28(%rbp),%rsp
    6756:	5b                   	pop    %rbx
    6757:	41 5c                	pop    %r12
    6759:	41 5d                	pop    %r13
    675b:	41 5e                	pop    %r14
    675d:	41 5f                	pop    %r15
    675f:	5d                   	pop    %rbp
    6760:	c3                   	ret    
    6761:	83 45 ac 01          	addl   $0x1,-0x54(%rbp)
    6765:	31 c0                	xor    %eax,%eax
    6767:	eb db                	jmp    6744 <cffts3_._omp_fn.0+0x2c4>
    6769:	83 c6 01             	add    $0x1,%esi
    676c:	31 d2                	xor    %edx,%edx
    676e:	e9 dc fd ff ff       	jmp    654f <cffts3_._omp_fn.0+0xcf>
    6773:	66 66 2e 0f 1f 84 00 	data16 cs nopw 0x0(%rax,%rax,1)
    677a:	00 00 00 00 
    677e:	66 90                	xchg   %ax,%ax

0000000000006780 <ipow46_>:
    6780:	41 56                	push   %r14
    6782:	41 55                	push   %r13
    6784:	41 54                	push   %r12
    6786:	55                   	push   %rbp
    6787:	53                   	push   %rbx
    6788:	48 83 ec 10          	sub    $0x10,%rsp
    678c:	f2 0f 10 05 5c 23 00 	movsd  0x235c(%rip),%xmm0        # 8af0 <options.171.0+0x300>
    6793:	00 
    6794:	8b 1e                	mov    (%rsi),%ebx
    6796:	f2 0f 11 02          	movsd  %xmm0,(%rdx)
    679a:	85 db                	test   %ebx,%ebx
    679c:	74 54                	je     67f2 <ipow46_+0x72>
    679e:	f2 0f 10 0f          	movsd  (%rdi),%xmm1
    67a2:	49 89 d6             	mov    %rdx,%r14
    67a5:	f2 0f 11 44 24 08    	movsd  %xmm0,0x8(%rsp)
    67ab:	49 89 e4             	mov    %rsp,%r12
    67ae:	4c 8d 6c 24 08       	lea    0x8(%rsp),%r13
    67b3:	f2 0f 11 0c 24       	movsd  %xmm1,(%rsp)
    67b8:	83 fb 01             	cmp    $0x1,%ebx
    67bb:	7e 1f                	jle    67dc <ipow46_+0x5c>
    67bd:	0f 1f 00             	nopl   (%rax)
    67c0:	89 dd                	mov    %ebx,%ebp
    67c2:	4c 89 e6             	mov    %r12,%rsi
    67c5:	d1 fd                	sar    %ebp
    67c7:	f6 c3 01             	test   $0x1,%bl
    67ca:	74 34                	je     6800 <ipow46_+0x80>
    67cc:	4c 89 ef             	mov    %r13,%rdi
    67cf:	83 eb 01             	sub    $0x1,%ebx
    67d2:	e8 09 06 00 00       	call   6de0 <randlc_>
    67d7:	83 fb 01             	cmp    $0x1,%ebx
    67da:	75 e4                	jne    67c0 <ipow46_+0x40>
    67dc:	4c 89 e6             	mov    %r12,%rsi
    67df:	4c 89 ef             	mov    %r13,%rdi
    67e2:	e8 f9 05 00 00       	call   6de0 <randlc_>
    67e7:	f2 0f 10 44 24 08    	movsd  0x8(%rsp),%xmm0
    67ed:	f2 41 0f 11 06       	movsd  %xmm0,(%r14)
    67f2:	48 83 c4 10          	add    $0x10,%rsp
    67f6:	5b                   	pop    %rbx
    67f7:	5d                   	pop    %rbp
    67f8:	41 5c                	pop    %r12
    67fa:	41 5d                	pop    %r13
    67fc:	41 5e                	pop    %r14
    67fe:	c3                   	ret    
    67ff:	90                   	nop
    6800:	4c 89 e7             	mov    %r12,%rdi
    6803:	e8 d8 05 00 00       	call   6de0 <randlc_>
    6808:	83 fd 01             	cmp    $0x1,%ebp
    680b:	74 cf                	je     67dc <ipow46_+0x5c>
    680d:	89 eb                	mov    %ebp,%ebx
    680f:	eb af                	jmp    67c0 <ipow46_+0x40>
    6811:	66 66 2e 0f 1f 84 00 	data16 cs nopw 0x0(%rax,%rax,1)
    6818:	00 00 00 00 
    681c:	0f 1f 40 00          	nopl   0x0(%rax)

0000000000006820 <init_ui_>:
    6820:	41 54                	push   %r12
    6822:	49 89 d4             	mov    %rdx,%r12
    6825:	31 d2                	xor    %edx,%edx
    6827:	49 89 fa             	mov    %rdi,%r10
    682a:	49 89 f3             	mov    %rsi,%r11
    682d:	48 89 ce             	mov    %rcx,%rsi
    6830:	66 49 0f 6e f3       	movq   %r11,%xmm6
    6835:	66 48 0f 6e fe       	movq   %rsi,%xmm7
    683a:	48 83 ec 70          	sub    $0x70,%rsp
    683e:	8b 01                	mov    (%rcx),%eax
    6840:	66 41 0f 6e 01       	movd   (%r9),%xmm0
    6845:	48 89 e6             	mov    %rsp,%rsi
    6848:	83 c0 01             	add    $0x1,%eax
    684b:	48 98                	cltq   
    684d:	48 85 c0             	test   %rax,%rax
    6850:	48 0f 48 c2          	cmovs  %rdx,%rax
    6854:	49 63 10             	movslq (%r8),%rdx
    6857:	31 c9                	xor    %ecx,%ecx
    6859:	48 89 d7             	mov    %rdx,%rdi
    685c:	48 0f af d0          	imul   %rax,%rdx
    6860:	66 48 0f 6e e8       	movq   %rax,%xmm5
    6865:	66 0f 6e e7          	movd   %edi,%xmm4
    6869:	66 48 0f 6e d0       	movq   %rax,%xmm2
    686e:	48 8d 3d bb ca ff ff 	lea    -0x3545(%rip),%rdi        # 3330 <init_ui_._omp_fn.0>
    6875:	66 0f 62 c4          	punpckldq %xmm4,%xmm0
    6879:	48 85 d2             	test   %rdx,%rdx
    687c:	66 0f d6 44 24 68    	movq   %xmm0,0x68(%rsp)
    6882:	48 0f 48 d1          	cmovs  %rcx,%rdx
    6886:	48 89 c1             	mov    %rax,%rcx
    6889:	48 f7 d1             	not    %rcx
    688c:	48 29 d1             	sub    %rdx,%rcx
    688f:	66 48 0f 6e da       	movq   %rdx,%xmm3
    6894:	66 48 0f 6e c1       	movq   %rcx,%xmm0
    6899:	66 48 0f 6e c9       	movq   %rcx,%xmm1
    689e:	48 89 4c 24 60       	mov    %rcx,0x60(%rsp)
    68a3:	66 0f 6c d3          	punpcklqdq %xmm3,%xmm2
    68a7:	66 0f 6c c5          	punpcklqdq %xmm5,%xmm0
    68ab:	31 c9                	xor    %ecx,%ecx
    68ad:	0f 29 54 24 20       	movaps %xmm2,0x20(%rsp)
    68b2:	0f 29 44 24 30       	movaps %xmm0,0x30(%rsp)
    68b7:	66 48 0f 6e c2       	movq   %rdx,%xmm0
    68bc:	31 d2                	xor    %edx,%edx
    68be:	66 0f 6c c1          	punpcklqdq %xmm1,%xmm0
    68c2:	0f 29 54 24 50       	movaps %xmm2,0x50(%rsp)
    68c7:	0f 29 44 24 40       	movaps %xmm0,0x40(%rsp)
    68cc:	66 49 0f 6e c2       	movq   %r10,%xmm0
    68d1:	66 0f 6c c6          	punpcklqdq %xmm6,%xmm0
    68d5:	0f 29 04 24          	movaps %xmm0,(%rsp)
    68d9:	66 49 0f 6e c4       	movq   %r12,%xmm0
    68de:	66 0f 6c c7          	punpcklqdq %xmm7,%xmm0
    68e2:	0f 29 44 24 10       	movaps %xmm0,0x10(%rsp)
    68e7:	e8 b4 b8 ff ff       	call   21a0 <GOMP_parallel@plt>
    68ec:	48 83 c4 70          	add    $0x70,%rsp
    68f0:	41 5c                	pop    %r12
    68f2:	c3                   	ret    
    68f3:	66 66 2e 0f 1f 84 00 	data16 cs nopw 0x0(%rax,%rax,1)
    68fa:	00 00 00 00 
    68fe:	66 90                	xchg   %ax,%ax

0000000000006900 <setup_>:
    6900:	41 55                	push   %r13
    6902:	48 8d 3d 67 69 00 00 	lea    0x6967(%rip),%rdi        # d270 <__ft_data_MOD_timers_enabled>
    6909:	4c 8d 2d c8 1e 00 00 	lea    0x1ec8(%rip),%r13        # 87d8 <_IO_stdin_used+0x7d8>
    6910:	41 54                	push   %r12
    6912:	55                   	push   %rbp
    6913:	53                   	push   %rbx
    6914:	48 8d 1d f1 1e 00 00 	lea    0x1ef1(%rip),%rbx        # 880c <options.171.0+0x1c>
    691b:	48 81 ec 28 02 00 00 	sub    $0x228,%rsp
    6922:	c7 05 c4 6a 00 00 00 	movl   $0x0,0x6ac4(%rip)        # d3f0 <__ft_data_MOD_debug>
    6929:	00 00 00 
    692c:	e8 bf 0f 00 00       	call   78f0 <check_timer_flag_>
    6931:	48 8d 6c 24 10       	lea    0x10(%rsp),%rbp
    6936:	48 89 5c 24 18       	mov    %rbx,0x18(%rsp)
    693b:	4c 8b 25 b6 21 00 00 	mov    0x21b6(%rip),%r12        # 8af8 <options.171.0+0x308>
    6942:	48 8d 05 4f 20 00 00 	lea    0x204f(%rip),%rax        # 8998 <options.171.0+0x1a8>
    6949:	48 89 ef             	mov    %rbp,%rdi
    694c:	c7 44 24 20 4c 01 00 	movl   $0x14c,0x20(%rsp)
    6953:	00 
    6954:	48 89 44 24 60       	mov    %rax,0x60(%rsp)
    6959:	4c 89 64 24 10       	mov    %r12,0x10(%rsp)
    695e:	48 c7 44 24 68 4d 00 	movq   $0x4d,0x68(%rsp)
    6965:	00 00 
    6967:	e8 b4 b8 ff ff       	call   2220 <_gfortran_st_write@plt>
    696c:	48 89 ef             	mov    %rbp,%rdi
    696f:	e8 3c b8 ff ff       	call   21b0 <_gfortran_st_write_done@plt>
    6974:	48 8d 05 6d 20 00 00 	lea    0x206d(%rip),%rax        # 89e8 <options.171.0+0x1f8>
    697b:	48 89 ef             	mov    %rbp,%rdi
    697e:	48 89 5c 24 18       	mov    %rbx,0x18(%rsp)
    6983:	48 89 44 24 60       	mov    %rax,0x60(%rsp)
    6988:	4c 89 64 24 10       	mov    %r12,0x10(%rsp)
    698d:	c7 44 24 20 50 01 00 	movl   $0x150,0x20(%rsp)
    6994:	00 
    6995:	48 c7 44 24 68 31 00 	movq   $0x31,0x68(%rsp)
    699c:	00 00 
    699e:	c7 05 28 6a 00 00 14 	movl   $0x14,0x6a28(%rip)        # d3d0 <__ft_data_MOD_niter>
    69a5:	00 00 00 
    69a8:	e8 73 b8 ff ff       	call   2220 <_gfortran_st_write@plt>
    69ad:	4c 89 ee             	mov    %r13,%rsi
    69b0:	48 89 ef             	mov    %rbp,%rdi
    69b3:	ba 04 00 00 00       	mov    $0x4,%edx
    69b8:	e8 13 b7 ff ff       	call   20d0 <_gfortran_transfer_integer_write@plt>
    69bd:	4c 89 ee             	mov    %r13,%rsi
    69c0:	48 89 ef             	mov    %rbp,%rdi
    69c3:	ba 04 00 00 00       	mov    $0x4,%edx
    69c8:	e8 03 b7 ff ff       	call   20d0 <_gfortran_transfer_integer_write@plt>
    69cd:	4c 89 ee             	mov    %r13,%rsi
    69d0:	ba 04 00 00 00       	mov    $0x4,%edx
    69d5:	48 89 ef             	mov    %rbp,%rdi
    69d8:	e8 f3 b6 ff ff       	call   20d0 <_gfortran_transfer_integer_write@plt>
    69dd:	48 89 ef             	mov    %rbp,%rdi
    69e0:	e8 cb b7 ff ff       	call   21b0 <_gfortran_st_write_done@plt>
    69e5:	48 8d 05 34 20 00 00 	lea    0x2034(%rip),%rax        # 8a20 <options.171.0+0x230>
    69ec:	48 89 ef             	mov    %rbp,%rdi
    69ef:	48 89 5c 24 18       	mov    %rbx,0x18(%rsp)
    69f4:	48 89 44 24 60       	mov    %rax,0x60(%rsp)
    69f9:	4c 89 64 24 10       	mov    %r12,0x10(%rsp)
    69fe:	c7 44 24 20 51 01 00 	movl   $0x151,0x20(%rsp)
    6a05:	00 
    6a06:	48 c7 44 24 68 26 00 	movq   $0x26,0x68(%rsp)
    6a0d:	00 00 
    6a0f:	e8 0c b8 ff ff       	call   2220 <_gfortran_st_write@plt>
    6a14:	ba 04 00 00 00       	mov    $0x4,%edx
    6a19:	48 8d 35 b0 69 00 00 	lea    0x69b0(%rip),%rsi        # d3d0 <__ft_data_MOD_niter>
    6a20:	48 89 ef             	mov    %rbp,%rdi
    6a23:	e8 a8 b6 ff ff       	call   20d0 <_gfortran_transfer_integer_write@plt>
    6a28:	48 89 ef             	mov    %rbp,%rdi
    6a2b:	e8 80 b7 ff ff       	call   21b0 <_gfortran_st_write_done@plt>
    6a30:	48 89 ef             	mov    %rbp,%rdi
    6a33:	48 89 5c 24 18       	mov    %rbx,0x18(%rsp)
    6a38:	48 8d 05 09 20 00 00 	lea    0x2009(%rip),%rax        # 8a48 <options.171.0+0x258>
    6a3f:	48 89 44 24 60       	mov    %rax,0x60(%rsp)
    6a44:	4c 89 64 24 10       	mov    %r12,0x10(%rsp)
    6a49:	c7 44 24 20 52 01 00 	movl   $0x152,0x20(%rsp)
    6a50:	00 
    6a51:	48 c7 44 24 68 26 00 	movq   $0x26,0x68(%rsp)
    6a58:	00 00 
    6a5a:	e8 c1 b7 ff ff       	call   2220 <_gfortran_st_write@plt>
    6a5f:	31 c0                	xor    %eax,%eax
    6a61:	e8 8a b7 ff ff       	call   21f0 <omp_get_max_threads_@plt>
    6a66:	48 8d 74 24 0c       	lea    0xc(%rsp),%rsi
    6a6b:	ba 04 00 00 00       	mov    $0x4,%edx
    6a70:	48 89 ef             	mov    %rbp,%rdi
    6a73:	89 44 24 0c          	mov    %eax,0xc(%rsp)
    6a77:	e8 54 b6 ff ff       	call   20d0 <_gfortran_transfer_integer_write@plt>
    6a7c:	48 89 ef             	mov    %rbp,%rdi
    6a7f:	e8 2c b7 ff ff       	call   21b0 <_gfortran_st_write_done@plt>
    6a84:	48 8b 05 85 20 00 00 	mov    0x2085(%rip),%rax        # 8b10 <options.171.0+0x320>
    6a8b:	48 89 ef             	mov    %rbp,%rdi
    6a8e:	48 89 5c 24 18       	mov    %rbx,0x18(%rsp)
    6a93:	c7 44 24 20 53 01 00 	movl   $0x153,0x20(%rsp)
    6a9a:	00 
    6a9b:	48 89 44 24 10       	mov    %rax,0x10(%rsp)
    6aa0:	e8 7b b7 ff ff       	call   2220 <_gfortran_st_write@plt>
    6aa5:	48 89 ef             	mov    %rbp,%rdi
    6aa8:	e8 03 b7 ff ff       	call   21b0 <_gfortran_st_write_done@plt>
    6aad:	48 8b 05 84 20 00 00 	mov    0x2084(%rip),%rax        # 8b38 <options.171.0+0x348>
    6ab4:	c7 05 2a 69 00 00 00 	movl   $0x200,0x692a(%rip)        # d3e8 <__ft_data_MOD_dims+0x8>
    6abb:	02 00 00 
    6abe:	c7 05 10 69 00 00 20 	movl   $0x20,0x6910(%rip)        # d3d8 <__ft_data_MOD_fftblock>
    6ac5:	00 00 00 
    6ac8:	48 89 05 11 69 00 00 	mov    %rax,0x6911(%rip)        # d3e0 <__ft_data_MOD_dims>
    6acf:	c7 05 fb 68 00 00 22 	movl   $0x22,0x68fb(%rip)        # d3d4 <__ft_data_MOD_fftblockpad>
    6ad6:	00 00 00 
    6ad9:	48 81 c4 28 02 00 00 	add    $0x228,%rsp
    6ae0:	5b                   	pop    %rbx
    6ae1:	5d                   	pop    %rbp
    6ae2:	41 5c                	pop    %r12
    6ae4:	41 5d                	pop    %r13
    6ae6:	c3                   	ret    
    6ae7:	66 0f 1f 84 00 00 00 	nopw   0x0(%rax,%rax,1)
    6aee:	00 00 

0000000000006af0 <ilog2_>:
    6af0:	8b 17                	mov    (%rdi),%edx
    6af2:	45 31 c0             	xor    %r8d,%r8d
    6af5:	83 fa 01             	cmp    $0x1,%edx
    6af8:	74 20                	je     6b1a <ilog2_+0x2a>
    6afa:	83 fa 02             	cmp    $0x2,%edx
    6afd:	7e 21                	jle    6b20 <ilog2_+0x30>
    6aff:	b8 02 00 00 00       	mov    $0x2,%eax
    6b04:	41 b8 01 00 00 00    	mov    $0x1,%r8d
    6b0a:	66 0f 1f 44 00 00    	nopw   0x0(%rax,%rax,1)
    6b10:	01 c0                	add    %eax,%eax
    6b12:	41 83 c0 01          	add    $0x1,%r8d
    6b16:	39 c2                	cmp    %eax,%edx
    6b18:	7f f6                	jg     6b10 <ilog2_+0x20>
    6b1a:	44 89 c0             	mov    %r8d,%eax
    6b1d:	c3                   	ret    
    6b1e:	66 90                	xchg   %ax,%ax
    6b20:	41 b8 01 00 00 00    	mov    $0x1,%r8d
    6b26:	eb f2                	jmp    6b1a <ilog2_+0x2a>
    6b28:	0f 1f 84 00 00 00 00 	nopl   0x0(%rax,%rax,1)
    6b2f:	00 

0000000000006b30 <alloc_space_>:
    6b30:	55                   	push   %rbp
    6b31:	53                   	push   %rbx
    6b32:	48 bb 00 00 00 00 01 	movabs $0x40100000000,%rbx
    6b39:	04 00 00 
    6b3c:	48 81 ec 18 02 00 00 	sub    $0x218,%rsp
    6b43:	48 83 3d 15 46 00 00 	cmpq   $0x0,0x4615(%rip)        # b160 <__ft_fields_MOD_u0>
    6b4a:	00 
    6b4b:	48 c7 05 1a 46 00 00 	movq   $0x10,0x461a(%rip)        # b170 <__ft_fields_MOD_u0+0x10>
    6b52:	10 00 00 00 
    6b56:	48 89 1d 1b 46 00 00 	mov    %rbx,0x461b(%rip)        # b178 <__ft_fields_MOD_u0+0x18>
    6b5d:	0f 85 e7 01 00 00    	jne    6d4a <alloc_space_+0x21a>
    6b63:	bd 00 00 40 80       	mov    $0x80400000,%ebp
    6b68:	48 89 ef             	mov    %rbp,%rdi
    6b6b:	e8 40 b5 ff ff       	call   20b0 <malloc@plt>
    6b70:	66 0f 6f 05 18 20 00 	movdqa 0x2018(%rip),%xmm0        # 8b90 <options.171.0+0x3a0>
    6b77:	00 
    6b78:	48 c7 05 e5 45 00 00 	movq   $0xffffffffffffffff,0x45e5(%rip)        # b168 <__ft_fields_MOD_u0+0x8>
    6b7f:	ff ff ff ff 
    6b83:	48 89 05 d6 45 00 00 	mov    %rax,0x45d6(%rip)        # b160 <__ft_fields_MOD_u0>
    6b8a:	0f 29 05 ef 45 00 00 	movaps %xmm0,0x45ef(%rip)        # b180 <__ft_fields_MOD_u0+0x20>
    6b91:	48 85 c0             	test   %rax,%rax
    6b94:	0f 84 a1 01 00 00    	je     6d3b <alloc_space_+0x20b>
    6b9a:	66 0f 6f 15 fe 1f 00 	movdqa 0x1ffe(%rip),%xmm2        # 8ba0 <options.171.0+0x3b0>
    6ba1:	00 
    6ba2:	48 83 3d 76 46 00 00 	cmpq   $0x0,0x4676(%rip)        # b220 <__ft_fields_MOD_pad1>
    6ba9:	00 
    6baa:	48 c7 05 7b 46 00 00 	movq   $0x10,0x467b(%rip)        # b230 <__ft_fields_MOD_pad1+0x10>
    6bb1:	10 00 00 00 
    6bb5:	48 89 1d 7c 46 00 00 	mov    %rbx,0x467c(%rip)        # b238 <__ft_fields_MOD_pad1+0x18>
    6bbc:	0f 29 15 cd 45 00 00 	movaps %xmm2,0x45cd(%rip)        # b190 <__ft_fields_MOD_u0+0x30>
    6bc3:	0f 85 81 01 00 00    	jne    6d4a <alloc_space_+0x21a>
    6bc9:	bf 30 00 00 00       	mov    $0x30,%edi
    6bce:	e8 dd b4 ff ff       	call   20b0 <malloc@plt>
    6bd3:	66 0f 6f 05 b5 1f 00 	movdqa 0x1fb5(%rip),%xmm0        # 8b90 <options.171.0+0x3a0>
    6bda:	00 
    6bdb:	48 c7 05 42 46 00 00 	movq   $0xffffffffffffffff,0x4642(%rip)        # b228 <__ft_fields_MOD_pad1+0x8>
    6be2:	ff ff ff ff 
    6be6:	48 85 c0             	test   %rax,%rax
    6be9:	48 89 05 30 46 00 00 	mov    %rax,0x4630(%rip)        # b220 <__ft_fields_MOD_pad1>
    6bf0:	0f 29 05 49 46 00 00 	movaps %xmm0,0x4649(%rip)        # b240 <__ft_fields_MOD_pad1+0x20>
    6bf7:	0f 84 c0 01 00 00    	je     6dbd <alloc_space_+0x28d>
    6bfd:	66 0f 6f 0d ab 1f 00 	movdqa 0x1fab(%rip),%xmm1        # 8bb0 <options.171.0+0x3c0>
    6c04:	00 
    6c05:	48 83 3d 13 45 00 00 	cmpq   $0x0,0x4513(%rip)        # b120 <__ft_fields_MOD_u1>
    6c0c:	00 
    6c0d:	48 c7 05 18 45 00 00 	movq   $0x10,0x4518(%rip)        # b130 <__ft_fields_MOD_u1+0x10>
    6c14:	10 00 00 00 
    6c18:	48 89 1d 19 45 00 00 	mov    %rbx,0x4519(%rip)        # b138 <__ft_fields_MOD_u1+0x18>
    6c1f:	0f 29 0d 2a 46 00 00 	movaps %xmm1,0x462a(%rip)        # b250 <__ft_fields_MOD_pad1+0x30>
    6c26:	0f 85 1e 01 00 00    	jne    6d4a <alloc_space_+0x21a>
    6c2c:	48 89 ef             	mov    %rbp,%rdi
    6c2f:	e8 7c b4 ff ff       	call   20b0 <malloc@plt>
    6c34:	66 0f 6f 05 54 1f 00 	movdqa 0x1f54(%rip),%xmm0        # 8b90 <options.171.0+0x3a0>
    6c3b:	00 
    6c3c:	48 c7 05 e1 44 00 00 	movq   $0xffffffffffffffff,0x44e1(%rip)        # b128 <__ft_fields_MOD_u1+0x8>
    6c43:	ff ff ff ff 
    6c47:	48 85 c0             	test   %rax,%rax
    6c4a:	48 89 05 cf 44 00 00 	mov    %rax,0x44cf(%rip)        # b120 <__ft_fields_MOD_u1>
    6c51:	0f 29 05 e8 44 00 00 	movaps %xmm0,0x44e8(%rip)        # b140 <__ft_fields_MOD_u1+0x20>
    6c58:	0f 84 4e 01 00 00    	je     6dac <alloc_space_+0x27c>
    6c5e:	66 0f 6f 25 3a 1f 00 	movdqa 0x1f3a(%rip),%xmm4        # 8ba0 <options.171.0+0x3b0>
    6c65:	00 
    6c66:	48 83 3d 72 45 00 00 	cmpq   $0x0,0x4572(%rip)        # b1e0 <__ft_fields_MOD_pad2>
    6c6d:	00 
    6c6e:	48 c7 05 77 45 00 00 	movq   $0x10,0x4577(%rip)        # b1f0 <__ft_fields_MOD_pad2+0x10>
    6c75:	10 00 00 00 
    6c79:	48 89 1d 78 45 00 00 	mov    %rbx,0x4578(%rip)        # b1f8 <__ft_fields_MOD_pad2+0x18>
    6c80:	0f 29 25 c9 44 00 00 	movaps %xmm4,0x44c9(%rip)        # b150 <__ft_fields_MOD_u1+0x30>
    6c87:	0f 85 bd 00 00 00    	jne    6d4a <alloc_space_+0x21a>
    6c8d:	bf 30 00 00 00       	mov    $0x30,%edi
    6c92:	e8 19 b4 ff ff       	call   20b0 <malloc@plt>
    6c97:	66 0f 6f 05 f1 1e 00 	movdqa 0x1ef1(%rip),%xmm0        # 8b90 <options.171.0+0x3a0>
    6c9e:	00 
    6c9f:	66 0f 6f 0d 09 1f 00 	movdqa 0x1f09(%rip),%xmm1        # 8bb0 <options.171.0+0x3c0>
    6ca6:	00 
    6ca7:	48 c7 05 36 45 00 00 	movq   $0xffffffffffffffff,0x4536(%rip)        # b1e8 <__ft_fields_MOD_pad2+0x8>
    6cae:	ff ff ff ff 
    6cb2:	48 85 c0             	test   %rax,%rax
    6cb5:	48 89 05 24 45 00 00 	mov    %rax,0x4524(%rip)        # b1e0 <__ft_fields_MOD_pad2>
    6cbc:	0f 29 05 3d 45 00 00 	movaps %xmm0,0x453d(%rip)        # b200 <__ft_fields_MOD_pad2+0x20>
    6cc3:	0f 29 0d 46 45 00 00 	movaps %xmm1,0x4546(%rip)        # b210 <__ft_fields_MOD_pad2+0x30>
    6cca:	74 7e                	je     6d4a <alloc_space_+0x21a>
    6ccc:	48 b8 00 00 00 00 01 	movabs $0x30100000000,%rax
    6cd3:	03 00 00 
    6cd6:	48 83 3d c2 44 00 00 	cmpq   $0x0,0x44c2(%rip)        # b1a0 <__ft_fields_MOD_twiddle>
    6cdd:	00 
    6cde:	48 c7 05 c7 44 00 00 	movq   $0x8,0x44c7(%rip)        # b1b0 <__ft_fields_MOD_twiddle+0x10>
    6ce5:	08 00 00 00 
    6ce9:	48 89 05 c8 44 00 00 	mov    %rax,0x44c8(%rip)        # b1b8 <__ft_fields_MOD_twiddle+0x18>
    6cf0:	75 58                	jne    6d4a <alloc_space_+0x21a>
    6cf2:	bf 00 00 20 40       	mov    $0x40200000,%edi
    6cf7:	e8 b4 b3 ff ff       	call   20b0 <malloc@plt>
    6cfc:	66 0f 6f 05 bc 1e 00 	movdqa 0x1ebc(%rip),%xmm0        # 8bc0 <options.171.0+0x3d0>
    6d03:	00 
    6d04:	48 c7 05 99 44 00 00 	movq   $0xffffffffffffffff,0x4499(%rip)        # b1a8 <__ft_fields_MOD_twiddle+0x8>
    6d0b:	ff ff ff ff 
    6d0f:	48 89 05 8a 44 00 00 	mov    %rax,0x448a(%rip)        # b1a0 <__ft_fields_MOD_twiddle>
    6d16:	0f 29 05 a3 44 00 00 	movaps %xmm0,0x44a3(%rip)        # b1c0 <__ft_fields_MOD_twiddle+0x20>
    6d1d:	48 85 c0             	test   %rax,%rax
    6d20:	74 79                	je     6d9b <alloc_space_+0x26b>
    6d22:	66 0f 6f 1d 76 1e 00 	movdqa 0x1e76(%rip),%xmm3        # 8ba0 <options.171.0+0x3b0>
    6d29:	00 
    6d2a:	0f 29 1d 9f 44 00 00 	movaps %xmm3,0x449f(%rip)        # b1d0 <__ft_fields_MOD_twiddle+0x30>
    6d31:	48 81 c4 18 02 00 00 	add    $0x218,%rsp
    6d38:	5b                   	pop    %rbx
    6d39:	5d                   	pop    %rbp
    6d3a:	c3                   	ret    
    6d3b:	66 0f 6f 05 5d 1e 00 	movdqa 0x1e5d(%rip),%xmm0        # 8ba0 <options.171.0+0x3b0>
    6d42:	00 
    6d43:	0f 29 05 46 44 00 00 	movaps %xmm0,0x4446(%rip)        # b190 <__ft_fields_MOD_u0+0x30>
    6d4a:	48 8d 05 07 1e 00 00 	lea    0x1e07(%rip),%rax        # 8b58 <options.171.0+0x368>
    6d51:	48 89 e5             	mov    %rsp,%rbp
    6d54:	c7 44 24 10 b6 00 00 	movl   $0xb6,0x10(%rsp)
    6d5b:	00 
    6d5c:	48 89 44 24 08       	mov    %rax,0x8(%rsp)
    6d61:	48 8b 05 a8 1d 00 00 	mov    0x1da8(%rip),%rax        # 8b10 <options.171.0+0x320>
    6d68:	48 89 ef             	mov    %rbp,%rdi
    6d6b:	48 89 04 24          	mov    %rax,(%rsp)
    6d6f:	e8 ac b4 ff ff       	call   2220 <_gfortran_st_write@plt>
    6d74:	ba 25 00 00 00       	mov    $0x25,%edx
    6d79:	48 8d 35 e8 1d 00 00 	lea    0x1de8(%rip),%rsi        # 8b68 <options.171.0+0x378>
    6d80:	48 89 ef             	mov    %rbp,%rdi
    6d83:	e8 88 b3 ff ff       	call   2110 <_gfortran_transfer_character_write@plt>
    6d88:	48 89 ef             	mov    %rbp,%rdi
    6d8b:	e8 20 b4 ff ff       	call   21b0 <_gfortran_st_write_done@plt>
    6d90:	31 d2                	xor    %edx,%edx
    6d92:	31 f6                	xor    %esi,%esi
    6d94:	31 ff                	xor    %edi,%edi
    6d96:	e8 a5 b2 ff ff       	call   2040 <_gfortran_stop_string@plt>
    6d9b:	66 0f 6f 35 fd 1d 00 	movdqa 0x1dfd(%rip),%xmm6        # 8ba0 <options.171.0+0x3b0>
    6da2:	00 
    6da3:	0f 29 35 26 44 00 00 	movaps %xmm6,0x4426(%rip)        # b1d0 <__ft_fields_MOD_twiddle+0x30>
    6daa:	eb 9e                	jmp    6d4a <alloc_space_+0x21a>
    6dac:	66 0f 6f 2d ec 1d 00 	movdqa 0x1dec(%rip),%xmm5        # 8ba0 <options.171.0+0x3b0>
    6db3:	00 
    6db4:	0f 29 2d 95 43 00 00 	movaps %xmm5,0x4395(%rip)        # b150 <__ft_fields_MOD_u1+0x30>
    6dbb:	eb 8d                	jmp    6d4a <alloc_space_+0x21a>
    6dbd:	66 0f 6f 05 eb 1d 00 	movdqa 0x1deb(%rip),%xmm0        # 8bb0 <options.171.0+0x3c0>
    6dc4:	00 
    6dc5:	0f 29 05 84 44 00 00 	movaps %xmm0,0x4484(%rip)        # b250 <__ft_fields_MOD_pad1+0x30>
    6dcc:	e9 79 ff ff ff       	jmp    6d4a <alloc_space_+0x21a>
    6dd1:	66 2e 0f 1f 84 00 00 	cs nopw 0x0(%rax,%rax,1)
    6dd8:	00 00 00 
    6ddb:	0f 1f 44 00 00       	nopl   0x0(%rax,%rax,1)

0000000000006de0 <randlc_>:
    6de0:	f2 48 0f 2c 07       	cvttsd2si (%rdi),%rax
    6de5:	66 0f ef c0          	pxor   %xmm0,%xmm0
    6de9:	f2 48 0f 2c 16       	cvttsd2si (%rsi),%rdx
    6dee:	48 0f af c2          	imul   %rdx,%rax
    6df2:	48 ba ff ff ff ff ff 	movabs $0x3fffffffffff,%rdx
    6df9:	3f 00 00 
    6dfc:	48 21 d0             	and    %rdx,%rax
    6dff:	f2 48 0f 2a c0       	cvtsi2sd %rax,%xmm0
    6e04:	f2 0f 11 07          	movsd  %xmm0,(%rdi)
    6e08:	f2 0f 59 05 c0 1d 00 	mulsd  0x1dc0(%rip),%xmm0        # 8bd0 <options.171.0+0x3e0>
    6e0f:	00 
    6e10:	c3                   	ret    
    6e11:	66 66 2e 0f 1f 84 00 	data16 cs nopw 0x0(%rax,%rax,1)
    6e18:	00 00 00 00 
    6e1c:	0f 1f 40 00          	nopl   0x0(%rax)

0000000000006e20 <vranlc_>:
    6e20:	f2 48 0f 2c 06       	cvttsd2si (%rsi),%rax
    6e25:	49 89 f0             	mov    %rsi,%r8
    6e28:	8b 37                	mov    (%rdi),%esi
    6e2a:	f2 48 0f 2c 12       	cvttsd2si (%rdx),%rdx
    6e2f:	85 f6                	test   %esi,%esi
    6e31:	7e 4d                	jle    6e80 <vranlc_+0x60>
    6e33:	83 ee 01             	sub    $0x1,%esi
    6e36:	f2 0f 10 15 92 1d 00 	movsd  0x1d92(%rip),%xmm2        # 8bd0 <options.171.0+0x3e0>
    6e3d:	00 
    6e3e:	48 8d 7c f1 08       	lea    0x8(%rcx,%rsi,8),%rdi
    6e43:	48 be ff ff ff ff ff 	movabs $0x3fffffffffff,%rsi
    6e4a:	3f 00 00 
    6e4d:	0f 1f 00             	nopl   (%rax)
    6e50:	48 0f af c2          	imul   %rdx,%rax
    6e54:	66 0f ef c0          	pxor   %xmm0,%xmm0
    6e58:	48 83 c1 08          	add    $0x8,%rcx
    6e5c:	48 21 f0             	and    %rsi,%rax
    6e5f:	f2 48 0f 2a c0       	cvtsi2sd %rax,%xmm0
    6e64:	66 0f 28 c8          	movapd %xmm0,%xmm1
    6e68:	f2 0f 59 ca          	mulsd  %xmm2,%xmm1
    6e6c:	f2 0f 11 49 f8       	movsd  %xmm1,-0x8(%rcx)
    6e71:	48 39 cf             	cmp    %rcx,%rdi
    6e74:	75 da                	jne    6e50 <vranlc_+0x30>
    6e76:	f2 41 0f 11 00       	movsd  %xmm0,(%r8)
    6e7b:	c3                   	ret    
    6e7c:	0f 1f 40 00          	nopl   0x0(%rax)
    6e80:	66 0f ef c0          	pxor   %xmm0,%xmm0
    6e84:	f2 48 0f 2a c0       	cvtsi2sd %rax,%xmm0
    6e89:	f2 41 0f 11 00       	movsd  %xmm0,(%r8)
    6e8e:	c3                   	ret    
    6e8f:	90                   	nop

0000000000006e90 <print_results_._omp_fn.0>:
    6e90:	53                   	push   %rbx
    6e91:	48 89 fb             	mov    %rdi,%rbx
    6e94:	e8 57 b2 ff ff       	call   20f0 <omp_get_thread_num@plt>
    6e99:	85 c0                	test   %eax,%eax
    6e9b:	74 03                	je     6ea0 <print_results_._omp_fn.0+0x10>
    6e9d:	5b                   	pop    %rbx
    6e9e:	c3                   	ret    
    6e9f:	90                   	nop
    6ea0:	e8 9b b2 ff ff       	call   2140 <omp_get_num_threads_@plt>
    6ea5:	41 89 c0             	mov    %eax,%r8d
    6ea8:	48 8b 03             	mov    (%rbx),%rax
    6eab:	44 89 00             	mov    %r8d,(%rax)
    6eae:	5b                   	pop    %rbx
    6eaf:	c3                   	ret    

0000000000006eb0 <print_results_>:
    6eb0:	41 57                	push   %r15
    6eb2:	31 c0                	xor    %eax,%eax
    6eb4:	49 89 ff             	mov    %rdi,%r15
    6eb7:	41 56                	push   %r14
    6eb9:	49 89 ce             	mov    %rcx,%r14
    6ebc:	41 55                	push   %r13
    6ebe:	41 54                	push   %r12
    6ec0:	55                   	push   %rbp
    6ec1:	53                   	push   %rbx
    6ec2:	48 8d 1d 0f 1d 00 00 	lea    0x1d0f(%rip),%rbx        # 8bd8 <options.171.0+0x3e8>
    6ec9:	48 81 ec 68 02 00 00 	sub    $0x268,%rsp
    6ed0:	4c 89 44 24 08       	mov    %r8,0x8(%rsp)
    6ed5:	48 8d 6c 24 50       	lea    0x50(%rsp),%rbp
    6eda:	4c 89 4c 24 10       	mov    %r9,0x10(%rsp)
    6edf:	48 89 74 24 18       	mov    %rsi,0x18(%rsp)
    6ee4:	48 89 54 24 20       	mov    %rdx,0x20(%rsp)
    6ee9:	e8 02 b3 ff ff       	call   21f0 <omp_get_max_threads_@plt>
    6eee:	31 d2                	xor    %edx,%edx
    6ef0:	48 89 ee             	mov    %rbp,%rsi
    6ef3:	31 c9                	xor    %ecx,%ecx
    6ef5:	89 44 24 30          	mov    %eax,0x30(%rsp)
    6ef9:	48 8d 3d 90 ff ff ff 	lea    -0x70(%rip),%rdi        # 6e90 <print_results_._omp_fn.0>
    6f00:	41 89 c5             	mov    %eax,%r13d
    6f03:	48 8d 44 24 34       	lea    0x34(%rsp),%rax
    6f08:	48 89 44 24 28       	mov    %rax,0x28(%rsp)
    6f0d:	48 89 44 24 50       	mov    %rax,0x50(%rsp)
    6f12:	c7 44 24 34 00 00 00 	movl   $0x0,0x34(%rsp)
    6f19:	00 
    6f1a:	e8 81 b2 ff ff       	call   21a0 <GOMP_parallel@plt>
    6f1f:	4c 8b 25 d2 1b 00 00 	mov    0x1bd2(%rip),%r12        # 8af8 <options.171.0+0x308>
    6f26:	48 89 ef             	mov    %rbp,%rdi
    6f29:	48 8d 0d a0 1d 00 00 	lea    0x1da0(%rip),%rcx        # 8cd0 <options.171.0+0x4e0>
    6f30:	48 89 8c 24 a0 00 00 	mov    %rcx,0xa0(%rsp)
    6f37:	00 
    6f38:	48 89 5c 24 58       	mov    %rbx,0x58(%rsp)
    6f3d:	c7 44 24 60 20 00 00 	movl   $0x20,0x60(%rsp)
    6f44:	00 
    6f45:	48 c7 84 24 a8 00 00 	movq   $0x25,0xa8(%rsp)
    6f4c:	00 25 00 00 00 
    6f51:	4c 89 64 24 50       	mov    %r12,0x50(%rsp)
    6f56:	e8 c5 b2 ff ff       	call   2220 <_gfortran_st_write@plt>
    6f5b:	48 8b 94 24 08 03 00 	mov    0x308(%rsp),%rdx
    6f62:	00 
    6f63:	4c 89 fe             	mov    %r15,%rsi
    6f66:	48 89 ef             	mov    %rbp,%rdi
    6f69:	e8 a2 b1 ff ff       	call   2110 <_gfortran_transfer_character_write@plt>
    6f6e:	48 89 ef             	mov    %rbp,%rdi
    6f71:	e8 3a b2 ff ff       	call   21b0 <_gfortran_st_write_done@plt>
    6f76:	48 8d 0d 7b 1d 00 00 	lea    0x1d7b(%rip),%rcx        # 8cf8 <options.171.0+0x508>
    6f7d:	48 89 ef             	mov    %rbp,%rdi
    6f80:	48 89 5c 24 58       	mov    %rbx,0x58(%rsp)
    6f85:	48 89 8c 24 a0 00 00 	mov    %rcx,0xa0(%rsp)
    6f8c:	00 
    6f8d:	c7 44 24 60 23 00 00 	movl   $0x23,0x60(%rsp)
    6f94:	00 
    6f95:	48 c7 84 24 a8 00 00 	movq   $0x21,0xa8(%rsp)
    6f9c:	00 21 00 00 00 
    6fa1:	4c 89 64 24 50       	mov    %r12,0x50(%rsp)
    6fa6:	e8 75 b2 ff ff       	call   2220 <_gfortran_st_write@plt>
    6fab:	48 8b 74 24 18       	mov    0x18(%rsp),%rsi
    6fb0:	ba 01 00 00 00       	mov    $0x1,%edx
    6fb5:	48 89 ef             	mov    %rbp,%rdi
    6fb8:	e8 53 b1 ff ff       	call   2110 <_gfortran_transfer_character_write@plt>
    6fbd:	48 89 ef             	mov    %rbp,%rdi
    6fc0:	e8 eb b1 ff ff       	call   21b0 <_gfortran_st_write_done@plt>
    6fc5:	41 8b 3e             	mov    (%r14),%edi
    6fc8:	85 ff                	test   %edi,%edi
    6fca:	75 0f                	jne    6fdb <print_results_+0x12b>
    6fcc:	48 8b 44 24 08       	mov    0x8(%rsp),%rax
    6fd1:	8b 30                	mov    (%rax),%esi
    6fd3:	85 f6                	test   %esi,%esi
    6fd5:	0f 84 2d 07 00 00    	je     7708 <print_results_+0x858>
    6fdb:	48 8d 05 86 1d 00 00 	lea    0x1d86(%rip),%rax        # 8d68 <options.171.0+0x578>
    6fe2:	48 89 ef             	mov    %rbp,%rdi
    6fe5:	48 89 5c 24 58       	mov    %rbx,0x58(%rsp)
    6fea:	48 89 84 24 a0 00 00 	mov    %rax,0xa0(%rsp)
    6ff1:	00 
    6ff2:	c7 44 24 60 37 00 00 	movl   $0x37,0x60(%rsp)
    6ff9:	00 
    6ffa:	48 c7 84 24 a8 00 00 	movq   $0x2d,0xa8(%rsp)
    7001:	00 2d 00 00 00 
    7006:	4c 89 64 24 50       	mov    %r12,0x50(%rsp)
    700b:	e8 10 b2 ff ff       	call   2220 <_gfortran_st_write@plt>
    7010:	48 8b 74 24 20       	mov    0x20(%rsp),%rsi
    7015:	ba 04 00 00 00       	mov    $0x4,%edx
    701a:	48 89 ef             	mov    %rbp,%rdi
    701d:	e8 ae b0 ff ff       	call   20d0 <_gfortran_transfer_integer_write@plt>
    7022:	ba 04 00 00 00       	mov    $0x4,%edx
    7027:	4c 89 f6             	mov    %r14,%rsi
    702a:	48 89 ef             	mov    %rbp,%rdi
    702d:	e8 9e b0 ff ff       	call   20d0 <_gfortran_transfer_integer_write@plt>
    7032:	48 8b 74 24 08       	mov    0x8(%rsp),%rsi
    7037:	48 89 ef             	mov    %rbp,%rdi
    703a:	ba 04 00 00 00       	mov    $0x4,%edx
    703f:	e8 8c b0 ff ff       	call   20d0 <_gfortran_transfer_integer_write@plt>
    7044:	48 89 ef             	mov    %rbp,%rdi
    7047:	e8 64 b1 ff ff       	call   21b0 <_gfortran_st_write_done@plt>
    704c:	48 8d 05 45 1d 00 00 	lea    0x1d45(%rip),%rax        # 8d98 <options.171.0+0x5a8>
    7053:	48 89 ef             	mov    %rbp,%rdi
    7056:	48 89 5c 24 58       	mov    %rbx,0x58(%rsp)
    705b:	48 89 84 24 a0 00 00 	mov    %rax,0xa0(%rsp)
    7062:	00 
    7063:	c7 44 24 60 3b 00 00 	movl   $0x3b,0x60(%rsp)
    706a:	00 
    706b:	48 c7 84 24 a8 00 00 	movq   $0x21,0xa8(%rsp)
    7072:	00 21 00 00 00 
    7077:	4c 89 64 24 50       	mov    %r12,0x50(%rsp)
    707c:	e8 9f b1 ff ff       	call   2220 <_gfortran_st_write@plt>
    7081:	48 8b 74 24 10       	mov    0x10(%rsp),%rsi
    7086:	ba 04 00 00 00       	mov    $0x4,%edx
    708b:	48 89 ef             	mov    %rbp,%rdi
    708e:	e8 3d b0 ff ff       	call   20d0 <_gfortran_transfer_integer_write@plt>
    7093:	48 89 ef             	mov    %rbp,%rdi
    7096:	e8 15 b1 ff ff       	call   21b0 <_gfortran_st_write_done@plt>
    709b:	48 8d 05 1e 1d 00 00 	lea    0x1d1e(%rip),%rax        # 8dc0 <options.171.0+0x5d0>
    70a2:	48 89 ef             	mov    %rbp,%rdi
    70a5:	48 89 5c 24 58       	mov    %rbx,0x58(%rsp)
    70aa:	48 89 84 24 a0 00 00 	mov    %rax,0xa0(%rsp)
    70b1:	00 
    70b2:	c7 44 24 60 3e 00 00 	movl   $0x3e,0x60(%rsp)
    70b9:	00 
    70ba:	48 c7 84 24 a8 00 00 	movq   $0x22,0xa8(%rsp)
    70c1:	00 22 00 00 00 
    70c6:	4c 89 64 24 50       	mov    %r12,0x50(%rsp)
    70cb:	e8 50 b1 ff ff       	call   2220 <_gfortran_st_write@plt>
    70d0:	48 8b b4 24 a0 02 00 	mov    0x2a0(%rsp),%rsi
    70d7:	00 
    70d8:	ba 08 00 00 00       	mov    $0x8,%edx
    70dd:	48 89 ef             	mov    %rbp,%rdi
    70e0:	e8 4b af ff ff       	call   2030 <_gfortran_transfer_real_write@plt>
    70e5:	48 89 ef             	mov    %rbp,%rdi
    70e8:	e8 c3 b0 ff ff       	call   21b0 <_gfortran_st_write_done@plt>
    70ed:	8b 4c 24 34          	mov    0x34(%rsp),%ecx
    70f1:	85 c9                	test   %ecx,%ecx
    70f3:	7e 4f                	jle    7144 <print_results_+0x294>
    70f5:	48 8d 05 ec 1c 00 00 	lea    0x1cec(%rip),%rax        # 8de8 <options.171.0+0x5f8>
    70fc:	48 89 ef             	mov    %rbp,%rdi
    70ff:	48 89 5c 24 58       	mov    %rbx,0x58(%rsp)
    7104:	48 89 84 24 a0 00 00 	mov    %rax,0xa0(%rsp)
    710b:	00 
    710c:	c7 44 24 60 41 00 00 	movl   $0x41,0x60(%rsp)
    7113:	00 
    7114:	48 c7 84 24 a8 00 00 	movq   $0x21,0xa8(%rsp)
    711b:	00 21 00 00 00 
    7120:	4c 89 64 24 50       	mov    %r12,0x50(%rsp)
    7125:	e8 f6 b0 ff ff       	call   2220 <_gfortran_st_write@plt>
    712a:	48 8b 74 24 28       	mov    0x28(%rsp),%rsi
    712f:	48 89 ef             	mov    %rbp,%rdi
    7132:	ba 04 00 00 00       	mov    $0x4,%edx
    7137:	e8 94 af ff ff       	call   20d0 <_gfortran_transfer_integer_write@plt>
    713c:	48 89 ef             	mov    %rbp,%rdi
    713f:	e8 6c b0 ff ff       	call   21b0 <_gfortran_st_write_done@plt>
    7144:	45 85 ed             	test   %r13d,%r13d
    7147:	7e 4f                	jle    7198 <print_results_+0x2e8>
    7149:	48 8d 05 c0 1c 00 00 	lea    0x1cc0(%rip),%rax        # 8e10 <options.171.0+0x620>
    7150:	48 89 ef             	mov    %rbp,%rdi
    7153:	48 89 5c 24 58       	mov    %rbx,0x58(%rsp)
    7158:	48 89 84 24 a0 00 00 	mov    %rax,0xa0(%rsp)
    715f:	00 
    7160:	c7 44 24 60 44 00 00 	movl   $0x44,0x60(%rsp)
    7167:	00 
    7168:	48 c7 84 24 a8 00 00 	movq   $0x21,0xa8(%rsp)
    716f:	00 21 00 00 00 
    7174:	4c 89 64 24 50       	mov    %r12,0x50(%rsp)
    7179:	e8 a2 b0 ff ff       	call   2220 <_gfortran_st_write@plt>
    717e:	48 89 ef             	mov    %rbp,%rdi
    7181:	48 8d 74 24 30       	lea    0x30(%rsp),%rsi
    7186:	ba 04 00 00 00       	mov    $0x4,%edx
    718b:	e8 40 af ff ff       	call   20d0 <_gfortran_transfer_integer_write@plt>
    7190:	48 89 ef             	mov    %rbp,%rdi
    7193:	e8 18 b0 ff ff       	call   21b0 <_gfortran_st_write_done@plt>
    7198:	44 3b 6c 24 34       	cmp    0x34(%rsp),%r13d
    719d:	74 3d                	je     71dc <print_results_+0x32c>
    719f:	48 8d 05 92 1c 00 00 	lea    0x1c92(%rip),%rax        # 8e38 <options.171.0+0x648>
    71a6:	48 89 ef             	mov    %rbp,%rdi
    71a9:	48 89 5c 24 58       	mov    %rbx,0x58(%rsp)
    71ae:	c7 44 24 60 47 00 00 	movl   $0x47,0x60(%rsp)
    71b5:	00 
    71b6:	48 89 84 24 a0 00 00 	mov    %rax,0xa0(%rsp)
    71bd:	00 
    71be:	48 c7 84 24 a8 00 00 	movq   $0x38,0xa8(%rsp)
    71c5:	00 38 00 00 00 
    71ca:	4c 89 64 24 50       	mov    %r12,0x50(%rsp)
    71cf:	e8 4c b0 ff ff       	call   2220 <_gfortran_st_write@plt>
    71d4:	48 89 ef             	mov    %rbp,%rdi
    71d7:	e8 d4 af ff ff       	call   21b0 <_gfortran_st_write_done@plt>
    71dc:	48 8d 05 95 1c 00 00 	lea    0x1c95(%rip),%rax        # 8e78 <options.171.0+0x688>
    71e3:	48 89 ef             	mov    %rbp,%rdi
    71e6:	48 89 5c 24 58       	mov    %rbx,0x58(%rsp)
    71eb:	48 89 84 24 a0 00 00 	mov    %rax,0xa0(%rsp)
    71f2:	00 
    71f3:	c7 44 24 60 4a 00 00 	movl   $0x4a,0x60(%rsp)
    71fa:	00 
    71fb:	48 c7 84 24 a8 00 00 	movq   $0x22,0xa8(%rsp)
    7202:	00 22 00 00 00 
    7207:	4c 89 64 24 50       	mov    %r12,0x50(%rsp)
    720c:	e8 0f b0 ff ff       	call   2220 <_gfortran_st_write@plt>
    7211:	48 8b b4 24 a8 02 00 	mov    0x2a8(%rsp),%rsi
    7218:	00 
    7219:	ba 08 00 00 00       	mov    $0x8,%edx
    721e:	48 89 ef             	mov    %rbp,%rdi
    7221:	e8 0a ae ff ff       	call   2030 <_gfortran_transfer_real_write@plt>
    7226:	48 89 ef             	mov    %rbp,%rdi
    7229:	e8 82 af ff ff       	call   21b0 <_gfortran_st_write_done@plt>
    722e:	8b 54 24 34          	mov    0x34(%rsp),%edx
    7232:	85 d2                	test   %edx,%edx
    7234:	7e 73                	jle    72a9 <print_results_+0x3f9>
    7236:	48 8d 05 63 1c 00 00 	lea    0x1c63(%rip),%rax        # 8ea0 <options.171.0+0x6b0>
    723d:	48 89 ef             	mov    %rbp,%rdi
    7240:	48 89 5c 24 58       	mov    %rbx,0x58(%rsp)
    7245:	48 89 84 24 a0 00 00 	mov    %rax,0xa0(%rsp)
    724c:	00 
    724d:	c7 44 24 60 4d 00 00 	movl   $0x4d,0x60(%rsp)
    7254:	00 
    7255:	48 c7 84 24 a8 00 00 	movq   $0x23,0xa8(%rsp)
    725c:	00 23 00 00 00 
    7261:	4c 89 64 24 50       	mov    %r12,0x50(%rsp)
    7266:	e8 b5 af ff ff       	call   2220 <_gfortran_st_write@plt>
    726b:	66 0f ef c9          	pxor   %xmm1,%xmm1
    726f:	48 89 ef             	mov    %rbp,%rdi
    7272:	48 8b 84 24 a8 02 00 	mov    0x2a8(%rsp),%rax
    7279:	00 
    727a:	f3 0f 2a 4c 24 34    	cvtsi2ssl 0x34(%rsp),%xmm1
    7280:	48 8d 74 24 38       	lea    0x38(%rsp),%rsi
    7285:	ba 08 00 00 00       	mov    $0x8,%edx
    728a:	f2 0f 10 00          	movsd  (%rax),%xmm0
    728e:	f3 0f 5a c9          	cvtss2sd %xmm1,%xmm1
    7292:	f2 0f 5e c1          	divsd  %xmm1,%xmm0
    7296:	f2 0f 11 44 24 38    	movsd  %xmm0,0x38(%rsp)
    729c:	e8 8f ad ff ff       	call   2030 <_gfortran_transfer_real_write@plt>
    72a1:	48 89 ef             	mov    %rbp,%rdi
    72a4:	e8 07 af ff ff       	call   21b0 <_gfortran_st_write_done@plt>
    72a9:	48 8d 05 42 19 00 00 	lea    0x1942(%rip),%rax        # 8bf2 <options.171.0+0x402>
    72b0:	48 89 ef             	mov    %rbp,%rdi
    72b3:	48 89 5c 24 58       	mov    %rbx,0x58(%rsp)
    72b8:	48 89 84 24 a0 00 00 	mov    %rax,0xa0(%rsp)
    72bf:	00 
    72c0:	c7 44 24 60 50 00 00 	movl   $0x50,0x60(%rsp)
    72c7:	00 
    72c8:	48 c7 84 24 a8 00 00 	movq   $0x1c,0xa8(%rsp)
    72cf:	00 1c 00 00 00 
    72d4:	4c 89 64 24 50       	mov    %r12,0x50(%rsp)
    72d9:	e8 42 af ff ff       	call   2220 <_gfortran_st_write@plt>
    72de:	48 8b b4 24 b0 02 00 	mov    0x2b0(%rsp),%rsi
    72e5:	00 
    72e6:	ba 18 00 00 00       	mov    $0x18,%edx
    72eb:	48 89 ef             	mov    %rbp,%rdi
    72ee:	e8 1d ae ff ff       	call   2110 <_gfortran_transfer_character_write@plt>
    72f3:	48 89 ef             	mov    %rbp,%rdi
    72f6:	e8 b5 ae ff ff       	call   21b0 <_gfortran_st_write_done@plt>
    72fb:	48 8b 84 24 b8 02 00 	mov    0x2b8(%rsp),%rax
    7302:	00 
    7303:	48 89 5c 24 58       	mov    %rbx,0x58(%rsp)
    7308:	8b 00                	mov    (%rax),%eax
    730a:	85 c0                	test   %eax,%eax
    730c:	0f 84 9e 03 00 00    	je     76b0 <print_results_+0x800>
    7312:	48 8d 05 af 1b 00 00 	lea    0x1baf(%rip),%rax        # 8ec8 <options.171.0+0x6d8>
    7319:	48 89 ef             	mov    %rbp,%rdi
    731c:	c7 44 24 60 54 00 00 	movl   $0x54,0x60(%rsp)
    7323:	00 
    7324:	48 89 84 24 a0 00 00 	mov    %rax,0xa0(%rsp)
    732b:	00 
    732c:	48 c7 84 24 a8 00 00 	movq   $0x1f,0xa8(%rsp)
    7333:	00 1f 00 00 00 
    7338:	4c 89 64 24 50       	mov    %r12,0x50(%rsp)
    733d:	e8 de ae ff ff       	call   2220 <_gfortran_st_write@plt>
    7342:	48 89 ef             	mov    %rbp,%rdi
    7345:	ba 0c 00 00 00       	mov    $0xc,%edx
    734a:	48 8d 35 be 18 00 00 	lea    0x18be(%rip),%rsi        # 8c0f <options.171.0+0x41f>
    7351:	e8 ba ad ff ff       	call   2110 <_gfortran_transfer_character_write@plt>
    7356:	48 89 ef             	mov    %rbp,%rdi
    7359:	e8 52 ae ff ff       	call   21b0 <_gfortran_st_write_done@plt>
    735e:	48 8d 05 83 1b 00 00 	lea    0x1b83(%rip),%rax        # 8ee8 <options.171.0+0x6f8>
    7365:	48 89 ef             	mov    %rbp,%rdi
    7368:	48 89 5c 24 58       	mov    %rbx,0x58(%rsp)
    736d:	48 89 84 24 a0 00 00 	mov    %rax,0xa0(%rsp)
    7374:	00 
    7375:	4c 89 64 24 50       	mov    %r12,0x50(%rsp)
    737a:	c7 44 24 60 5a 00 00 	movl   $0x5a,0x60(%rsp)
    7381:	00 
    7382:	48 c7 84 24 a8 00 00 	movq   $0x21,0xa8(%rsp)
    7389:	00 21 00 00 00 
    738e:	e8 8d ae ff ff       	call   2220 <_gfortran_st_write@plt>
    7393:	48 8b 94 24 20 03 00 	mov    0x320(%rsp),%rdx
    739a:	00 
    739b:	48 8b b4 24 c0 02 00 	mov    0x2c0(%rsp),%rsi
    73a2:	00 
    73a3:	48 89 ef             	mov    %rbp,%rdi
    73a6:	e8 65 ad ff ff       	call   2110 <_gfortran_transfer_character_write@plt>
    73ab:	48 89 ef             	mov    %rbp,%rdi
    73ae:	e8 fd ad ff ff       	call   21b0 <_gfortran_st_write_done@plt>
    73b3:	48 8d 05 56 1b 00 00 	lea    0x1b56(%rip),%rax        # 8f10 <options.171.0+0x720>
    73ba:	48 89 ef             	mov    %rbp,%rdi
    73bd:	48 89 5c 24 58       	mov    %rbx,0x58(%rsp)
    73c2:	48 89 84 24 a0 00 00 	mov    %rax,0xa0(%rsp)
    73c9:	00 
    73ca:	4c 89 64 24 50       	mov    %r12,0x50(%rsp)
    73cf:	c7 44 24 60 5d 00 00 	movl   $0x5d,0x60(%rsp)
    73d6:	00 
    73d7:	48 c7 84 24 a8 00 00 	movq   $0x21,0xa8(%rsp)
    73de:	00 21 00 00 00 
    73e3:	e8 38 ae ff ff       	call   2220 <_gfortran_st_write@plt>
    73e8:	48 8b 94 24 28 03 00 	mov    0x328(%rsp),%rdx
    73ef:	00 
    73f0:	48 8b b4 24 c8 02 00 	mov    0x2c8(%rsp),%rsi
    73f7:	00 
    73f8:	48 89 ef             	mov    %rbp,%rdi
    73fb:	e8 10 ad ff ff       	call   2110 <_gfortran_transfer_character_write@plt>
    7400:	48 89 ef             	mov    %rbp,%rdi
    7403:	e8 a8 ad ff ff       	call   21b0 <_gfortran_st_write_done@plt>
    7408:	48 8d 05 29 1b 00 00 	lea    0x1b29(%rip),%rax        # 8f38 <options.171.0+0x748>
    740f:	48 89 ef             	mov    %rbp,%rdi
    7412:	48 89 5c 24 58       	mov    %rbx,0x58(%rsp)
    7417:	48 89 84 24 a0 00 00 	mov    %rax,0xa0(%rsp)
    741e:	00 
    741f:	4c 89 64 24 50       	mov    %r12,0x50(%rsp)
    7424:	c7 44 24 60 61 00 00 	movl   $0x61,0x60(%rsp)
    742b:	00 
    742c:	48 c7 84 24 a8 00 00 	movq   $0x40,0xa8(%rsp)
    7433:	00 40 00 00 00 
    7438:	e8 e3 ad ff ff       	call   2220 <_gfortran_st_write@plt>
    743d:	48 8b 94 24 30 03 00 	mov    0x330(%rsp),%rdx
    7444:	00 
    7445:	48 8b b4 24 d0 02 00 	mov    0x2d0(%rsp),%rsi
    744c:	00 
    744d:	48 89 ef             	mov    %rbp,%rdi
    7450:	e8 bb ac ff ff       	call   2110 <_gfortran_transfer_character_write@plt>
    7455:	48 89 ef             	mov    %rbp,%rdi
    7458:	e8 53 ad ff ff       	call   21b0 <_gfortran_st_write_done@plt>
    745d:	48 8d 05 c5 17 00 00 	lea    0x17c5(%rip),%rax        # 8c29 <options.171.0+0x439>
    7464:	48 89 ef             	mov    %rbp,%rdi
    7467:	48 89 5c 24 58       	mov    %rbx,0x58(%rsp)
    746c:	48 89 84 24 a0 00 00 	mov    %rax,0xa0(%rsp)
    7473:	00 
    7474:	4c 89 64 24 50       	mov    %r12,0x50(%rsp)
    7479:	c7 44 24 60 65 00 00 	movl   $0x65,0x60(%rsp)
    7480:	00 
    7481:	48 c7 84 24 a8 00 00 	movq   $0x1a,0xa8(%rsp)
    7488:	00 1a 00 00 00 
    748d:	e8 8e ad ff ff       	call   2220 <_gfortran_st_write@plt>
    7492:	48 8b 94 24 38 03 00 	mov    0x338(%rsp),%rdx
    7499:	00 
    749a:	48 8b b4 24 d8 02 00 	mov    0x2d8(%rsp),%rsi
    74a1:	00 
    74a2:	48 89 ef             	mov    %rbp,%rdi
    74a5:	e8 66 ac ff ff       	call   2110 <_gfortran_transfer_character_write@plt>
    74aa:	48 89 ef             	mov    %rbp,%rdi
    74ad:	e8 fe ac ff ff       	call   21b0 <_gfortran_st_write_done@plt>
    74b2:	48 8d 05 8b 17 00 00 	lea    0x178b(%rip),%rax        # 8c44 <options.171.0+0x454>
    74b9:	48 89 ef             	mov    %rbp,%rdi
    74bc:	48 89 5c 24 58       	mov    %rbx,0x58(%rsp)
    74c1:	48 89 84 24 a0 00 00 	mov    %rax,0xa0(%rsp)
    74c8:	00 
    74c9:	4c 89 64 24 50       	mov    %r12,0x50(%rsp)
    74ce:	c7 44 24 60 68 00 00 	movl   $0x68,0x60(%rsp)
    74d5:	00 
    74d6:	48 c7 84 24 a8 00 00 	movq   $0x1a,0xa8(%rsp)
    74dd:	00 1a 00 00 00 
    74e2:	e8 39 ad ff ff       	call   2220 <_gfortran_st_write@plt>
    74e7:	48 8b 94 24 40 03 00 	mov    0x340(%rsp),%rdx
    74ee:	00 
    74ef:	48 8b b4 24 e0 02 00 	mov    0x2e0(%rsp),%rsi
    74f6:	00 
    74f7:	48 89 ef             	mov    %rbp,%rdi
    74fa:	e8 11 ac ff ff       	call   2110 <_gfortran_transfer_character_write@plt>
    74ff:	48 89 ef             	mov    %rbp,%rdi
    7502:	e8 a9 ac ff ff       	call   21b0 <_gfortran_st_write_done@plt>
    7507:	48 8d 05 51 17 00 00 	lea    0x1751(%rip),%rax        # 8c5f <options.171.0+0x46f>
    750e:	48 89 ef             	mov    %rbp,%rdi
    7511:	48 89 5c 24 58       	mov    %rbx,0x58(%rsp)
    7516:	48 89 84 24 a0 00 00 	mov    %rax,0xa0(%rsp)
    751d:	00 
    751e:	4c 89 64 24 50       	mov    %r12,0x50(%rsp)
    7523:	c7 44 24 60 6b 00 00 	movl   $0x6b,0x60(%rsp)
    752a:	00 
    752b:	48 c7 84 24 a8 00 00 	movq   $0x1a,0xa8(%rsp)
    7532:	00 1a 00 00 00 
    7537:	e8 e4 ac ff ff       	call   2220 <_gfortran_st_write@plt>
    753c:	48 8b 94 24 48 03 00 	mov    0x348(%rsp),%rdx
    7543:	00 
    7544:	48 8b b4 24 e8 02 00 	mov    0x2e8(%rsp),%rsi
    754b:	00 
    754c:	48 89 ef             	mov    %rbp,%rdi
    754f:	e8 bc ab ff ff       	call   2110 <_gfortran_transfer_character_write@plt>
    7554:	48 89 ef             	mov    %rbp,%rdi
    7557:	e8 54 ac ff ff       	call   21b0 <_gfortran_st_write_done@plt>
    755c:	48 8d 05 17 17 00 00 	lea    0x1717(%rip),%rax        # 8c7a <options.171.0+0x48a>
    7563:	48 89 ef             	mov    %rbp,%rdi
    7566:	48 89 5c 24 58       	mov    %rbx,0x58(%rsp)
    756b:	48 89 84 24 a0 00 00 	mov    %rax,0xa0(%rsp)
    7572:	00 
    7573:	4c 89 64 24 50       	mov    %r12,0x50(%rsp)
    7578:	c7 44 24 60 6e 00 00 	movl   $0x6e,0x60(%rsp)
    757f:	00 
    7580:	48 c7 84 24 a8 00 00 	movq   $0x1a,0xa8(%rsp)
    7587:	00 1a 00 00 00 
    758c:	e8 8f ac ff ff       	call   2220 <_gfortran_st_write@plt>
    7591:	48 8b 94 24 50 03 00 	mov    0x350(%rsp),%rdx
    7598:	00 
    7599:	48 8b b4 24 f0 02 00 	mov    0x2f0(%rsp),%rsi
    75a0:	00 
    75a1:	48 89 ef             	mov    %rbp,%rdi
    75a4:	e8 67 ab ff ff       	call   2110 <_gfortran_transfer_character_write@plt>
    75a9:	48 89 ef             	mov    %rbp,%rdi
    75ac:	e8 ff ab ff ff       	call   21b0 <_gfortran_st_write_done@plt>
    75b1:	48 8d 05 dd 16 00 00 	lea    0x16dd(%rip),%rax        # 8c95 <options.171.0+0x4a5>
    75b8:	48 89 ef             	mov    %rbp,%rdi
    75bb:	48 89 5c 24 58       	mov    %rbx,0x58(%rsp)
    75c0:	48 89 84 24 a0 00 00 	mov    %rax,0xa0(%rsp)
    75c7:	00 
    75c8:	4c 89 64 24 50       	mov    %r12,0x50(%rsp)
    75cd:	c7 44 24 60 71 00 00 	movl   $0x71,0x60(%rsp)
    75d4:	00 
    75d5:	48 c7 84 24 a8 00 00 	movq   $0x1a,0xa8(%rsp)
    75dc:	00 1a 00 00 00 
    75e1:	e8 3a ac ff ff       	call   2220 <_gfortran_st_write@plt>
    75e6:	48 8b 94 24 58 03 00 	mov    0x358(%rsp),%rdx
    75ed:	00 
    75ee:	48 8b b4 24 f8 02 00 	mov    0x2f8(%rsp),%rsi
    75f5:	00 
    75f6:	48 89 ef             	mov    %rbp,%rdi
    75f9:	e8 12 ab ff ff       	call   2110 <_gfortran_transfer_character_write@plt>
    75fe:	48 89 ef             	mov    %rbp,%rdi
    7601:	e8 aa ab ff ff       	call   21b0 <_gfortran_st_write_done@plt>
    7606:	48 8d 05 a3 16 00 00 	lea    0x16a3(%rip),%rax        # 8cb0 <options.171.0+0x4c0>
    760d:	48 89 ef             	mov    %rbp,%rdi
    7610:	48 89 5c 24 58       	mov    %rbx,0x58(%rsp)
    7615:	48 89 84 24 a0 00 00 	mov    %rax,0xa0(%rsp)
    761c:	00 
    761d:	4c 89 64 24 50       	mov    %r12,0x50(%rsp)
    7622:	c7 44 24 60 74 00 00 	movl   $0x74,0x60(%rsp)
    7629:	00 
    762a:	48 c7 84 24 a8 00 00 	movq   $0x1a,0xa8(%rsp)
    7631:	00 1a 00 00 00 
    7636:	e8 e5 ab ff ff       	call   2220 <_gfortran_st_write@plt>
    763b:	48 8b 94 24 60 03 00 	mov    0x360(%rsp),%rdx
    7642:	00 
    7643:	48 8b b4 24 00 03 00 	mov    0x300(%rsp),%rsi
    764a:	00 
    764b:	48 89 ef             	mov    %rbp,%rdi
    764e:	e8 bd aa ff ff       	call   2110 <_gfortran_transfer_character_write@plt>
    7653:	48 89 ef             	mov    %rbp,%rdi
    7656:	e8 55 ab ff ff       	call   21b0 <_gfortran_st_write_done@plt>
    765b:	48 8d 05 1e 19 00 00 	lea    0x191e(%rip),%rax        # 8f80 <options.171.0+0x790>
    7662:	48 89 ef             	mov    %rbp,%rdi
    7665:	48 89 5c 24 58       	mov    %rbx,0x58(%rsp)
    766a:	48 89 84 24 a0 00 00 	mov    %rax,0xa0(%rsp)
    7671:	00 
    7672:	4c 89 64 24 50       	mov    %r12,0x50(%rsp)
    7677:	c7 44 24 60 77 00 00 	movl   $0x77,0x60(%rsp)
    767e:	00 
    767f:	48 c7 84 24 a8 00 00 	movq   $0x76,0xa8(%rsp)
    7686:	00 76 00 00 00 
    768b:	e8 90 ab ff ff       	call   2220 <_gfortran_st_write@plt>
    7690:	48 89 ef             	mov    %rbp,%rdi
    7693:	e8 18 ab ff ff       	call   21b0 <_gfortran_st_write_done@plt>
    7698:	48 81 c4 68 02 00 00 	add    $0x268,%rsp
    769f:	5b                   	pop    %rbx
    76a0:	5d                   	pop    %rbp
    76a1:	41 5c                	pop    %r12
    76a3:	41 5d                	pop    %r13
    76a5:	41 5e                	pop    %r14
    76a7:	41 5f                	pop    %r15
    76a9:	c3                   	ret    
    76aa:	66 0f 1f 44 00 00    	nopw   0x0(%rax,%rax,1)
    76b0:	48 8d 05 11 18 00 00 	lea    0x1811(%rip),%rax        # 8ec8 <options.171.0+0x6d8>
    76b7:	48 89 ef             	mov    %rbp,%rdi
    76ba:	c7 44 24 60 56 00 00 	movl   $0x56,0x60(%rsp)
    76c1:	00 
    76c2:	48 89 84 24 a0 00 00 	mov    %rax,0xa0(%rsp)
    76c9:	00 
    76ca:	48 c7 84 24 a8 00 00 	movq   $0x1f,0xa8(%rsp)
    76d1:	00 1f 00 00 00 
    76d6:	4c 89 64 24 50       	mov    %r12,0x50(%rsp)
    76db:	e8 40 ab ff ff       	call   2220 <_gfortran_st_write@plt>
    76e0:	48 89 ef             	mov    %rbp,%rdi
    76e3:	ba 0c 00 00 00       	mov    $0xc,%edx
    76e8:	48 8d 35 2d 15 00 00 	lea    0x152d(%rip),%rsi        # 8c1c <options.171.0+0x42c>
    76ef:	e8 1c aa ff ff       	call   2110 <_gfortran_transfer_character_write@plt>
    76f4:	48 89 ef             	mov    %rbp,%rdi
    76f7:	e8 b4 aa ff ff       	call   21b0 <_gfortran_st_write_done@plt>
    76fc:	e9 5d fc ff ff       	jmp    735e <print_results_+0x4ae>
    7701:	0f 1f 80 00 00 00 00 	nopl   0x0(%rax)
    7708:	66 41 81 3f 45 50    	cmpw   $0x5045,(%r15)
    770e:	48 89 5c 24 58       	mov    %rbx,0x58(%rsp)
    7713:	0f 85 f7 00 00 00    	jne    7810 <print_results_+0x960>
    7719:	48 8b 05 d8 18 00 00 	mov    0x18d8(%rip),%rax        # 8ff8 <options.171.0+0x808>
    7720:	48 8d 0d c3 14 00 00 	lea    0x14c3(%rip),%rcx        # 8bea <options.171.0+0x3fa>
    7727:	48 89 ef             	mov    %rbp,%rdi
    772a:	45 31 f6             	xor    %r14d,%r14d
    772d:	4c 8d 7c 24 41       	lea    0x41(%rsp),%r15
    7732:	48 89 8c 24 a0 00 00 	mov    %rcx,0xa0(%rsp)
    7739:	00 
    773a:	48 89 44 24 50       	mov    %rax,0x50(%rsp)
    773f:	c7 44 24 60 2d 00 00 	movl   $0x2d,0x60(%rsp)
    7746:	00 
    7747:	4c 89 bc 24 c0 00 00 	mov    %r15,0xc0(%rsp)
    774e:	00 
    774f:	48 c7 84 24 c8 00 00 	movq   $0xf,0xc8(%rsp)
    7756:	00 0f 00 00 00 
    775b:	48 c7 84 24 98 00 00 	movq   $0x0,0x98(%rsp)
    7762:	00 00 00 00 00 
    7767:	48 c7 84 24 a8 00 00 	movq   $0x7,0xa8(%rsp)
    776e:	00 07 00 00 00 
    7773:	e8 a8 aa ff ff       	call   2220 <_gfortran_st_write@plt>
    7778:	48 8b 44 24 20       	mov    0x20(%rsp),%rax
    777d:	f2 0f 10 05 7b 18 00 	movsd  0x187b(%rip),%xmm0        # 9000 <options.171.0+0x810>
    7784:	00 
    7785:	8b 38                	mov    (%rax),%edi
    7787:	e8 f4 a9 ff ff       	call   2180 <__powidf2@plt>
    778c:	48 8d 74 24 38       	lea    0x38(%rsp),%rsi
    7791:	ba 08 00 00 00       	mov    $0x8,%edx
    7796:	48 89 ef             	mov    %rbp,%rdi
    7799:	f2 0f 11 44 24 38    	movsd  %xmm0,0x38(%rsp)
    779f:	e8 8c a8 ff ff       	call   2030 <_gfortran_transfer_real_write@plt>
    77a4:	48 89 ef             	mov    %rbp,%rdi
    77a7:	e8 04 aa ff ff       	call   21b0 <_gfortran_st_write_done@plt>
    77ac:	80 7c 24 4f 2e       	cmpb   $0x2e,0x4f(%rsp)
    77b1:	48 89 ef             	mov    %rbp,%rdi
    77b4:	48 8d 05 65 15 00 00 	lea    0x1565(%rip),%rax        # 8d20 <options.171.0+0x530>
    77bb:	41 0f 95 c6          	setne  %r14b
    77bf:	48 89 84 24 a0 00 00 	mov    %rax,0xa0(%rsp)
    77c6:	00 
    77c7:	49 83 c6 0e          	add    $0xe,%r14
    77cb:	48 89 5c 24 58       	mov    %rbx,0x58(%rsp)
    77d0:	c7 44 24 60 30 00 00 	movl   $0x30,0x60(%rsp)
    77d7:	00 
    77d8:	48 c7 84 24 a8 00 00 	movq   $0x1f,0xa8(%rsp)
    77df:	00 1f 00 00 00 
    77e4:	4c 89 64 24 50       	mov    %r12,0x50(%rsp)
    77e9:	e8 32 aa ff ff       	call   2220 <_gfortran_st_write@plt>
    77ee:	48 89 ef             	mov    %rbp,%rdi
    77f1:	4c 89 f2             	mov    %r14,%rdx
    77f4:	4c 89 fe             	mov    %r15,%rsi
    77f7:	e8 14 a9 ff ff       	call   2110 <_gfortran_transfer_character_write@plt>
    77fc:	48 89 ef             	mov    %rbp,%rdi
    77ff:	e8 ac a9 ff ff       	call   21b0 <_gfortran_st_write_done@plt>
    7804:	e9 43 f8 ff ff       	jmp    704c <print_results_+0x19c>
    7809:	0f 1f 80 00 00 00 00 	nopl   0x0(%rax)
    7810:	48 8d 05 29 15 00 00 	lea    0x1529(%rip),%rax        # 8d40 <options.171.0+0x550>
    7817:	48 89 ef             	mov    %rbp,%rdi
    781a:	c7 44 24 60 33 00 00 	movl   $0x33,0x60(%rsp)
    7821:	00 
    7822:	48 89 84 24 a0 00 00 	mov    %rax,0xa0(%rsp)
    7829:	00 
    782a:	48 c7 84 24 a8 00 00 	movq   $0x20,0xa8(%rsp)
    7831:	00 20 00 00 00 
    7836:	4c 89 64 24 50       	mov    %r12,0x50(%rsp)
    783b:	e8 e0 a9 ff ff       	call   2220 <_gfortran_st_write@plt>
    7840:	48 8b 74 24 20       	mov    0x20(%rsp),%rsi
    7845:	48 89 ef             	mov    %rbp,%rdi
    7848:	ba 04 00 00 00       	mov    $0x4,%edx
    784d:	e8 7e a8 ff ff       	call   20d0 <_gfortran_transfer_integer_write@plt>
    7852:	48 89 ef             	mov    %rbp,%rdi
    7855:	e8 56 a9 ff ff       	call   21b0 <_gfortran_st_write_done@plt>
    785a:	e9 ed f7 ff ff       	jmp    704c <print_results_+0x19c>
    785f:	90                   	nop

0000000000007860 <timer_clear_>:
    7860:	48 63 07             	movslq (%rdi),%rax
    7863:	64 48 c7 04 c5 f8 fd 	movq   $0x0,%fs:-0x208(,%rax,8)
    786a:	ff ff 00 00 00 00 
    7870:	c3                   	ret    
    7871:	66 66 2e 0f 1f 84 00 	data16 cs nopw 0x0(%rax,%rax,1)
    7878:	00 00 00 00 
    787c:	0f 1f 40 00          	nopl   0x0(%rax)

0000000000007880 <timer_start_>:
    7880:	53                   	push   %rbx
    7881:	48 63 1f             	movslq (%rdi),%rbx
    7884:	31 c0                	xor    %eax,%eax
    7886:	48 83 eb 01          	sub    $0x1,%rbx
    788a:	e8 51 00 00 00       	call   78e0 <elapsed_time_>
    788f:	64 f2 0f 11 04 dd 00 	movsd  %xmm0,%fs:-0x400(,%rbx,8)
    7896:	fc ff ff 
    7899:	5b                   	pop    %rbx
    789a:	c3                   	ret    
    789b:	0f 1f 44 00 00       	nopl   0x0(%rax,%rax,1)

00000000000078a0 <timer_stop_>:
    78a0:	53                   	push   %rbx
    78a1:	31 c0                	xor    %eax,%eax
    78a3:	48 89 fb             	mov    %rdi,%rbx
    78a6:	e8 35 00 00 00       	call   78e0 <elapsed_time_>
    78ab:	48 63 03             	movslq (%rbx),%rax
    78ae:	64 f2 0f 5c 04 c5 f8 	subsd  %fs:-0x408(,%rax,8),%xmm0
    78b5:	fb ff ff 
    78b8:	64 f2 0f 58 04 c5 f8 	addsd  %fs:-0x208(,%rax,8),%xmm0
    78bf:	fd ff ff 
    78c2:	64 f2 0f 11 04 c5 f8 	movsd  %xmm0,%fs:-0x208(,%rax,8)
    78c9:	fd ff ff 
    78cc:	5b                   	pop    %rbx
    78cd:	c3                   	ret    
    78ce:	66 90                	xchg   %ax,%ax

00000000000078d0 <timer_read_>:
    78d0:	48 63 07             	movslq (%rdi),%rax
    78d3:	64 f2 0f 10 04 c5 f8 	movsd  %fs:-0x208(,%rax,8),%xmm0
    78da:	fd ff ff 
    78dd:	c3                   	ret    
    78de:	66 90                	xchg   %ax,%ax

00000000000078e0 <elapsed_time_>:
    78e0:	31 c0                	xor    %eax,%eax
    78e2:	e9 a9 a8 ff ff       	jmp    2190 <omp_get_wtime_@plt>
    78e7:	66 0f 1f 84 00 00 00 	nopw   0x0(%rax,%rax,1)
    78ee:	00 00 

00000000000078f0 <check_timer_flag_>:
    78f0:	41 55                	push   %r13
    78f2:	41 b9 0e 00 00 00    	mov    $0xe,%r9d
    78f8:	45 31 c0             	xor    %r8d,%r8d
    78fb:	31 c0                	xor    %eax,%eax
    78fd:	41 54                	push   %r12
    78ff:	55                   	push   %rbp
    7900:	53                   	push   %rbx
    7901:	48 89 fb             	mov    %rdi,%rbx
    7904:	48 81 ec 98 01 00 00 	sub    $0x198,%rsp
    790b:	c7 07 00 00 00 00    	movl   $0x0,(%rdi)
    7911:	48 8d 3d ff 16 00 00 	lea    0x16ff(%rip),%rdi        # 9017 <options.171.0+0x827>
    7918:	4c 8d 64 24 08       	lea    0x8(%rsp),%r12
    791d:	48 8d 54 24 0c       	lea    0xc(%rsp),%rdx
    7922:	48 8d 6c 24 10       	lea    0x10(%rsp),%rbp
    7927:	48 83 ec 08          	sub    $0x8,%rsp
    792b:	4c 89 e1             	mov    %r12,%rcx
    792e:	6a 14                	push   $0x14
    7930:	48 89 ee             	mov    %rbp,%rsi
    7933:	e8 f8 a7 ff ff       	call   2130 <_gfortran_get_environment_variable_i4@plt>
    7938:	59                   	pop    %rcx
    7939:	5e                   	pop    %rsi
    793a:	8b 7c 24 08          	mov    0x8(%rsp),%edi
    793e:	85 ff                	test   %edi,%edi
    7940:	75 2e                	jne    7970 <check_timer_flag_+0x80>
    7942:	8b 54 24 0c          	mov    0xc(%rsp),%edx
    7946:	85 d2                	test   %edx,%edx
    7948:	7e 10                	jle    795a <check_timer_flag_+0x6a>
    794a:	0f b6 44 24 10       	movzbl 0x10(%rsp),%eax
    794f:	83 e8 31             	sub    $0x31,%eax
    7952:	3c 08                	cmp    $0x8,%al
    7954:	0f 87 c6 00 00 00    	ja     7a20 <check_timer_flag_+0x130>
    795a:	c7 03 01 00 00 00    	movl   $0x1,(%rbx)
    7960:	48 81 c4 98 01 00 00 	add    $0x198,%rsp
    7967:	5b                   	pop    %rbx
    7968:	5d                   	pop    %rbp
    7969:	41 5c                	pop    %r12
    796b:	41 5d                	pop    %r13
    796d:	c3                   	ret    
    796e:	66 90                	xchg   %ax,%ax
    7970:	48 8d 05 9c 16 00 00 	lea    0x169c(%rip),%rax        # 9013 <options.171.0+0x823>
    7977:	48 8d 35 8a 16 00 00 	lea    0x168a(%rip),%rsi        # 9008 <options.171.0+0x818>
    797e:	c7 44 24 40 a2 00 00 	movl   $0xa2,0x40(%rsp)
    7985:	00 
    7986:	66 48 0f 6e c8       	movq   %rax,%xmm1
    798b:	66 48 0f 6e c6       	movq   %rsi,%xmm0
    7990:	48 8b 05 b9 16 00 00 	mov    0x16b9(%rip),%rax        # 9050 <options.171.0+0x860>
    7997:	48 8d 6c 24 30       	lea    0x30(%rsp),%rbp
    799c:	66 0f 6c c1          	punpcklqdq %xmm1,%xmm0
    79a0:	48 89 ef             	mov    %rbp,%rdi
    79a3:	4c 8d 2d 94 16 00 00 	lea    0x1694(%rip),%r13        # 903e <options.171.0+0x84e>
    79aa:	c7 44 24 08 00 00 00 	movl   $0x0,0x8(%rsp)
    79b1:	00 
    79b2:	48 89 44 24 30       	mov    %rax,0x30(%rsp)
    79b7:	4c 89 6c 24 38       	mov    %r13,0x38(%rsp)
    79bc:	4c 89 64 24 58       	mov    %r12,0x58(%rsp)
    79c1:	48 c7 44 24 68 0a 00 	movq   $0xa,0x68(%rsp)
    79c8:	00 00 
    79ca:	48 c7 84 24 80 00 00 	movq   $0x3,0x80(%rsp)
    79d1:	00 03 00 00 00 
    79d6:	c7 84 24 60 01 00 00 	movl   $0x0,0x160(%rsp)
    79dd:	00 00 00 00 
    79e1:	0f 29 44 24 70       	movaps %xmm0,0x70(%rsp)
    79e6:	e8 15 a7 ff ff       	call   2100 <_gfortran_st_open@plt>
    79eb:	8b 44 24 08          	mov    0x8(%rsp),%eax
    79ef:	85 c0                	test   %eax,%eax
    79f1:	0f 85 69 ff ff ff    	jne    7960 <check_timer_flag_+0x70>
    79f7:	48 8b 05 5a 16 00 00 	mov    0x165a(%rip),%rax        # 9058 <options.171.0+0x868>
    79fe:	48 89 ef             	mov    %rbp,%rdi
    7a01:	4c 89 6c 24 38       	mov    %r13,0x38(%rsp)
    7a06:	c7 44 24 40 a4 00 00 	movl   $0xa4,0x40(%rsp)
    7a0d:	00 
    7a0e:	48 89 44 24 30       	mov    %rax,0x30(%rsp)
    7a13:	e8 88 a6 ff ff       	call   20a0 <_gfortran_st_close@plt>
    7a18:	e9 3d ff ff ff       	jmp    795a <check_timer_flag_+0x6a>
    7a1d:	0f 1f 00             	nopl   (%rax)
    7a20:	48 8d 0d ff 15 00 00 	lea    0x15ff(%rip),%rcx        # 9026 <options.171.0+0x836>
    7a27:	ba 02 00 00 00       	mov    $0x2,%edx
    7a2c:	48 89 ee             	mov    %rbp,%rsi
    7a2f:	bf 14 00 00 00       	mov    $0x14,%edi
    7a34:	e8 27 a7 ff ff       	call   2160 <_gfortran_compare_string@plt>
    7a39:	85 c0                	test   %eax,%eax
    7a3b:	0f 84 19 ff ff ff    	je     795a <check_timer_flag_+0x6a>
    7a41:	48 8d 0d e1 15 00 00 	lea    0x15e1(%rip),%rcx        # 9029 <options.171.0+0x839>
    7a48:	ba 02 00 00 00       	mov    $0x2,%edx
    7a4d:	48 89 ee             	mov    %rbp,%rsi
    7a50:	bf 14 00 00 00       	mov    $0x14,%edi
    7a55:	e8 06 a7 ff ff       	call   2160 <_gfortran_compare_string@plt>
    7a5a:	85 c0                	test   %eax,%eax
    7a5c:	0f 84 f8 fe ff ff    	je     795a <check_timer_flag_+0x6a>
    7a62:	48 8d 0d c3 15 00 00 	lea    0x15c3(%rip),%rcx        # 902c <options.171.0+0x83c>
    7a69:	ba 03 00 00 00       	mov    $0x3,%edx
    7a6e:	48 89 ee             	mov    %rbp,%rsi
    7a71:	bf 14 00 00 00       	mov    $0x14,%edi
    7a76:	e8 e5 a6 ff ff       	call   2160 <_gfortran_compare_string@plt>
    7a7b:	85 c0                	test   %eax,%eax
    7a7d:	0f 84 d7 fe ff ff    	je     795a <check_timer_flag_+0x6a>
    7a83:	48 8d 0d a6 15 00 00 	lea    0x15a6(%rip),%rcx        # 9030 <options.171.0+0x840>
    7a8a:	ba 03 00 00 00       	mov    $0x3,%edx
    7a8f:	48 89 ee             	mov    %rbp,%rsi
    7a92:	bf 14 00 00 00       	mov    $0x14,%edi
    7a97:	e8 c4 a6 ff ff       	call   2160 <_gfortran_compare_string@plt>
    7a9c:	85 c0                	test   %eax,%eax
    7a9e:	0f 84 b6 fe ff ff    	je     795a <check_timer_flag_+0x6a>
    7aa4:	48 8d 0d 89 15 00 00 	lea    0x1589(%rip),%rcx        # 9034 <options.171.0+0x844>
    7aab:	ba 04 00 00 00       	mov    $0x4,%edx
    7ab0:	48 89 ee             	mov    %rbp,%rsi
    7ab3:	bf 14 00 00 00       	mov    $0x14,%edi
    7ab8:	e8 a3 a6 ff ff       	call   2160 <_gfortran_compare_string@plt>
    7abd:	85 c0                	test   %eax,%eax
    7abf:	0f 84 95 fe ff ff    	je     795a <check_timer_flag_+0x6a>
    7ac5:	48 8d 0d 6d 15 00 00 	lea    0x156d(%rip),%rcx        # 9039 <options.171.0+0x849>
    7acc:	ba 04 00 00 00       	mov    $0x4,%edx
    7ad1:	48 89 ee             	mov    %rbp,%rsi
    7ad4:	bf 14 00 00 00       	mov    $0x14,%edi
    7ad9:	e8 82 a6 ff ff       	call   2160 <_gfortran_compare_string@plt>
    7ade:	85 c0                	test   %eax,%eax
    7ae0:	0f 84 74 fe ff ff    	je     795a <check_timer_flag_+0x6a>
    7ae6:	e9 75 fe ff ff       	jmp    7960 <check_timer_flag_+0x70>
    7aeb:	0f 1f 44 00 00       	nopl   0x0(%rax,%rax,1)

0000000000007af0 <wtime_>:
    7af0:	f3 0f 1e fa          	endbr64 
    7af4:	53                   	push   %rbx
    7af5:	31 f6                	xor    %esi,%esi
    7af7:	48 89 fb             	mov    %rdi,%rbx
    7afa:	48 83 ec 20          	sub    $0x20,%rsp
    7afe:	64 48 8b 04 25 28 00 	mov    %fs:0x28,%rax
    7b05:	00 00 
    7b07:	48 89 44 24 18       	mov    %rax,0x18(%rsp)
    7b0c:	31 c0                	xor    %eax,%eax
    7b0e:	48 89 e7             	mov    %rsp,%rdi
    7b11:	e8 6a a5 ff ff       	call   2080 <gettimeofday@plt>
    7b16:	48 63 05 cb 35 00 00 	movslq 0x35cb(%rip),%rax        # b0e8 <sec.0>
    7b1d:	48 8b 14 24          	mov    (%rsp),%rdx
    7b21:	85 c0                	test   %eax,%eax
    7b23:	79 09                	jns    7b2e <wtime_+0x3e>
    7b25:	89 15 bd 35 00 00    	mov    %edx,0x35bd(%rip)        # b0e8 <sec.0>
    7b2b:	48 63 c2             	movslq %edx,%rax
    7b2e:	66 0f ef c0          	pxor   %xmm0,%xmm0
    7b32:	48 29 c2             	sub    %rax,%rdx
    7b35:	66 0f ef c9          	pxor   %xmm1,%xmm1
    7b39:	f2 48 0f 2a 44 24 08 	cvtsi2sdq 0x8(%rsp),%xmm0
    7b40:	f2 0f 59 05 18 15 00 	mulsd  0x1518(%rip),%xmm0        # 9060 <options.171.0+0x870>
    7b47:	00 
    7b48:	f2 48 0f 2a ca       	cvtsi2sd %rdx,%xmm1
    7b4d:	f2 0f 58 c1          	addsd  %xmm1,%xmm0
    7b51:	f2 0f 11 03          	movsd  %xmm0,(%rbx)
    7b55:	48 8b 44 24 18       	mov    0x18(%rsp),%rax
    7b5a:	64 48 2b 04 25 28 00 	sub    %fs:0x28,%rax
    7b61:	00 00 
    7b63:	75 06                	jne    7b6b <wtime_+0x7b>
    7b65:	48 83 c4 20          	add    $0x20,%rsp
    7b69:	5b                   	pop    %rbx
    7b6a:	c3                   	ret    
    7b6b:	e8 70 a6 ff ff       	call   21e0 <__stack_chk_fail@plt>

Disassembly of section .fini:

0000000000007b70 <_fini>:
    7b70:	f3 0f 1e fa          	endbr64 
    7b74:	48 83 ec 08          	sub    $0x8,%rsp
    7b78:	48 83 c4 08          	add    $0x8,%rsp
    7b7c:	c3                   	ret    
