
mg.D.x:     file format elf64-x86-64


Disassembly of section .init:

0000000000002000 <_init>:
    2000:	f3 0f 1e fa          	endbr64 
    2004:	48 83 ec 08          	sub    $0x8,%rsp
    2008:	48 8b 05 c1 ef 00 00 	mov    0xefc1(%rip),%rax        # 10fd0 <__gmon_start__@Base>
    200f:	48 85 c0             	test   %rax,%rax
    2012:	74 02                	je     2016 <_init+0x16>
    2014:	ff d0                	call   *%rax
    2016:	48 83 c4 08          	add    $0x8,%rsp
    201a:	c3                   	ret    

Disassembly of section .plt:

0000000000002020 <GOMP_loop_ordered_static_next@plt-0x10>:
    2020:	ff 35 62 ee 00 00    	push   0xee62(%rip)        # 10e88 <_GLOBAL_OFFSET_TABLE_+0x8>
    2026:	ff 25 64 ee 00 00    	jmp    *0xee64(%rip)        # 10e90 <_GLOBAL_OFFSET_TABLE_+0x10>
    202c:	0f 1f 40 00          	nopl   0x0(%rax)

0000000000002030 <GOMP_loop_ordered_static_next@plt>:
    2030:	ff 25 62 ee 00 00    	jmp    *0xee62(%rip)        # 10e98 <GOMP_loop_ordered_static_next@GOMP_1.0>
    2036:	68 00 00 00 00       	push   $0x0
    203b:	e9 e0 ff ff ff       	jmp    2020 <_init+0x20>

0000000000002040 <_gfortran_transfer_real_write@plt>:
    2040:	ff 25 5a ee 00 00    	jmp    *0xee5a(%rip)        # 10ea0 <_gfortran_transfer_real_write@GFORTRAN_8>
    2046:	68 01 00 00 00       	push   $0x1
    204b:	e9 d0 ff ff ff       	jmp    2020 <_init+0x20>

0000000000002050 <_gfortran_stop_string@plt>:
    2050:	ff 25 52 ee 00 00    	jmp    *0xee52(%rip)        # 10ea8 <_gfortran_stop_string@GFORTRAN_8>
    2056:	68 02 00 00 00       	push   $0x2
    205b:	e9 c0 ff ff ff       	jmp    2020 <_init+0x20>

0000000000002060 <memset@plt>:
    2060:	ff 25 4a ee 00 00    	jmp    *0xee4a(%rip)        # 10eb0 <memset@GLIBC_2.2.5>
    2066:	68 03 00 00 00       	push   $0x3
    206b:	e9 b0 ff ff ff       	jmp    2020 <_init+0x20>

0000000000002070 <omp_get_num_threads@plt>:
    2070:	ff 25 42 ee 00 00    	jmp    *0xee42(%rip)        # 10eb8 <omp_get_num_threads@OMP_1.0>
    2076:	68 04 00 00 00       	push   $0x4
    207b:	e9 a0 ff ff ff       	jmp    2020 <_init+0x20>

0000000000002080 <_gfortran_st_read_done@plt>:
    2080:	ff 25 3a ee 00 00    	jmp    *0xee3a(%rip)        # 10ec0 <_gfortran_st_read_done@GFORTRAN_8>
    2086:	68 05 00 00 00       	push   $0x5
    208b:	e9 90 ff ff ff       	jmp    2020 <_init+0x20>

0000000000002090 <gettimeofday@plt>:
    2090:	ff 25 32 ee 00 00    	jmp    *0xee32(%rip)        # 10ec8 <gettimeofday@GLIBC_2.2.5>
    2096:	68 06 00 00 00       	push   $0x6
    209b:	e9 80 ff ff ff       	jmp    2020 <_init+0x20>

00000000000020a0 <_gfortran_ieee_procedure_entry@plt>:
    20a0:	ff 25 2a ee 00 00    	jmp    *0xee2a(%rip)        # 10ed0 <_gfortran_ieee_procedure_entry@GFORTRAN_8>
    20a6:	68 07 00 00 00       	push   $0x7
    20ab:	e9 70 ff ff ff       	jmp    2020 <_init+0x20>

00000000000020b0 <_gfortran_st_close@plt>:
    20b0:	ff 25 22 ee 00 00    	jmp    *0xee22(%rip)        # 10ed8 <_gfortran_st_close@GFORTRAN_8>
    20b6:	68 08 00 00 00       	push   $0x8
    20bb:	e9 60 ff ff ff       	jmp    2020 <_init+0x20>

00000000000020c0 <malloc@plt>:
    20c0:	ff 25 1a ee 00 00    	jmp    *0xee1a(%rip)        # 10ee0 <malloc@GLIBC_2.2.5>
    20c6:	68 09 00 00 00       	push   $0x9
    20cb:	e9 50 ff ff ff       	jmp    2020 <_init+0x20>

00000000000020d0 <_gfortran_ieee_procedure_exit@plt>:
    20d0:	ff 25 12 ee 00 00    	jmp    *0xee12(%rip)        # 10ee8 <_gfortran_ieee_procedure_exit@GFORTRAN_8>
    20d6:	68 0a 00 00 00       	push   $0xa
    20db:	e9 40 ff ff ff       	jmp    2020 <_init+0x20>

00000000000020e0 <GOMP_loop_end@plt>:
    20e0:	ff 25 0a ee 00 00    	jmp    *0xee0a(%rip)        # 10ef0 <GOMP_loop_end@GOMP_1.0>
    20e6:	68 0b 00 00 00       	push   $0xb
    20eb:	e9 30 ff ff ff       	jmp    2020 <_init+0x20>

00000000000020f0 <_gfortran_transfer_integer_write@plt>:
    20f0:	ff 25 02 ee 00 00    	jmp    *0xee02(%rip)        # 10ef8 <_gfortran_transfer_integer_write@GFORTRAN_8>
    20f6:	68 0c 00 00 00       	push   $0xc
    20fb:	e9 20 ff ff ff       	jmp    2020 <_init+0x20>

0000000000002100 <omp_get_thread_num@plt>:
    2100:	ff 25 fa ed 00 00    	jmp    *0xedfa(%rip)        # 10f00 <omp_get_thread_num@OMP_1.0>
    2106:	68 0d 00 00 00       	push   $0xd
    210b:	e9 10 ff ff ff       	jmp    2020 <_init+0x20>

0000000000002110 <_gfortran_transfer_integer@plt>:
    2110:	ff 25 f2 ed 00 00    	jmp    *0xedf2(%rip)        # 10f08 <_gfortran_transfer_integer@GFORTRAN_8>
    2116:	68 0e 00 00 00       	push   $0xe
    211b:	e9 00 ff ff ff       	jmp    2020 <_init+0x20>

0000000000002120 <_gfortran_st_open@plt>:
    2120:	ff 25 ea ed 00 00    	jmp    *0xedea(%rip)        # 10f10 <_gfortran_st_open@GFORTRAN_8>
    2126:	68 0f 00 00 00       	push   $0xf
    212b:	e9 f0 fe ff ff       	jmp    2020 <_init+0x20>

0000000000002130 <_gfortran_transfer_character_write@plt>:
    2130:	ff 25 e2 ed 00 00    	jmp    *0xede2(%rip)        # 10f18 <_gfortran_transfer_character_write@GFORTRAN_8>
    2136:	68 10 00 00 00       	push   $0x10
    213b:	e9 e0 fe ff ff       	jmp    2020 <_init+0x20>

0000000000002140 <GOMP_ordered_end@plt>:
    2140:	ff 25 da ed 00 00    	jmp    *0xedda(%rip)        # 10f20 <GOMP_ordered_end@GOMP_1.0>
    2146:	68 11 00 00 00       	push   $0x11
    214b:	e9 d0 fe ff ff       	jmp    2020 <_init+0x20>

0000000000002150 <GOMP_atomic_end@plt>:
    2150:	ff 25 d2 ed 00 00    	jmp    *0xedd2(%rip)        # 10f28 <GOMP_atomic_end@GOMP_1.0>
    2156:	68 12 00 00 00       	push   $0x12
    215b:	e9 c0 fe ff ff       	jmp    2020 <_init+0x20>

0000000000002160 <_gfortran_get_environment_variable_i4@plt>:
    2160:	ff 25 ca ed 00 00    	jmp    *0xedca(%rip)        # 10f30 <_gfortran_get_environment_variable_i4@GFORTRAN_8>
    2166:	68 13 00 00 00       	push   $0x13
    216b:	e9 b0 fe ff ff       	jmp    2020 <_init+0x20>

0000000000002170 <omp_get_num_threads_@plt>:
    2170:	ff 25 c2 ed 00 00    	jmp    *0xedc2(%rip)        # 10f38 <omp_get_num_threads_@OMP_1.0>
    2176:	68 14 00 00 00       	push   $0x14
    217b:	e9 a0 fe ff ff       	jmp    2020 <_init+0x20>

0000000000002180 <GOMP_loop_ordered_static_start@plt>:
    2180:	ff 25 ba ed 00 00    	jmp    *0xedba(%rip)        # 10f40 <GOMP_loop_ordered_static_start@GOMP_1.0>
    2186:	68 15 00 00 00       	push   $0x15
    218b:	e9 90 fe ff ff       	jmp    2020 <_init+0x20>

0000000000002190 <GOMP_barrier@plt>:
    2190:	ff 25 b2 ed 00 00    	jmp    *0xedb2(%rip)        # 10f48 <GOMP_barrier@GOMP_1.0>
    2196:	68 16 00 00 00       	push   $0x16
    219b:	e9 80 fe ff ff       	jmp    2020 <_init+0x20>

00000000000021a0 <GOMP_ordered_start@plt>:
    21a0:	ff 25 aa ed 00 00    	jmp    *0xedaa(%rip)        # 10f50 <GOMP_ordered_start@GOMP_1.0>
    21a6:	68 17 00 00 00       	push   $0x17
    21ab:	e9 70 fe ff ff       	jmp    2020 <_init+0x20>

00000000000021b0 <_gfortran_compare_string@plt>:
    21b0:	ff 25 a2 ed 00 00    	jmp    *0xeda2(%rip)        # 10f58 <_gfortran_compare_string@GFORTRAN_8>
    21b6:	68 18 00 00 00       	push   $0x18
    21bb:	e9 60 fe ff ff       	jmp    2020 <_init+0x20>

00000000000021c0 <GOMP_atomic_start@plt>:
    21c0:	ff 25 9a ed 00 00    	jmp    *0xed9a(%rip)        # 10f60 <GOMP_atomic_start@GOMP_1.0>
    21c6:	68 19 00 00 00       	push   $0x19
    21cb:	e9 50 fe ff ff       	jmp    2020 <_init+0x20>

00000000000021d0 <_gfortran_st_read@plt>:
    21d0:	ff 25 92 ed 00 00    	jmp    *0xed92(%rip)        # 10f68 <_gfortran_st_read@GFORTRAN_8>
    21d6:	68 1a 00 00 00       	push   $0x1a
    21db:	e9 40 fe ff ff       	jmp    2020 <_init+0x20>

00000000000021e0 <__powidf2@plt>:
    21e0:	ff 25 8a ed 00 00    	jmp    *0xed8a(%rip)        # 10f70 <__powidf2@GCC_4.0.0>
    21e6:	68 1b 00 00 00       	push   $0x1b
    21eb:	e9 30 fe ff ff       	jmp    2020 <_init+0x20>

00000000000021f0 <omp_get_wtime_@plt>:
    21f0:	ff 25 82 ed 00 00    	jmp    *0xed82(%rip)        # 10f78 <omp_get_wtime_@OMP_2.0>
    21f6:	68 1c 00 00 00       	push   $0x1c
    21fb:	e9 20 fe ff ff       	jmp    2020 <_init+0x20>

0000000000002200 <GOMP_parallel@plt>:
    2200:	ff 25 7a ed 00 00    	jmp    *0xed7a(%rip)        # 10f80 <GOMP_parallel@GOMP_4.0>
    2206:	68 1d 00 00 00       	push   $0x1d
    220b:	e9 10 fe ff ff       	jmp    2020 <_init+0x20>

0000000000002210 <_gfortran_st_write_done@plt>:
    2210:	ff 25 72 ed 00 00    	jmp    *0xed72(%rip)        # 10f88 <_gfortran_st_write_done@GFORTRAN_8>
    2216:	68 1e 00 00 00       	push   $0x1e
    221b:	e9 00 fe ff ff       	jmp    2020 <_init+0x20>

0000000000002220 <_gfortran_transfer_array_write@plt>:
    2220:	ff 25 6a ed 00 00    	jmp    *0xed6a(%rip)        # 10f90 <_gfortran_transfer_array_write@GFORTRAN_8>
    2226:	68 1f 00 00 00       	push   $0x1f
    222b:	e9 f0 fd ff ff       	jmp    2020 <_init+0x20>

0000000000002230 <__stack_chk_fail@plt>:
    2230:	ff 25 62 ed 00 00    	jmp    *0xed62(%rip)        # 10f98 <__stack_chk_fail@GLIBC_2.4>
    2236:	68 20 00 00 00       	push   $0x20
    223b:	e9 e0 fd ff ff       	jmp    2020 <_init+0x20>

0000000000002240 <omp_get_max_threads_@plt>:
    2240:	ff 25 5a ed 00 00    	jmp    *0xed5a(%rip)        # 10fa0 <omp_get_max_threads_@OMP_1.0>
    2246:	68 21 00 00 00       	push   $0x21
    224b:	e9 d0 fd ff ff       	jmp    2020 <_init+0x20>

0000000000002250 <omp_get_thread_num_@plt>:
    2250:	ff 25 52 ed 00 00    	jmp    *0xed52(%rip)        # 10fa8 <omp_get_thread_num_@OMP_1.0>
    2256:	68 22 00 00 00       	push   $0x22
    225b:	e9 c0 fd ff ff       	jmp    2020 <_init+0x20>

0000000000002260 <_gfortran_set_options@plt>:
    2260:	ff 25 4a ed 00 00    	jmp    *0xed4a(%rip)        # 10fb0 <_gfortran_set_options@GFORTRAN_8>
    2266:	68 23 00 00 00       	push   $0x23
    226b:	e9 b0 fd ff ff       	jmp    2020 <_init+0x20>

0000000000002270 <_gfortran_set_args@plt>:
    2270:	ff 25 42 ed 00 00    	jmp    *0xed42(%rip)        # 10fb8 <_gfortran_set_args@GFORTRAN_8>
    2276:	68 24 00 00 00       	push   $0x24
    227b:	e9 a0 fd ff ff       	jmp    2020 <_init+0x20>

0000000000002280 <_gfortran_st_write@plt>:
    2280:	ff 25 3a ed 00 00    	jmp    *0xed3a(%rip)        # 10fc0 <_gfortran_st_write@GFORTRAN_8>
    2286:	68 25 00 00 00       	push   $0x25
    228b:	e9 90 fd ff ff       	jmp    2020 <_init+0x20>

0000000000002290 <_gfortran_transfer_array@plt>:
    2290:	ff 25 32 ed 00 00    	jmp    *0xed32(%rip)        # 10fc8 <_gfortran_transfer_array@GFORTRAN_8>
    2296:	68 26 00 00 00       	push   $0x26
    229b:	e9 80 fd ff ff       	jmp    2020 <_init+0x20>

Disassembly of section .plt.got:

00000000000022a0 <__cxa_finalize@plt>:
    22a0:	ff 25 42 ed 00 00    	jmp    *0xed42(%rip)        # 10fe8 <__cxa_finalize@GLIBC_2.2.5>
    22a6:	66 90                	xchg   %ax,%ax

Disassembly of section .text:

00000000000022b0 <main>:
    22b0:	48 83 ec 08          	sub    $0x8,%rsp
    22b4:	e8 b7 ff ff ff       	call   2270 <_gfortran_set_args@plt>
    22b9:	48 8d 35 e0 bd 00 00 	lea    0xbde0(%rip),%rsi        # e0a0 <options.163.0>
    22c0:	bf 07 00 00 00       	mov    $0x7,%edi
    22c5:	e8 96 ff ff ff       	call   2260 <_gfortran_set_options@plt>
    22ca:	e8 a1 85 00 00       	call   a870 <MAIN__>
    22cf:	31 c0                	xor    %eax,%eax
    22d1:	48 83 c4 08          	add    $0x8,%rsp
    22d5:	c3                   	ret    
    22d6:	66 2e 0f 1f 84 00 00 	cs nopw 0x0(%rax,%rax,1)
    22dd:	00 00 00 

00000000000022e0 <_start>:
    22e0:	f3 0f 1e fa          	endbr64 
    22e4:	31 ed                	xor    %ebp,%ebp
    22e6:	49 89 d1             	mov    %rdx,%r9
    22e9:	5e                   	pop    %rsi
    22ea:	48 89 e2             	mov    %rsp,%rdx
    22ed:	48 83 e4 f0          	and    $0xfffffffffffffff0,%rsp
    22f1:	50                   	push   %rax
    22f2:	54                   	push   %rsp
    22f3:	45 31 c0             	xor    %r8d,%r8d
    22f6:	31 c9                	xor    %ecx,%ecx
    22f8:	48 8d 3d b1 ff ff ff 	lea    -0x4f(%rip),%rdi        # 22b0 <main>
    22ff:	ff 15 eb ec 00 00    	call   *0xeceb(%rip)        # 10ff0 <__libc_start_main@GLIBC_2.34>
    2305:	f4                   	hlt    
    2306:	66 2e 0f 1f 84 00 00 	cs nopw 0x0(%rax,%rax,1)
    230d:	00 00 00 

0000000000002310 <deregister_tm_clones>:
    2310:	48 8d 3d 01 ed 00 00 	lea    0xed01(%rip),%rdi        # 11018 <__TMC_END__>
    2317:	48 8d 05 fa ec 00 00 	lea    0xecfa(%rip),%rax        # 11018 <__TMC_END__>
    231e:	48 39 f8             	cmp    %rdi,%rax
    2321:	74 15                	je     2338 <deregister_tm_clones+0x28>
    2323:	48 8b 05 ae ec 00 00 	mov    0xecae(%rip),%rax        # 10fd8 <_ITM_deregisterTMCloneTable@Base>
    232a:	48 85 c0             	test   %rax,%rax
    232d:	74 09                	je     2338 <deregister_tm_clones+0x28>
    232f:	ff e0                	jmp    *%rax
    2331:	0f 1f 80 00 00 00 00 	nopl   0x0(%rax)
    2338:	c3                   	ret    
    2339:	0f 1f 80 00 00 00 00 	nopl   0x0(%rax)

0000000000002340 <register_tm_clones>:
    2340:	48 8d 3d d1 ec 00 00 	lea    0xecd1(%rip),%rdi        # 11018 <__TMC_END__>
    2347:	48 8d 35 ca ec 00 00 	lea    0xecca(%rip),%rsi        # 11018 <__TMC_END__>
    234e:	48 29 fe             	sub    %rdi,%rsi
    2351:	48 89 f0             	mov    %rsi,%rax
    2354:	48 c1 ee 3f          	shr    $0x3f,%rsi
    2358:	48 c1 f8 03          	sar    $0x3,%rax
    235c:	48 01 c6             	add    %rax,%rsi
    235f:	48 d1 fe             	sar    %rsi
    2362:	74 14                	je     2378 <register_tm_clones+0x38>
    2364:	48 8b 05 75 ec 00 00 	mov    0xec75(%rip),%rax        # 10fe0 <_ITM_registerTMCloneTable@Base>
    236b:	48 85 c0             	test   %rax,%rax
    236e:	74 08                	je     2378 <register_tm_clones+0x38>
    2370:	ff e0                	jmp    *%rax
    2372:	66 0f 1f 44 00 00    	nopw   0x0(%rax,%rax,1)
    2378:	c3                   	ret    
    2379:	0f 1f 80 00 00 00 00 	nopl   0x0(%rax)

0000000000002380 <__do_global_dtors_aux>:
    2380:	f3 0f 1e fa          	endbr64 
    2384:	80 3d 95 ec 00 00 00 	cmpb   $0x0,0xec95(%rip)        # 11020 <completed.0>
    238b:	75 2b                	jne    23b8 <__do_global_dtors_aux+0x38>
    238d:	55                   	push   %rbp
    238e:	48 83 3d 52 ec 00 00 	cmpq   $0x0,0xec52(%rip)        # 10fe8 <__cxa_finalize@GLIBC_2.2.5>
    2395:	00 
    2396:	48 89 e5             	mov    %rsp,%rbp
    2399:	74 0c                	je     23a7 <__do_global_dtors_aux+0x27>
    239b:	48 8b 3d 66 ec 00 00 	mov    0xec66(%rip),%rdi        # 11008 <__dso_handle>
    23a2:	e8 f9 fe ff ff       	call   22a0 <__cxa_finalize@plt>
    23a7:	e8 64 ff ff ff       	call   2310 <deregister_tm_clones>
    23ac:	c6 05 6d ec 00 00 01 	movb   $0x1,0xec6d(%rip)        # 11020 <completed.0>
    23b3:	5d                   	pop    %rbp
    23b4:	c3                   	ret    
    23b5:	0f 1f 00             	nopl   (%rax)
    23b8:	c3                   	ret    
    23b9:	0f 1f 80 00 00 00 00 	nopl   0x0(%rax)

00000000000023c0 <frame_dummy>:
    23c0:	f3 0f 1e fa          	endbr64 
    23c4:	e9 77 ff ff ff       	jmp    2340 <register_tm_clones>
    23c9:	0f 1f 80 00 00 00 00 	nopl   0x0(%rax)

00000000000023d0 <norm2u3_._omp_fn.0>:
    23d0:	41 57                	push   %r15
    23d2:	41 56                	push   %r14
    23d4:	41 55                	push   %r13
    23d6:	41 54                	push   %r12
    23d8:	55                   	push   %rbp
    23d9:	53                   	push   %rbx
    23da:	48 89 fb             	mov    %rdi,%rbx
    23dd:	48 83 ec 28          	sub    $0x28,%rsp
    23e1:	44 8b 67 38          	mov    0x38(%rdi),%r12d
    23e5:	8b 6f 3c             	mov    0x3c(%rdi),%ebp
    23e8:	41 83 fc 01          	cmp    $0x1,%r12d
    23ec:	0f 8e 8e 01 00 00    	jle    2580 <norm2u3_._omp_fn.0+0x1b0>
    23f2:	41 83 ec 01          	sub    $0x1,%r12d
    23f6:	83 fd 01             	cmp    $0x1,%ebp
    23f9:	0f 8e 81 01 00 00    	jle    2580 <norm2u3_._omp_fn.0+0x1b0>
    23ff:	e8 6c fc ff ff       	call   2070 <omp_get_num_threads@plt>
    2404:	44 8d 75 ff          	lea    -0x1(%rbp),%r14d
    2408:	41 89 c5             	mov    %eax,%r13d
    240b:	e8 f0 fc ff ff       	call   2100 <omp_get_thread_num@plt>
    2410:	45 89 e0             	mov    %r12d,%r8d
    2413:	31 d2                	xor    %edx,%edx
    2415:	45 0f af c6          	imul   %r14d,%r8d
    2419:	89 c7                	mov    %eax,%edi
    241b:	44 89 c0             	mov    %r8d,%eax
    241e:	41 f7 f5             	div    %r13d
    2421:	41 89 c0             	mov    %eax,%r8d
    2424:	39 d7                	cmp    %edx,%edi
    2426:	0f 82 c5 01 00 00    	jb     25f1 <norm2u3_._omp_fn.0+0x221>
    242c:	41 0f af f8          	imul   %r8d,%edi
    2430:	8d 04 17             	lea    (%rdi,%rdx,1),%eax
    2433:	41 8d 14 00          	lea    (%r8,%rax,1),%edx
    2437:	39 d0                	cmp    %edx,%eax
    2439:	0f 83 41 01 00 00    	jae    2580 <norm2u3_._omp_fn.0+0x1b0>
    243f:	31 d2                	xor    %edx,%edx
    2441:	48 8b 7b 18          	mov    0x18(%rbx),%rdi
    2445:	4c 8b 63 20          	mov    0x20(%rbx),%r12
    2449:	48 89 5c 24 18       	mov    %rbx,0x18(%rsp)
    244e:	4c 8b 7b 10          	mov    0x10(%rbx),%r15
    2452:	48 8b 0b             	mov    (%rbx),%rcx
    2455:	41 83 e8 01          	sub    $0x1,%r8d
    2459:	45 31 c9             	xor    %r9d,%r9d
    245c:	41 f7 f6             	div    %r14d
    245f:	48 89 3c 24          	mov    %rdi,(%rsp)
    2463:	f2 0f 10 15 ad c0 00 	movsd  0xc0ad(%rip),%xmm2        # e518 <options.163.0+0x478>
    246a:	00 
    246b:	f3 0f 7e 2d 6d c1 00 	movq   0xc16d(%rip),%xmm5        # e5e0 <options.163.0+0x540>
    2472:	00 
    2473:	66 0f 28 35 55 c1 00 	movapd 0xc155(%rip),%xmm6        # e5d0 <options.163.0+0x530>
    247a:	00 
    247b:	66 0f ef c0          	pxor   %xmm0,%xmm0
    247f:	4d 8d 74 24 02       	lea    0x2(%r12),%r14
    2484:	8d 78 02             	lea    0x2(%rax),%edi
    2487:	48 8b 43 08          	mov    0x8(%rbx),%rax
    248b:	8d 72 02             	lea    0x2(%rdx),%esi
    248e:	4c 89 fb             	mov    %r15,%rbx
    2491:	44 8b 10             	mov    (%rax),%r10d
    2494:	45 8d 6a fe          	lea    -0x2(%r10),%r13d
    2498:	44 89 e8             	mov    %r13d,%eax
    249b:	d1 e8                	shr    %eax
    249d:	44 8d 58 ff          	lea    -0x1(%rax),%r11d
    24a1:	44 89 e8             	mov    %r13d,%eax
    24a4:	83 e0 fe             	and    $0xfffffffe,%eax
    24a7:	49 83 c3 01          	add    $0x1,%r11
    24ab:	89 44 24 08          	mov    %eax,0x8(%rsp)
    24af:	83 c0 02             	add    $0x2,%eax
    24b2:	49 c1 e3 04          	shl    $0x4,%r11
    24b6:	89 44 24 14          	mov    %eax,0x14(%rsp)
    24ba:	66 0f 1f 44 00 00    	nopw   0x0(%rax,%rax,1)
    24c0:	41 83 fa 02          	cmp    $0x2,%r10d
    24c4:	0f 8e 97 00 00 00    	jle    2561 <norm2u3_._omp_fn.0+0x191>
    24ca:	48 63 c7             	movslq %edi,%rax
    24cd:	48 0f af 04 24       	imul   (%rsp),%rax
    24d2:	4c 63 fe             	movslq %esi,%r15
    24d5:	4c 0f af fb          	imul   %rbx,%r15
    24d9:	49 8d 14 04          	lea    (%r12,%rax,1),%rdx
    24dd:	4c 01 fa             	add    %r15,%rdx
    24e0:	41 83 fa 03          	cmp    $0x3,%r10d
    24e4:	0f 84 fd 00 00 00    	je     25e7 <norm2u3_._omp_fn.0+0x217>
    24ea:	4c 01 f0             	add    %r14,%rax
    24ed:	66 0f 28 da          	movapd %xmm2,%xmm3
    24f1:	4c 01 f8             	add    %r15,%rax
    24f4:	66 0f 14 db          	unpcklpd %xmm3,%xmm3
    24f8:	48 8d 04 c1          	lea    (%rcx,%rax,8),%rax
    24fc:	4d 8d 3c 03          	lea    (%r11,%rax,1),%r15
    2500:	66 0f 10 10          	movupd (%rax),%xmm2
    2504:	48 83 c0 10          	add    $0x10,%rax
    2508:	66 0f 28 e2          	movapd %xmm2,%xmm4
    250c:	66 0f 59 e2          	mulpd  %xmm2,%xmm4
    2510:	66 0f 54 d6          	andpd  %xmm6,%xmm2
    2514:	66 0f 5f da          	maxpd  %xmm2,%xmm3
    2518:	f2 0f 58 c4          	addsd  %xmm4,%xmm0
    251c:	66 0f 15 e4          	unpckhpd %xmm4,%xmm4
    2520:	f2 0f 58 c4          	addsd  %xmm4,%xmm0
    2524:	49 39 c7             	cmp    %rax,%r15
    2527:	75 d7                	jne    2500 <norm2u3_._omp_fn.0+0x130>
    2529:	66 0f 28 cb          	movapd %xmm3,%xmm1
    252d:	66 0f 15 cb          	unpckhpd %xmm3,%xmm1
    2531:	66 0f 5f cb          	maxpd  %xmm3,%xmm1
    2535:	66 0f 28 d1          	movapd %xmm1,%xmm2
    2539:	44 39 6c 24 08       	cmp    %r13d,0x8(%rsp)
    253e:	74 21                	je     2561 <norm2u3_._omp_fn.0+0x191>
    2540:	48 63 44 24 14       	movslq 0x14(%rsp),%rax
    2545:	48 01 d0             	add    %rdx,%rax
    2548:	f2 0f 10 0c c1       	movsd  (%rcx,%rax,8),%xmm1
    254d:	66 0f 28 d9          	movapd %xmm1,%xmm3
    2551:	f2 0f 59 d9          	mulsd  %xmm1,%xmm3
    2555:	66 0f 54 cd          	andpd  %xmm5,%xmm1
    2559:	f2 0f 5f d1          	maxsd  %xmm1,%xmm2
    255d:	f2 0f 58 c3          	addsd  %xmm3,%xmm0
    2561:	45 39 c1             	cmp    %r8d,%r9d
    2564:	74 7a                	je     25e0 <norm2u3_._omp_fn.0+0x210>
    2566:	8d 46 01             	lea    0x1(%rsi),%eax
    2569:	39 ee                	cmp    %ebp,%esi
    256b:	7d 63                	jge    25d0 <norm2u3_._omp_fn.0+0x200>
    256d:	41 83 c1 01          	add    $0x1,%r9d
    2571:	89 c6                	mov    %eax,%esi
    2573:	e9 48 ff ff ff       	jmp    24c0 <norm2u3_._omp_fn.0+0xf0>
    2578:	0f 1f 84 00 00 00 00 	nopl   0x0(%rax,%rax,1)
    257f:	00 
    2580:	f2 0f 10 15 90 bf 00 	movsd  0xbf90(%rip),%xmm2        # e518 <options.163.0+0x478>
    2587:	00 
    2588:	66 0f ef c0          	pxor   %xmm0,%xmm0
    258c:	f2 0f 11 54 24 08    	movsd  %xmm2,0x8(%rsp)
    2592:	f2 0f 11 04 24       	movsd  %xmm0,(%rsp)
    2597:	e8 24 fc ff ff       	call   21c0 <GOMP_atomic_start@plt>
    259c:	48 8b 43 28          	mov    0x28(%rbx),%rax
    25a0:	f2 0f 10 04 24       	movsd  (%rsp),%xmm0
    25a5:	f2 0f 10 54 24 08    	movsd  0x8(%rsp),%xmm2
    25ab:	f2 0f 58 43 30       	addsd  0x30(%rbx),%xmm0
    25b0:	f2 0f 5f 10          	maxsd  (%rax),%xmm2
    25b4:	f2 0f 11 43 30       	movsd  %xmm0,0x30(%rbx)
    25b9:	f2 0f 11 10          	movsd  %xmm2,(%rax)
    25bd:	48 83 c4 28          	add    $0x28,%rsp
    25c1:	5b                   	pop    %rbx
    25c2:	5d                   	pop    %rbp
    25c3:	41 5c                	pop    %r12
    25c5:	41 5d                	pop    %r13
    25c7:	41 5e                	pop    %r14
    25c9:	41 5f                	pop    %r15
    25cb:	e9 80 fb ff ff       	jmp    2150 <GOMP_atomic_end@plt>
    25d0:	83 c7 01             	add    $0x1,%edi
    25d3:	b8 02 00 00 00       	mov    $0x2,%eax
    25d8:	eb 93                	jmp    256d <norm2u3_._omp_fn.0+0x19d>
    25da:	66 0f 1f 44 00 00    	nopw   0x0(%rax,%rax,1)
    25e0:	48 8b 5c 24 18       	mov    0x18(%rsp),%rbx
    25e5:	eb a5                	jmp    258c <norm2u3_._omp_fn.0+0x1bc>
    25e7:	b8 02 00 00 00       	mov    $0x2,%eax
    25ec:	e9 54 ff ff ff       	jmp    2545 <norm2u3_._omp_fn.0+0x175>
    25f1:	41 83 c0 01          	add    $0x1,%r8d
    25f5:	31 d2                	xor    %edx,%edx
    25f7:	e9 30 fe ff ff       	jmp    242c <norm2u3_._omp_fn.0+0x5c>
    25fc:	0f 1f 40 00          	nopl   0x0(%rax)

0000000000002600 <resid_._omp_fn.0>:
    2600:	41 57                	push   %r15
    2602:	41 56                	push   %r14
    2604:	41 55                	push   %r13
    2606:	41 54                	push   %r12
    2608:	55                   	push   %rbp
    2609:	53                   	push   %rbx
    260a:	48 81 ec 78 41 00 00 	sub    $0x4178,%rsp
    2611:	8b 47 74             	mov    0x74(%rdi),%eax
    2614:	44 8b 67 70          	mov    0x70(%rdi),%r12d
    2618:	89 84 24 a4 00 00 00 	mov    %eax,0xa4(%rsp)
    261f:	41 83 fc 01          	cmp    $0x1,%r12d
    2623:	0f 8e 87 06 00 00    	jle    2cb0 <resid_._omp_fn.0+0x6b0>
    2629:	41 83 ec 01          	sub    $0x1,%r12d
    262d:	83 f8 01             	cmp    $0x1,%eax
    2630:	0f 8e 7a 06 00 00    	jle    2cb0 <resid_._omp_fn.0+0x6b0>
    2636:	48 89 fb             	mov    %rdi,%rbx
    2639:	8d 68 ff             	lea    -0x1(%rax),%ebp
    263c:	e8 2f fa ff ff       	call   2070 <omp_get_num_threads@plt>
    2641:	41 89 c5             	mov    %eax,%r13d
    2644:	e8 b7 fa ff ff       	call   2100 <omp_get_thread_num@plt>
    2649:	31 d2                	xor    %edx,%edx
    264b:	89 c6                	mov    %eax,%esi
    264d:	44 89 e0             	mov    %r12d,%eax
    2650:	0f af c5             	imul   %ebp,%eax
    2653:	41 f7 f5             	div    %r13d
    2656:	89 c1                	mov    %eax,%ecx
    2658:	39 d6                	cmp    %edx,%esi
    265a:	0f 82 2c 08 00 00    	jb     2e8c <resid_._omp_fn.0+0x88c>
    2660:	89 f0                	mov    %esi,%eax
    2662:	0f af c1             	imul   %ecx,%eax
    2665:	01 d0                	add    %edx,%eax
    2667:	8d 14 01             	lea    (%rcx,%rax,1),%edx
    266a:	39 d0                	cmp    %edx,%eax
    266c:	0f 83 3e 06 00 00    	jae    2cb0 <resid_._omp_fn.0+0x6b0>
    2672:	48 8b 53 38          	mov    0x38(%rbx),%rdx
    2676:	48 8b 73 68          	mov    0x68(%rbx),%rsi
    267a:	48 8b 7b 40          	mov    0x40(%rbx),%rdi
    267e:	4c 8b 63 20          	mov    0x20(%rbx),%r12
    2682:	48 89 54 24 70       	mov    %rdx,0x70(%rsp)
    2687:	48 8b 53 30          	mov    0x30(%rbx),%rdx
    268b:	48 89 b4 24 b8 00 00 	mov    %rsi,0xb8(%rsp)
    2692:	00 
    2693:	48 8b 73 60          	mov    0x60(%rbx),%rsi
    2697:	48 89 94 24 d0 00 00 	mov    %rdx,0xd0(%rsp)
    269e:	00 
    269f:	48 8b 53 28          	mov    0x28(%rbx),%rdx
    26a3:	48 89 b4 24 c0 00 00 	mov    %rsi,0xc0(%rsp)
    26aa:	00 
    26ab:	48 8b 73 58          	mov    0x58(%rbx),%rsi
    26af:	48 89 94 24 d8 00 00 	mov    %rdx,0xd8(%rsp)
    26b6:	00 
    26b7:	31 d2                	xor    %edx,%edx
    26b9:	4c 8b 3b             	mov    (%rbx),%r15
    26bc:	f7 f5                	div    %ebp
    26be:	48 89 b4 24 c8 00 00 	mov    %rsi,0xc8(%rsp)
    26c5:	00 
    26c6:	48 8b 73 50          	mov    0x50(%rbx),%rsi
    26ca:	48 89 7c 24 68       	mov    %rdi,0x68(%rsp)
    26cf:	48 89 74 24 58       	mov    %rsi,0x58(%rsp)
    26d4:	48 8b 73 48          	mov    0x48(%rbx),%rsi
    26d8:	48 89 74 24 60       	mov    %rsi,0x60(%rsp)
    26dd:	83 c0 02             	add    $0x2,%eax
    26e0:	83 c2 02             	add    $0x2,%edx
    26e3:	89 84 24 a0 00 00 00 	mov    %eax,0xa0(%rsp)
    26ea:	48 8b 43 18          	mov    0x18(%rbx),%rax
    26ee:	89 54 24 54          	mov    %edx,0x54(%rsp)
    26f2:	48 8b 53 08          	mov    0x8(%rbx),%rdx
    26f6:	48 8b 5b 10          	mov    0x10(%rbx),%rbx
    26fa:	8b 00                	mov    (%rax),%eax
    26fc:	48 89 54 24 40       	mov    %rdx,0x40(%rsp)
    2701:	48 89 5c 24 38       	mov    %rbx,0x38(%rsp)
    2706:	8d 59 ff             	lea    -0x1(%rcx),%ebx
    2709:	89 44 24 50          	mov    %eax,0x50(%rsp)
    270d:	89 9c 24 9c 00 00 00 	mov    %ebx,0x9c(%rsp)
    2714:	89 c3                	mov    %eax,%ebx
    2716:	d1 e8                	shr    %eax
    2718:	83 e8 01             	sub    $0x1,%eax
    271b:	8d 4b fe             	lea    -0x2(%rbx),%ecx
    271e:	48 83 c0 01          	add    $0x1,%rax
    2722:	48 c1 e0 04          	shl    $0x4,%rax
    2726:	48 89 84 24 00 01 00 	mov    %rax,0x100(%rsp)
    272d:	00 
    272e:	89 d8                	mov    %ebx,%eax
    2730:	83 e0 fe             	and    $0xfffffffe,%eax
    2733:	89 84 24 10 01 00 00 	mov    %eax,0x110(%rsp)
    273a:	89 d8                	mov    %ebx,%eax
    273c:	83 c8 01             	or     $0x1,%eax
    273f:	89 84 24 24 01 00 00 	mov    %eax,0x124(%rsp)
    2746:	89 c8                	mov    %ecx,%eax
    2748:	d1 e8                	shr    %eax
    274a:	89 8c 24 20 01 00 00 	mov    %ecx,0x120(%rsp)
    2751:	c7 84 24 98 00 00 00 	movl   $0x0,0x98(%rsp)
    2758:	00 00 00 00 
    275c:	83 e8 01             	sub    $0x1,%eax
    275f:	48 83 c0 01          	add    $0x1,%rax
    2763:	48 c1 e0 04          	shl    $0x4,%rax
    2767:	48 89 84 24 08 01 00 	mov    %rax,0x108(%rsp)
    276e:	00 
    276f:	89 c8                	mov    %ecx,%eax
    2771:	83 e0 fe             	and    $0xfffffffe,%eax
    2774:	89 84 24 14 01 00 00 	mov    %eax,0x114(%rsp)
    277b:	83 c0 02             	add    $0x2,%eax
    277e:	4c 63 f0             	movslq %eax,%r14
    2781:	49 8d 46 ff          	lea    -0x1(%r14),%rax
    2785:	4d 8d 6e fe          	lea    -0x2(%r14),%r13
    2789:	48 89 44 24 48       	mov    %rax,0x48(%rsp)
    278e:	8d 43 fb             	lea    -0x5(%rbx),%eax
    2791:	4c 89 ed             	mov    %r13,%rbp
    2794:	4c 89 e3             	mov    %r12,%rbx
    2797:	d1 e8                	shr    %eax
    2799:	83 c0 03             	add    $0x3,%eax
    279c:	48 01 c0             	add    %rax,%rax
    279f:	48 89 84 24 28 01 00 	mov    %rax,0x128(%rsp)
    27a6:	00 
    27a7:	48 8d 04 3f          	lea    (%rdi,%rdi,1),%rax
    27ab:	48 89 84 24 e0 00 00 	mov    %rax,0xe0(%rsp)
    27b2:	00 
    27b3:	48 8d 04 36          	lea    (%rsi,%rsi,1),%rax
    27b7:	48 89 84 24 e8 00 00 	mov    %rax,0xe8(%rsp)
    27be:	00 
    27bf:	89 c8                	mov    %ecx,%eax
    27c1:	48 83 c0 02          	add    $0x2,%rax
    27c5:	48 89 84 24 f0 00 00 	mov    %rax,0xf0(%rsp)
    27cc:	00 
    27cd:	49 8d 44 24 20       	lea    0x20(%r12),%rax
    27d2:	48 89 84 24 f8 00 00 	mov    %rax,0xf8(%rsp)
    27d9:	00 
    27da:	48 8d 84 24 50 21 00 	lea    0x2150(%rsp),%rax
    27e1:	00 
    27e2:	48 89 84 24 a8 00 00 	mov    %rax,0xa8(%rsp)
    27e9:	00 
    27ea:	48 8d 84 24 30 01 00 	lea    0x130(%rsp),%rax
    27f1:	00 
    27f2:	48 89 84 24 b0 00 00 	mov    %rax,0xb0(%rsp)
    27f9:	00 
    27fa:	48 8d 84 24 38 01 00 	lea    0x138(%rsp),%rax
    2801:	00 
    2802:	48 89 84 24 18 01 00 	mov    %rax,0x118(%rsp)
    2809:	00 
    280a:	66 0f 1f 44 00 00    	nopw   0x0(%rax,%rax,1)
    2810:	8b 44 24 50          	mov    0x50(%rsp),%eax
    2814:	85 c0                	test   %eax,%eax
    2816:	0f 8e 5e 04 00 00    	jle    2c7a <resid_._omp_fn.0+0x67a>
    281c:	8b 4c 24 54          	mov    0x54(%rsp),%ecx
    2820:	48 8b 7c 24 60       	mov    0x60(%rsp),%rdi
    2825:	48 63 84 24 a0 00 00 	movslq 0xa0(%rsp),%rax
    282c:	00 
    282d:	4c 8b 5c 24 68       	mov    0x68(%rsp),%r11
    2832:	44 8d 41 ff          	lea    -0x1(%rcx),%r8d
    2836:	48 8b 74 24 58       	mov    0x58(%rsp),%rsi
    283b:	4c 8b 94 24 e0 00 00 	mov    0xe0(%rsp),%r10
    2842:	00 
    2843:	4d 63 c0             	movslq %r8d,%r8
    2846:	48 89 44 24 78       	mov    %rax,0x78(%rsp)
    284b:	48 0f af c7          	imul   %rdi,%rax
    284f:	4d 0f af c3          	imul   %r11,%r8
    2853:	48 8d 14 06          	lea    (%rsi,%rax,1),%rdx
    2857:	48 29 f8             	sub    %rdi,%rax
    285a:	4f 8d 2c 02          	lea    (%r10,%r8,1),%r13
    285e:	4c 8d 0c 06          	lea    (%rsi,%rax,1),%r9
    2862:	48 03 84 24 e8 00 00 	add    0xe8(%rsp),%rax
    2869:	00 
    286a:	4d 89 ea             	mov    %r13,%r10
    286d:	48 01 f0             	add    %rsi,%rax
    2870:	4a 8d 0c 02          	lea    (%rdx,%r8,1),%rcx
    2874:	4c 01 ea             	add    %r13,%rdx
    2877:	4d 29 da             	sub    %r11,%r10
    287a:	83 7c 24 50 01       	cmpl   $0x1,0x50(%rsp)
    287f:	49 8d 34 02          	lea    (%r10,%rax,1),%rsi
    2883:	4b 8d 3c 11          	lea    (%r9,%r10,1),%rdi
    2887:	48 89 74 24 10       	mov    %rsi,0x10(%rsp)
    288c:	4b 8d 34 08          	lea    (%r8,%r9,1),%rsi
    2890:	48 89 74 24 18       	mov    %rsi,0x18(%rsp)
    2895:	4b 8d 74 0d 00       	lea    0x0(%r13,%r9,1),%rsi
    289a:	48 89 74 24 20       	mov    %rsi,0x20(%rsp)
    289f:	49 8d 34 00          	lea    (%r8,%rax,1),%rsi
    28a3:	48 89 74 24 28       	mov    %rsi,0x28(%rsp)
    28a8:	49 8d 74 05 00       	lea    0x0(%r13,%rax,1),%rsi
    28ad:	48 89 7c 24 08       	mov    %rdi,0x8(%rsp)
    28b2:	48 89 74 24 30       	mov    %rsi,0x30(%rsp)
    28b7:	0f 84 c5 05 00 00    	je     2e82 <resid_._omp_fn.0+0x882>
    28bd:	49 83 c2 01          	add    $0x1,%r10
    28c1:	49 83 c5 01          	add    $0x1,%r13
    28c5:	49 83 c0 01          	add    $0x1,%r8
    28c9:	48 89 8c 24 80 00 00 	mov    %rcx,0x80(%rsp)
    28d0:	00 
    28d1:	4f 8d 1c 11          	lea    (%r9,%r10,1),%r11
    28d5:	49 01 c2             	add    %rax,%r10
    28d8:	4d 8d 64 cf 08       	lea    0x8(%r15,%rcx,8),%r12
    28dd:	4c 89 bc 24 88 00 00 	mov    %r15,0x88(%rsp)
    28e4:	00 
    28e5:	4b 8d 34 df          	lea    (%r15,%r11,8),%rsi
    28e9:	4f 8d 1c d7          	lea    (%r15,%r10,8),%r11
    28ed:	48 89 94 24 90 00 00 	mov    %rdx,0x90(%rsp)
    28f4:	00 
    28f5:	48 8b 8c 24 a8 00 00 	mov    0xa8(%rsp),%rcx
    28fc:	00 
    28fd:	4f 8d 14 01          	lea    (%r9,%r8,1),%r10
    2901:	4d 01 e9             	add    %r13,%r9
    2904:	49 8d 7c d7 08       	lea    0x8(%r15,%rdx,8),%rdi
    2909:	49 01 c0             	add    %rax,%r8
    290c:	4c 01 e8             	add    %r13,%rax
    290f:	4f 8d 14 d7          	lea    (%r15,%r10,8),%r10
    2913:	4f 8d 0c cf          	lea    (%r15,%r9,8),%r9
    2917:	48 8b 94 24 00 01 00 	mov    0x100(%rsp),%rdx
    291e:	00 
    291f:	4d 8d 2c c7          	lea    (%r15,%rax,8),%r13
    2923:	4f 8d 04 c7          	lea    (%r15,%r8,8),%r8
    2927:	4c 8b bc 24 b0 00 00 	mov    0xb0(%rsp),%r15
    292e:	00 
    292f:	31 c0                	xor    %eax,%eax
    2931:	0f 1f 80 00 00 00 00 	nopl   0x0(%rax)
    2938:	66 41 0f 10 34 04    	movupd (%r12,%rax,1),%xmm6
    293e:	66 0f 10 04 07       	movupd (%rdi,%rax,1),%xmm0
    2943:	66 0f 10 3c 06       	movupd (%rsi,%rax,1),%xmm7
    2948:	66 41 0f 10 2c 03    	movupd (%r11,%rax,1),%xmm5
    294e:	66 0f 58 c6          	addpd  %xmm6,%xmm0
    2952:	66 41 0f 10 24 02    	movupd (%r10,%rax,1),%xmm4
    2958:	66 41 0f 10 34 00    	movupd (%r8,%rax,1),%xmm6
    295e:	66 0f 58 c7          	addpd  %xmm7,%xmm0
    2962:	66 41 0f 10 7c 05 00 	movupd 0x0(%r13,%rax,1),%xmm7
    2969:	66 0f 58 c5          	addpd  %xmm5,%xmm0
    296d:	0f 29 04 01          	movaps %xmm0,(%rcx,%rax,1)
    2971:	66 41 0f 10 04 01    	movupd (%r9,%rax,1),%xmm0
    2977:	66 0f 58 c4          	addpd  %xmm4,%xmm0
    297b:	66 0f 58 c6          	addpd  %xmm6,%xmm0
    297f:	66 0f 58 c7          	addpd  %xmm7,%xmm0
    2983:	41 0f 29 04 07       	movaps %xmm0,(%r15,%rax,1)
    2988:	48 83 c0 10          	add    $0x10,%rax
    298c:	48 39 c2             	cmp    %rax,%rdx
    298f:	75 a7                	jne    2938 <resid_._omp_fn.0+0x338>
    2991:	48 8b 8c 24 80 00 00 	mov    0x80(%rsp),%rcx
    2998:	00 
    2999:	4c 8b bc 24 88 00 00 	mov    0x88(%rsp),%r15
    29a0:	00 
    29a1:	48 8b 94 24 90 00 00 	mov    0x90(%rsp),%rdx
    29a8:	00 
    29a9:	8b 74 24 50          	mov    0x50(%rsp),%esi
    29ad:	39 b4 24 10 01 00 00 	cmp    %esi,0x110(%rsp)
    29b4:	0f 84 83 00 00 00    	je     2a3d <resid_._omp_fn.0+0x43d>
    29ba:	48 63 84 24 24 01 00 	movslq 0x124(%rsp),%rax
    29c1:	00 
    29c2:	48 8b 7c 24 08       	mov    0x8(%rsp),%rdi
    29c7:	48 8b 74 24 10       	mov    0x10(%rsp),%rsi
    29cc:	48 01 c2             	add    %rax,%rdx
    29cf:	48 01 c1             	add    %rax,%rcx
    29d2:	f2 41 0f 10 04 d7    	movsd  (%r15,%rdx,8),%xmm0
    29d8:	48 8b 54 24 20       	mov    0x20(%rsp),%rdx
    29dd:	4c 8d 40 ff          	lea    -0x1(%rax),%r8
    29e1:	48 01 c7             	add    %rax,%rdi
    29e4:	48 01 c6             	add    %rax,%rsi
    29e7:	f2 41 0f 58 04 cf    	addsd  (%r15,%rcx,8),%xmm0
    29ed:	48 8b 4c 24 18       	mov    0x18(%rsp),%rcx
    29f2:	f2 41 0f 58 04 ff    	addsd  (%r15,%rdi,8),%xmm0
    29f8:	f2 41 0f 58 04 f7    	addsd  (%r15,%rsi,8),%xmm0
    29fe:	48 01 c2             	add    %rax,%rdx
    2a01:	48 01 c1             	add    %rax,%rcx
    2a04:	f2 42 0f 11 84 c4 50 	movsd  %xmm0,0x2150(%rsp,%r8,8)
    2a0b:	21 00 00 
    2a0e:	f2 41 0f 10 04 d7    	movsd  (%r15,%rdx,8),%xmm0
    2a14:	48 8b 54 24 28       	mov    0x28(%rsp),%rdx
    2a19:	f2 41 0f 58 04 cf    	addsd  (%r15,%rcx,8),%xmm0
    2a1f:	48 01 c2             	add    %rax,%rdx
    2a22:	48 03 44 24 30       	add    0x30(%rsp),%rax
    2a27:	f2 41 0f 58 04 d7    	addsd  (%r15,%rdx,8),%xmm0
    2a2d:	f2 41 0f 58 04 c7    	addsd  (%r15,%rax,8),%xmm0
    2a33:	f2 42 0f 11 84 c4 30 	movsd  %xmm0,0x130(%rsp,%r8,8)
    2a3a:	01 00 00 
    2a3d:	83 7c 24 50 02       	cmpl   $0x2,0x50(%rsp)
    2a42:	0f 8e 32 02 00 00    	jle    2c7a <resid_._omp_fn.0+0x67a>
    2a48:	48 8b 7c 24 78       	mov    0x78(%rsp),%rdi
    2a4d:	4c 8b 8c 24 c0 00 00 	mov    0xc0(%rsp),%r9
    2a54:	00 
    2a55:	4c 8b 54 24 60       	mov    0x60(%rsp),%r10
    2a5a:	4c 63 5c 24 54       	movslq 0x54(%rsp),%r11
    2a5f:	4c 8b 44 24 68       	mov    0x68(%rsp),%r8
    2a64:	4c 0f af cf          	imul   %rdi,%r9
    2a68:	48 8b 54 24 70       	mov    0x70(%rsp),%rdx
    2a6d:	48 8b 84 24 c8 00 00 	mov    0xc8(%rsp),%rax
    2a74:	00 
    2a75:	4c 0f af d7          	imul   %rdi,%r10
    2a79:	4c 8b 6c 24 58       	mov    0x58(%rsp),%r13
    2a7e:	4d 0f af c3          	imul   %r11,%r8
    2a82:	4c 8b a4 24 b8 00 00 	mov    0xb8(%rsp),%r12
    2a89:	00 
    2a8a:	48 0f af bc 24 d0 00 	imul   0xd0(%rsp),%rdi
    2a91:	00 00 
    2a93:	49 0f af c3          	imul   %r11,%rax
    2a97:	4b 8d 4c 15 00       	lea    0x0(%r13,%r10,1),%rcx
    2a9c:	4c 0f af 9c 24 d8 00 	imul   0xd8(%rsp),%r11
    2aa3:	00 00 
    2aa5:	4b 8d 34 0c          	lea    (%r12,%r9,1),%rsi
    2aa9:	4c 01 c1             	add    %r8,%rcx
    2aac:	4d 01 d0             	add    %r10,%r8
    2aaf:	48 01 fa             	add    %rdi,%rdx
    2ab2:	4c 8b 54 24 38       	mov    0x38(%rsp),%r10
    2ab7:	4f 8d 44 05 03       	lea    0x3(%r13,%r8,1),%r8
    2abc:	48 01 c6             	add    %rax,%rsi
    2abf:	4c 01 c8             	add    %r9,%rax
    2ac2:	49 c1 e0 03          	shl    $0x3,%r8
    2ac6:	4c 01 da             	add    %r11,%rdx
    2ac9:	49 01 fb             	add    %rdi,%r11
    2acc:	48 8b 7c 24 38       	mov    0x38(%rsp),%rdi
    2ad1:	4c 03 5c 24 70       	add    0x70(%rsp),%r11
    2ad6:	49 8d 44 04 03       	lea    0x3(%r12,%rax,1),%rax
    2adb:	4a 8d 7c df 10       	lea    0x10(%rdi,%r11,8),%rdi
    2ae0:	4c 03 9c 24 f0 00 00 	add    0xf0(%rsp),%r11
    2ae7:	00 
    2ae8:	48 c1 e0 03          	shl    $0x3,%rax
    2aec:	4f 8d 0c da          	lea    (%r10,%r11,8),%r9
    2af0:	4c 39 cb             	cmp    %r9,%rbx
    2af3:	41 0f 93 c2          	setae  %r10b
    2af7:	48 3b bc 24 f8 00 00 	cmp    0xf8(%rsp),%rdi
    2afe:	00 
    2aff:	41 0f 93 c1          	setae  %r9b
    2b03:	45 08 d1             	or     %r10b,%r9b
    2b06:	0f 84 bc 01 00 00    	je     2cc8 <resid_._omp_fn.0+0x6c8>
    2b0c:	4c 8b 5c 24 40       	mov    0x40(%rsp),%r11
    2b11:	4d 8d 0c 03          	lea    (%r11,%rax,1),%r9
    2b15:	4c 39 cf             	cmp    %r9,%rdi
    2b18:	4f 8d 0c 07          	lea    (%r15,%r8,1),%r9
    2b1c:	41 0f 95 c2          	setne  %r10b
    2b20:	4c 39 cf             	cmp    %r9,%rdi
    2b23:	41 0f 95 c1          	setne  %r9b
    2b27:	45 21 d1             	and    %r10d,%r9d
    2b2a:	83 7c 24 50 03       	cmpl   $0x3,0x50(%rsp)
    2b2f:	41 0f 95 c2          	setne  %r10b
    2b33:	45 84 d1             	test   %r10b,%r9b
    2b36:	0f 84 8c 01 00 00    	je     2cc8 <resid_._omp_fn.0+0x6c8>
    2b3c:	f2 44 0f 10 03       	movsd  (%rbx),%xmm8
    2b41:	f2 0f 10 7b 10       	movsd  0x10(%rbx),%xmm7
    2b46:	4d 8d 5c 03 f8       	lea    -0x8(%r11,%rax,1),%r11
    2b4b:	31 c0                	xor    %eax,%eax
    2b4d:	f2 0f 10 73 18       	movsd  0x18(%rbx),%xmm6
    2b52:	4c 8b a4 24 08 01 00 	mov    0x108(%rsp),%r12
    2b59:	00 
    2b5a:	4f 8d 54 07 f8       	lea    -0x8(%r15,%r8,1),%r10
    2b5f:	4c 8d 8c 24 60 21 00 	lea    0x2160(%rsp),%r9
    2b66:	00 
    2b67:	66 0f 28 ac 24 30 01 	movapd 0x130(%rsp),%xmm5
    2b6e:	00 00 
    2b70:	66 45 0f 14 c0       	unpcklpd %xmm8,%xmm8
    2b75:	66 0f 28 a4 24 50 21 	movapd 0x2150(%rsp),%xmm4
    2b7c:	00 00 
    2b7e:	66 0f 14 ff          	unpcklpd %xmm7,%xmm7
    2b82:	4c 8b ac 24 18 01 00 	mov    0x118(%rsp),%r13
    2b89:	00 
    2b8a:	66 0f 14 f6          	unpcklpd %xmm6,%xmm6
    2b8e:	4c 8d 84 24 40 01 00 	lea    0x140(%rsp),%r8
    2b95:	00 
    2b96:	66 2e 0f 1f 84 00 00 	cs nopw 0x0(%rax,%rax,1)
    2b9d:	00 00 00 
    2ba0:	66 41 0f 10 1c 02    	movupd (%r10,%rax,1),%xmm3
    2ba6:	66 41 0f 10 4c 05 00 	movupd 0x0(%r13,%rax,1),%xmm1
    2bad:	66 0f 28 d5          	movapd %xmm5,%xmm2
    2bb1:	66 41 0f 10 04 03    	movupd (%r11,%rax,1),%xmm0
    2bb7:	66 41 0f 28 2c 00    	movapd (%r8,%rax,1),%xmm5
    2bbd:	66 0f 58 cc          	addpd  %xmm4,%xmm1
    2bc1:	66 41 0f 28 24 01    	movapd (%r9,%rax,1),%xmm4
    2bc7:	66 41 0f 59 d8       	mulpd  %xmm8,%xmm3
    2bcc:	66 0f 58 d5          	addpd  %xmm5,%xmm2
    2bd0:	66 0f 58 cc          	addpd  %xmm4,%xmm1
    2bd4:	66 0f 5c c3          	subpd  %xmm3,%xmm0
    2bd8:	66 0f 59 cf          	mulpd  %xmm7,%xmm1
    2bdc:	66 0f 5c c1          	subpd  %xmm1,%xmm0
    2be0:	66 0f 28 ca          	movapd %xmm2,%xmm1
    2be4:	66 0f 59 ce          	mulpd  %xmm6,%xmm1
    2be8:	66 0f 5c c1          	subpd  %xmm1,%xmm0
    2bec:	0f 11 04 07          	movups %xmm0,(%rdi,%rax,1)
    2bf0:	48 83 c0 10          	add    $0x10,%rax
    2bf4:	49 39 c4             	cmp    %rax,%r12
    2bf7:	75 a7                	jne    2ba0 <resid_._omp_fn.0+0x5a0>
    2bf9:	8b bc 24 20 01 00 00 	mov    0x120(%rsp),%edi
    2c00:	39 bc 24 14 01 00 00 	cmp    %edi,0x114(%rsp)
    2c07:	74 71                	je     2c7a <resid_._omp_fn.0+0x67a>
    2c09:	4c 01 f1             	add    %r14,%rcx
    2c0c:	48 8b 44 24 40       	mov    0x40(%rsp),%rax
    2c11:	4c 01 f6             	add    %r14,%rsi
    2c14:	4c 01 f2             	add    %r14,%rdx
    2c17:	f2 41 0f 10 0c cf    	movsd  (%r15,%rcx,8),%xmm1
    2c1d:	f2 0f 59 0b          	mulsd  (%rbx),%xmm1
    2c21:	f2 0f 10 04 f0       	movsd  (%rax,%rsi,8),%xmm0
    2c26:	48 8b 44 24 48       	mov    0x48(%rsp),%rax
    2c2b:	f2 0f 5c c1          	subsd  %xmm1,%xmm0
    2c2f:	f2 0f 10 8c ec 50 21 	movsd  0x2150(%rsp,%rbp,8),%xmm1
    2c36:	00 00 
    2c38:	f2 0f 58 8c c4 30 01 	addsd  0x130(%rsp,%rax,8),%xmm1
    2c3f:	00 00 
    2c41:	f2 42 0f 58 8c f4 50 	addsd  0x2150(%rsp,%r14,8),%xmm1
    2c48:	21 00 00 
    2c4b:	f2 0f 59 4b 10       	mulsd  0x10(%rbx),%xmm1
    2c50:	48 8b 44 24 38       	mov    0x38(%rsp),%rax
    2c55:	f2 0f 5c c1          	subsd  %xmm1,%xmm0
    2c59:	f2 42 0f 10 8c f4 30 	movsd  0x130(%rsp,%r14,8),%xmm1
    2c60:	01 00 00 
    2c63:	f2 0f 58 8c ec 30 01 	addsd  0x130(%rsp,%rbp,8),%xmm1
    2c6a:	00 00 
    2c6c:	f2 0f 59 4b 18       	mulsd  0x18(%rbx),%xmm1
    2c71:	f2 0f 5c c1          	subsd  %xmm1,%xmm0
    2c75:	f2 0f 11 04 d0       	movsd  %xmm0,(%rax,%rdx,8)
    2c7a:	8b b4 24 98 00 00 00 	mov    0x98(%rsp),%esi
    2c81:	39 b4 24 9c 00 00 00 	cmp    %esi,0x9c(%rsp)
    2c88:	74 26                	je     2cb0 <resid_._omp_fn.0+0x6b0>
    2c8a:	8b 7c 24 54          	mov    0x54(%rsp),%edi
    2c8e:	8d 47 01             	lea    0x1(%rdi),%eax
    2c91:	3b bc 24 a4 00 00 00 	cmp    0xa4(%rsp),%edi
    2c98:	0f 8d d2 01 00 00    	jge    2e70 <resid_._omp_fn.0+0x870>
    2c9e:	83 84 24 98 00 00 00 	addl   $0x1,0x98(%rsp)
    2ca5:	01 
    2ca6:	89 44 24 54          	mov    %eax,0x54(%rsp)
    2caa:	e9 61 fb ff ff       	jmp    2810 <resid_._omp_fn.0+0x210>
    2caf:	90                   	nop
    2cb0:	48 81 c4 78 41 00 00 	add    $0x4178,%rsp
    2cb7:	5b                   	pop    %rbx
    2cb8:	5d                   	pop    %rbp
    2cb9:	41 5c                	pop    %r12
    2cbb:	41 5d                	pop    %r13
    2cbd:	41 5e                	pop    %r14
    2cbf:	41 5f                	pop    %r15
    2cc1:	c3                   	ret    
    2cc2:	66 0f 1f 44 00 00    	nopw   0x0(%rax,%rax,1)
    2cc8:	83 7c 24 50 04       	cmpl   $0x4,0x50(%rsp)
    2ccd:	0f 8e c3 01 00 00    	jle    2e96 <resid_._omp_fn.0+0x896>
    2cd3:	48 8b 44 24 40       	mov    0x40(%rsp),%rax
    2cd8:	4d 8d 04 cf          	lea    (%r15,%rcx,8),%r8
    2cdc:	f2 0f 10 b4 24 50 21 	movsd  0x2150(%rsp),%xmm6
    2ce3:	00 00 
    2ce5:	4c 8b 9c 24 a8 00 00 	mov    0xa8(%rsp),%r11
    2cec:	00 
    2ced:	4c 8b a4 24 b0 00 00 	mov    0xb0(%rsp),%r12
    2cf4:	00 
    2cf5:	f2 0f 10 ac 24 58 21 	movsd  0x2158(%rsp),%xmm5
    2cfc:	00 00 
    2cfe:	48 8d 3c f0          	lea    (%rax,%rsi,8),%rdi
    2d02:	48 8b 44 24 38       	mov    0x38(%rsp),%rax
    2d07:	f2 0f 10 a4 24 30 01 	movsd  0x130(%rsp),%xmm4
    2d0e:	00 00 
    2d10:	f2 0f 10 9c 24 38 01 	movsd  0x138(%rsp),%xmm3
    2d17:	00 00 
    2d19:	4c 8d 0c d0          	lea    (%rax,%rdx,8),%r9
    2d1d:	b8 04 00 00 00       	mov    $0x4,%eax
    2d22:	66 0f 28 d6          	movapd %xmm6,%xmm2
    2d26:	f2 41 0f 10 7c c0 f0 	movsd  -0x10(%r8,%rax,8),%xmm7
    2d2d:	66 0f 28 cc          	movapd %xmm4,%xmm1
    2d31:	41 89 c2             	mov    %eax,%r10d
    2d34:	f2 0f 59 3b          	mulsd  (%rbx),%xmm7
    2d38:	f2 0f 58 d3          	addsd  %xmm3,%xmm2
    2d3c:	f2 41 0f 10 74 c3 f0 	movsd  -0x10(%r11,%rax,8),%xmm6
    2d43:	f2 0f 10 44 c7 f0    	movsd  -0x10(%rdi,%rax,8),%xmm0
    2d49:	f2 41 0f 10 64 c4 f0 	movsd  -0x10(%r12,%rax,8),%xmm4
    2d50:	f2 0f 58 d6          	addsd  %xmm6,%xmm2
    2d54:	f2 0f 59 53 10       	mulsd  0x10(%rbx),%xmm2
    2d59:	f2 0f 58 cc          	addsd  %xmm4,%xmm1
    2d5d:	f2 0f 59 4b 18       	mulsd  0x18(%rbx),%xmm1
    2d62:	f2 0f 5c c7          	subsd  %xmm7,%xmm0
    2d66:	f2 0f 5c c2          	subsd  %xmm2,%xmm0
    2d6a:	66 0f 28 d5          	movapd %xmm5,%xmm2
    2d6e:	f2 41 0f 10 6c c3 f8 	movsd  -0x8(%r11,%rax,8),%xmm5
    2d75:	f2 0f 58 d4          	addsd  %xmm4,%xmm2
    2d79:	f2 0f 5c c1          	subsd  %xmm1,%xmm0
    2d7d:	66 0f 28 cb          	movapd %xmm3,%xmm1
    2d81:	f2 41 0f 10 5c c4 f8 	movsd  -0x8(%r12,%rax,8),%xmm3
    2d88:	f2 0f 58 d5          	addsd  %xmm5,%xmm2
    2d8c:	f2 0f 58 cb          	addsd  %xmm3,%xmm1
    2d90:	f2 41 0f 11 44 c1 f0 	movsd  %xmm0,-0x10(%r9,%rax,8)
    2d97:	f2 0f 10 3b          	movsd  (%rbx),%xmm7
    2d9b:	f2 41 0f 59 7c c0 f8 	mulsd  -0x8(%r8,%rax,8),%xmm7
    2da2:	f2 0f 10 44 c7 f8    	movsd  -0x8(%rdi,%rax,8),%xmm0
    2da8:	f2 0f 59 53 10       	mulsd  0x10(%rbx),%xmm2
    2dad:	f2 0f 59 4b 18       	mulsd  0x18(%rbx),%xmm1
    2db2:	f2 0f 5c c7          	subsd  %xmm7,%xmm0
    2db6:	f2 0f 5c c2          	subsd  %xmm2,%xmm0
    2dba:	f2 0f 5c c1          	subsd  %xmm1,%xmm0
    2dbe:	f2 41 0f 11 44 c1 f8 	movsd  %xmm0,-0x8(%r9,%rax,8)
    2dc5:	48 83 c0 02          	add    $0x2,%rax
    2dc9:	48 3b 84 24 28 01 00 	cmp    0x128(%rsp),%rax
    2dd0:	00 
    2dd1:	0f 85 4b ff ff ff    	jne    2d22 <resid_._omp_fn.0+0x722>
    2dd7:	4c 8b 5c 24 40       	mov    0x40(%rsp),%r11
    2ddc:	48 8b bc 24 b0 00 00 	mov    0xb0(%rsp),%rdi
    2de3:	00 
    2de4:	49 63 c2             	movslq %r10d,%rax
    2de7:	49 8d 0c cf          	lea    (%r15,%rcx,8),%rcx
    2deb:	44 8b 4c 24 50       	mov    0x50(%rsp),%r9d
    2df0:	4c 8b 84 24 a8 00 00 	mov    0xa8(%rsp),%r8
    2df7:	00 
    2df8:	49 8d 34 f3          	lea    (%r11,%rsi,8),%rsi
    2dfc:	4c 8b 5c 24 38       	mov    0x38(%rsp),%r11
    2e01:	48 8d 3c c7          	lea    (%rdi,%rax,8),%rdi
    2e05:	49 8d 14 d3          	lea    (%r11,%rdx,8),%rdx
    2e09:	0f 1f 80 00 00 00 00 	nopl   0x0(%rax)
    2e10:	f2 0f 10 0b          	movsd  (%rbx),%xmm1
    2e14:	f2 0f 59 0c c1       	mulsd  (%rcx,%rax,8),%xmm1
    2e19:	48 83 c7 08          	add    $0x8,%rdi
    2e1d:	f2 0f 10 04 c6       	movsd  (%rsi,%rax,8),%xmm0
    2e22:	f2 0f 5c c1          	subsd  %xmm1,%xmm0
    2e26:	f2 0f 10 4f f0       	movsd  -0x10(%rdi),%xmm1
    2e2b:	f2 41 0f 58 4c c0 f0 	addsd  -0x10(%r8,%rax,8),%xmm1
    2e32:	f2 41 0f 58 0c c0    	addsd  (%r8,%rax,8),%xmm1
    2e38:	f2 0f 59 4b 10       	mulsd  0x10(%rbx),%xmm1
    2e3d:	f2 0f 5c c1          	subsd  %xmm1,%xmm0
    2e41:	f2 0f 10 4f e8       	movsd  -0x18(%rdi),%xmm1
    2e46:	f2 0f 58 4f f8       	addsd  -0x8(%rdi),%xmm1
    2e4b:	f2 0f 59 4b 18       	mulsd  0x18(%rbx),%xmm1
    2e50:	f2 0f 5c c1          	subsd  %xmm1,%xmm0
    2e54:	f2 0f 11 04 c2       	movsd  %xmm0,(%rdx,%rax,8)
    2e59:	48 83 c0 01          	add    $0x1,%rax
    2e5d:	41 39 c1             	cmp    %eax,%r9d
    2e60:	7f ae                	jg     2e10 <resid_._omp_fn.0+0x810>
    2e62:	e9 13 fe ff ff       	jmp    2c7a <resid_._omp_fn.0+0x67a>
    2e67:	66 0f 1f 84 00 00 00 	nopw   0x0(%rax,%rax,1)
    2e6e:	00 00 
    2e70:	83 84 24 a0 00 00 00 	addl   $0x1,0xa0(%rsp)
    2e77:	01 
    2e78:	b8 02 00 00 00       	mov    $0x2,%eax
    2e7d:	e9 1c fe ff ff       	jmp    2c9e <resid_._omp_fn.0+0x69e>
    2e82:	b8 01 00 00 00       	mov    $0x1,%eax
    2e87:	e9 36 fb ff ff       	jmp    29c2 <resid_._omp_fn.0+0x3c2>
    2e8c:	83 c1 01             	add    $0x1,%ecx
    2e8f:	31 d2                	xor    %edx,%edx
    2e91:	e9 ca f7 ff ff       	jmp    2660 <resid_._omp_fn.0+0x60>
    2e96:	41 ba 02 00 00 00    	mov    $0x2,%r10d
    2e9c:	e9 36 ff ff ff       	jmp    2dd7 <resid_._omp_fn.0+0x7d7>
    2ea1:	66 66 2e 0f 1f 84 00 	data16 cs nopw 0x0(%rax,%rax,1)
    2ea8:	00 00 00 00 
    2eac:	0f 1f 40 00          	nopl   0x0(%rax)

0000000000002eb0 <zran3_._omp_fn.2>:
    2eb0:	41 57                	push   %r15
    2eb2:	41 56                	push   %r14
    2eb4:	41 55                	push   %r13
    2eb6:	41 54                	push   %r12
    2eb8:	55                   	push   %rbp
    2eb9:	53                   	push   %rbx
    2eba:	48 83 ec 28          	sub    $0x28,%rsp
    2ebe:	44 8b 67 28          	mov    0x28(%rdi),%r12d
    2ec2:	8b 5f 2c             	mov    0x2c(%rdi),%ebx
    2ec5:	45 85 e4             	test   %r12d,%r12d
    2ec8:	0f 8e f2 00 00 00    	jle    2fc0 <zran3_._omp_fn.2+0x110>
    2ece:	85 db                	test   %ebx,%ebx
    2ed0:	0f 8e ea 00 00 00    	jle    2fc0 <zran3_._omp_fn.2+0x110>
    2ed6:	48 89 fd             	mov    %rdi,%rbp
    2ed9:	e8 92 f1 ff ff       	call   2070 <omp_get_num_threads@plt>
    2ede:	41 89 c5             	mov    %eax,%r13d
    2ee1:	e8 1a f2 ff ff       	call   2100 <omp_get_thread_num@plt>
    2ee6:	31 d2                	xor    %edx,%edx
    2ee8:	89 c1                	mov    %eax,%ecx
    2eea:	44 89 e0             	mov    %r12d,%eax
    2eed:	0f af c3             	imul   %ebx,%eax
    2ef0:	41 f7 f5             	div    %r13d
    2ef3:	89 c6                	mov    %eax,%esi
    2ef5:	39 d1                	cmp    %edx,%ecx
    2ef7:	0f 82 d2 00 00 00    	jb     2fcf <zran3_._omp_fn.2+0x11f>
    2efd:	0f af ce             	imul   %esi,%ecx
    2f00:	8d 04 11             	lea    (%rcx,%rdx,1),%eax
    2f03:	8d 14 06             	lea    (%rsi,%rax,1),%edx
    2f06:	39 d0                	cmp    %edx,%eax
    2f08:	0f 83 b2 00 00 00    	jae    2fc0 <zran3_._omp_fn.2+0x110>
    2f0e:	31 d2                	xor    %edx,%edx
    2f10:	48 8b 7d 18          	mov    0x18(%rbp),%rdi
    2f14:	4c 8b 6d 20          	mov    0x20(%rbp),%r13
    2f18:	f7 f3                	div    %ebx
    2f1a:	4c 8b 7d 00          	mov    0x0(%rbp),%r15
    2f1e:	48 89 7c 24 08       	mov    %rdi,0x8(%rsp)
    2f23:	48 8b 7d 10          	mov    0x10(%rbp),%rdi
    2f27:	48 89 7c 24 10       	mov    %rdi,0x10(%rsp)
    2f2c:	8d 48 01             	lea    0x1(%rax),%ecx
    2f2f:	48 8b 45 08          	mov    0x8(%rbp),%rax
    2f33:	44 8d 62 01          	lea    0x1(%rdx),%r12d
    2f37:	89 4c 24 1c          	mov    %ecx,0x1c(%rsp)
    2f3b:	48 63 00             	movslq (%rax),%rax
    2f3e:	85 c0                	test   %eax,%eax
    2f40:	7e 7e                	jle    2fc0 <zran3_._omp_fn.2+0x110>
    2f42:	83 ee 01             	sub    $0x1,%esi
    2f45:	48 8d 2c c5 00 00 00 	lea    0x0(,%rax,8),%rbp
    2f4c:	00 
    2f4d:	48 63 c1             	movslq %ecx,%rax
    2f50:	45 31 f6             	xor    %r14d,%r14d
    2f53:	89 74 24 18          	mov    %esi,0x18(%rsp)
    2f57:	48 89 04 24          	mov    %rax,(%rsp)
    2f5b:	eb 0a                	jmp    2f67 <zran3_._omp_fn.2+0xb7>
    2f5d:	0f 1f 00             	nopl   (%rax)
    2f60:	41 83 c6 01          	add    $0x1,%r14d
    2f64:	41 89 c4             	mov    %eax,%r12d
    2f67:	48 8b 14 24          	mov    (%rsp),%rdx
    2f6b:	48 0f af 54 24 08    	imul   0x8(%rsp),%rdx
    2f71:	49 63 c4             	movslq %r12d,%rax
    2f74:	31 f6                	xor    %esi,%esi
    2f76:	48 0f af 44 24 10    	imul   0x10(%rsp),%rax
    2f7c:	4c 01 ea             	add    %r13,%rdx
    2f7f:	48 8d 44 02 01       	lea    0x1(%rdx,%rax,1),%rax
    2f84:	48 89 ea             	mov    %rbp,%rdx
    2f87:	49 8d 3c c7          	lea    (%r15,%rax,8),%rdi
    2f8b:	e8 d0 f0 ff ff       	call   2060 <memset@plt>
    2f90:	44 39 74 24 18       	cmp    %r14d,0x18(%rsp)
    2f95:	74 29                	je     2fc0 <zran3_._omp_fn.2+0x110>
    2f97:	41 8d 44 24 01       	lea    0x1(%r12),%eax
    2f9c:	41 39 dc             	cmp    %ebx,%r12d
    2f9f:	7c bf                	jl     2f60 <zran3_._omp_fn.2+0xb0>
    2fa1:	83 44 24 1c 01       	addl   $0x1,0x1c(%rsp)
    2fa6:	48 63 74 24 1c       	movslq 0x1c(%rsp),%rsi
    2fab:	b8 01 00 00 00       	mov    $0x1,%eax
    2fb0:	48 89 34 24          	mov    %rsi,(%rsp)
    2fb4:	eb aa                	jmp    2f60 <zran3_._omp_fn.2+0xb0>
    2fb6:	66 2e 0f 1f 84 00 00 	cs nopw 0x0(%rax,%rax,1)
    2fbd:	00 00 00 
    2fc0:	48 83 c4 28          	add    $0x28,%rsp
    2fc4:	5b                   	pop    %rbx
    2fc5:	5d                   	pop    %rbp
    2fc6:	41 5c                	pop    %r12
    2fc8:	41 5d                	pop    %r13
    2fca:	41 5e                	pop    %r14
    2fcc:	41 5f                	pop    %r15
    2fce:	c3                   	ret    
    2fcf:	83 c6 01             	add    $0x1,%esi
    2fd2:	31 d2                	xor    %edx,%edx
    2fd4:	e9 24 ff ff ff       	jmp    2efd <zran3_._omp_fn.2+0x4d>
    2fd9:	0f 1f 80 00 00 00 00 	nopl   0x0(%rax)

0000000000002fe0 <zran3_._omp_fn.0>:
    2fe0:	41 57                	push   %r15
    2fe2:	49 89 ff             	mov    %rdi,%r15
    2fe5:	41 56                	push   %r14
    2fe7:	41 55                	push   %r13
    2fe9:	41 54                	push   %r12
    2feb:	55                   	push   %rbp
    2fec:	53                   	push   %rbx
    2fed:	48 83 ec 58          	sub    $0x58,%rsp
    2ff1:	e8 7a f0 ff ff       	call   2070 <omp_get_num_threads@plt>
    2ff6:	89 c3                	mov    %eax,%ebx
    2ff8:	e8 03 f1 ff ff       	call   2100 <omp_get_thread_num@plt>
    2ffd:	89 c1                	mov    %eax,%ecx
    2fff:	41 8b 47 30          	mov    0x30(%r15),%eax
    3003:	83 e8 01             	sub    $0x1,%eax
    3006:	99                   	cltd   
    3007:	f7 fb                	idiv   %ebx
    3009:	39 d1                	cmp    %edx,%ecx
    300b:	0f 8c 38 01 00 00    	jl     3149 <zran3_._omp_fn.0+0x169>
    3011:	0f af c8             	imul   %eax,%ecx
    3014:	01 ca                	add    %ecx,%edx
    3016:	8d 0c 10             	lea    (%rax,%rdx,1),%ecx
    3019:	39 ca                	cmp    %ecx,%edx
    301b:	0f 8d 19 01 00 00    	jge    313a <zran3_._omp_fn.0+0x15a>
    3021:	41 8b 5f 34          	mov    0x34(%r15),%ebx
    3025:	48 63 ca             	movslq %edx,%rcx
    3028:	83 c2 02             	add    $0x2,%edx
    302b:	83 e8 01             	sub    $0x1,%eax
    302e:	48 8d 35 2b e1 00 00 	lea    0xe12b(%rip),%rsi        # 11160 <__mg_data_MOD_starts>
    3035:	48 63 d2             	movslq %edx,%rdx
    3038:	4c 8d 6c 24 48       	lea    0x48(%rsp),%r13
    303d:	48 01 c8             	add    %rcx,%rax
    3040:	89 5c 24 0c          	mov    %ebx,0xc(%rsp)
    3044:	48 8d 1c ce          	lea    (%rsi,%rcx,8),%rbx
    3048:	4c 8d 25 c1 af 00 00 	lea    0xafc1(%rip),%r12        # e010 <_IO_stdin_used+0x10>
    304f:	48 89 5c 24 18       	mov    %rbx,0x18(%rsp)
    3054:	49 8b 5f 10          	mov    0x10(%r15),%rbx
    3058:	48 0f af d3          	imul   %rbx,%rdx
    305c:	49 03 57 18          	add    0x18(%r15),%rdx
    3060:	48 89 5c 24 30       	mov    %rbx,0x30(%rsp)
    3065:	48 89 54 24 20       	mov    %rdx,0x20(%rsp)
    306a:	48 8d 56 08          	lea    0x8(%rsi),%rdx
    306e:	48 8d 04 c2          	lea    (%rdx,%rax,8),%rax
    3072:	48 89 44 24 28       	mov    %rax,0x28(%rsp)
    3077:	49 8b 47 08          	mov    0x8(%r15),%rax
    307b:	48 8d 14 c5 00 00 00 	lea    0x0(,%rax,8),%rdx
    3082:	00 
    3083:	48 83 c0 01          	add    $0x1,%rax
    3087:	48 c1 e0 04          	shl    $0x4,%rax
    308b:	48 89 54 24 10       	mov    %rdx,0x10(%rsp)
    3090:	48 89 44 24 38       	mov    %rax,0x38(%rsp)
    3095:	0f 1f 00             	nopl   (%rax)
    3098:	48 8b 44 24 18       	mov    0x18(%rsp),%rax
    309d:	83 7c 24 0c 01       	cmpl   $0x1,0xc(%rsp)
    30a2:	f2 0f 10 40 08       	movsd  0x8(%rax),%xmm0
    30a7:	f2 0f 11 44 24 40    	movsd  %xmm0,0x40(%rsp)
    30ad:	7e 6b                	jle    311a <zran3_._omp_fn.0+0x13a>
    30af:	48 8b 44 24 38       	mov    0x38(%rsp),%rax
    30b4:	48 8b 54 24 20       	mov    0x20(%rsp),%rdx
    30b9:	48 8d 6c 24 40       	lea    0x40(%rsp),%rbp
    30be:	bb 02 00 00 00       	mov    $0x2,%ebx
    30c3:	4c 8d 34 d0          	lea    (%rax,%rdx,8),%r14
    30c7:	4c 89 e8             	mov    %r13,%rax
    30ca:	49 89 ed             	mov    %rbp,%r13
    30cd:	4c 89 fd             	mov    %r15,%rbp
    30d0:	49 89 c7             	mov    %rax,%r15
    30d3:	eb 09                	jmp    30de <zran3_._omp_fn.0+0xfe>
    30d5:	0f 1f 00             	nopl   (%rax)
    30d8:	f2 0f 10 44 24 40    	movsd  0x40(%rsp),%xmm0
    30de:	48 8b 4d 00          	mov    0x0(%rbp),%rcx
    30e2:	48 8b 7d 28          	mov    0x28(%rbp),%rdi
    30e6:	4c 89 e2             	mov    %r12,%rdx
    30e9:	4c 89 fe             	mov    %r15,%rsi
    30ec:	f2 0f 11 44 24 48    	movsd  %xmm0,0x48(%rsp)
    30f2:	83 c3 01             	add    $0x1,%ebx
    30f5:	4c 01 f1             	add    %r14,%rcx
    30f8:	e8 f3 a0 00 00       	call   d1f0 <vranlc_>
    30fd:	48 8b 75 20          	mov    0x20(%rbp),%rsi
    3101:	4c 89 ef             	mov    %r13,%rdi
    3104:	e8 a7 a0 00 00       	call   d1b0 <randlc_>
    3109:	4c 03 74 24 10       	add    0x10(%rsp),%r14
    310e:	39 5c 24 0c          	cmp    %ebx,0xc(%rsp)
    3112:	7d c4                	jge    30d8 <zran3_._omp_fn.0+0xf8>
    3114:	4d 89 fd             	mov    %r15,%r13
    3117:	49 89 ef             	mov    %rbp,%r15
    311a:	48 83 44 24 18 08    	addq   $0x8,0x18(%rsp)
    3120:	48 8b 5c 24 30       	mov    0x30(%rsp),%rbx
    3125:	48 8b 44 24 18       	mov    0x18(%rsp),%rax
    312a:	48 01 5c 24 20       	add    %rbx,0x20(%rsp)
    312f:	48 39 44 24 28       	cmp    %rax,0x28(%rsp)
    3134:	0f 85 5e ff ff ff    	jne    3098 <zran3_._omp_fn.0+0xb8>
    313a:	48 83 c4 58          	add    $0x58,%rsp
    313e:	5b                   	pop    %rbx
    313f:	5d                   	pop    %rbp
    3140:	41 5c                	pop    %r12
    3142:	41 5d                	pop    %r13
    3144:	41 5e                	pop    %r14
    3146:	41 5f                	pop    %r15
    3148:	c3                   	ret    
    3149:	83 c0 01             	add    $0x1,%eax
    314c:	31 d2                	xor    %edx,%edx
    314e:	e9 be fe ff ff       	jmp    3011 <zran3_._omp_fn.0+0x31>
    3153:	66 66 2e 0f 1f 84 00 	data16 cs nopw 0x0(%rax,%rax,1)
    315a:	00 00 00 00 
    315e:	66 90                	xchg   %ax,%ax

0000000000003160 <zero3_._omp_fn.0>:
    3160:	41 57                	push   %r15
    3162:	41 56                	push   %r14
    3164:	41 55                	push   %r13
    3166:	41 54                	push   %r12
    3168:	55                   	push   %rbp
    3169:	53                   	push   %rbx
    316a:	48 83 ec 28          	sub    $0x28,%rsp
    316e:	44 8b 67 28          	mov    0x28(%rdi),%r12d
    3172:	8b 5f 2c             	mov    0x2c(%rdi),%ebx
    3175:	45 85 e4             	test   %r12d,%r12d
    3178:	0f 8e f2 00 00 00    	jle    3270 <zero3_._omp_fn.0+0x110>
    317e:	85 db                	test   %ebx,%ebx
    3180:	0f 8e ea 00 00 00    	jle    3270 <zero3_._omp_fn.0+0x110>
    3186:	48 89 fd             	mov    %rdi,%rbp
    3189:	e8 e2 ee ff ff       	call   2070 <omp_get_num_threads@plt>
    318e:	41 89 c5             	mov    %eax,%r13d
    3191:	e8 6a ef ff ff       	call   2100 <omp_get_thread_num@plt>
    3196:	31 d2                	xor    %edx,%edx
    3198:	89 c1                	mov    %eax,%ecx
    319a:	44 89 e0             	mov    %r12d,%eax
    319d:	0f af c3             	imul   %ebx,%eax
    31a0:	41 f7 f5             	div    %r13d
    31a3:	89 c6                	mov    %eax,%esi
    31a5:	39 d1                	cmp    %edx,%ecx
    31a7:	0f 82 d2 00 00 00    	jb     327f <zero3_._omp_fn.0+0x11f>
    31ad:	0f af ce             	imul   %esi,%ecx
    31b0:	8d 04 11             	lea    (%rcx,%rdx,1),%eax
    31b3:	8d 14 06             	lea    (%rsi,%rax,1),%edx
    31b6:	39 d0                	cmp    %edx,%eax
    31b8:	0f 83 b2 00 00 00    	jae    3270 <zero3_._omp_fn.0+0x110>
    31be:	31 d2                	xor    %edx,%edx
    31c0:	48 8b 7d 18          	mov    0x18(%rbp),%rdi
    31c4:	4c 8b 6d 20          	mov    0x20(%rbp),%r13
    31c8:	f7 f3                	div    %ebx
    31ca:	4c 8b 7d 00          	mov    0x0(%rbp),%r15
    31ce:	48 89 7c 24 08       	mov    %rdi,0x8(%rsp)
    31d3:	48 8b 7d 10          	mov    0x10(%rbp),%rdi
    31d7:	48 89 7c 24 10       	mov    %rdi,0x10(%rsp)
    31dc:	8d 48 01             	lea    0x1(%rax),%ecx
    31df:	48 8b 45 08          	mov    0x8(%rbp),%rax
    31e3:	44 8d 62 01          	lea    0x1(%rdx),%r12d
    31e7:	89 4c 24 1c          	mov    %ecx,0x1c(%rsp)
    31eb:	48 63 00             	movslq (%rax),%rax
    31ee:	85 c0                	test   %eax,%eax
    31f0:	7e 7e                	jle    3270 <zero3_._omp_fn.0+0x110>
    31f2:	83 ee 01             	sub    $0x1,%esi
    31f5:	48 8d 2c c5 00 00 00 	lea    0x0(,%rax,8),%rbp
    31fc:	00 
    31fd:	48 63 c1             	movslq %ecx,%rax
    3200:	45 31 f6             	xor    %r14d,%r14d
    3203:	89 74 24 18          	mov    %esi,0x18(%rsp)
    3207:	48 89 04 24          	mov    %rax,(%rsp)
    320b:	eb 0a                	jmp    3217 <zero3_._omp_fn.0+0xb7>
    320d:	0f 1f 00             	nopl   (%rax)
    3210:	41 83 c6 01          	add    $0x1,%r14d
    3214:	41 89 c4             	mov    %eax,%r12d
    3217:	48 8b 14 24          	mov    (%rsp),%rdx
    321b:	48 0f af 54 24 08    	imul   0x8(%rsp),%rdx
    3221:	49 63 c4             	movslq %r12d,%rax
    3224:	31 f6                	xor    %esi,%esi
    3226:	48 0f af 44 24 10    	imul   0x10(%rsp),%rax
    322c:	4c 01 ea             	add    %r13,%rdx
    322f:	48 8d 44 02 01       	lea    0x1(%rdx,%rax,1),%rax
    3234:	48 89 ea             	mov    %rbp,%rdx
    3237:	49 8d 3c c7          	lea    (%r15,%rax,8),%rdi
    323b:	e8 20 ee ff ff       	call   2060 <memset@plt>
    3240:	44 39 74 24 18       	cmp    %r14d,0x18(%rsp)
    3245:	74 29                	je     3270 <zero3_._omp_fn.0+0x110>
    3247:	41 8d 44 24 01       	lea    0x1(%r12),%eax
    324c:	41 39 dc             	cmp    %ebx,%r12d
    324f:	7c bf                	jl     3210 <zero3_._omp_fn.0+0xb0>
    3251:	83 44 24 1c 01       	addl   $0x1,0x1c(%rsp)
    3256:	48 63 74 24 1c       	movslq 0x1c(%rsp),%rsi
    325b:	b8 01 00 00 00       	mov    $0x1,%eax
    3260:	48 89 34 24          	mov    %rsi,(%rsp)
    3264:	eb aa                	jmp    3210 <zero3_._omp_fn.0+0xb0>
    3266:	66 2e 0f 1f 84 00 00 	cs nopw 0x0(%rax,%rax,1)
    326d:	00 00 00 
    3270:	48 83 c4 28          	add    $0x28,%rsp
    3274:	5b                   	pop    %rbx
    3275:	5d                   	pop    %rbp
    3276:	41 5c                	pop    %r12
    3278:	41 5d                	pop    %r13
    327a:	41 5e                	pop    %r14
    327c:	41 5f                	pop    %r15
    327e:	c3                   	ret    
    327f:	83 c6 01             	add    $0x1,%esi
    3282:	31 d2                	xor    %edx,%edx
    3284:	e9 24 ff ff ff       	jmp    31ad <zero3_._omp_fn.0+0x4d>
    3289:	0f 1f 80 00 00 00 00 	nopl   0x0(%rax)

0000000000003290 <psinv_._omp_fn.0>:
    3290:	41 57                	push   %r15
    3292:	41 56                	push   %r14
    3294:	41 55                	push   %r13
    3296:	41 54                	push   %r12
    3298:	55                   	push   %rbp
    3299:	53                   	push   %rbx
    329a:	48 81 ec 58 41 00 00 	sub    $0x4158,%rsp
    32a1:	8b 47 54             	mov    0x54(%rdi),%eax
    32a4:	44 8b 67 50          	mov    0x50(%rdi),%r12d
    32a8:	89 84 24 94 00 00 00 	mov    %eax,0x94(%rsp)
    32af:	41 83 fc 01          	cmp    $0x1,%r12d
    32b3:	0f 8e 17 06 00 00    	jle    38d0 <psinv_._omp_fn.0+0x640>
    32b9:	41 83 ec 01          	sub    $0x1,%r12d
    32bd:	83 f8 01             	cmp    $0x1,%eax
    32c0:	0f 8e 0a 06 00 00    	jle    38d0 <psinv_._omp_fn.0+0x640>
    32c6:	48 89 fb             	mov    %rdi,%rbx
    32c9:	8d 68 ff             	lea    -0x1(%rax),%ebp
    32cc:	e8 9f ed ff ff       	call   2070 <omp_get_num_threads@plt>
    32d1:	41 89 c5             	mov    %eax,%r13d
    32d4:	e8 27 ee ff ff       	call   2100 <omp_get_thread_num@plt>
    32d9:	31 d2                	xor    %edx,%edx
    32db:	89 c6                	mov    %eax,%esi
    32dd:	44 89 e0             	mov    %r12d,%eax
    32e0:	0f af c5             	imul   %ebp,%eax
    32e3:	41 f7 f5             	div    %r13d
    32e6:	89 c1                	mov    %eax,%ecx
    32e8:	39 d6                	cmp    %edx,%esi
    32ea:	0f 82 8c 07 00 00    	jb     3a7c <psinv_._omp_fn.0+0x7ec>
    32f0:	0f af f1             	imul   %ecx,%esi
    32f3:	8d 04 16             	lea    (%rsi,%rdx,1),%eax
    32f6:	8d 14 01             	lea    (%rcx,%rax,1),%edx
    32f9:	39 d0                	cmp    %edx,%eax
    32fb:	0f 83 cf 05 00 00    	jae    38d0 <psinv_._omp_fn.0+0x640>
    3301:	31 d2                	xor    %edx,%edx
    3303:	48 8b 7b 48          	mov    0x48(%rbx),%rdi
    3307:	4c 8b 53 20          	mov    0x20(%rbx),%r10
    330b:	c7 84 24 88 00 00 00 	movl   $0x0,0x88(%rsp)
    3312:	00 00 00 00 
    3316:	f7 f5                	div    %ebp
    3318:	4c 8b 5b 28          	mov    0x28(%rbx),%r11
    331c:	4c 8b 63 18          	mov    0x18(%rbx),%r12
    3320:	48 89 bc 24 a8 00 00 	mov    %rdi,0xa8(%rsp)
    3327:	00 
    3328:	48 8b 7b 40          	mov    0x40(%rbx),%rdi
    332c:	4c 8b 3b             	mov    (%rbx),%r15
    332f:	4c 89 5c 24 58       	mov    %r11,0x58(%rsp)
    3334:	48 89 bc 24 b0 00 00 	mov    %rdi,0xb0(%rsp)
    333b:	00 
    333c:	48 8b 7b 38          	mov    0x38(%rbx),%rdi
    3340:	4c 89 54 24 60       	mov    %r10,0x60(%rsp)
    3345:	48 89 bc 24 b8 00 00 	mov    %rdi,0xb8(%rsp)
    334c:	00 
    334d:	48 8b 7b 30          	mov    0x30(%rbx),%rdi
    3351:	48 89 7c 24 50       	mov    %rdi,0x50(%rsp)
    3356:	83 c0 02             	add    $0x2,%eax
    3359:	8d 7a 02             	lea    0x2(%rdx),%edi
    335c:	48 8b 53 08          	mov    0x8(%rbx),%rdx
    3360:	89 84 24 90 00 00 00 	mov    %eax,0x90(%rsp)
    3367:	48 8b 43 10          	mov    0x10(%rbx),%rax
    336b:	89 7c 24 4c          	mov    %edi,0x4c(%rsp)
    336f:	48 89 d3             	mov    %rdx,%rbx
    3372:	8b 38                	mov    (%rax),%edi
    3374:	8d 41 ff             	lea    -0x1(%rcx),%eax
    3377:	89 84 24 8c 00 00 00 	mov    %eax,0x8c(%rsp)
    337e:	89 f8                	mov    %edi,%eax
    3380:	8d 4f fe             	lea    -0x2(%rdi),%ecx
    3383:	89 7c 24 48          	mov    %edi,0x48(%rsp)
    3387:	d1 e8                	shr    %eax
    3389:	89 ce                	mov    %ecx,%esi
    338b:	89 8c 24 00 01 00 00 	mov    %ecx,0x100(%rsp)
    3392:	83 e8 01             	sub    $0x1,%eax
    3395:	83 e6 fe             	and    $0xfffffffe,%esi
    3398:	48 83 c0 01          	add    $0x1,%rax
    339c:	89 b4 24 f4 00 00 00 	mov    %esi,0xf4(%rsp)
    33a3:	48 c1 e0 04          	shl    $0x4,%rax
    33a7:	48 89 84 24 e0 00 00 	mov    %rax,0xe0(%rsp)
    33ae:	00 
    33af:	89 f8                	mov    %edi,%eax
    33b1:	83 e0 fe             	and    $0xfffffffe,%eax
    33b4:	89 84 24 f0 00 00 00 	mov    %eax,0xf0(%rsp)
    33bb:	89 f8                	mov    %edi,%eax
    33bd:	83 c8 01             	or     $0x1,%eax
    33c0:	89 84 24 04 01 00 00 	mov    %eax,0x104(%rsp)
    33c7:	89 c8                	mov    %ecx,%eax
    33c9:	d1 e8                	shr    %eax
    33cb:	83 e8 01             	sub    $0x1,%eax
    33ce:	48 83 c0 01          	add    $0x1,%rax
    33d2:	48 c1 e0 04          	shl    $0x4,%rax
    33d6:	48 89 84 24 e8 00 00 	mov    %rax,0xe8(%rsp)
    33dd:	00 
    33de:	8d 46 02             	lea    0x2(%rsi),%eax
    33e1:	4c 63 f0             	movslq %eax,%r14
    33e4:	8d 46 01             	lea    0x1(%rsi),%eax
    33e7:	4c 63 e8             	movslq %eax,%r13
    33ea:	8d 46 03             	lea    0x3(%rsi),%eax
    33ed:	48 98                	cltq   
    33ef:	4c 89 ed             	mov    %r13,%rbp
    33f2:	48 89 44 24 40       	mov    %rax,0x40(%rsp)
    33f7:	49 8d 45 ff          	lea    -0x1(%r13),%rax
    33fb:	4d 89 f5             	mov    %r14,%r13
    33fe:	48 89 44 24 38       	mov    %rax,0x38(%rsp)
    3403:	8d 47 fb             	lea    -0x5(%rdi),%eax
    3406:	d1 e8                	shr    %eax
    3408:	83 c0 03             	add    $0x3,%eax
    340b:	48 01 c0             	add    %rax,%rax
    340e:	48 89 84 24 08 01 00 	mov    %rax,0x108(%rsp)
    3415:	00 
    3416:	4b 8d 04 12          	lea    (%r10,%r10,1),%rax
    341a:	48 89 84 24 c0 00 00 	mov    %rax,0xc0(%rsp)
    3421:	00 
    3422:	4b 8d 04 1b          	lea    (%r11,%r11,1),%rax
    3426:	48 89 84 24 c8 00 00 	mov    %rax,0xc8(%rsp)
    342d:	00 
    342e:	89 c8                	mov    %ecx,%eax
    3430:	48 83 c0 02          	add    $0x2,%rax
    3434:	48 89 84 24 d0 00 00 	mov    %rax,0xd0(%rsp)
    343b:	00 
    343c:	49 8d 44 24 18       	lea    0x18(%r12),%rax
    3441:	48 89 84 24 d8 00 00 	mov    %rax,0xd8(%rsp)
    3448:	00 
    3449:	48 8d 84 24 30 21 00 	lea    0x2130(%rsp),%rax
    3450:	00 
    3451:	48 89 84 24 98 00 00 	mov    %rax,0x98(%rsp)
    3458:	00 
    3459:	48 8d 84 24 10 01 00 	lea    0x110(%rsp),%rax
    3460:	00 
    3461:	48 89 84 24 a0 00 00 	mov    %rax,0xa0(%rsp)
    3468:	00 
    3469:	48 8d 84 24 38 21 00 	lea    0x2138(%rsp),%rax
    3470:	00 
    3471:	48 89 84 24 f8 00 00 	mov    %rax,0xf8(%rsp)
    3478:	00 
    3479:	0f 1f 80 00 00 00 00 	nopl   0x0(%rax)
    3480:	8b 44 24 48          	mov    0x48(%rsp),%eax
    3484:	85 c0                	test   %eax,%eax
    3486:	0f 8e 0a 04 00 00    	jle    3896 <psinv_._omp_fn.0+0x606>
    348c:	8b 4c 24 4c          	mov    0x4c(%rsp),%ecx
    3490:	4c 8b 5c 24 60       	mov    0x60(%rsp),%r11
    3495:	48 8b 74 24 58       	mov    0x58(%rsp),%rsi
    349a:	48 63 84 24 90 00 00 	movslq 0x90(%rsp),%rax
    34a1:	00 
    34a2:	44 8d 41 ff          	lea    -0x1(%rcx),%r8d
    34a6:	4c 8b b4 24 c0 00 00 	mov    0xc0(%rsp),%r14
    34ad:	00 
    34ae:	48 8b 7c 24 50       	mov    0x50(%rsp),%rdi
    34b3:	4d 63 c0             	movslq %r8d,%r8
    34b6:	48 89 44 24 68       	mov    %rax,0x68(%rsp)
    34bb:	48 0f af c6          	imul   %rsi,%rax
    34bf:	4d 0f af c3          	imul   %r11,%r8
    34c3:	48 8d 14 07          	lea    (%rdi,%rax,1),%rdx
    34c7:	48 29 f0             	sub    %rsi,%rax
    34ca:	4d 01 c6             	add    %r8,%r14
    34cd:	4c 8d 0c 07          	lea    (%rdi,%rax,1),%r9
    34d1:	48 03 84 24 c8 00 00 	add    0xc8(%rsp),%rax
    34d8:	00 
    34d9:	4d 89 f2             	mov    %r14,%r10
    34dc:	48 01 f8             	add    %rdi,%rax
    34df:	4a 8d 0c 02          	lea    (%rdx,%r8,1),%rcx
    34e3:	4c 01 f2             	add    %r14,%rdx
    34e6:	4d 29 da             	sub    %r11,%r10
    34e9:	83 7c 24 48 01       	cmpl   $0x1,0x48(%rsp)
    34ee:	48 89 14 24          	mov    %rdx,(%rsp)
    34f2:	4b 8d 34 11          	lea    (%r9,%r10,1),%rsi
    34f6:	48 89 74 24 08       	mov    %rsi,0x8(%rsp)
    34fb:	49 8d 34 02          	lea    (%r10,%rax,1),%rsi
    34ff:	48 89 74 24 10       	mov    %rsi,0x10(%rsp)
    3504:	4b 8d 34 08          	lea    (%r8,%r9,1),%rsi
    3508:	48 89 74 24 18       	mov    %rsi,0x18(%rsp)
    350d:	4b 8d 34 0e          	lea    (%r14,%r9,1),%rsi
    3511:	48 89 74 24 20       	mov    %rsi,0x20(%rsp)
    3516:	49 8d 34 00          	lea    (%r8,%rax,1),%rsi
    351a:	48 89 74 24 28       	mov    %rsi,0x28(%rsp)
    351f:	49 8d 34 06          	lea    (%r14,%rax,1),%rsi
    3523:	48 89 74 24 30       	mov    %rsi,0x30(%rsp)
    3528:	0f 84 44 05 00 00    	je     3a72 <psinv_._omp_fn.0+0x7e2>
    352e:	49 83 c2 01          	add    $0x1,%r10
    3532:	49 83 c6 01          	add    $0x1,%r14
    3536:	49 83 c0 01          	add    $0x1,%r8
    353a:	48 89 d7             	mov    %rdx,%rdi
    353d:	4f 8d 1c 11          	lea    (%r9,%r10,1),%r11
    3541:	49 01 c2             	add    %rax,%r10
    3544:	49 8d 54 cf 08       	lea    0x8(%r15,%rcx,8),%rdx
    3549:	48 89 4c 24 70       	mov    %rcx,0x70(%rsp)
    354e:	4b 8d 34 df          	lea    (%r15,%r11,8),%rsi
    3552:	4f 8d 1c d7          	lea    (%r15,%r10,8),%r11
    3556:	4c 89 7c 24 78       	mov    %r15,0x78(%rsp)
    355b:	48 8b 8c 24 98 00 00 	mov    0x98(%rsp),%rcx
    3562:	00 
    3563:	4f 8d 14 01          	lea    (%r9,%r8,1),%r10
    3567:	4d 01 f1             	add    %r14,%r9
    356a:	49 8d 7c ff 08       	lea    0x8(%r15,%rdi,8),%rdi
    356f:	49 01 c0             	add    %rax,%r8
    3572:	4c 01 f0             	add    %r14,%rax
    3575:	48 89 9c 24 80 00 00 	mov    %rbx,0x80(%rsp)
    357c:	00 
    357d:	4f 8d 14 d7          	lea    (%r15,%r10,8),%r10
    3581:	4f 8d 0c cf          	lea    (%r15,%r9,8),%r9
    3585:	4d 8d 34 c7          	lea    (%r15,%rax,8),%r14
    3589:	4f 8d 04 c7          	lea    (%r15,%r8,8),%r8
    358d:	48 8b 9c 24 e0 00 00 	mov    0xe0(%rsp),%rbx
    3594:	00 
    3595:	31 c0                	xor    %eax,%eax
    3597:	4c 8b bc 24 a0 00 00 	mov    0xa0(%rsp),%r15
    359e:	00 
    359f:	90                   	nop
    35a0:	66 0f 10 3c 02       	movupd (%rdx,%rax,1),%xmm7
    35a5:	66 0f 10 04 07       	movupd (%rdi,%rax,1),%xmm0
    35aa:	66 0f 10 2c 06       	movupd (%rsi,%rax,1),%xmm5
    35af:	66 41 0f 10 34 03    	movupd (%r11,%rax,1),%xmm6
    35b5:	66 0f 58 c7          	addpd  %xmm7,%xmm0
    35b9:	66 41 0f 10 24 02    	movupd (%r10,%rax,1),%xmm4
    35bf:	66 41 0f 10 3c 00    	movupd (%r8,%rax,1),%xmm7
    35c5:	66 41 0f 10 1c 06    	movupd (%r14,%rax,1),%xmm3
    35cb:	66 0f 58 c5          	addpd  %xmm5,%xmm0
    35cf:	66 0f 58 c6          	addpd  %xmm6,%xmm0
    35d3:	41 0f 29 04 07       	movaps %xmm0,(%r15,%rax,1)
    35d8:	66 41 0f 10 04 01    	movupd (%r9,%rax,1),%xmm0
    35de:	66 0f 58 c4          	addpd  %xmm4,%xmm0
    35e2:	66 0f 58 c7          	addpd  %xmm7,%xmm0
    35e6:	66 0f 58 c3          	addpd  %xmm3,%xmm0
    35ea:	0f 29 04 01          	movaps %xmm0,(%rcx,%rax,1)
    35ee:	48 83 c0 10          	add    $0x10,%rax
    35f2:	48 39 c3             	cmp    %rax,%rbx
    35f5:	75 a9                	jne    35a0 <psinv_._omp_fn.0+0x310>
    35f7:	48 8b 4c 24 70       	mov    0x70(%rsp),%rcx
    35fc:	4c 8b 7c 24 78       	mov    0x78(%rsp),%r15
    3601:	48 8b 9c 24 80 00 00 	mov    0x80(%rsp),%rbx
    3608:	00 
    3609:	8b 7c 24 48          	mov    0x48(%rsp),%edi
    360d:	39 bc 24 f0 00 00 00 	cmp    %edi,0xf0(%rsp)
    3614:	0f 84 87 00 00 00    	je     36a1 <psinv_._omp_fn.0+0x411>
    361a:	48 63 84 24 04 01 00 	movslq 0x104(%rsp),%rax
    3621:	00 
    3622:	48 8b 14 24          	mov    (%rsp),%rdx
    3626:	48 8b 7c 24 08       	mov    0x8(%rsp),%rdi
    362b:	48 01 c1             	add    %rax,%rcx
    362e:	4c 8d 40 ff          	lea    -0x1(%rax),%r8
    3632:	48 8b 74 24 10       	mov    0x10(%rsp),%rsi
    3637:	48 01 c2             	add    %rax,%rdx
    363a:	48 01 c7             	add    %rax,%rdi
    363d:	48 01 c6             	add    %rax,%rsi
    3640:	f2 41 0f 10 04 d7    	movsd  (%r15,%rdx,8),%xmm0
    3646:	48 8b 54 24 20       	mov    0x20(%rsp),%rdx
    364b:	f2 41 0f 58 04 cf    	addsd  (%r15,%rcx,8),%xmm0
    3651:	f2 41 0f 58 04 ff    	addsd  (%r15,%rdi,8),%xmm0
    3657:	f2 41 0f 58 04 f7    	addsd  (%r15,%rsi,8),%xmm0
    365d:	48 01 c2             	add    %rax,%rdx
    3660:	48 8b 4c 24 18       	mov    0x18(%rsp),%rcx
    3665:	48 01 c1             	add    %rax,%rcx
    3668:	f2 42 0f 11 84 c4 10 	movsd  %xmm0,0x110(%rsp,%r8,8)
    366f:	01 00 00 
    3672:	f2 41 0f 10 04 d7    	movsd  (%r15,%rdx,8),%xmm0
    3678:	48 8b 54 24 28       	mov    0x28(%rsp),%rdx
    367d:	f2 41 0f 58 04 cf    	addsd  (%r15,%rcx,8),%xmm0
    3683:	48 01 c2             	add    %rax,%rdx
    3686:	48 03 44 24 30       	add    0x30(%rsp),%rax
    368b:	f2 41 0f 58 04 d7    	addsd  (%r15,%rdx,8),%xmm0
    3691:	f2 41 0f 58 04 c7    	addsd  (%r15,%rax,8),%xmm0
    3697:	f2 42 0f 11 84 c4 30 	movsd  %xmm0,0x2130(%rsp,%r8,8)
    369e:	21 00 00 
    36a1:	83 7c 24 48 02       	cmpl   $0x2,0x48(%rsp)
    36a6:	0f 8e ea 01 00 00    	jle    3896 <psinv_._omp_fn.0+0x606>
    36ac:	48 8b 54 24 68       	mov    0x68(%rsp),%rdx
    36b1:	48 8b b4 24 b0 00 00 	mov    0xb0(%rsp),%rsi
    36b8:	00 
    36b9:	48 63 7c 24 4c       	movslq 0x4c(%rsp),%rdi
    36be:	48 8b 84 24 b8 00 00 	mov    0xb8(%rsp),%rax
    36c5:	00 
    36c6:	48 0f af f2          	imul   %rdx,%rsi
    36ca:	4c 8b 9c 24 a8 00 00 	mov    0xa8(%rsp),%r11
    36d1:	00 
    36d2:	4c 8b 74 24 50       	mov    0x50(%rsp),%r14
    36d7:	48 0f af c7          	imul   %rdi,%rax
    36db:	48 0f af 54 24 58    	imul   0x58(%rsp),%rdx
    36e1:	48 0f af 7c 24 60    	imul   0x60(%rsp),%rdi
    36e7:	49 8d 0c 33          	lea    (%r11,%rsi,1),%rcx
    36eb:	48 01 c1             	add    %rax,%rcx
    36ee:	48 01 f0             	add    %rsi,%rax
    36f1:	49 89 d0             	mov    %rdx,%r8
    36f4:	4c 01 d8             	add    %r11,%rax
    36f7:	49 8d 14 16          	lea    (%r14,%rdx,1),%rdx
    36fb:	48 8d 74 c3 10       	lea    0x10(%rbx,%rax,8),%rsi
    3700:	48 01 fa             	add    %rdi,%rdx
    3703:	48 03 84 24 d0 00 00 	add    0xd0(%rsp),%rax
    370a:	00 
    370b:	4c 01 c7             	add    %r8,%rdi
    370e:	4d 8d 44 3e 02       	lea    0x2(%r14,%rdi,1),%r8
    3713:	48 8d 04 c3          	lea    (%rbx,%rax,8),%rax
    3717:	49 c1 e0 03          	shl    $0x3,%r8
    371b:	49 39 c4             	cmp    %rax,%r12
    371e:	0f 93 c0             	setae  %al
    3721:	48 3b b4 24 d8 00 00 	cmp    0xd8(%rsp),%rsi
    3728:	00 
    3729:	4b 8d 3c 07          	lea    (%r15,%r8,1),%rdi
    372d:	41 0f 93 c1          	setae  %r9b
    3731:	44 09 c8             	or     %r9d,%eax
    3734:	49 89 f1             	mov    %rsi,%r9
    3737:	49 29 f9             	sub    %rdi,%r9
    373a:	49 83 f9 10          	cmp    $0x10,%r9
    373e:	41 0f 97 c1          	seta   %r9b
    3742:	44 84 c8             	test   %r9b,%al
    3745:	0f 84 9d 01 00 00    	je     38e8 <psinv_._omp_fn.0+0x658>
    374b:	83 7c 24 48 03       	cmpl   $0x3,0x48(%rsp)
    3750:	0f 84 92 01 00 00    	je     38e8 <psinv_._omp_fn.0+0x658>
    3756:	f2 41 0f 10 34 24    	movsd  (%r12),%xmm6
    375c:	48 89 14 24          	mov    %rdx,(%rsp)
    3760:	4f 8d 5c 07 f8       	lea    -0x8(%r15,%r8,1),%r11
    3765:	31 c0                	xor    %eax,%eax
    3767:	f2 41 0f 10 6c 24 08 	movsd  0x8(%r12),%xmm5
    376e:	f2 41 0f 10 64 24 10 	movsd  0x10(%r12),%xmm4
    3775:	4f 8d 54 07 08       	lea    0x8(%r15,%r8,1),%r10
    377a:	4c 8d 8c 24 20 01 00 	lea    0x120(%rsp),%r9
    3781:	00 
    3782:	66 0f 28 9c 24 10 01 	movapd 0x110(%rsp),%xmm3
    3789:	00 00 
    378b:	48 8b 94 24 e8 00 00 	mov    0xe8(%rsp),%rdx
    3792:	00 
    3793:	66 0f 14 f6          	unpcklpd %xmm6,%xmm6
    3797:	4c 8d 84 24 18 01 00 	lea    0x118(%rsp),%r8
    379e:	00 
    379f:	4c 8b b4 24 f8 00 00 	mov    0xf8(%rsp),%r14
    37a6:	00 
    37a7:	66 0f 14 ed          	unpcklpd %xmm5,%xmm5
    37ab:	66 0f 14 e4          	unpcklpd %xmm4,%xmm4
    37af:	90                   	nop
    37b0:	66 41 0f 10 3c 03    	movupd (%r11,%rax,1),%xmm7
    37b6:	66 41 0f 10 04 02    	movupd (%r10,%rax,1),%xmm0
    37bc:	66 0f 10 14 07       	movupd (%rdi,%rax,1),%xmm2
    37c1:	66 41 0f 10 0c 06    	movupd (%r14,%rax,1),%xmm1
    37c7:	66 0f 58 c7          	addpd  %xmm7,%xmm0
    37cb:	66 41 0f 10 3c 00    	movupd (%r8,%rax,1),%xmm7
    37d1:	66 0f 58 cb          	addpd  %xmm3,%xmm1
    37d5:	66 0f 59 d6          	mulpd  %xmm6,%xmm2
    37d9:	66 41 0f 28 1c 01    	movapd (%r9,%rax,1),%xmm3
    37df:	66 0f 58 c7          	addpd  %xmm7,%xmm0
    37e3:	66 0f 10 3c 06       	movupd (%rsi,%rax,1),%xmm7
    37e8:	66 0f 58 cb          	addpd  %xmm3,%xmm1
    37ec:	66 0f 59 c5          	mulpd  %xmm5,%xmm0
    37f0:	66 0f 58 d7          	addpd  %xmm7,%xmm2
    37f4:	66 0f 59 cc          	mulpd  %xmm4,%xmm1
    37f8:	66 0f 58 c2          	addpd  %xmm2,%xmm0
    37fc:	66 0f 58 c1          	addpd  %xmm1,%xmm0
    3800:	0f 11 04 06          	movups %xmm0,(%rsi,%rax,1)
    3804:	48 83 c0 10          	add    $0x10,%rax
    3808:	48 39 c2             	cmp    %rax,%rdx
    380b:	75 a3                	jne    37b0 <psinv_._omp_fn.0+0x520>
    380d:	48 8b 14 24          	mov    (%rsp),%rdx
    3811:	8b bc 24 00 01 00 00 	mov    0x100(%rsp),%edi
    3818:	39 bc 24 f4 00 00 00 	cmp    %edi,0xf4(%rsp)
    381f:	74 75                	je     3896 <psinv_._omp_fn.0+0x606>
    3821:	48 8b 44 24 40       	mov    0x40(%rsp),%rax
    3826:	4c 01 e9             	add    %r13,%rcx
    3829:	48 8d 34 02          	lea    (%rdx,%rax,1),%rsi
    382d:	48 8d 04 2a          	lea    (%rdx,%rbp,1),%rax
    3831:	4c 01 ea             	add    %r13,%rdx
    3834:	f2 41 0f 10 04 f7    	movsd  (%r15,%rsi,8),%xmm0
    383a:	f2 41 0f 58 04 c7    	addsd  (%r15,%rax,8),%xmm0
    3840:	f2 0f 58 84 ec 10 01 	addsd  0x110(%rsp,%rbp,8),%xmm0
    3847:	00 00 
    3849:	f2 41 0f 59 44 24 08 	mulsd  0x8(%r12),%xmm0
    3850:	f2 41 0f 10 0c d7    	movsd  (%r15,%rdx,8),%xmm1
    3856:	f2 41 0f 59 0c 24    	mulsd  (%r12),%xmm1
    385c:	f2 0f 58 0c cb       	addsd  (%rbx,%rcx,8),%xmm1
    3861:	48 8b 44 24 38       	mov    0x38(%rsp),%rax
    3866:	f2 0f 58 c1          	addsd  %xmm1,%xmm0
    386a:	f2 0f 10 8c c4 10 01 	movsd  0x110(%rsp,%rax,8),%xmm1
    3871:	00 00 
    3873:	f2 0f 58 8c ec 30 21 	addsd  0x2130(%rsp,%rbp,8),%xmm1
    387a:	00 00 
    387c:	f2 42 0f 58 8c ec 10 	addsd  0x110(%rsp,%r13,8),%xmm1
    3883:	01 00 00 
    3886:	f2 41 0f 59 4c 24 10 	mulsd  0x10(%r12),%xmm1
    388d:	f2 0f 58 c1          	addsd  %xmm1,%xmm0
    3891:	f2 0f 11 04 cb       	movsd  %xmm0,(%rbx,%rcx,8)
    3896:	8b bc 24 8c 00 00 00 	mov    0x8c(%rsp),%edi
    389d:	39 bc 24 88 00 00 00 	cmp    %edi,0x88(%rsp)
    38a4:	74 2a                	je     38d0 <psinv_._omp_fn.0+0x640>
    38a6:	8b 7c 24 4c          	mov    0x4c(%rsp),%edi
    38aa:	8d 47 01             	lea    0x1(%rdi),%eax
    38ad:	3b bc 24 94 00 00 00 	cmp    0x94(%rsp),%edi
    38b4:	0f 8d a6 01 00 00    	jge    3a60 <psinv_._omp_fn.0+0x7d0>
    38ba:	83 84 24 88 00 00 00 	addl   $0x1,0x88(%rsp)
    38c1:	01 
    38c2:	89 44 24 4c          	mov    %eax,0x4c(%rsp)
    38c6:	e9 b5 fb ff ff       	jmp    3480 <psinv_._omp_fn.0+0x1f0>
    38cb:	0f 1f 44 00 00       	nopl   0x0(%rax,%rax,1)
    38d0:	48 81 c4 58 41 00 00 	add    $0x4158,%rsp
    38d7:	5b                   	pop    %rbx
    38d8:	5d                   	pop    %rbp
    38d9:	41 5c                	pop    %r12
    38db:	41 5d                	pop    %r13
    38dd:	41 5e                	pop    %r14
    38df:	41 5f                	pop    %r15
    38e1:	c3                   	ret    
    38e2:	66 0f 1f 44 00 00    	nopw   0x0(%rax,%rax,1)
    38e8:	83 7c 24 48 04       	cmpl   $0x4,0x48(%rsp)
    38ed:	0f 8e 93 01 00 00    	jle    3a86 <psinv_._omp_fn.0+0x7f6>
    38f3:	f2 0f 10 9c 24 10 01 	movsd  0x110(%rsp),%xmm3
    38fa:	00 00 
    38fc:	4c 8b 8c 24 98 00 00 	mov    0x98(%rsp),%r9
    3903:	00 
    3904:	48 8d 7c cb 10       	lea    0x10(%rbx,%rcx,8),%rdi
    3909:	49 8d 74 d7 08       	lea    0x8(%r15,%rdx,8),%rsi
    390e:	f2 0f 10 94 24 18 01 	movsd  0x118(%rsp),%xmm2
    3915:	00 00 
    3917:	4c 8b 94 24 a0 00 00 	mov    0xa0(%rsp),%r10
    391e:	00 
    391f:	b8 04 00 00 00       	mov    $0x4,%eax
    3924:	f2 0f 10 46 10       	movsd  0x10(%rsi),%xmm0
    3929:	f2 0f 58 06          	addsd  (%rsi),%xmm0
    392d:	41 89 c0             	mov    %eax,%r8d
    3930:	48 83 c7 10          	add    $0x10,%rdi
    3934:	f2 41 0f 58 5c c1 e8 	addsd  -0x18(%r9,%rax,8),%xmm3
    393b:	f2 0f 10 66 08       	movsd  0x8(%rsi),%xmm4
    3940:	48 83 c6 10          	add    $0x10,%rsi
    3944:	f2 41 0f 59 24 24    	mulsd  (%r12),%xmm4
    394a:	f2 0f 58 c2          	addsd  %xmm2,%xmm0
    394e:	f2 41 0f 59 44 24 08 	mulsd  0x8(%r12),%xmm0
    3955:	f2 0f 58 67 f0       	addsd  -0x10(%rdi),%xmm4
    395a:	66 0f 28 cb          	movapd %xmm3,%xmm1
    395e:	f2 41 0f 10 5c c2 f0 	movsd  -0x10(%r10,%rax,8),%xmm3
    3965:	f2 41 0f 58 54 c1 f0 	addsd  -0x10(%r9,%rax,8),%xmm2
    396c:	f2 0f 58 cb          	addsd  %xmm3,%xmm1
    3970:	f2 41 0f 59 4c 24 10 	mulsd  0x10(%r12),%xmm1
    3977:	f2 0f 58 c4          	addsd  %xmm4,%xmm0
    397b:	f2 0f 58 c1          	addsd  %xmm1,%xmm0
    397f:	66 0f 28 ca          	movapd %xmm2,%xmm1
    3983:	f2 41 0f 10 54 c2 f8 	movsd  -0x8(%r10,%rax,8),%xmm2
    398a:	48 83 c0 02          	add    $0x2,%rax
    398e:	f2 0f 58 ca          	addsd  %xmm2,%xmm1
    3992:	f2 0f 11 47 f0       	movsd  %xmm0,-0x10(%rdi)
    3997:	f2 0f 10 46 08       	movsd  0x8(%rsi),%xmm0
    399c:	f2 0f 58 46 f8       	addsd  -0x8(%rsi),%xmm0
    39a1:	f2 41 0f 10 24 24    	movsd  (%r12),%xmm4
    39a7:	f2 0f 59 26          	mulsd  (%rsi),%xmm4
    39ab:	f2 0f 58 67 f8       	addsd  -0x8(%rdi),%xmm4
    39b0:	f2 41 0f 59 4c 24 10 	mulsd  0x10(%r12),%xmm1
    39b7:	f2 0f 58 c3          	addsd  %xmm3,%xmm0
    39bb:	f2 41 0f 59 44 24 08 	mulsd  0x8(%r12),%xmm0
    39c2:	f2 0f 58 c4          	addsd  %xmm4,%xmm0
    39c6:	f2 0f 58 c1          	addsd  %xmm1,%xmm0
    39ca:	f2 0f 11 47 f8       	movsd  %xmm0,-0x8(%rdi)
    39cf:	48 39 84 24 08 01 00 	cmp    %rax,0x108(%rsp)
    39d6:	00 
    39d7:	0f 85 47 ff ff ff    	jne    3924 <psinv_._omp_fn.0+0x694>
    39dd:	48 8b bc 24 a0 00 00 	mov    0xa0(%rsp),%rdi
    39e4:	00 
    39e5:	49 63 c0             	movslq %r8d,%rax
    39e8:	48 8d 0c cb          	lea    (%rbx,%rcx,8),%rcx
    39ec:	49 8d 14 d7          	lea    (%r15,%rdx,8),%rdx
    39f0:	4c 8b 84 24 98 00 00 	mov    0x98(%rsp),%r8
    39f7:	00 
    39f8:	48 8d 34 c7          	lea    (%rdi,%rax,8),%rsi
    39fc:	8b 7c 24 48          	mov    0x48(%rsp),%edi
    3a00:	f2 0f 10 44 c2 f8    	movsd  -0x8(%rdx,%rax,8),%xmm0
    3a06:	f2 0f 58 44 c2 08    	addsd  0x8(%rdx,%rax,8),%xmm0
    3a0c:	48 83 c6 08          	add    $0x8,%rsi
    3a10:	f2 0f 58 46 f0       	addsd  -0x10(%rsi),%xmm0
    3a15:	f2 41 0f 59 44 24 08 	mulsd  0x8(%r12),%xmm0
    3a1c:	f2 41 0f 10 0c 24    	movsd  (%r12),%xmm1
    3a22:	f2 0f 59 0c c2       	mulsd  (%rdx,%rax,8),%xmm1
    3a27:	f2 0f 58 0c c1       	addsd  (%rcx,%rax,8),%xmm1
    3a2c:	f2 0f 58 c1          	addsd  %xmm1,%xmm0
    3a30:	f2 41 0f 10 4c c0 f8 	movsd  -0x8(%r8,%rax,8),%xmm1
    3a37:	f2 0f 58 4e e8       	addsd  -0x18(%rsi),%xmm1
    3a3c:	f2 0f 58 4e f8       	addsd  -0x8(%rsi),%xmm1
    3a41:	f2 41 0f 59 4c 24 10 	mulsd  0x10(%r12),%xmm1
    3a48:	f2 0f 58 c1          	addsd  %xmm1,%xmm0
    3a4c:	f2 0f 11 04 c1       	movsd  %xmm0,(%rcx,%rax,8)
    3a51:	48 83 c0 01          	add    $0x1,%rax
    3a55:	39 c7                	cmp    %eax,%edi
    3a57:	7f a7                	jg     3a00 <psinv_._omp_fn.0+0x770>
    3a59:	e9 38 fe ff ff       	jmp    3896 <psinv_._omp_fn.0+0x606>
    3a5e:	66 90                	xchg   %ax,%ax
    3a60:	83 84 24 90 00 00 00 	addl   $0x1,0x90(%rsp)
    3a67:	01 
    3a68:	b8 02 00 00 00       	mov    $0x2,%eax
    3a6d:	e9 48 fe ff ff       	jmp    38ba <psinv_._omp_fn.0+0x62a>
    3a72:	b8 01 00 00 00       	mov    $0x1,%eax
    3a77:	e9 a6 fb ff ff       	jmp    3622 <psinv_._omp_fn.0+0x392>
    3a7c:	83 c1 01             	add    $0x1,%ecx
    3a7f:	31 d2                	xor    %edx,%edx
    3a81:	e9 6a f8 ff ff       	jmp    32f0 <psinv_._omp_fn.0+0x60>
    3a86:	41 b8 02 00 00 00    	mov    $0x2,%r8d
    3a8c:	e9 4c ff ff ff       	jmp    39dd <psinv_._omp_fn.0+0x74d>
    3a91:	66 66 2e 0f 1f 84 00 	data16 cs nopw 0x0(%rax,%rax,1)
    3a98:	00 00 00 00 
    3a9c:	0f 1f 40 00          	nopl   0x0(%rax)

0000000000003aa0 <interp_._omp_fn.0>:
    3aa0:	41 57                	push   %r15
    3aa2:	41 56                	push   %r14
    3aa4:	41 55                	push   %r13
    3aa6:	41 54                	push   %r12
    3aa8:	55                   	push   %rbp
    3aa9:	53                   	push   %rbx
    3aaa:	48 81 ec 28 61 00 00 	sub    $0x6128,%rsp
    3ab1:	44 8b 77 4c          	mov    0x4c(%rdi),%r14d
    3ab5:	8b 6f 48             	mov    0x48(%rdi),%ebp
    3ab8:	44 89 b4 24 88 00 00 	mov    %r14d,0x88(%rsp)
    3abf:	00 
    3ac0:	85 ed                	test   %ebp,%ebp
    3ac2:	0f 8e d8 07 00 00    	jle    42a0 <interp_._omp_fn.0+0x800>
    3ac8:	45 85 f6             	test   %r14d,%r14d
    3acb:	0f 8e cf 07 00 00    	jle    42a0 <interp_._omp_fn.0+0x800>
    3ad1:	48 89 fb             	mov    %rdi,%rbx
    3ad4:	e8 97 e5 ff ff       	call   2070 <omp_get_num_threads@plt>
    3ad9:	41 89 c4             	mov    %eax,%r12d
    3adc:	e8 1f e6 ff ff       	call   2100 <omp_get_thread_num@plt>
    3ae1:	31 d2                	xor    %edx,%edx
    3ae3:	89 c1                	mov    %eax,%ecx
    3ae5:	89 e8                	mov    %ebp,%eax
    3ae7:	41 0f af c6          	imul   %r14d,%eax
    3aeb:	41 f7 f4             	div    %r12d
    3aee:	89 c6                	mov    %eax,%esi
    3af0:	39 d1                	cmp    %edx,%ecx
    3af2:	0f 82 a1 08 00 00    	jb     4399 <interp_._omp_fn.0+0x8f9>
    3af8:	0f af ce             	imul   %esi,%ecx
    3afb:	8d 04 11             	lea    (%rcx,%rdx,1),%eax
    3afe:	8d 14 06             	lea    (%rsi,%rax,1),%edx
    3b01:	39 d0                	cmp    %edx,%eax
    3b03:	0f 83 97 07 00 00    	jae    42a0 <interp_._omp_fn.0+0x800>
    3b09:	31 d2                	xor    %edx,%edx
    3b0b:	48 8b 4b 40          	mov    0x40(%rbx),%rcx
    3b0f:	4c 8b 6b 28          	mov    0x28(%rbx),%r13
    3b13:	f7 b4 24 88 00 00 00 	divl   0x88(%rsp)
    3b1a:	48 89 4c 24 40       	mov    %rcx,0x40(%rsp)
    3b1f:	48 8b 4b 38          	mov    0x38(%rbx),%rcx
    3b23:	48 89 4c 24 48       	mov    %rcx,0x48(%rsp)
    3b28:	48 8b 4b 30          	mov    0x30(%rbx),%rcx
    3b2c:	48 89 4c 24 50       	mov    %rcx,0x50(%rsp)
    3b31:	48 8b 4b 20          	mov    0x20(%rbx),%rcx
    3b35:	48 89 4c 24 08       	mov    %rcx,0x8(%rsp)
    3b3a:	48 8b 4b 18          	mov    0x18(%rbx),%rcx
    3b3e:	48 89 4c 24 58       	mov    %rcx,0x58(%rsp)
    3b43:	4d 89 ec             	mov    %r13,%r12
    3b46:	83 c0 01             	add    $0x1,%eax
    3b49:	8d 4a 01             	lea    0x1(%rdx),%ecx
    3b4c:	48 8b 53 10          	mov    0x10(%rbx),%rdx
    3b50:	89 44 24 68          	mov    %eax,0x68(%rsp)
    3b54:	48 8b 43 08          	mov    0x8(%rbx),%rax
    3b58:	89 4c 24 30          	mov    %ecx,0x30(%rsp)
    3b5c:	48 8b 0b             	mov    (%rbx),%rcx
    3b5f:	44 8b 38             	mov    (%rax),%r15d
    3b62:	8d 46 ff             	lea    -0x1(%rsi),%eax
    3b65:	89 84 24 8c 00 00 00 	mov    %eax,0x8c(%rsp)
    3b6c:	44 89 f8             	mov    %r15d,%eax
    3b6f:	d1 e8                	shr    %eax
    3b71:	83 e8 01             	sub    $0x1,%eax
    3b74:	48 83 c0 01          	add    $0x1,%rax
    3b78:	48 c1 e0 04          	shl    $0x4,%rax
    3b7c:	48 89 84 24 a0 00 00 	mov    %rax,0xa0(%rsp)
    3b83:	00 
    3b84:	44 89 f8             	mov    %r15d,%eax
    3b87:	83 e0 fe             	and    $0xfffffffe,%eax
    3b8a:	89 84 24 b0 00 00 00 	mov    %eax,0xb0(%rsp)
    3b91:	44 89 f8             	mov    %r15d,%eax
    3b94:	83 c8 01             	or     $0x1,%eax
    3b97:	89 84 24 b4 00 00 00 	mov    %eax,0xb4(%rsp)
    3b9e:	41 8d 47 ff          	lea    -0x1(%r15),%eax
    3ba2:	48 89 c3             	mov    %rax,%rbx
    3ba5:	89 44 24 34          	mov    %eax,0x34(%rsp)
    3ba9:	41 89 c6             	mov    %eax,%r14d
    3bac:	48 89 84 24 98 00 00 	mov    %rax,0x98(%rsp)
    3bb3:	00 
    3bb4:	48 01 c0             	add    %rax,%rax
    3bb7:	41 83 ce 01          	or     $0x1,%r14d
    3bbb:	48 89 84 24 90 00 00 	mov    %rax,0x90(%rsp)
    3bc2:	00 
    3bc3:	89 d8                	mov    %ebx,%eax
    3bc5:	83 e3 fe             	and    $0xfffffffe,%ebx
    3bc8:	d1 e8                	shr    %eax
    3bca:	89 5c 24 38          	mov    %ebx,0x38(%rsp)
    3bce:	83 e8 01             	sub    $0x1,%eax
    3bd1:	44 89 74 24 6c       	mov    %r14d,0x6c(%rsp)
    3bd6:	48 8d 70 01          	lea    0x1(%rax),%rsi
    3bda:	48 c1 e0 05          	shl    $0x5,%rax
    3bde:	48 c1 e6 04          	shl    $0x4,%rsi
    3be2:	48 89 b4 24 a8 00 00 	mov    %rsi,0xa8(%rsp)
    3be9:	00 
    3bea:	43 8d 34 36          	lea    (%r14,%r14,1),%esi
    3bee:	8d 7e ff             	lea    -0x1(%rsi),%edi
    3bf1:	48 63 ff             	movslq %edi,%rdi
    3bf4:	48 89 7c 24 28       	mov    %rdi,0x28(%rsp)
    3bf9:	49 63 fe             	movslq %r14d,%rdi
    3bfc:	48 89 7c 24 10       	mov    %rdi,0x10(%rsp)
    3c01:	48 63 fe             	movslq %esi,%rdi
    3c04:	8d 73 02             	lea    0x2(%rbx),%esi
    3c07:	48 63 de             	movslq %esi,%rbx
    3c0a:	41 8d 77 fe          	lea    -0x2(%r15),%esi
    3c0e:	48 89 7c 24 18       	mov    %rdi,0x18(%rsp)
    3c13:	48 89 5c 24 20       	mov    %rbx,0x20(%rsp)
    3c18:	48 8d 1c 36          	lea    (%rsi,%rsi,1),%rbx
    3c1c:	f2 0f 10 25 ec a9 00 	movsd  0xa9ec(%rip),%xmm4        # e610 <options.163.0+0x570>
    3c23:	00 
    3c24:	48 89 9c 24 b8 00 00 	mov    %rbx,0xb8(%rsp)
    3c2b:	00 
    3c2c:	66 0f 28 1d dc a9 00 	movapd 0xa9dc(%rip),%xmm3        # e610 <options.163.0+0x570>
    3c33:	00 
    3c34:	48 89 04 24          	mov    %rax,(%rsp)
    3c38:	f2 0f 10 15 b0 a9 00 	movsd  0xa9b0(%rip),%xmm2        # e5f0 <options.163.0+0x550>
    3c3f:	00 
    3c40:	c7 44 24 3c 00 00 00 	movl   $0x0,0x3c(%rsp)
    3c47:	00 
    3c48:	66 0f 28 0d a0 a9 00 	movapd 0xa9a0(%rip),%xmm1        # e5f0 <options.163.0+0x550>
    3c4f:	00 
    3c50:	66 0f 28 2d a8 a9 00 	movapd 0xa9a8(%rip),%xmm5        # e600 <options.163.0+0x560>
    3c57:	00 
    3c58:	0f 1f 84 00 00 00 00 	nopl   0x0(%rax,%rax,1)
    3c5f:	00 
    3c60:	45 85 ff             	test   %r15d,%r15d
    3c63:	0f 8e 03 06 00 00    	jle    426c <interp_._omp_fn.0+0x7cc>
    3c69:	8b 74 24 30          	mov    0x30(%rsp),%esi
    3c6d:	48 8b 7c 24 48       	mov    0x48(%rsp),%rdi
    3c72:	4c 8b 4c 24 50       	mov    0x50(%rsp),%r9
    3c77:	48 63 44 24 68       	movslq 0x68(%rsp),%rax
    3c7c:	44 8d 56 01          	lea    0x1(%rsi),%r10d
    3c80:	4c 8b 74 24 40       	mov    0x40(%rsp),%r14
    3c85:	4d 63 d2             	movslq %r10d,%r10
    3c88:	48 89 44 24 60       	mov    %rax,0x60(%rsp)
    3c8d:	48 0f af c7          	imul   %rdi,%rax
    3c91:	4d 0f af d1          	imul   %r9,%r10
    3c95:	49 8d 1c 06          	lea    (%r14,%rax,1),%rbx
    3c99:	48 01 f8             	add    %rdi,%rax
    3c9c:	4d 89 d3             	mov    %r10,%r11
    3c9f:	4c 01 f0             	add    %r14,%rax
    3ca2:	4a 8d 34 13          	lea    (%rbx,%r10,1),%rsi
    3ca6:	4d 29 cb             	sub    %r9,%r11
    3ca9:	49 8d 3c 02          	lea    (%r10,%rax,1),%rdi
    3cad:	4e 8d 0c 1b          	lea    (%rbx,%r11,1),%r9
    3cb1:	4d 8d 04 03          	lea    (%r11,%rax,1),%r8
    3cb5:	41 83 ff 01          	cmp    $0x1,%r15d
    3cb9:	0f 84 d0 06 00 00    	je     438f <interp_._omp_fn.0+0x8ef>
    3cbf:	49 83 c3 01          	add    $0x1,%r11
    3cc3:	4c 89 64 24 78       	mov    %r12,0x78(%rsp)
    3cc8:	4c 8d 74 f1 08       	lea    0x8(%rcx,%rsi,8),%r14
    3ccd:	4c 01 db             	add    %r11,%rbx
    3cd0:	49 01 c3             	add    %rax,%r11
    3cd3:	49 8d 44 02 01       	lea    0x1(%r10,%rax,1),%rax
    3cd8:	48 89 94 24 80 00 00 	mov    %rdx,0x80(%rsp)
    3cdf:	00 
    3ce0:	48 8b 94 24 a0 00 00 	mov    0xa0(%rsp),%rdx
    3ce7:	00 
    3ce8:	4c 8d 94 24 e0 20 00 	lea    0x20e0(%rsp),%r10
    3cef:	00 
    3cf0:	4c 8d 2c d9          	lea    (%rcx,%rbx,8),%r13
    3cf4:	4c 89 54 24 70       	mov    %r10,0x70(%rsp)
    3cf9:	48 8d 2c c1          	lea    (%rcx,%rax,8),%rbp
    3cfd:	4c 8b 64 24 70       	mov    0x70(%rsp),%r12
    3d02:	4e 8d 1c d9          	lea    (%rcx,%r11,8),%r11
    3d06:	31 c0                	xor    %eax,%eax
    3d08:	48 8d 9c 24 c0 00 00 	lea    0xc0(%rsp),%rbx
    3d0f:	00 
    3d10:	4c 8d 94 24 00 41 00 	lea    0x4100(%rsp),%r10
    3d17:	00 
    3d18:	0f 1f 84 00 00 00 00 	nopl   0x0(%rax,%rax,1)
    3d1f:	00 
    3d20:	66 41 0f 10 7c 05 00 	movupd 0x0(%r13,%rax,1),%xmm7
    3d27:	66 41 0f 10 34 06    	movupd (%r14,%rax,1),%xmm6
    3d2d:	66 0f 28 c7          	movapd %xmm7,%xmm0
    3d31:	66 0f 58 f7          	addpd  %xmm7,%xmm6
    3d35:	66 41 0f 10 3c 03    	movupd (%r11,%rax,1),%xmm7
    3d3b:	66 0f 58 c7          	addpd  %xmm7,%xmm0
    3d3f:	41 0f 29 34 02       	movaps %xmm6,(%r10,%rax,1)
    3d44:	41 0f 29 04 04       	movaps %xmm0,(%r12,%rax,1)
    3d49:	66 0f 10 44 05 00    	movupd 0x0(%rbp,%rax,1),%xmm0
    3d4f:	66 0f 58 c7          	addpd  %xmm7,%xmm0
    3d53:	66 0f 58 c6          	addpd  %xmm6,%xmm0
    3d57:	0f 29 04 03          	movaps %xmm0,(%rbx,%rax,1)
    3d5b:	48 83 c0 10          	add    $0x10,%rax
    3d5f:	48 39 c2             	cmp    %rax,%rdx
    3d62:	75 bc                	jne    3d20 <interp_._omp_fn.0+0x280>
    3d64:	4c 8b 64 24 78       	mov    0x78(%rsp),%r12
    3d69:	48 8b 94 24 80 00 00 	mov    0x80(%rsp),%rdx
    3d70:	00 
    3d71:	44 3b bc 24 b0 00 00 	cmp    0xb0(%rsp),%r15d
    3d78:	00 
    3d79:	74 62                	je     3ddd <interp_._omp_fn.0+0x33d>
    3d7b:	48 63 84 24 b4 00 00 	movslq 0xb4(%rsp),%rax
    3d82:	00 
    3d83:	49 01 c1             	add    %rax,%r9
    3d86:	48 01 c6             	add    %rax,%rsi
    3d89:	49 01 c0             	add    %rax,%r8
    3d8c:	48 01 c7             	add    %rax,%rdi
    3d8f:	f2 42 0f 10 34 c9    	movsd  (%rcx,%r9,8),%xmm6
    3d95:	f2 42 0f 10 04 c1    	movsd  (%rcx,%r8,8),%xmm0
    3d9b:	4c 8d 48 ff          	lea    -0x1(%rax),%r9
    3d9f:	f2 0f 10 3c f1       	movsd  (%rcx,%rsi,8),%xmm7
    3da4:	f2 0f 58 fe          	addsd  %xmm6,%xmm7
    3da8:	f2 0f 58 f0          	addsd  %xmm0,%xmm6
    3dac:	f2 0f 58 04 f9       	addsd  (%rcx,%rdi,8),%xmm0
    3db1:	f2 42 0f 11 bc cc 00 	movsd  %xmm7,0x4100(%rsp,%r9,8)
    3db8:	41 00 00 
    3dbb:	f2 42 0f 11 b4 cc e0 	movsd  %xmm6,0x20e0(%rsp,%r9,8)
    3dc2:	20 00 00 
    3dc5:	f2 0f 58 c7          	addsd  %xmm7,%xmm0
    3dc9:	f2 42 0f 11 84 cc c0 	movsd  %xmm0,0xc0(%rsp,%r9,8)
    3dd0:	00 00 00 
    3dd3:	41 83 ff 01          	cmp    $0x1,%r15d
    3dd7:	0f 8e 8f 04 00 00    	jle    426c <interp_._omp_fn.0+0x7cc>
    3ddd:	8b 44 24 68          	mov    0x68(%rsp),%eax
    3de1:	4c 63 54 24 30       	movslq 0x30(%rsp),%r10
    3de6:	4c 8b 44 24 60       	mov    0x60(%rsp),%r8
    3deb:	4c 0f af 44 24 48    	imul   0x48(%rsp),%r8
    3df1:	01 c0                	add    %eax,%eax
    3df3:	47 8d 34 12          	lea    (%r10,%r10,1),%r14d
    3df7:	48 8b 5c 24 40       	mov    0x40(%rsp),%rbx
    3dfc:	4c 8b ac 24 90 00 00 	mov    0x90(%rsp),%r13
    3e03:	00 
    3e04:	44 8d 58 ff          	lea    -0x1(%rax),%r11d
    3e08:	45 8d 4e ff          	lea    -0x1(%r14),%r9d
    3e0c:	4c 0f af 54 24 50    	imul   0x50(%rsp),%r10
    3e12:	4d 63 db             	movslq %r11d,%r11
    3e15:	4a 8d 3c 03          	lea    (%rbx,%r8,1),%rdi
    3e19:	4d 63 c9             	movslq %r9d,%r9
    3e1c:	4c 0f af 5c 24 08    	imul   0x8(%rsp),%r11
    3e22:	4c 0f af 4c 24 58    	imul   0x58(%rsp),%r9
    3e28:	4c 01 d7             	add    %r10,%rdi
    3e2b:	4d 01 c2             	add    %r8,%r10
    3e2e:	4d 01 e3             	add    %r12,%r11
    3e31:	49 01 da             	add    %rbx,%r10
    3e34:	4b 8d 34 0b          	lea    (%r11,%r9,1),%rsi
    3e38:	4a 8d 2c d5 08 00 00 	lea    0x8(,%r10,8),%rbp
    3e3f:	00 
    3e40:	48 8d 5e 01          	lea    0x1(%rsi),%rbx
    3e44:	4e 8d 6c 2e 01       	lea    0x1(%rsi,%r13,1),%r13
    3e49:	4c 8d 04 da          	lea    (%rdx,%rbx,8),%r8
    3e4d:	4e 8d 2c ea          	lea    (%rdx,%r13,8),%r13
    3e51:	48 89 5c 24 70       	mov    %rbx,0x70(%rsp)
    3e56:	48 8d 1c 29          	lea    (%rcx,%rbp,1),%rbx
    3e5a:	4c 39 eb             	cmp    %r13,%rbx
    3e5d:	4c 8b ac 24 98 00 00 	mov    0x98(%rsp),%r13
    3e64:	00 
    3e65:	0f 93 44 24 60       	setae  0x60(%rsp)
    3e6a:	4f 8d 54 15 02       	lea    0x2(%r13,%r10,1),%r10
    3e6f:	4e 8d 14 d1          	lea    (%rcx,%r10,8),%r10
    3e73:	4d 39 d0             	cmp    %r10,%r8
    3e76:	41 0f 93 c2          	setae  %r10b
    3e7a:	44 0a 54 24 60       	or     0x60(%rsp),%r10b
    3e7f:	0f 84 7b 04 00 00    	je     4300 <interp_._omp_fn.0+0x860>
    3e85:	41 83 ff 02          	cmp    $0x2,%r15d
    3e89:	0f 84 71 04 00 00    	je     4300 <interp_._omp_fn.0+0x860>
    3e8f:	4c 8b ac 24 a8 00 00 	mov    0xa8(%rsp),%r13
    3e96:	00 
    3e97:	48 8d 6c 29 08       	lea    0x8(%rcx,%rbp,1),%rbp
    3e9c:	45 31 d2             	xor    %r10d,%r10d
    3e9f:	66 0f 28 f3          	movapd %xmm3,%xmm6
    3ea3:	0f 1f 44 00 00       	nopl   0x0(%rax,%rax,1)
    3ea8:	66 43 0f 10 3c 50    	movupd (%r8,%r10,2),%xmm7
    3eae:	66 42 0f 10 04 13    	movupd (%rbx,%r10,1),%xmm0
    3eb4:	66 46 0f 10 14 13    	movupd (%rbx,%r10,1),%xmm10
    3eba:	66 47 0f 10 44 50 10 	movupd 0x10(%r8,%r10,2),%xmm8
    3ec1:	66 43 0f 16 7c 50 10 	movhpd 0x10(%r8,%r10,2),%xmm7
    3ec8:	66 47 0f 12 44 50 08 	movlpd 0x8(%r8,%r10,2),%xmm8
    3ecf:	66 0f 58 f8          	addpd  %xmm0,%xmm7
    3ed3:	66 42 0f 10 44 15 00 	movupd 0x0(%rbp,%r10,1),%xmm0
    3eda:	66 41 0f 58 c2       	addpd  %xmm10,%xmm0
    3edf:	66 0f 59 c3          	mulpd  %xmm3,%xmm0
    3ee3:	66 41 0f 58 c0       	addpd  %xmm8,%xmm0
    3ee8:	66 44 0f 28 c7       	movapd %xmm7,%xmm8
    3eed:	66 44 0f 14 c0       	unpcklpd %xmm0,%xmm8
    3ef2:	66 0f 15 f8          	unpckhpd %xmm0,%xmm7
    3ef6:	47 0f 11 04 50       	movups %xmm8,(%r8,%r10,2)
    3efb:	43 0f 11 7c 50 10    	movups %xmm7,0x10(%r8,%r10,2)
    3f01:	49 83 c2 10          	add    $0x10,%r10
    3f05:	4d 39 ea             	cmp    %r13,%r10
    3f08:	75 9e                	jne    3ea8 <interp_._omp_fn.0+0x408>
    3f0a:	44 8b 54 24 38       	mov    0x38(%rsp),%r10d
    3f0f:	44 39 54 24 34       	cmp    %r10d,0x34(%rsp)
    3f14:	74 47                	je     3f5d <interp_._omp_fn.0+0x4bd>
    3f16:	48 8b 5c 24 28       	mov    0x28(%rsp),%rbx
    3f1b:	4c 8d 14 1e          	lea    (%rsi,%rbx,1),%r10
    3f1f:	48 8b 5c 24 10       	mov    0x10(%rsp),%rbx
    3f24:	48 03 74 24 18       	add    0x18(%rsp),%rsi
    3f29:	f2 42 0f 10 04 d2    	movsd  (%rdx,%r10,8),%xmm0
    3f2f:	4c 8d 04 1f          	lea    (%rdi,%rbx,1),%r8
    3f33:	48 03 7c 24 20       	add    0x20(%rsp),%rdi
    3f38:	f2 42 0f 58 04 c1    	addsd  (%rcx,%r8,8),%xmm0
    3f3e:	f2 42 0f 11 04 d2    	movsd  %xmm0,(%rdx,%r10,8)
    3f44:	f2 0f 10 04 f9       	movsd  (%rcx,%rdi,8),%xmm0
    3f49:	f2 42 0f 58 04 c1    	addsd  (%rcx,%r8,8),%xmm0
    3f4f:	f2 0f 59 c4          	mulsd  %xmm4,%xmm0
    3f53:	f2 0f 58 04 f2       	addsd  (%rdx,%rsi,8),%xmm0
    3f58:	f2 0f 11 04 f2       	movsd  %xmm0,(%rdx,%rsi,8)
    3f5d:	49 63 de             	movslq %r14d,%rbx
    3f60:	48 0f af 5c 24 58    	imul   0x58(%rsp),%rbx
    3f66:	4d 8d 04 1b          	lea    (%r11,%rbx,1),%r8
    3f6a:	4c 8b 34 24          	mov    (%rsp),%r14
    3f6e:	49 8d 74 1b 01       	lea    0x1(%r11,%rbx,1),%rsi
    3f73:	48 8d bc 24 00 41 00 	lea    0x4100(%rsp),%rdi
    3f7a:	00 
    3f7b:	66 0f 28 f9          	movapd %xmm1,%xmm7
    3f7f:	48 8d 34 f2          	lea    (%rdx,%rsi,8),%rsi
    3f83:	4d 8d 56 20          	lea    0x20(%r14),%r10
    3f87:	4d 8d 1c 32          	lea    (%r10,%rsi,1),%r11
    3f8b:	0f 1f 44 00 00       	nopl   0x0(%rax,%rax,1)
    3f90:	66 44 0f 28 07       	movapd (%rdi),%xmm8
    3f95:	66 0f 10 06          	movupd (%rsi),%xmm0
    3f99:	48 83 c6 20          	add    $0x20,%rsi
    3f9d:	48 83 c7 10          	add    $0x10,%rdi
    3fa1:	66 44 0f 10 4e f0    	movupd -0x10(%rsi),%xmm9
    3fa7:	66 44 0f 12 4e e8    	movlpd -0x18(%rsi),%xmm9
    3fad:	66 44 0f 59 c6       	mulpd  %xmm6,%xmm8
    3fb2:	66 0f 16 46 f0       	movhpd -0x10(%rsi),%xmm0
    3fb7:	66 44 0f 58 c0       	addpd  %xmm0,%xmm8
    3fbc:	66 0f 10 47 f8       	movupd -0x8(%rdi),%xmm0
    3fc1:	66 0f 58 47 f0       	addpd  -0x10(%rdi),%xmm0
    3fc6:	66 0f 59 c1          	mulpd  %xmm1,%xmm0
    3fca:	66 41 0f 58 c1       	addpd  %xmm9,%xmm0
    3fcf:	66 45 0f 28 c8       	movapd %xmm8,%xmm9
    3fd4:	66 44 0f 14 c8       	unpcklpd %xmm0,%xmm9
    3fd9:	66 44 0f 15 c0       	unpckhpd %xmm0,%xmm8
    3fde:	44 0f 11 4e e0       	movups %xmm9,-0x20(%rsi)
    3fe3:	44 0f 11 46 f0       	movups %xmm8,-0x10(%rsi)
    3fe8:	4c 39 de             	cmp    %r11,%rsi
    3feb:	75 a3                	jne    3f90 <interp_._omp_fn.0+0x4f0>
    3fed:	8b 74 24 38          	mov    0x38(%rsp),%esi
    3ff1:	39 74 24 34          	cmp    %esi,0x34(%rsp)
    3ff5:	0f 84 dd 02 00 00    	je     42d8 <interp_._omp_fn.0+0x838>
    3ffb:	4c 63 54 24 6c       	movslq 0x6c(%rsp),%r10
    4000:	f2 0f 10 3d 08 a6 00 	movsd  0xa608(%rip),%xmm7        # e610 <options.163.0+0x570>
    4007:	00 
    4008:	45 8d 5a ff          	lea    -0x1(%r10),%r11d
    400c:	43 8d 34 12          	lea    (%r10,%r10,1),%esi
    4010:	48 98                	cltq   
    4012:	4d 63 db             	movslq %r11d,%r11
    4015:	48 0f af 44 24 08    	imul   0x8(%rsp),%rax
    401b:	8d 7e ff             	lea    -0x1(%rsi),%edi
    401e:	48 63 f6             	movslq %esi,%rsi
    4021:	f2 42 0f 10 84 dc 00 	movsd  0x4100(%rsp,%r11,8),%xmm0
    4028:	41 00 00 
    402b:	48 63 ff             	movslq %edi,%rdi
    402e:	4c 01 c6             	add    %r8,%rsi
    4031:	4c 01 c7             	add    %r8,%rdi
    4034:	66 0f 28 f0          	movapd %xmm0,%xmm6
    4038:	f2 42 0f 58 84 d4 00 	addsd  0x4100(%rsp,%r10,8),%xmm0
    403f:	41 00 00 
    4042:	f2 0f 59 f7          	mulsd  %xmm7,%xmm6
    4046:	f2 0f 58 34 fa       	addsd  (%rdx,%rdi,8),%xmm6
    404b:	f2 0f 59 c2          	mulsd  %xmm2,%xmm0
    404f:	f2 0f 11 34 fa       	movsd  %xmm6,(%rdx,%rdi,8)
    4054:	f2 0f 58 04 f2       	addsd  (%rdx,%rsi,8),%xmm0
    4059:	49 8d 3c 04          	lea    (%r12,%rax,1),%rdi
    405d:	66 0f 28 f2          	movapd %xmm2,%xmm6
    4061:	4d 8d 1c 39          	lea    (%r9,%rdi,1),%r11
    4065:	f2 0f 11 04 f2       	movsd  %xmm0,(%rdx,%rsi,8)
    406a:	41 83 ff 02          	cmp    $0x2,%r15d
    406e:	0f 84 54 02 00 00    	je     42c8 <interp_._omp_fn.0+0x828>
    4074:	48 8b 34 24          	mov    (%rsp),%rsi
    4078:	66 0f 28 f9          	movapd %xmm1,%xmm7
    407c:	66 0f 28 f3          	movapd %xmm3,%xmm6
    4080:	4c 8d 56 20          	lea    0x20(%rsi),%r10
    4084:	49 8d 6c 24 01       	lea    0x1(%r12),%rbp
    4089:	4c 8d 84 24 e0 20 00 	lea    0x20e0(%rsp),%r8
    4090:	00 
    4091:	48 8d 74 05 00       	lea    0x0(%rbp,%rax,1),%rsi
    4096:	4c 01 ce             	add    %r9,%rsi
    4099:	48 8d 34 f2          	lea    (%rdx,%rsi,8),%rsi
    409d:	4d 8d 0c 32          	lea    (%r10,%rsi,1),%r9
    40a1:	0f 1f 80 00 00 00 00 	nopl   0x0(%rax)
    40a8:	66 45 0f 28 00       	movapd (%r8),%xmm8
    40ad:	66 0f 10 06          	movupd (%rsi),%xmm0
    40b1:	48 83 c6 20          	add    $0x20,%rsi
    40b5:	49 83 c0 10          	add    $0x10,%r8
    40b9:	66 44 0f 10 4e f0    	movupd -0x10(%rsi),%xmm9
    40bf:	66 44 0f 12 4e e8    	movlpd -0x18(%rsi),%xmm9
    40c5:	66 44 0f 59 c6       	mulpd  %xmm6,%xmm8
    40ca:	66 0f 16 46 f0       	movhpd -0x10(%rsi),%xmm0
    40cf:	66 44 0f 58 c0       	addpd  %xmm0,%xmm8
    40d4:	66 41 0f 10 40 f8    	movupd -0x8(%r8),%xmm0
    40da:	66 41 0f 58 40 f0    	addpd  -0x10(%r8),%xmm0
    40e0:	66 0f 59 c7          	mulpd  %xmm7,%xmm0
    40e4:	66 41 0f 58 c1       	addpd  %xmm9,%xmm0
    40e9:	66 45 0f 28 c8       	movapd %xmm8,%xmm9
    40ee:	66 44 0f 14 c8       	unpcklpd %xmm0,%xmm9
    40f3:	66 44 0f 15 c0       	unpckhpd %xmm0,%xmm8
    40f8:	44 0f 11 4e e0       	movups %xmm9,-0x20(%rsi)
    40fd:	44 0f 11 46 f0       	movups %xmm8,-0x10(%rsi)
    4102:	4c 39 ce             	cmp    %r9,%rsi
    4105:	75 a1                	jne    40a8 <interp_._omp_fn.0+0x608>
    4107:	44 8b 74 24 38       	mov    0x38(%rsp),%r14d
    410c:	44 39 74 24 34       	cmp    %r14d,0x34(%rsp)
    4111:	0f 84 d9 01 00 00    	je     42f0 <interp_._omp_fn.0+0x850>
    4117:	4c 63 4c 24 6c       	movslq 0x6c(%rsp),%r9
    411c:	f2 0f 10 35 cc a4 00 	movsd  0xa4cc(%rip),%xmm6        # e5f0 <options.163.0+0x550>
    4123:	00 
    4124:	f2 0f 10 3d e4 a4 00 	movsd  0xa4e4(%rip),%xmm7        # e610 <options.163.0+0x570>
    412b:	00 
    412c:	45 8d 51 ff          	lea    -0x1(%r9),%r10d
    4130:	43 8d 34 09          	lea    (%r9,%r9,1),%esi
    4134:	48 01 df             	add    %rbx,%rdi
    4137:	4d 63 d2             	movslq %r10d,%r10
    413a:	44 8d 46 ff          	lea    -0x1(%rsi),%r8d
    413e:	48 63 f6             	movslq %esi,%rsi
    4141:	f2 42 0f 10 84 d4 e0 	movsd  0x20e0(%rsp,%r10,8),%xmm0
    4148:	20 00 00 
    414b:	4d 63 c0             	movslq %r8d,%r8
    414e:	4c 01 de             	add    %r11,%rsi
    4151:	4d 01 d8             	add    %r11,%r8
    4154:	f2 0f 59 f8          	mulsd  %xmm0,%xmm7
    4158:	f2 42 0f 58 84 cc e0 	addsd  0x20e0(%rsp,%r9,8),%xmm0
    415f:	20 00 00 
    4162:	f2 42 0f 58 3c c2    	addsd  (%rdx,%r8,8),%xmm7
    4168:	f2 0f 59 c6          	mulsd  %xmm6,%xmm0
    416c:	f2 42 0f 11 3c c2    	movsd  %xmm7,(%rdx,%r8,8)
    4172:	f2 0f 58 04 f2       	addsd  (%rdx,%rsi,8),%xmm0
    4177:	f2 0f 11 04 f2       	movsd  %xmm0,(%rdx,%rsi,8)
    417c:	41 83 ff 02          	cmp    $0x2,%r15d
    4180:	0f 84 32 01 00 00    	je     42b8 <interp_._omp_fn.0+0x818>
    4186:	48 8b 34 24          	mov    (%rsp),%rsi
    418a:	49 8d 6c 24 01       	lea    0x1(%r12),%rbp
    418f:	66 0f 28 f9          	movapd %xmm1,%xmm7
    4193:	4c 8d 56 20          	lea    0x20(%rsi),%r10
    4197:	48 01 e8             	add    %rbp,%rax
    419a:	48 8d b4 24 c0 00 00 	lea    0xc0(%rsp),%rsi
    41a1:	00 
    41a2:	48 01 d8             	add    %rbx,%rax
    41a5:	48 8d 04 c2          	lea    (%rdx,%rax,8),%rax
    41a9:	49 01 c2             	add    %rax,%r10
    41ac:	0f 1f 40 00          	nopl   0x0(%rax)
    41b0:	66 0f 28 36          	movapd (%rsi),%xmm6
    41b4:	66 0f 10 00          	movupd (%rax),%xmm0
    41b8:	48 83 c0 20          	add    $0x20,%rax
    41bc:	48 83 c6 10          	add    $0x10,%rsi
    41c0:	66 44 0f 10 40 f0    	movupd -0x10(%rax),%xmm8
    41c6:	66 44 0f 12 40 e8    	movlpd -0x18(%rax),%xmm8
    41cc:	66 0f 59 f7          	mulpd  %xmm7,%xmm6
    41d0:	66 0f 16 40 f0       	movhpd -0x10(%rax),%xmm0
    41d5:	66 0f 58 f0          	addpd  %xmm0,%xmm6
    41d9:	66 0f 10 46 f8       	movupd -0x8(%rsi),%xmm0
    41de:	66 0f 58 46 f0       	addpd  -0x10(%rsi),%xmm0
    41e3:	66 0f 59 c5          	mulpd  %xmm5,%xmm0
    41e7:	66 41 0f 58 c0       	addpd  %xmm8,%xmm0
    41ec:	66 44 0f 28 c6       	movapd %xmm6,%xmm8
    41f1:	66 44 0f 14 c0       	unpcklpd %xmm0,%xmm8
    41f6:	66 0f 15 f0          	unpckhpd %xmm0,%xmm6
    41fa:	44 0f 11 40 e0       	movups %xmm8,-0x20(%rax)
    41ff:	0f 11 70 f0          	movups %xmm6,-0x10(%rax)
    4203:	4c 39 d0             	cmp    %r10,%rax
    4206:	75 a8                	jne    41b0 <interp_._omp_fn.0+0x710>
    4208:	8b 5c 24 38          	mov    0x38(%rsp),%ebx
    420c:	39 5c 24 34          	cmp    %ebx,0x34(%rsp)
    4210:	74 5a                	je     426c <interp_._omp_fn.0+0x7cc>
    4212:	4c 63 44 24 6c       	movslq 0x6c(%rsp),%r8
    4217:	f2 0f 10 35 d1 a3 00 	movsd  0xa3d1(%rip),%xmm6        # e5f0 <options.163.0+0x550>
    421e:	00 
    421f:	45 8d 48 ff          	lea    -0x1(%r8),%r9d
    4223:	43 8d 04 00          	lea    (%r8,%r8,1),%eax
    4227:	4d 63 c9             	movslq %r9d,%r9
    422a:	8d 70 ff             	lea    -0x1(%rax),%esi
    422d:	48 98                	cltq   
    422f:	f2 42 0f 10 84 cc c0 	movsd  0xc0(%rsp,%r9,8),%xmm0
    4236:	00 00 00 
    4239:	48 63 f6             	movslq %esi,%rsi
    423c:	48 01 f8             	add    %rdi,%rax
    423f:	48 01 fe             	add    %rdi,%rsi
    4242:	f2 0f 59 f0          	mulsd  %xmm0,%xmm6
    4246:	f2 42 0f 58 84 c4 c0 	addsd  0xc0(%rsp,%r8,8),%xmm0
    424d:	00 00 00 
    4250:	f2 0f 58 34 f2       	addsd  (%rdx,%rsi,8),%xmm6
    4255:	f2 0f 59 05 a3 a3 00 	mulsd  0xa3a3(%rip),%xmm0        # e600 <options.163.0+0x560>
    425c:	00 
    425d:	f2 0f 11 34 f2       	movsd  %xmm6,(%rdx,%rsi,8)
    4262:	f2 0f 58 04 c2       	addsd  (%rdx,%rax,8),%xmm0
    4267:	f2 0f 11 04 c2       	movsd  %xmm0,(%rdx,%rax,8)
    426c:	8b 5c 24 3c          	mov    0x3c(%rsp),%ebx
    4270:	39 9c 24 8c 00 00 00 	cmp    %ebx,0x8c(%rsp)
    4277:	74 27                	je     42a0 <interp_._omp_fn.0+0x800>
    4279:	8b 5c 24 30          	mov    0x30(%rsp),%ebx
    427d:	8d 43 01             	lea    0x1(%rbx),%eax
    4280:	3b 9c 24 88 00 00 00 	cmp    0x88(%rsp),%ebx
    4287:	0f 8d f3 00 00 00    	jge    4380 <interp_._omp_fn.0+0x8e0>
    428d:	83 44 24 3c 01       	addl   $0x1,0x3c(%rsp)
    4292:	89 44 24 30          	mov    %eax,0x30(%rsp)
    4296:	e9 c5 f9 ff ff       	jmp    3c60 <interp_._omp_fn.0+0x1c0>
    429b:	0f 1f 44 00 00       	nopl   0x0(%rax,%rax,1)
    42a0:	48 81 c4 28 61 00 00 	add    $0x6128,%rsp
    42a7:	5b                   	pop    %rbx
    42a8:	5d                   	pop    %rbp
    42a9:	41 5c                	pop    %r12
    42ab:	41 5d                	pop    %r13
    42ad:	41 5e                	pop    %r14
    42af:	41 5f                	pop    %r15
    42b1:	c3                   	ret    
    42b2:	66 0f 1f 44 00 00    	nopw   0x0(%rax,%rax,1)
    42b8:	41 b8 01 00 00 00    	mov    $0x1,%r8d
    42be:	e9 5c ff ff ff       	jmp    421f <interp_._omp_fn.0+0x77f>
    42c3:	0f 1f 44 00 00       	nopl   0x0(%rax,%rax,1)
    42c8:	41 b9 01 00 00 00    	mov    $0x1,%r9d
    42ce:	e9 59 fe ff ff       	jmp    412c <interp_._omp_fn.0+0x68c>
    42d3:	0f 1f 44 00 00       	nopl   0x0(%rax,%rax,1)
    42d8:	48 98                	cltq   
    42da:	48 0f af 44 24 08    	imul   0x8(%rsp),%rax
    42e0:	49 8d 3c 04          	lea    (%r12,%rax,1),%rdi
    42e4:	4d 8d 1c 39          	lea    (%r9,%rdi,1),%r11
    42e8:	e9 97 fd ff ff       	jmp    4084 <interp_._omp_fn.0+0x5e4>
    42ed:	0f 1f 00             	nopl   (%rax)
    42f0:	48 01 df             	add    %rbx,%rdi
    42f3:	e9 9f fe ff ff       	jmp    4197 <interp_._omp_fn.0+0x6f7>
    42f8:	0f 1f 84 00 00 00 00 	nopl   0x0(%rax,%rax,1)
    42ff:	00 
    4300:	48 8b 5c 24 70       	mov    0x70(%rsp),%rbx
    4305:	48 03 b4 24 b8 00 00 	add    0xb8(%rsp),%rsi
    430c:	00 
    430d:	48 8d 7c f9 08       	lea    0x8(%rcx,%rdi,8),%rdi
    4312:	66 0f 28 fc          	movapd %xmm4,%xmm7
    4316:	48 8d 74 f2 18       	lea    0x18(%rdx,%rsi,8),%rsi
    431b:	4c 8d 04 da          	lea    (%rdx,%rbx,8),%r8
    431f:	90                   	nop
    4320:	f2 41 0f 10 00       	movsd  (%r8),%xmm0
    4325:	f2 0f 58 07          	addsd  (%rdi),%xmm0
    4329:	49 83 c0 10          	add    $0x10,%r8
    432d:	48 83 c7 08          	add    $0x8,%rdi
    4331:	f2 41 0f 11 40 f0    	movsd  %xmm0,-0x10(%r8)
    4337:	f2 0f 10 47 f8       	movsd  -0x8(%rdi),%xmm0
    433c:	f2 0f 58 07          	addsd  (%rdi),%xmm0
    4340:	f2 0f 59 c4          	mulsd  %xmm4,%xmm0
    4344:	f2 41 0f 58 40 f8    	addsd  -0x8(%r8),%xmm0
    434a:	f2 41 0f 11 40 f8    	movsd  %xmm0,-0x8(%r8)
    4350:	4c 39 c6             	cmp    %r8,%rsi
    4353:	75 cb                	jne    4320 <interp_._omp_fn.0+0x880>
    4355:	49 63 de             	movslq %r14d,%rbx
    4358:	48 0f af 5c 24 58    	imul   0x58(%rsp),%rbx
    435e:	41 ba 01 00 00 00    	mov    $0x1,%r10d
    4364:	4d 8d 04 1b          	lea    (%r11,%rbx,1),%r8
    4368:	41 83 ff 02          	cmp    $0x2,%r15d
    436c:	0f 84 96 fc ff ff    	je     4008 <interp_._omp_fn.0+0x568>
    4372:	66 0f 28 f3          	movapd %xmm3,%xmm6
    4376:	e9 ef fb ff ff       	jmp    3f6a <interp_._omp_fn.0+0x4ca>
    437b:	0f 1f 44 00 00       	nopl   0x0(%rax,%rax,1)
    4380:	83 44 24 68 01       	addl   $0x1,0x68(%rsp)
    4385:	b8 01 00 00 00       	mov    $0x1,%eax
    438a:	e9 fe fe ff ff       	jmp    428d <interp_._omp_fn.0+0x7ed>
    438f:	b8 01 00 00 00       	mov    $0x1,%eax
    4394:	e9 ea f9 ff ff       	jmp    3d83 <interp_._omp_fn.0+0x2e3>
    4399:	83 c6 01             	add    $0x1,%esi
    439c:	31 d2                	xor    %edx,%edx
    439e:	e9 55 f7 ff ff       	jmp    3af8 <interp_._omp_fn.0+0x58>
    43a3:	66 66 2e 0f 1f 84 00 	data16 cs nopw 0x0(%rax,%rax,1)
    43aa:	00 00 00 00 
    43ae:	66 90                	xchg   %ax,%ax

00000000000043b0 <interp_._omp_fn.1>:
    43b0:	41 57                	push   %r15
    43b2:	49 89 ff             	mov    %rdi,%r15
    43b5:	41 56                	push   %r14
    43b7:	41 55                	push   %r13
    43b9:	41 54                	push   %r12
    43bb:	55                   	push   %rbp
    43bc:	53                   	push   %rbx
    43bd:	48 81 ec 68 01 00 00 	sub    $0x168,%rsp
    43c4:	48 8b 47 50          	mov    0x50(%rdi),%rax
    43c8:	48 89 44 24 40       	mov    %rax,0x40(%rsp)
    43cd:	48 8b 47 48          	mov    0x48(%rdi),%rax
    43d1:	48 89 44 24 10       	mov    %rax,0x10(%rsp)
    43d6:	48 8b 47 40          	mov    0x40(%rdi),%rax
    43da:	48 89 44 24 18       	mov    %rax,0x18(%rsp)
    43df:	48 8b 47 38          	mov    0x38(%rdi),%rax
    43e3:	48 89 44 24 08       	mov    %rax,0x8(%rsp)
    43e8:	48 8b 47 30          	mov    0x30(%rdi),%rax
    43ec:	48 89 44 24 20       	mov    %rax,0x20(%rsp)
    43f1:	48 8b 47 28          	mov    0x28(%rdi),%rax
    43f5:	48 89 44 24 28       	mov    %rax,0x28(%rsp)
    43fa:	8b 47 6c             	mov    0x6c(%rdi),%eax
    43fd:	89 44 24 4c          	mov    %eax,0x4c(%rsp)
    4401:	8b 47 68             	mov    0x68(%rdi),%eax
    4404:	89 84 24 b8 00 00 00 	mov    %eax,0xb8(%rsp)
    440b:	8b 47 64             	mov    0x64(%rdi),%eax
    440e:	8b 7f 60             	mov    0x60(%rdi),%edi
    4411:	89 84 24 38 01 00 00 	mov    %eax,0x138(%rsp)
    4418:	41 8b 47 5c          	mov    0x5c(%r15),%eax
    441c:	89 7c 24 30          	mov    %edi,0x30(%rsp)
    4420:	89 44 24 38          	mov    %eax,0x38(%rsp)
    4424:	41 8b 47 58          	mov    0x58(%r15),%eax
    4428:	89 44 24 48          	mov    %eax,0x48(%rsp)
    442c:	49 8b 47 18          	mov    0x18(%r15),%rax
    4430:	8b 18                	mov    (%rax),%ebx
    4432:	49 8b 47 10          	mov    0x10(%r15),%rax
    4436:	8b 00                	mov    (%rax),%eax
    4438:	89 44 24 58          	mov    %eax,0x58(%rsp)
    443c:	39 df                	cmp    %ebx,%edi
    443e:	0f 8d ec 04 00 00    	jge    4930 <interp_._omp_fn.1+0x580>
    4444:	8b 7c 24 38          	mov    0x38(%rsp),%edi
    4448:	2b 5c 24 30          	sub    0x30(%rsp),%ebx
    444c:	39 c7                	cmp    %eax,%edi
    444e:	0f 8d dc 04 00 00    	jge    4930 <interp_._omp_fn.1+0x580>
    4454:	41 89 c4             	mov    %eax,%r12d
    4457:	41 29 fc             	sub    %edi,%r12d
    445a:	e8 11 dc ff ff       	call   2070 <omp_get_num_threads@plt>
    445f:	41 0f af dc          	imul   %r12d,%ebx
    4463:	89 c5                	mov    %eax,%ebp
    4465:	e8 96 dc ff ff       	call   2100 <omp_get_thread_num@plt>
    446a:	31 d2                	xor    %edx,%edx
    446c:	89 c1                	mov    %eax,%ecx
    446e:	89 d8                	mov    %ebx,%eax
    4470:	f7 f5                	div    %ebp
    4472:	89 c3                	mov    %eax,%ebx
    4474:	39 d1                	cmp    %edx,%ecx
    4476:	0f 82 37 1d 00 00    	jb     61b3 <interp_._omp_fn.1+0x1e03>
    447c:	0f af cb             	imul   %ebx,%ecx
    447f:	8d 04 11             	lea    (%rcx,%rdx,1),%eax
    4482:	8d 14 03             	lea    (%rbx,%rax,1),%edx
    4485:	39 d0                	cmp    %edx,%eax
    4487:	0f 83 a3 04 00 00    	jae    4930 <interp_._omp_fn.1+0x580>
    448d:	31 d2                	xor    %edx,%edx
    448f:	8b 4c 24 30          	mov    0x30(%rsp),%ecx
    4493:	44 8b 5c 24 48       	mov    0x48(%rsp),%r11d
    4498:	45 31 ed             	xor    %r13d,%r13d
    449b:	41 f7 f4             	div    %r12d
    449e:	8b 7c 24 38          	mov    0x38(%rsp),%edi
    44a2:	44 8d 04 08          	lea    (%rax,%rcx,1),%r8d
    44a6:	49 8b 47 08          	mov    0x8(%r15),%rax
    44aa:	49 8b 0f             	mov    (%r15),%rcx
    44ad:	01 d7                	add    %edx,%edi
    44af:	49 8b 57 20          	mov    0x20(%r15),%rdx
    44b3:	44 8b 20             	mov    (%rax),%r12d
    44b6:	8d 43 ff             	lea    -0x1(%rbx),%eax
    44b9:	89 44 24 60          	mov    %eax,0x60(%rsp)
    44bd:	44 89 e0             	mov    %r12d,%eax
    44c0:	44 29 d8             	sub    %r11d,%eax
    44c3:	44 8d 70 ff          	lea    -0x1(%rax),%r14d
    44c7:	48 89 44 24 68       	mov    %rax,0x68(%rsp)
    44cc:	44 89 f6             	mov    %r14d,%esi
    44cf:	44 89 f0             	mov    %r14d,%eax
    44d2:	44 89 b4 24 a8 00 00 	mov    %r14d,0xa8(%rsp)
    44d9:	00 
    44da:	83 e6 fe             	and    $0xfffffffe,%esi
    44dd:	d1 e8                	shr    %eax
    44df:	44 01 de             	add    %r11d,%esi
    44e2:	8d 58 ff             	lea    -0x1(%rax),%ebx
    44e5:	8d 04 36             	lea    (%rsi,%rsi,1),%eax
    44e8:	41 89 c1             	mov    %eax,%r9d
    44eb:	83 c0 02             	add    $0x2,%eax
    44ee:	45 29 d9             	sub    %r11d,%r9d
    44f1:	44 29 d8             	sub    %r11d,%eax
    44f4:	45 89 f3             	mov    %r14d,%r11d
    44f7:	4d 63 c9             	movslq %r9d,%r9
    44fa:	4c 63 d0             	movslq %eax,%r10
    44fd:	45 8d 74 24 ff       	lea    -0x1(%r12),%r14d
    4502:	4c 89 8c 24 c8 00 00 	mov    %r9,0xc8(%rsp)
    4509:	00 
    450a:	4c 63 ce             	movslq %esi,%r9
    450d:	4c 89 8c 24 d0 00 00 	mov    %r9,0xd0(%rsp)
    4514:	00 
    4515:	44 8d 4e 01          	lea    0x1(%rsi),%r9d
    4519:	41 8d 74 24 fe       	lea    -0x2(%r12),%esi
    451e:	89 f0                	mov    %esi,%eax
    4520:	44 89 8c 24 d8 00 00 	mov    %r9d,0xd8(%rsp)
    4527:	00 
    4528:	4d 63 c9             	movslq %r9d,%r9
    452b:	d1 e8                	shr    %eax
    452d:	4c 89 8c 24 08 01 00 	mov    %r9,0x108(%rsp)
    4534:	00 
    4535:	8d 68 ff             	lea    -0x1(%rax),%ebp
    4538:	89 f0                	mov    %esi,%eax
    453a:	4c 89 b4 24 80 00 00 	mov    %r14,0x80(%rsp)
    4541:	00 
    4542:	4f 8d 74 36 fe       	lea    -0x2(%r14,%r14,1),%r14
    4547:	83 c8 01             	or     $0x1,%eax
    454a:	4c 89 b4 24 88 00 00 	mov    %r14,0x88(%rsp)
    4551:	00 
    4552:	44 8b b4 24 38 01 00 	mov    0x138(%rsp),%r14d
    4559:	00 
    455a:	48 83 c5 01          	add    $0x1,%rbp
    455e:	4c 63 c8             	movslq %eax,%r9
    4561:	4c 89 94 24 00 01 00 	mov    %r10,0x100(%rsp)
    4568:	00 
    4569:	48 c1 e5 04          	shl    $0x4,%rbp
    456d:	43 8d 04 09          	lea    (%r9,%r9,1),%eax
    4571:	89 74 24 70          	mov    %esi,0x70(%rsp)
    4575:	83 e6 fe             	and    $0xfffffffe,%esi
    4578:	41 89 c2             	mov    %eax,%r10d
    457b:	83 c0 02             	add    $0x2,%eax
    457e:	4c 89 8c 24 c0 00 00 	mov    %r9,0xc0(%rsp)
    4585:	00 
    4586:	45 29 f2             	sub    %r14d,%r10d
    4589:	44 29 f0             	sub    %r14d,%eax
    458c:	4d 63 d2             	movslq %r10d,%r10
    458f:	4c 63 c8             	movslq %eax,%r9
    4592:	48 63 44 24 48       	movslq 0x48(%rsp),%rax
    4597:	4c 89 94 24 b0 00 00 	mov    %r10,0xb0(%rsp)
    459e:	00 
    459f:	44 8d 56 02          	lea    0x2(%rsi),%r10d
    45a3:	83 c6 03             	add    $0x3,%esi
    45a6:	4c 89 8c 24 f0 00 00 	mov    %r9,0xf0(%rsp)
    45ad:	00 
    45ae:	4c 63 ce             	movslq %esi,%r9
    45b1:	49 63 f6             	movslq %r14d,%rsi
    45b4:	48 89 74 24 78       	mov    %rsi,0x78(%rsp)
    45b9:	48 f7 de             	neg    %rsi
    45bc:	4c 8d 34 f5 00 00 00 	lea    0x0(,%rsi,8),%r14
    45c3:	00 
    45c4:	4c 89 8c 24 f8 00 00 	mov    %r9,0xf8(%rsp)
    45cb:	00 
    45cc:	4c 8b 4c 24 08       	mov    0x8(%rsp),%r9
    45d1:	4c 89 b4 24 10 01 00 	mov    %r14,0x110(%rsp)
    45d8:	00 
    45d9:	4c 8b 74 24 40       	mov    0x40(%rsp),%r14
    45de:	44 89 94 24 bc 00 00 	mov    %r10d,0xbc(%rsp)
    45e5:	00 
    45e6:	49 01 c1             	add    %rax,%r9
    45e9:	4d 63 d2             	movslq %r10d,%r10
    45ec:	4c 89 f6             	mov    %r14,%rsi
    45ef:	48 89 84 24 18 01 00 	mov    %rax,0x118(%rsp)
    45f6:	00 
    45f7:	48 01 c6             	add    %rax,%rsi
    45fa:	4c 89 94 24 e0 00 00 	mov    %r10,0xe0(%rsp)
    4601:	00 
    4602:	4a 8d 04 58          	lea    (%rax,%r11,2),%rax
    4606:	48 89 b4 24 90 00 00 	mov    %rsi,0x90(%rsp)
    460d:	00 
    460e:	4c 89 8c 24 98 00 00 	mov    %r9,0x98(%rsp)
    4615:	00 
    4616:	48 8b 74 24 68       	mov    0x68(%rsp),%rsi
    461b:	48 89 84 24 20 01 00 	mov    %rax,0x120(%rsp)
    4622:	00 
    4623:	48 8d 43 01          	lea    0x1(%rbx),%rax
    4627:	f2 0f 10 1d e1 9f 00 	movsd  0x9fe1(%rip),%xmm3        # e610 <options.163.0+0x570>
    462e:	00 
    462f:	48 8d 74 36 ff       	lea    -0x1(%rsi,%rsi,1),%rsi
    4634:	48 c1 e0 05          	shl    $0x5,%rax
    4638:	4c 89 bc 24 28 01 00 	mov    %r15,0x128(%rsp)
    463f:	00 
    4640:	66 0f 28 15 c8 9f 00 	movapd 0x9fc8(%rip),%xmm2        # e610 <options.163.0+0x570>
    4647:	00 
    4648:	48 89 b4 24 a0 00 00 	mov    %rsi,0xa0(%rsp)
    464f:	00 
    4650:	48 89 84 24 e8 00 00 	mov    %rax,0xe8(%rsp)
    4657:	00 
    4658:	0f 1f 84 00 00 00 00 	nopl   0x0(%rax,%rax,1)
    465f:	00 
    4660:	44 39 64 24 48       	cmp    %r12d,0x48(%rsp)
    4665:	0f 8d 25 01 00 00    	jge    4790 <interp_._omp_fn.1+0x3e0>
    466b:	47 8d 0c 00          	lea    (%r8,%r8,1),%r9d
    466f:	44 2b 4c 24 30       	sub    0x30(%rsp),%r9d
    4674:	8d 04 3f             	lea    (%rdi,%rdi,1),%eax
    4677:	2b 44 24 38          	sub    0x38(%rsp),%eax
    467b:	4d 63 c9             	movslq %r9d,%r9
    467e:	4c 0f af 4c 24 20    	imul   0x20(%rsp),%r9
    4684:	48 8b 5c 24 08       	mov    0x8(%rsp),%rbx
    4689:	48 98                	cltq   
    468b:	4d 63 d0             	movslq %r8d,%r10
    468e:	48 0f af 44 24 28    	imul   0x28(%rsp),%rax
    4694:	48 63 f7             	movslq %edi,%rsi
    4697:	4c 0f af 54 24 10    	imul   0x10(%rsp),%r10
    469d:	48 0f af 74 24 18    	imul   0x18(%rsp),%rsi
    46a3:	4e 8d 1c 0b          	lea    (%rbx,%r9,1),%r11
    46a7:	4c 03 8c 24 98 00 00 	add    0x98(%rsp),%r9
    46ae:	00 
    46af:	49 01 c1             	add    %rax,%r9
    46b2:	49 01 c3             	add    %rax,%r11
    46b5:	4b 8d 1c 16          	lea    (%r14,%r10,1),%rbx
    46b9:	4c 03 94 24 90 00 00 	add    0x90(%rsp),%r10
    46c0:	00 
    46c1:	4a 8d 04 ca          	lea    (%rdx,%r9,8),%rax
    46c5:	4c 03 8c 24 a0 00 00 	add    0xa0(%rsp),%r9
    46cc:	00 
    46cd:	49 01 f2             	add    %rsi,%r10
    46d0:	48 01 f3             	add    %rsi,%rbx
    46d3:	4e 8d 0c ca          	lea    (%rdx,%r9,8),%r9
    46d7:	4a 8d 34 d1          	lea    (%rcx,%r10,8),%rsi
    46db:	4c 39 ce             	cmp    %r9,%rsi
    46de:	41 0f 93 c1          	setae  %r9b
    46e2:	4c 03 54 24 68       	add    0x68(%rsp),%r10
    46e7:	4e 8d 14 d1          	lea    (%rcx,%r10,8),%r10
    46eb:	4c 39 d0             	cmp    %r10,%rax
    46ee:	41 0f 93 c2          	setae  %r10b
    46f2:	45 08 ca             	or     %r9b,%r10b
    46f5:	0f 84 65 17 00 00    	je     5e60 <interp_._omp_fn.1+0x1ab0>
    46fb:	83 bc 24 a8 00 00 00 	cmpl   $0x2,0xa8(%rsp)
    4702:	02 
    4703:	0f 86 57 17 00 00    	jbe    5e60 <interp_._omp_fn.1+0x1ab0>
    4709:	4c 8b bc 24 e8 00 00 	mov    0xe8(%rsp),%r15
    4710:	00 
    4711:	4e 8d 0c 38          	lea    (%rax,%r15,1),%r9
    4715:	0f 1f 00             	nopl   (%rax)
    4718:	66 0f 10 00          	movupd (%rax),%xmm0
    471c:	66 0f 10 26          	movupd (%rsi),%xmm4
    4720:	48 83 c0 20          	add    $0x20,%rax
    4724:	48 83 c6 10          	add    $0x10,%rsi
    4728:	66 0f 16 40 f0       	movhpd -0x10(%rax),%xmm0
    472d:	66 0f 58 c4          	addpd  %xmm4,%xmm0
    4731:	66 0f 13 40 e0       	movlpd %xmm0,-0x20(%rax)
    4736:	66 0f 17 40 f0       	movhpd %xmm0,-0x10(%rax)
    473b:	49 39 c1             	cmp    %rax,%r9
    473e:	75 d8                	jne    4718 <interp_._omp_fn.1+0x368>
    4740:	48 8b 84 24 c8 00 00 	mov    0xc8(%rsp),%rax
    4747:	00 
    4748:	48 8b b4 24 d0 00 00 	mov    0xd0(%rsp),%rsi
    474f:	00 
    4750:	4c 01 d8             	add    %r11,%rax
    4753:	48 01 de             	add    %rbx,%rsi
    4756:	f2 0f 10 04 c2       	movsd  (%rdx,%rax,8),%xmm0
    475b:	f2 0f 58 04 f1       	addsd  (%rcx,%rsi,8),%xmm0
    4760:	f2 0f 11 04 c2       	movsd  %xmm0,(%rdx,%rax,8)
    4765:	44 3b a4 24 d8 00 00 	cmp    0xd8(%rsp),%r12d
    476c:	00 
    476d:	7e 21                	jle    4790 <interp_._omp_fn.1+0x3e0>
    476f:	4c 03 9c 24 00 01 00 	add    0x100(%rsp),%r11
    4776:	00 
    4777:	48 03 9c 24 08 01 00 	add    0x108(%rsp),%rbx
    477e:	00 
    477f:	f2 42 0f 10 04 da    	movsd  (%rdx,%r11,8),%xmm0
    4785:	f2 0f 58 04 d9       	addsd  (%rcx,%rbx,8),%xmm0
    478a:	f2 42 0f 11 04 da    	movsd  %xmm0,(%rdx,%r11,8)
    4790:	41 83 fc 01          	cmp    $0x1,%r12d
    4794:	0f 8e 6d 01 00 00    	jle    4907 <interp_._omp_fn.1+0x557>
    479a:	43 8d 1c 00          	lea    (%r8,%r8,1),%ebx
    479e:	2b 5c 24 30          	sub    0x30(%rsp),%ebx
    47a2:	49 63 f0             	movslq %r8d,%rsi
    47a5:	4c 8b 7c 24 08       	mov    0x8(%rsp),%r15
    47aa:	48 0f af 74 24 10    	imul   0x10(%rsp),%rsi
    47b0:	48 63 db             	movslq %ebx,%rbx
    47b3:	8d 04 3f             	lea    (%rdi,%rdi,1),%eax
    47b6:	4c 63 d7             	movslq %edi,%r10
    47b9:	48 0f af 5c 24 20    	imul   0x20(%rsp),%rbx
    47bf:	2b 44 24 38          	sub    0x38(%rsp),%eax
    47c3:	4c 0f af 54 24 18    	imul   0x18(%rsp),%r10
    47c9:	48 98                	cltq   
    47cb:	48 0f af 44 24 28    	imul   0x28(%rsp),%rax
    47d1:	4d 8d 0c 36          	lea    (%r14,%rsi,1),%r9
    47d5:	4d 8d 1c 1f          	lea    (%r15,%rbx,1),%r11
    47d9:	4c 2b 7c 24 78       	sub    0x78(%rsp),%r15
    47de:	4c 01 d6             	add    %r10,%rsi
    47e1:	4d 01 d1             	add    %r10,%r9
    47e4:	4d 89 fa             	mov    %r15,%r10
    47e7:	49 01 da             	add    %rbx,%r10
    47ea:	49 01 c3             	add    %rax,%r11
    47ed:	4c 01 f6             	add    %r14,%rsi
    47f0:	49 01 c2             	add    %rax,%r10
    47f3:	4c 8d 3c f5 08 00 00 	lea    0x8(,%rsi,8),%r15
    47fa:	00 
    47fb:	4a 8d 44 d2 10       	lea    0x10(%rdx,%r10,8),%rax
    4800:	4a 8d 1c 39          	lea    (%rcx,%r15,1),%rbx
    4804:	48 89 44 24 50       	mov    %rax,0x50(%rsp)
    4809:	48 8b 84 24 80 00 00 	mov    0x80(%rsp),%rax
    4810:	00 
    4811:	48 8d 74 06 02       	lea    0x2(%rsi,%rax,1),%rsi
    4816:	48 8b 84 24 88 00 00 	mov    0x88(%rsp),%rax
    481d:	00 
    481e:	48 8d 34 f1          	lea    (%rcx,%rsi,8),%rsi
    4822:	48 39 74 24 50       	cmp    %rsi,0x50(%rsp)
    4827:	4d 8d 54 02 03       	lea    0x3(%r10,%rax,1),%r10
    482c:	40 0f 93 c6          	setae  %sil
    4830:	4e 8d 14 d2          	lea    (%rdx,%r10,8),%r10
    4834:	4c 39 d3             	cmp    %r10,%rbx
    4837:	41 0f 93 c2          	setae  %r10b
    483b:	41 08 f2             	or     %sil,%r10b
    483e:	0f 84 c4 15 00 00    	je     5e08 <interp_._omp_fn.1+0x1a58>
    4844:	83 7c 24 70 01       	cmpl   $0x1,0x70(%rsp)
    4849:	0f 86 b9 15 00 00    	jbe    5e08 <interp_._omp_fn.1+0x1a58>
    484f:	48 8b 44 24 50       	mov    0x50(%rsp),%rax
    4854:	4e 8d 54 39 08       	lea    0x8(%rcx,%r15,1),%r10
    4859:	31 f6                	xor    %esi,%esi
    485b:	0f 1f 44 00 00       	nopl   0x0(%rax,%rax,1)
    4860:	66 41 0f 10 04 32    	movupd (%r10,%rsi,1),%xmm0
    4866:	66 0f 10 24 33       	movupd (%rbx,%rsi,1),%xmm4
    486b:	66 0f 10 0c 70       	movupd (%rax,%rsi,2),%xmm1
    4870:	66 0f 58 c4          	addpd  %xmm4,%xmm0
    4874:	66 0f 16 4c 70 10    	movhpd 0x10(%rax,%rsi,2),%xmm1
    487a:	66 0f 59 c2          	mulpd  %xmm2,%xmm0
    487e:	66 0f 58 c1          	addpd  %xmm1,%xmm0
    4882:	66 0f 13 04 70       	movlpd %xmm0,(%rax,%rsi,2)
    4887:	66 0f 17 44 70 10    	movhpd %xmm0,0x10(%rax,%rsi,2)
    488d:	48 83 c6 10          	add    $0x10,%rsi
    4891:	48 39 ee             	cmp    %rbp,%rsi
    4894:	75 ca                	jne    4860 <interp_._omp_fn.1+0x4b0>
    4896:	48 8b 9c 24 e0 00 00 	mov    0xe0(%rsp),%rbx
    489d:	00 
    489e:	48 8b 84 24 b0 00 00 	mov    0xb0(%rsp),%rax
    48a5:	00 
    48a6:	49 8d 34 19          	lea    (%r9,%rbx,1),%rsi
    48aa:	48 8b 9c 24 c0 00 00 	mov    0xc0(%rsp),%rbx
    48b1:	00 
    48b2:	4c 01 d8             	add    %r11,%rax
    48b5:	4d 8d 14 19          	lea    (%r9,%rbx,1),%r10
    48b9:	f2 42 0f 10 04 d1    	movsd  (%rcx,%r10,8),%xmm0
    48bf:	f2 0f 58 04 f1       	addsd  (%rcx,%rsi,8),%xmm0
    48c4:	f2 0f 59 c3          	mulsd  %xmm3,%xmm0
    48c8:	f2 0f 58 04 c2       	addsd  (%rdx,%rax,8),%xmm0
    48cd:	f2 0f 11 04 c2       	movsd  %xmm0,(%rdx,%rax,8)
    48d2:	44 3b a4 24 bc 00 00 	cmp    0xbc(%rsp),%r12d
    48d9:	00 
    48da:	7e 2b                	jle    4907 <interp_._omp_fn.1+0x557>
    48dc:	4c 03 8c 24 f8 00 00 	add    0xf8(%rsp),%r9
    48e3:	00 
    48e4:	4c 03 9c 24 f0 00 00 	add    0xf0(%rsp),%r11
    48eb:	00 
    48ec:	f2 42 0f 10 04 c9    	movsd  (%rcx,%r9,8),%xmm0
    48f2:	f2 0f 58 04 f1       	addsd  (%rcx,%rsi,8),%xmm0
    48f7:	f2 0f 59 c3          	mulsd  %xmm3,%xmm0
    48fb:	f2 42 0f 58 04 da    	addsd  (%rdx,%r11,8),%xmm0
    4901:	f2 42 0f 11 04 da    	movsd  %xmm0,(%rdx,%r11,8)
    4907:	44 39 6c 24 60       	cmp    %r13d,0x60(%rsp)
    490c:	74 1a                	je     4928 <interp_._omp_fn.1+0x578>
    490e:	83 c7 01             	add    $0x1,%edi
    4911:	39 7c 24 58          	cmp    %edi,0x58(%rsp)
    4915:	0f 8e 55 18 00 00    	jle    6170 <interp_._omp_fn.1+0x1dc0>
    491b:	41 83 c5 01          	add    $0x1,%r13d
    491f:	e9 3c fd ff ff       	jmp    4660 <interp_._omp_fn.1+0x2b0>
    4924:	0f 1f 40 00          	nopl   0x0(%rax)
    4928:	4c 8b bc 24 28 01 00 	mov    0x128(%rsp),%r15
    492f:	00 
    4930:	e8 5b d8 ff ff       	call   2190 <GOMP_barrier@plt>
    4935:	49 8b 47 18          	mov    0x18(%r15),%rax
    4939:	8b 18                	mov    (%rax),%ebx
    493b:	49 8b 47 10          	mov    0x10(%r15),%rax
    493f:	8b 00                	mov    (%rax),%eax
    4941:	89 44 24 78          	mov    %eax,0x78(%rsp)
    4945:	44 8d 60 ff          	lea    -0x1(%rax),%r12d
    4949:	39 5c 24 30          	cmp    %ebx,0x30(%rsp)
    494d:	0f 8d ed 05 00 00    	jge    4f40 <interp_._omp_fn.1+0xb90>
    4953:	2b 5c 24 30          	sub    0x30(%rsp),%ebx
    4957:	83 7c 24 78 01       	cmpl   $0x1,0x78(%rsp)
    495c:	0f 8e de 05 00 00    	jle    4f40 <interp_._omp_fn.1+0xb90>
    4962:	e8 09 d7 ff ff       	call   2070 <omp_get_num_threads@plt>
    4967:	41 0f af dc          	imul   %r12d,%ebx
    496b:	89 c5                	mov    %eax,%ebp
    496d:	e8 8e d7 ff ff       	call   2100 <omp_get_thread_num@plt>
    4972:	31 d2                	xor    %edx,%edx
    4974:	89 c1                	mov    %eax,%ecx
    4976:	89 d8                	mov    %ebx,%eax
    4978:	f7 f5                	div    %ebp
    497a:	89 c3                	mov    %eax,%ebx
    497c:	39 d1                	cmp    %edx,%ecx
    497e:	0f 82 39 18 00 00    	jb     61bd <interp_._omp_fn.1+0x1e0d>
    4984:	0f af cb             	imul   %ebx,%ecx
    4987:	8d 04 11             	lea    (%rcx,%rdx,1),%eax
    498a:	8d 14 03             	lea    (%rbx,%rax,1),%edx
    498d:	39 d0                	cmp    %edx,%eax
    498f:	0f 83 ab 05 00 00    	jae    4f40 <interp_._omp_fn.1+0xb90>
    4995:	31 d2                	xor    %edx,%edx
    4997:	8b 6c 24 48          	mov    0x48(%rsp),%ebp
    499b:	c7 44 24 58 00 00 00 	movl   $0x0,0x58(%rsp)
    49a2:	00 
    49a3:	41 f7 f4             	div    %r12d
    49a6:	49 8b 77 20          	mov    0x20(%r15),%rsi
    49aa:	03 44 24 30          	add    0x30(%rsp),%eax
    49ae:	89 44 24 60          	mov    %eax,0x60(%rsp)
    49b2:	49 8b 47 08          	mov    0x8(%r15),%rax
    49b6:	44 8b 18             	mov    (%rax),%r11d
    49b9:	8d 43 ff             	lea    -0x1(%rbx),%eax
    49bc:	89 84 24 88 00 00 00 	mov    %eax,0x88(%rsp)
    49c3:	8d 7a 01             	lea    0x1(%rdx),%edi
    49c6:	49 8b 17             	mov    (%r15),%rdx
    49c9:	44 89 d8             	mov    %r11d,%eax
    49cc:	44 89 5c 24 50       	mov    %r11d,0x50(%rsp)
    49d1:	29 e8                	sub    %ebp,%eax
    49d3:	44 8d 70 ff          	lea    -0x1(%rax),%r14d
    49d7:	41 89 c4             	mov    %eax,%r12d
    49da:	44 89 f1             	mov    %r14d,%ecx
    49dd:	44 89 f0             	mov    %r14d,%eax
    49e0:	4c 89 64 24 68       	mov    %r12,0x68(%rsp)
    49e5:	83 e1 fe             	and    $0xfffffffe,%ecx
    49e8:	d1 e8                	shr    %eax
    49ea:	44 89 b4 24 bc 00 00 	mov    %r14d,0xbc(%rsp)
    49f1:	00 
    49f2:	01 e9                	add    %ebp,%ecx
    49f4:	8d 58 ff             	lea    -0x1(%rax),%ebx
    49f7:	8d 04 09             	lea    (%rcx,%rcx,1),%eax
    49fa:	48 83 c3 01          	add    $0x1,%rbx
    49fe:	41 89 c0             	mov    %eax,%r8d
    4a01:	83 c0 02             	add    $0x2,%eax
    4a04:	48 c1 e3 04          	shl    $0x4,%rbx
    4a08:	41 29 e8             	sub    %ebp,%r8d
    4a0b:	29 e8                	sub    %ebp,%eax
    4a0d:	4d 63 c0             	movslq %r8d,%r8
    4a10:	48 98                	cltq   
    4a12:	4c 89 84 24 c0 00 00 	mov    %r8,0xc0(%rsp)
    4a19:	00 
    4a1a:	4c 63 c1             	movslq %ecx,%r8
    4a1d:	83 c1 01             	add    $0x1,%ecx
    4a20:	48 89 84 24 10 01 00 	mov    %rax,0x110(%rsp)
    4a27:	00 
    4a28:	48 63 c1             	movslq %ecx,%rax
    4a2b:	48 89 84 24 18 01 00 	mov    %rax,0x118(%rsp)
    4a32:	00 
    4a33:	44 89 f0             	mov    %r14d,%eax
    4a36:	45 8d 73 fe          	lea    -0x2(%r11),%r14d
    4a3a:	4c 89 84 24 c8 00 00 	mov    %r8,0xc8(%rsp)
    4a41:	00 
    4a42:	45 8d 43 ff          	lea    -0x1(%r11),%r8d
    4a46:	45 89 f1             	mov    %r14d,%r9d
    4a49:	48 8d 04 c5 08 00 00 	lea    0x8(,%rax,8),%rax
    4a50:	00 
    4a51:	48 89 84 24 20 01 00 	mov    %rax,0x120(%rsp)
    4a58:	00 
    4a59:	4b 8d 44 00 fe       	lea    -0x2(%r8,%r8,1),%rax
    4a5e:	41 83 c9 01          	or     $0x1,%r9d
    4a62:	44 8b 9c 24 38 01 00 	mov    0x138(%rsp),%r11d
    4a69:	00 
    4a6a:	48 89 84 24 90 00 00 	mov    %rax,0x90(%rsp)
    4a71:	00 
    4a72:	44 89 f0             	mov    %r14d,%eax
    4a75:	d1 e8                	shr    %eax
    4a77:	89 8c 24 f0 00 00 00 	mov    %ecx,0xf0(%rsp)
    4a7e:	44 89 f1             	mov    %r14d,%ecx
    4a81:	83 e8 01             	sub    $0x1,%eax
    4a84:	83 e1 fe             	and    $0xfffffffe,%ecx
    4a87:	44 89 b4 24 b0 00 00 	mov    %r14d,0xb0(%rsp)
    4a8e:	00 
    4a8f:	48 83 c0 01          	add    $0x1,%rax
    4a93:	48 c1 e0 04          	shl    $0x4,%rax
    4a97:	48 89 84 24 f8 00 00 	mov    %rax,0xf8(%rsp)
    4a9e:	00 
    4a9f:	43 8d 04 09          	lea    (%r9,%r9,1),%eax
    4aa3:	4d 63 c9             	movslq %r9d,%r9
    4aa6:	41 89 c2             	mov    %eax,%r10d
    4aa9:	83 c0 02             	add    $0x2,%eax
    4aac:	4c 89 8c 24 e8 00 00 	mov    %r9,0xe8(%rsp)
    4ab3:	00 
    4ab4:	45 29 da             	sub    %r11d,%r10d
    4ab7:	44 29 d8             	sub    %r11d,%eax
    4aba:	4d 63 d2             	movslq %r10d,%r10
    4abd:	48 98                	cltq   
    4abf:	4c 89 94 24 d0 00 00 	mov    %r10,0xd0(%rsp)
    4ac6:	00 
    4ac7:	44 8d 51 02          	lea    0x2(%rcx),%r10d
    4acb:	83 c1 03             	add    $0x3,%ecx
    4ace:	48 89 84 24 00 01 00 	mov    %rax,0x100(%rsp)
    4ad5:	00 
    4ad6:	48 63 c1             	movslq %ecx,%rax
    4ad9:	48 89 84 24 08 01 00 	mov    %rax,0x108(%rsp)
    4ae0:	00 
    4ae1:	44 89 f0             	mov    %r14d,%eax
    4ae4:	48 8d 04 c5 08 00 00 	lea    0x8(,%rax,8),%rax
    4aeb:	00 
    4aec:	44 89 94 24 d8 00 00 	mov    %r10d,0xd8(%rsp)
    4af3:	00 
    4af4:	4d 63 d2             	movslq %r10d,%r10
    4af7:	48 89 84 24 28 01 00 	mov    %rax,0x128(%rsp)
    4afe:	00 
    4aff:	49 63 c3             	movslq %r11d,%rax
    4b02:	48 89 84 24 98 00 00 	mov    %rax,0x98(%rsp)
    4b09:	00 
    4b0a:	48 f7 d8             	neg    %rax
    4b0d:	48 c1 e0 03          	shl    $0x3,%rax
    4b11:	4c 89 94 24 e0 00 00 	mov    %r10,0xe0(%rsp)
    4b18:	00 
    4b19:	48 89 84 24 30 01 00 	mov    %rax,0x130(%rsp)
    4b20:	00 
    4b21:	48 63 c5             	movslq %ebp,%rax
    4b24:	48 89 84 24 80 00 00 	mov    %rax,0x80(%rsp)
    4b2b:	00 
    4b2c:	48 8b 4c 24 08       	mov    0x8(%rsp),%rcx
    4b31:	4c 89 bc 24 40 01 00 	mov    %r15,0x140(%rsp)
    4b38:	00 
    4b39:	f2 0f 10 25 cf 9a 00 	movsd  0x9acf(%rip),%xmm4        # e610 <options.163.0+0x570>
    4b40:	00 
    4b41:	48 01 c1             	add    %rax,%rcx
    4b44:	4b 8d 44 24 ff       	lea    -0x1(%r12,%r12,1),%rax
    4b49:	66 0f 28 15 bf 9a 00 	movapd 0x9abf(%rip),%xmm2        # e610 <options.163.0+0x570>
    4b50:	00 
    4b51:	f2 0f 10 1d 97 9a 00 	movsd  0x9a97(%rip),%xmm3        # e5f0 <options.163.0+0x550>
    4b58:	00 
    4b59:	48 89 84 24 a8 00 00 	mov    %rax,0xa8(%rsp)
    4b60:	00 
    4b61:	49 8d 40 02          	lea    0x2(%r8),%rax
    4b65:	66 0f 28 0d 83 9a 00 	movapd 0x9a83(%rip),%xmm1        # e5f0 <options.163.0+0x550>
    4b6c:	00 
    4b6d:	48 89 8c 24 a0 00 00 	mov    %rcx,0xa0(%rsp)
    4b74:	00 
    4b75:	48 89 44 24 70       	mov    %rax,0x70(%rsp)
    4b7a:	66 0f 1f 44 00 00    	nopw   0x0(%rax,%rax,1)
    4b80:	8b 4c 24 50          	mov    0x50(%rsp),%ecx
    4b84:	39 4c 24 48          	cmp    %ecx,0x48(%rsp)
    4b88:	0f 8d 8a 01 00 00    	jge    4d18 <interp_._omp_fn.1+0x968>
    4b8e:	4c 8b 7c 24 18       	mov    0x18(%rsp),%r15
    4b93:	8d 4f 01             	lea    0x1(%rdi),%ecx
    4b96:	4c 63 54 24 60       	movslq 0x60(%rsp),%r10
    4b9b:	8d 04 3f             	lea    (%rdi,%rdi,1),%eax
    4b9e:	48 63 c9             	movslq %ecx,%rcx
    4ba1:	2b 84 24 b8 00 00 00 	sub    0xb8(%rsp),%eax
    4ba8:	4c 8b 74 24 08       	mov    0x8(%rsp),%r14
    4bad:	49 0f af cf          	imul   %r15,%rcx
    4bb1:	47 8d 0c 12          	lea    (%r10,%r10,1),%r9d
    4bb5:	44 2b 4c 24 30       	sub    0x30(%rsp),%r9d
    4bba:	48 98                	cltq   
    4bbc:	4c 0f af 54 24 10    	imul   0x10(%rsp),%r10
    4bc2:	4c 03 54 24 40       	add    0x40(%rsp),%r10
    4bc7:	4d 63 c9             	movslq %r9d,%r9
    4bca:	4c 0f af 4c 24 20    	imul   0x20(%rsp),%r9
    4bd0:	48 0f af 44 24 28    	imul   0x28(%rsp),%rax
    4bd6:	4d 8d 1c 0a          	lea    (%r10,%rcx,1),%r11
    4bda:	4c 29 f9             	sub    %r15,%rcx
    4bdd:	4c 8b bc 24 80 00 00 	mov    0x80(%rsp),%r15
    4be4:	00 
    4be5:	49 8d 2c 0a          	lea    (%r10,%rcx,1),%rbp
    4be9:	4f 8d 2c 3b          	lea    (%r11,%r15,1),%r13
    4bed:	4c 01 f9             	add    %r15,%rcx
    4bf0:	4c 8b 7c 24 68       	mov    0x68(%rsp),%r15
    4bf5:	4f 8d 04 0e          	lea    (%r14,%r9,1),%r8
    4bf9:	4c 03 8c 24 a0 00 00 	add    0xa0(%rsp),%r9
    4c00:	00 
    4c01:	49 01 c0             	add    %rax,%r8
    4c04:	4c 01 d1             	add    %r10,%rcx
    4c07:	49 01 c1             	add    %rax,%r9
    4c0a:	4f 8d 64 3d 00       	lea    0x0(%r13,%r15,1),%r12
    4c0f:	4c 8d 14 ca          	lea    (%rdx,%rcx,8),%r10
    4c13:	4a 8d 04 ce          	lea    (%rsi,%r9,8),%rax
    4c17:	4e 8d 24 e2          	lea    (%rdx,%r12,8),%r12
    4c1b:	4c 03 8c 24 a8 00 00 	add    0xa8(%rsp),%r9
    4c22:	00 
    4c23:	4e 8d 34 ce          	lea    (%rsi,%r9,8),%r14
    4c27:	4c 39 e0             	cmp    %r12,%rax
    4c2a:	4e 8d 0c ea          	lea    (%rdx,%r13,8),%r9
    4c2e:	41 0f 93 c7          	setae  %r15b
    4c32:	4d 39 ce             	cmp    %r9,%r14
    4c35:	41 0f 96 c4          	setbe  %r12b
    4c39:	48 03 4c 24 68       	add    0x68(%rsp),%rcx
    4c3e:	48 8d 0c ca          	lea    (%rdx,%rcx,8),%rcx
    4c42:	45 09 fc             	or     %r15d,%r12d
    4c45:	48 39 c8             	cmp    %rcx,%rax
    4c48:	0f 93 c1             	setae  %cl
    4c4b:	4d 39 d6             	cmp    %r10,%r14
    4c4e:	41 0f 96 c6          	setbe  %r14b
    4c52:	44 09 f1             	or     %r14d,%ecx
    4c55:	41 84 cc             	test   %cl,%r12b
    4c58:	0f 84 ba 12 00 00    	je     5f18 <interp_._omp_fn.1+0x1b68>
    4c5e:	83 bc 24 bc 00 00 00 	cmpl   $0x1,0xbc(%rsp)
    4c65:	01 
    4c66:	0f 86 ac 12 00 00    	jbe    5f18 <interp_._omp_fn.1+0x1b68>
    4c6c:	31 c9                	xor    %ecx,%ecx
    4c6e:	66 90                	xchg   %ax,%ax
    4c70:	66 41 0f 10 04 09    	movupd (%r9,%rcx,1),%xmm0
    4c76:	66 41 0f 10 3c 0a    	movupd (%r10,%rcx,1),%xmm7
    4c7c:	66 0f 10 2c 48       	movupd (%rax,%rcx,2),%xmm5
    4c81:	66 0f 58 c7          	addpd  %xmm7,%xmm0
    4c85:	66 0f 16 6c 48 10    	movhpd 0x10(%rax,%rcx,2),%xmm5
    4c8b:	66 0f 59 c2          	mulpd  %xmm2,%xmm0
    4c8f:	66 0f 58 c5          	addpd  %xmm5,%xmm0
    4c93:	66 0f 13 04 48       	movlpd %xmm0,(%rax,%rcx,2)
    4c98:	66 0f 17 44 48 10    	movhpd %xmm0,0x10(%rax,%rcx,2)
    4c9e:	48 83 c1 10          	add    $0x10,%rcx
    4ca2:	48 39 d9             	cmp    %rbx,%rcx
    4ca5:	75 c9                	jne    4c70 <interp_._omp_fn.1+0x8c0>
    4ca7:	48 8b 8c 24 c8 00 00 	mov    0xc8(%rsp),%rcx
    4cae:	00 
    4caf:	48 8b 84 24 c0 00 00 	mov    0xc0(%rsp),%rax
    4cb6:	00 
    4cb7:	4d 8d 0c 0b          	lea    (%r11,%rcx,1),%r9
    4cbb:	48 01 e9             	add    %rbp,%rcx
    4cbe:	4c 01 c0             	add    %r8,%rax
    4cc1:	f2 42 0f 10 04 ca    	movsd  (%rdx,%r9,8),%xmm0
    4cc7:	f2 0f 58 04 ca       	addsd  (%rdx,%rcx,8),%xmm0
    4ccc:	8b 8c 24 f0 00 00 00 	mov    0xf0(%rsp),%ecx
    4cd3:	f2 0f 59 c4          	mulsd  %xmm4,%xmm0
    4cd7:	f2 0f 58 04 c6       	addsd  (%rsi,%rax,8),%xmm0
    4cdc:	f2 0f 11 04 c6       	movsd  %xmm0,(%rsi,%rax,8)
    4ce1:	39 4c 24 50          	cmp    %ecx,0x50(%rsp)
    4ce5:	7e 31                	jle    4d18 <interp_._omp_fn.1+0x968>
    4ce7:	48 8b 84 24 18 01 00 	mov    0x118(%rsp),%rax
    4cee:	00 
    4cef:	4c 03 84 24 10 01 00 	add    0x110(%rsp),%r8
    4cf6:	00 
    4cf7:	49 01 c3             	add    %rax,%r11
    4cfa:	48 01 c5             	add    %rax,%rbp
    4cfd:	f2 42 0f 10 04 da    	movsd  (%rdx,%r11,8),%xmm0
    4d03:	f2 0f 58 04 ea       	addsd  (%rdx,%rbp,8),%xmm0
    4d08:	f2 0f 59 c4          	mulsd  %xmm4,%xmm0
    4d0c:	f2 42 0f 58 04 c6    	addsd  (%rsi,%r8,8),%xmm0
    4d12:	f2 42 0f 11 04 c6    	movsd  %xmm0,(%rsi,%r8,8)
    4d18:	83 7c 24 50 01       	cmpl   $0x1,0x50(%rsp)
    4d1d:	0f 8e ec 01 00 00    	jle    4f0f <interp_._omp_fn.1+0xb5f>
    4d23:	48 63 4c 24 60       	movslq 0x60(%rsp),%rcx
    4d28:	4c 8b 74 24 18       	mov    0x18(%rsp),%r14
    4d2d:	44 8d 5f 01          	lea    0x1(%rdi),%r11d
    4d31:	8d 04 3f             	lea    (%rdi,%rdi,1),%eax
    4d34:	4d 63 db             	movslq %r11d,%r11
    4d37:	4c 8b 7c 24 08       	mov    0x8(%rsp),%r15
    4d3c:	48 8b 6c 24 70       	mov    0x70(%rsp),%rbp
    4d41:	4d 0f af de          	imul   %r14,%r11
    4d45:	44 8d 14 09          	lea    (%rcx,%rcx,1),%r10d
    4d49:	44 2b 54 24 30       	sub    0x30(%rsp),%r10d
    4d4e:	2b 84 24 b8 00 00 00 	sub    0xb8(%rsp),%eax
    4d55:	4d 63 d2             	movslq %r10d,%r10
    4d58:	4c 0f af 54 24 20    	imul   0x20(%rsp),%r10
    4d5e:	48 98                	cltq   
    4d60:	48 0f af 4c 24 10    	imul   0x10(%rsp),%rcx
    4d66:	48 03 4c 24 40       	add    0x40(%rsp),%rcx
    4d6b:	48 0f af 44 24 28    	imul   0x28(%rsp),%rax
    4d71:	4e 8d 04 19          	lea    (%rcx,%r11,1),%r8
    4d75:	4d 29 f3             	sub    %r14,%r11
    4d78:	4f 8d 0c 17          	lea    (%r15,%r10,1),%r9
    4d7c:	4c 2b bc 24 98 00 00 	sub    0x98(%rsp),%r15
    4d83:	00 
    4d84:	4c 01 d9             	add    %r11,%rcx
    4d87:	4c 01 c5             	add    %r8,%rbp
    4d8a:	4d 89 fb             	mov    %r15,%r11
    4d8d:	4c 8b bc 24 90 00 00 	mov    0x90(%rsp),%r15
    4d94:	00 
    4d95:	48 8d 2c ea          	lea    (%rdx,%rbp,8),%rbp
    4d99:	4c 8d 34 cd 08 00 00 	lea    0x8(,%rcx,8),%r14
    4da0:	00 
    4da1:	4d 01 d3             	add    %r10,%r11
    4da4:	49 01 c1             	add    %rax,%r9
    4da7:	49 01 c3             	add    %rax,%r11
    4daa:	4f 8d 54 3b 03       	lea    0x3(%r11,%r15,1),%r10
    4daf:	4a 8d 44 de 10       	lea    0x10(%rsi,%r11,8),%rax
    4db4:	4e 8d 3c c5 08 00 00 	lea    0x8(,%r8,8),%r15
    4dbb:	00 
    4dbc:	4e 8d 2c d6          	lea    (%rsi,%r10,8),%r13
    4dc0:	48 39 e8             	cmp    %rbp,%rax
    4dc3:	4e 8d 14 3a          	lea    (%rdx,%r15,1),%r10
    4dc7:	41 0f 93 c4          	setae  %r12b
    4dcb:	4e 8d 1c 32          	lea    (%rdx,%r14,1),%r11
    4dcf:	4d 39 d5             	cmp    %r10,%r13
    4dd2:	40 0f 96 c5          	setbe  %bpl
    4dd6:	41 09 ec             	or     %ebp,%r12d
    4dd9:	48 8b 6c 24 70       	mov    0x70(%rsp),%rbp
    4dde:	48 01 cd             	add    %rcx,%rbp
    4de1:	48 8d 2c ea          	lea    (%rdx,%rbp,8),%rbp
    4de5:	48 39 e8             	cmp    %rbp,%rax
    4de8:	40 0f 93 c5          	setae  %bpl
    4dec:	4d 39 dd             	cmp    %r11,%r13
    4def:	41 0f 96 c5          	setbe  %r13b
    4df3:	44 09 ed             	or     %r13d,%ebp
    4df6:	41 84 ec             	test   %bpl,%r12b
    4df9:	0f 84 b1 10 00 00    	je     5eb0 <interp_._omp_fn.1+0x1b00>
    4dff:	83 bc 24 b0 00 00 00 	cmpl   $0x1,0xb0(%rsp)
    4e06:	01 
    4e07:	0f 86 a3 10 00 00    	jbe    5eb0 <interp_._omp_fn.1+0x1b00>
    4e0d:	4e 8d 6c 32 08       	lea    0x8(%rdx,%r14,1),%r13
    4e12:	4c 8b b4 24 f8 00 00 	mov    0xf8(%rsp),%r14
    4e19:	00 
    4e1a:	4e 8d 64 3a 08       	lea    0x8(%rdx,%r15,1),%r12
    4e1f:	31 ed                	xor    %ebp,%ebp
    4e21:	0f 1f 80 00 00 00 00 	nopl   0x0(%rax)
    4e28:	66 41 0f 10 74 2d 00 	movupd 0x0(%r13,%rbp,1),%xmm6
    4e2f:	66 41 0f 10 04 2c    	movupd (%r12,%rbp,1),%xmm0
    4e35:	66 41 0f 10 3c 2a    	movupd (%r10,%rbp,1),%xmm7
    4e3b:	66 0f 10 2c 68       	movupd (%rax,%rbp,2),%xmm5
    4e40:	66 0f 58 c6          	addpd  %xmm6,%xmm0
    4e44:	66 41 0f 10 34 2b    	movupd (%r11,%rbp,1),%xmm6
    4e4a:	66 0f 16 6c 68 10    	movhpd 0x10(%rax,%rbp,2),%xmm5
    4e50:	66 0f 58 c7          	addpd  %xmm7,%xmm0
    4e54:	66 0f 58 c6          	addpd  %xmm6,%xmm0
    4e58:	66 0f 59 c1          	mulpd  %xmm1,%xmm0
    4e5c:	66 0f 58 c5          	addpd  %xmm5,%xmm0
    4e60:	66 0f 13 04 68       	movlpd %xmm0,(%rax,%rbp,2)
    4e65:	66 0f 17 44 68 10    	movhpd %xmm0,0x10(%rax,%rbp,2)
    4e6b:	48 83 c5 10          	add    $0x10,%rbp
    4e6f:	4c 39 f5             	cmp    %r14,%rbp
    4e72:	75 b4                	jne    4e28 <interp_._omp_fn.1+0xa78>
    4e74:	4c 8b b4 24 e0 00 00 	mov    0xe0(%rsp),%r14
    4e7b:	00 
    4e7c:	48 8b 84 24 d0 00 00 	mov    0xd0(%rsp),%rax
    4e83:	00 
    4e84:	4f 8d 1c 30          	lea    (%r8,%r14,1),%r11
    4e88:	4e 8d 14 31          	lea    (%rcx,%r14,1),%r10
    4e8c:	4c 8b b4 24 e8 00 00 	mov    0xe8(%rsp),%r14
    4e93:	00 
    4e94:	4c 01 c8             	add    %r9,%rax
    4e97:	f2 42 0f 10 04 da    	movsd  (%rdx,%r11,8),%xmm0
    4e9d:	f2 42 0f 58 04 d2    	addsd  (%rdx,%r10,8),%xmm0
    4ea3:	4b 8d 2c 30          	lea    (%r8,%r14,1),%rbp
    4ea7:	f2 0f 58 04 ea       	addsd  (%rdx,%rbp,8),%xmm0
    4eac:	4a 8d 2c 31          	lea    (%rcx,%r14,1),%rbp
    4eb0:	44 8b b4 24 d8 00 00 	mov    0xd8(%rsp),%r14d
    4eb7:	00 
    4eb8:	f2 0f 58 04 ea       	addsd  (%rdx,%rbp,8),%xmm0
    4ebd:	f2 0f 59 c3          	mulsd  %xmm3,%xmm0
    4ec1:	f2 0f 58 04 c6       	addsd  (%rsi,%rax,8),%xmm0
    4ec6:	f2 0f 11 04 c6       	movsd  %xmm0,(%rsi,%rax,8)
    4ecb:	44 39 74 24 50       	cmp    %r14d,0x50(%rsp)
    4ed0:	7e 3d                	jle    4f0f <interp_._omp_fn.1+0xb5f>
    4ed2:	48 8b 84 24 08 01 00 	mov    0x108(%rsp),%rax
    4ed9:	00 
    4eda:	4c 03 8c 24 00 01 00 	add    0x100(%rsp),%r9
    4ee1:	00 
    4ee2:	49 01 c0             	add    %rax,%r8
    4ee5:	48 01 c1             	add    %rax,%rcx
    4ee8:	f2 42 0f 10 04 c2    	movsd  (%rdx,%r8,8),%xmm0
    4eee:	f2 0f 58 04 ca       	addsd  (%rdx,%rcx,8),%xmm0
    4ef3:	f2 42 0f 58 04 da    	addsd  (%rdx,%r11,8),%xmm0
    4ef9:	f2 42 0f 58 04 d2    	addsd  (%rdx,%r10,8),%xmm0
    4eff:	f2 0f 59 c3          	mulsd  %xmm3,%xmm0
    4f03:	f2 42 0f 58 04 ce    	addsd  (%rsi,%r9,8),%xmm0
    4f09:	f2 42 0f 11 04 ce    	movsd  %xmm0,(%rsi,%r9,8)
    4f0f:	8b 8c 24 88 00 00 00 	mov    0x88(%rsp),%ecx
    4f16:	39 4c 24 58          	cmp    %ecx,0x58(%rsp)
    4f1a:	74 1c                	je     4f38 <interp_._omp_fn.1+0xb88>
    4f1c:	83 c7 01             	add    $0x1,%edi
    4f1f:	39 7c 24 78          	cmp    %edi,0x78(%rsp)
    4f23:	0f 8e 67 12 00 00    	jle    6190 <interp_._omp_fn.1+0x1de0>
    4f29:	83 44 24 58 01       	addl   $0x1,0x58(%rsp)
    4f2e:	e9 4d fc ff ff       	jmp    4b80 <interp_._omp_fn.1+0x7d0>
    4f33:	0f 1f 44 00 00       	nopl   0x0(%rax,%rax,1)
    4f38:	4c 8b bc 24 40 01 00 	mov    0x140(%rsp),%r15
    4f3f:	00 
    4f40:	e8 4b d2 ff ff       	call   2190 <GOMP_barrier@plt>
    4f45:	49 8b 47 18          	mov    0x18(%r15),%rax
    4f49:	49 8b 57 10          	mov    0x10(%r15),%rdx
    4f4d:	8b 00                	mov    (%rax),%eax
    4f4f:	8b 3a                	mov    (%rdx),%edi
    4f51:	44 8d 60 ff          	lea    -0x1(%rax),%r12d
    4f55:	89 7c 24 78          	mov    %edi,0x78(%rsp)
    4f59:	83 f8 01             	cmp    $0x1,%eax
    4f5c:	0f 8e 36 06 00 00    	jle    5598 <interp_._omp_fn.1+0x11e8>
    4f62:	89 f8                	mov    %edi,%eax
    4f64:	8b 7c 24 38          	mov    0x38(%rsp),%edi
    4f68:	39 c7                	cmp    %eax,%edi
    4f6a:	0f 8d 28 06 00 00    	jge    5598 <interp_._omp_fn.1+0x11e8>
    4f70:	89 c5                	mov    %eax,%ebp
    4f72:	29 fd                	sub    %edi,%ebp
    4f74:	e8 f7 d0 ff ff       	call   2070 <omp_get_num_threads@plt>
    4f79:	89 c3                	mov    %eax,%ebx
    4f7b:	e8 80 d1 ff ff       	call   2100 <omp_get_thread_num@plt>
    4f80:	31 d2                	xor    %edx,%edx
    4f82:	89 c1                	mov    %eax,%ecx
    4f84:	44 89 e0             	mov    %r12d,%eax
    4f87:	0f af c5             	imul   %ebp,%eax
    4f8a:	f7 f3                	div    %ebx
    4f8c:	89 c6                	mov    %eax,%esi
    4f8e:	39 d1                	cmp    %edx,%ecx
    4f90:	0f 82 13 12 00 00    	jb     61a9 <interp_._omp_fn.1+0x1df9>
    4f96:	0f af ce             	imul   %esi,%ecx
    4f99:	8d 04 11             	lea    (%rcx,%rdx,1),%eax
    4f9c:	8d 14 06             	lea    (%rsi,%rax,1),%edx
    4f9f:	39 d0                	cmp    %edx,%eax
    4fa1:	0f 83 f1 05 00 00    	jae    5598 <interp_._omp_fn.1+0x11e8>
    4fa7:	31 d2                	xor    %edx,%edx
    4fa9:	8b 7c 24 38          	mov    0x38(%rsp),%edi
    4fad:	49 8b 4f 20          	mov    0x20(%r15),%rcx
    4fb1:	c7 44 24 50 00 00 00 	movl   $0x0,0x50(%rsp)
    4fb8:	00 
    4fb9:	f7 f5                	div    %ebp
    4fbb:	44 8b 5c 24 48       	mov    0x48(%rsp),%r11d
    4fc0:	44 8b 8c 24 38 01 00 	mov    0x138(%rsp),%r9d
    4fc7:	00 
    4fc8:	44 8d 68 01          	lea    0x1(%rax),%r13d
    4fcc:	49 8b 47 08          	mov    0x8(%r15),%rax
    4fd0:	44 8d 34 3a          	lea    (%rdx,%rdi,1),%r14d
    4fd4:	49 8b 17             	mov    (%r15),%rdx
    4fd7:	44 8b 00             	mov    (%rax),%r8d
    4fda:	8d 46 ff             	lea    -0x1(%rsi),%eax
    4fdd:	89 84 24 80 00 00 00 	mov    %eax,0x80(%rsp)
    4fe4:	44 89 c0             	mov    %r8d,%eax
    4fe7:	44 89 44 24 30       	mov    %r8d,0x30(%rsp)
    4fec:	44 29 d8             	sub    %r11d,%eax
    4fef:	8d 58 ff             	lea    -0x1(%rax),%ebx
    4ff2:	41 89 c2             	mov    %eax,%r10d
    4ff5:	89 d8                	mov    %ebx,%eax
    4ff7:	89 de                	mov    %ebx,%esi
    4ff9:	4c 89 54 24 58       	mov    %r10,0x58(%rsp)
    4ffe:	d1 e8                	shr    %eax
    5000:	83 e6 fe             	and    $0xfffffffe,%esi
    5003:	89 9c 24 c0 00 00 00 	mov    %ebx,0xc0(%rsp)
    500a:	83 e8 01             	sub    $0x1,%eax
    500d:	44 01 de             	add    %r11d,%esi
    5010:	48 83 c0 01          	add    $0x1,%rax
    5014:	48 c1 e0 04          	shl    $0x4,%rax
    5018:	48 89 84 24 08 01 00 	mov    %rax,0x108(%rsp)
    501f:	00 
    5020:	8d 04 36             	lea    (%rsi,%rsi,1),%eax
    5023:	89 c7                	mov    %eax,%edi
    5025:	83 c0 02             	add    $0x2,%eax
    5028:	44 29 df             	sub    %r11d,%edi
    502b:	44 29 d8             	sub    %r11d,%eax
    502e:	48 63 ff             	movslq %edi,%rdi
    5031:	48 98                	cltq   
    5033:	48 89 bc 24 d0 00 00 	mov    %rdi,0xd0(%rsp)
    503a:	00 
    503b:	48 63 fe             	movslq %esi,%rdi
    503e:	48 89 bc 24 d8 00 00 	mov    %rdi,0xd8(%rsp)
    5045:	00 
    5046:	8d 7e 01             	lea    0x1(%rsi),%edi
    5049:	48 89 84 24 20 01 00 	mov    %rax,0x120(%rsp)
    5050:	00 
    5051:	48 63 c7             	movslq %edi,%rax
    5054:	48 89 84 24 28 01 00 	mov    %rax,0x128(%rsp)
    505b:	00 
    505c:	89 d8                	mov    %ebx,%eax
    505e:	41 8d 58 fe          	lea    -0x2(%r8),%ebx
    5062:	48 8d 04 c5 08 00 00 	lea    0x8(,%rax,8),%rax
    5069:	00 
    506a:	89 bc 24 f0 00 00 00 	mov    %edi,0xf0(%rsp)
    5071:	89 df                	mov    %ebx,%edi
    5073:	89 de                	mov    %ebx,%esi
    5075:	48 89 84 24 40 01 00 	mov    %rax,0x140(%rsp)
    507c:	00 
    507d:	41 8d 40 ff          	lea    -0x1(%r8),%eax
    5081:	83 cf 01             	or     $0x1,%edi
    5084:	83 e6 fe             	and    $0xfffffffe,%esi
    5087:	48 89 84 24 90 00 00 	mov    %rax,0x90(%rsp)
    508e:	00 
    508f:	48 8d 44 00 fe       	lea    -0x2(%rax,%rax,1),%rax
    5094:	48 89 84 24 88 00 00 	mov    %rax,0x88(%rsp)
    509b:	00 
    509c:	89 d8                	mov    %ebx,%eax
    509e:	d1 e8                	shr    %eax
    50a0:	89 9c 24 bc 00 00 00 	mov    %ebx,0xbc(%rsp)
    50a7:	83 e8 01             	sub    $0x1,%eax
    50aa:	48 83 c0 01          	add    $0x1,%rax
    50ae:	48 c1 e0 04          	shl    $0x4,%rax
    50b2:	48 89 84 24 00 01 00 	mov    %rax,0x100(%rsp)
    50b9:	00 
    50ba:	8d 04 3f             	lea    (%rdi,%rdi,1),%eax
    50bd:	48 63 ff             	movslq %edi,%rdi
    50c0:	41 89 c0             	mov    %eax,%r8d
    50c3:	83 c0 02             	add    $0x2,%eax
    50c6:	48 89 bc 24 c8 00 00 	mov    %rdi,0xc8(%rsp)
    50cd:	00 
    50ce:	45 29 c8             	sub    %r9d,%r8d
    50d1:	44 29 c8             	sub    %r9d,%eax
    50d4:	4d 63 c0             	movslq %r8d,%r8
    50d7:	48 98                	cltq   
    50d9:	4c 89 84 24 e0 00 00 	mov    %r8,0xe0(%rsp)
    50e0:	00 
    50e1:	44 8d 46 02          	lea    0x2(%rsi),%r8d
    50e5:	83 c6 03             	add    $0x3,%esi
    50e8:	48 89 84 24 10 01 00 	mov    %rax,0x110(%rsp)
    50ef:	00 
    50f0:	48 63 c6             	movslq %esi,%rax
    50f3:	48 89 84 24 18 01 00 	mov    %rax,0x118(%rsp)
    50fa:	00 
    50fb:	89 d8                	mov    %ebx,%eax
    50fd:	48 8d 04 c5 08 00 00 	lea    0x8(,%rax,8),%rax
    5104:	00 
    5105:	44 89 84 24 f8 00 00 	mov    %r8d,0xf8(%rsp)
    510c:	00 
    510d:	4d 63 c0             	movslq %r8d,%r8
    5110:	48 89 84 24 30 01 00 	mov    %rax,0x130(%rsp)
    5117:	00 
    5118:	49 63 c1             	movslq %r9d,%rax
    511b:	48 89 84 24 98 00 00 	mov    %rax,0x98(%rsp)
    5122:	00 
    5123:	48 f7 d8             	neg    %rax
    5126:	48 c1 e0 03          	shl    $0x3,%rax
    512a:	4c 89 84 24 e8 00 00 	mov    %r8,0xe8(%rsp)
    5131:	00 
    5132:	48 89 84 24 48 01 00 	mov    %rax,0x148(%rsp)
    5139:	00 
    513a:	49 63 c3             	movslq %r11d,%rax
    513d:	48 89 84 24 50 01 00 	mov    %rax,0x150(%rsp)
    5144:	00 
    5145:	48 8b 7c 24 40       	mov    0x40(%rsp),%rdi
    514a:	f2 0f 10 25 be 94 00 	movsd  0x94be(%rip),%xmm4        # e610 <options.163.0+0x570>
    5151:	00 
    5152:	66 0f 28 15 b6 94 00 	movapd 0x94b6(%rip),%xmm2        # e610 <options.163.0+0x570>
    5159:	00 
    515a:	4c 89 bc 24 58 01 00 	mov    %r15,0x158(%rsp)
    5161:	00 
    5162:	45 89 ef             	mov    %r13d,%r15d
    5165:	48 89 fb             	mov    %rdi,%rbx
    5168:	f2 0f 10 1d 80 94 00 	movsd  0x9480(%rip),%xmm3        # e5f0 <options.163.0+0x550>
    516f:	00 
    5170:	66 0f 28 0d 78 94 00 	movapd 0x9478(%rip),%xmm1        # e5f0 <options.163.0+0x550>
    5177:	00 
    5178:	49 89 fd             	mov    %rdi,%r13
    517b:	48 01 c3             	add    %rax,%rbx
    517e:	48 89 9c 24 a0 00 00 	mov    %rbx,0xa0(%rsp)
    5185:	00 
    5186:	48 8b 5c 24 08       	mov    0x8(%rsp),%rbx
    518b:	48 01 c3             	add    %rax,%rbx
    518e:	4b 8d 44 12 ff       	lea    -0x1(%r10,%r10,1),%rax
    5193:	48 89 9c 24 a8 00 00 	mov    %rbx,0xa8(%rsp)
    519a:	00 
    519b:	48 89 84 24 b0 00 00 	mov    %rax,0xb0(%rsp)
    51a2:	00 
    51a3:	0f 1f 44 00 00       	nopl   0x0(%rax,%rax,1)
    51a8:	8b 7c 24 30          	mov    0x30(%rsp),%edi
    51ac:	39 7c 24 48          	cmp    %edi,0x48(%rsp)
    51b0:	0f 8d 92 01 00 00    	jge    5348 <interp_._omp_fn.1+0xf98>
    51b6:	4c 8b 54 24 10       	mov    0x10(%rsp),%r10
    51bb:	41 8d 5f 01          	lea    0x1(%r15),%ebx
    51bf:	47 8d 04 3f          	lea    (%r15,%r15,1),%r8d
    51c3:	4d 63 ce             	movslq %r14d,%r9
    51c6:	48 63 db             	movslq %ebx,%rbx
    51c9:	44 2b 44 24 4c       	sub    0x4c(%rsp),%r8d
    51ce:	43 8d 04 36          	lea    (%r14,%r14,1),%eax
    51d2:	2b 44 24 38          	sub    0x38(%rsp),%eax
    51d6:	49 0f af da          	imul   %r10,%rbx
    51da:	4d 63 c0             	movslq %r8d,%r8
    51dd:	48 8b 7c 24 08       	mov    0x8(%rsp),%rdi
    51e2:	48 98                	cltq   
    51e4:	4c 0f af 44 24 20    	imul   0x20(%rsp),%r8
    51ea:	48 0f af 44 24 28    	imul   0x28(%rsp),%rax
    51f0:	4c 0f af 4c 24 18    	imul   0x18(%rsp),%r9
    51f6:	48 89 de             	mov    %rbx,%rsi
    51f9:	4d 8d 5c 1d 00       	lea    0x0(%r13,%rbx,1),%r11
    51fe:	4c 29 d6             	sub    %r10,%rsi
    5201:	4c 01 c7             	add    %r8,%rdi
    5204:	4c 03 84 24 a8 00 00 	add    0xa8(%rsp),%r8
    520b:	00 
    520c:	4d 8d 54 35 00       	lea    0x0(%r13,%rsi,1),%r10
    5211:	49 01 c0             	add    %rax,%r8
    5214:	48 01 c7             	add    %rax,%rdi
    5217:	4d 01 cb             	add    %r9,%r11
    521a:	4d 01 ca             	add    %r9,%r10
    521d:	4c 03 8c 24 a0 00 00 	add    0xa0(%rsp),%r9
    5224:	00 
    5225:	4c 01 cb             	add    %r9,%rbx
    5228:	4a 8d 04 c1          	lea    (%rcx,%r8,8),%rax
    522c:	4c 03 84 24 b0 00 00 	add    0xb0(%rsp),%r8
    5233:	00 
    5234:	4c 01 ce             	add    %r9,%rsi
    5237:	4a 8d 2c c1          	lea    (%rcx,%r8,8),%rbp
    523b:	4c 8d 04 da          	lea    (%rdx,%rbx,8),%r8
    523f:	48 03 5c 24 58       	add    0x58(%rsp),%rbx
    5244:	48 8d 1c da          	lea    (%rdx,%rbx,8),%rbx
    5248:	4c 8d 0c f2          	lea    (%rdx,%rsi,8),%r9
    524c:	48 39 d8             	cmp    %rbx,%rax
    524f:	41 0f 93 c4          	setae  %r12b
    5253:	4c 39 c5             	cmp    %r8,%rbp
    5256:	0f 96 c3             	setbe  %bl
    5259:	48 03 74 24 58       	add    0x58(%rsp),%rsi
    525e:	48 8d 34 f2          	lea    (%rdx,%rsi,8),%rsi
    5262:	44 09 e3             	or     %r12d,%ebx
    5265:	48 39 f0             	cmp    %rsi,%rax
    5268:	40 0f 93 c6          	setae  %sil
    526c:	4c 39 cd             	cmp    %r9,%rbp
    526f:	40 0f 96 c5          	setbe  %bpl
    5273:	09 ee                	or     %ebp,%esi
    5275:	40 84 f3             	test   %sil,%bl
    5278:	0f 84 f2 0c 00 00    	je     5f70 <interp_._omp_fn.1+0x1bc0>
    527e:	83 bc 24 c0 00 00 00 	cmpl   $0x1,0xc0(%rsp)
    5285:	01 
    5286:	0f 86 e4 0c 00 00    	jbe    5f70 <interp_._omp_fn.1+0x1bc0>
    528c:	48 8b 9c 24 08 01 00 	mov    0x108(%rsp),%rbx
    5293:	00 
    5294:	31 f6                	xor    %esi,%esi
    5296:	66 2e 0f 1f 84 00 00 	cs nopw 0x0(%rax,%rax,1)
    529d:	00 00 00 
    52a0:	66 41 0f 10 04 30    	movupd (%r8,%rsi,1),%xmm0
    52a6:	66 41 0f 10 3c 31    	movupd (%r9,%rsi,1),%xmm7
    52ac:	66 0f 10 2c 70       	movupd (%rax,%rsi,2),%xmm5
    52b1:	66 0f 58 c7          	addpd  %xmm7,%xmm0
    52b5:	66 0f 16 6c 70 10    	movhpd 0x10(%rax,%rsi,2),%xmm5
    52bb:	66 0f 59 c2          	mulpd  %xmm2,%xmm0
    52bf:	66 0f 58 c5          	addpd  %xmm5,%xmm0
    52c3:	66 0f 13 04 70       	movlpd %xmm0,(%rax,%rsi,2)
    52c8:	66 0f 17 44 70 10    	movhpd %xmm0,0x10(%rax,%rsi,2)
    52ce:	48 83 c6 10          	add    $0x10,%rsi
    52d2:	48 39 de             	cmp    %rbx,%rsi
    52d5:	75 c9                	jne    52a0 <interp_._omp_fn.1+0xef0>
    52d7:	48 8b 9c 24 d8 00 00 	mov    0xd8(%rsp),%rbx
    52de:	00 
    52df:	48 8b 84 24 d0 00 00 	mov    0xd0(%rsp),%rax
    52e6:	00 
    52e7:	4e 8d 04 13          	lea    (%rbx,%r10,1),%r8
    52eb:	4a 8d 34 1b          	lea    (%rbx,%r11,1),%rsi
    52ef:	48 01 f8             	add    %rdi,%rax
    52f2:	8b 9c 24 f0 00 00 00 	mov    0xf0(%rsp),%ebx
    52f9:	f2 42 0f 10 04 c2    	movsd  (%rdx,%r8,8),%xmm0
    52ff:	f2 0f 58 04 f2       	addsd  (%rdx,%rsi,8),%xmm0
    5304:	f2 0f 59 c4          	mulsd  %xmm4,%xmm0
    5308:	f2 0f 58 04 c1       	addsd  (%rcx,%rax,8),%xmm0
    530d:	f2 0f 11 04 c1       	movsd  %xmm0,(%rcx,%rax,8)
    5312:	39 5c 24 30          	cmp    %ebx,0x30(%rsp)
    5316:	7e 30                	jle    5348 <interp_._omp_fn.1+0xf98>
    5318:	48 8b 84 24 28 01 00 	mov    0x128(%rsp),%rax
    531f:	00 
    5320:	48 03 bc 24 20 01 00 	add    0x120(%rsp),%rdi
    5327:	00 
    5328:	49 01 c3             	add    %rax,%r11
    532b:	49 01 c2             	add    %rax,%r10
    532e:	f2 42 0f 10 04 da    	movsd  (%rdx,%r11,8),%xmm0
    5334:	f2 42 0f 58 04 d2    	addsd  (%rdx,%r10,8),%xmm0
    533a:	f2 0f 59 c4          	mulsd  %xmm4,%xmm0
    533e:	f2 0f 58 04 f9       	addsd  (%rcx,%rdi,8),%xmm0
    5343:	f2 0f 11 04 f9       	movsd  %xmm0,(%rcx,%rdi,8)
    5348:	83 7c 24 30 01       	cmpl   $0x1,0x30(%rsp)
    534d:	0f 8e 0f 02 00 00    	jle    5562 <interp_._omp_fn.1+0x11b2>
    5353:	47 8d 14 3f          	lea    (%r15,%r15,1),%r10d
    5357:	44 2b 54 24 4c       	sub    0x4c(%rsp),%r10d
    535c:	43 8d 04 36          	lea    (%r14,%r14,1),%eax
    5360:	4d 63 ce             	movslq %r14d,%r9
    5363:	2b 44 24 38          	sub    0x38(%rsp),%eax
    5367:	4d 63 d2             	movslq %r10d,%r10
    536a:	4c 8b 64 24 08       	mov    0x8(%rsp),%r12
    536f:	41 8d 5f 01          	lea    0x1(%r15),%ebx
    5373:	4c 0f af 54 24 20    	imul   0x20(%rsp),%r10
    5379:	48 98                	cltq   
    537b:	48 63 db             	movslq %ebx,%rbx
    537e:	48 0f af 44 24 28    	imul   0x28(%rsp),%rax
    5384:	4c 0f af 4c 24 18    	imul   0x18(%rsp),%r9
    538a:	4b 8d 34 14          	lea    (%r12,%r10,1),%rsi
    538e:	48 8d 3c 06          	lea    (%rsi,%rax,1),%rdi
    5392:	48 89 7c 24 60       	mov    %rdi,0x60(%rsp)
    5397:	48 8b 7c 24 10       	mov    0x10(%rsp),%rdi
    539c:	4b 8d 34 29          	lea    (%r9,%r13,1),%rsi
    53a0:	48 0f af df          	imul   %rdi,%rbx
    53a4:	48 01 de             	add    %rbx,%rsi
    53a7:	4d 8d 44 1d 00       	lea    0x0(%r13,%rbx,1),%r8
    53ac:	49 89 db             	mov    %rbx,%r11
    53af:	48 8b 9c 24 90 00 00 	mov    0x90(%rsp),%rbx
    53b6:	00 
    53b7:	49 29 fb             	sub    %rdi,%r11
    53ba:	4d 01 c8             	add    %r9,%r8
    53bd:	48 8d 6b 02          	lea    0x2(%rbx),%rbp
    53c1:	4c 89 e3             	mov    %r12,%rbx
    53c4:	48 2b 9c 24 98 00 00 	sub    0x98(%rsp),%rbx
    53cb:	00 
    53cc:	4c 01 d3             	add    %r10,%rbx
    53cf:	4b 8d 7c 1d 00       	lea    0x0(%r13,%r11,1),%rdi
    53d4:	4c 8b 94 24 88 00 00 	mov    0x88(%rsp),%r10
    53db:	00 
    53dc:	4d 01 cb             	add    %r9,%r11
    53df:	48 01 c3             	add    %rax,%rbx
    53e2:	4d 01 eb             	add    %r13,%r11
    53e5:	4c 01 cf             	add    %r9,%rdi
    53e8:	4d 8d 54 1a 03       	lea    0x3(%r10,%rbx,1),%r10
    53ed:	4e 8d 24 dd 08 00 00 	lea    0x8(,%r11,8),%r12
    53f4:	00 
    53f5:	49 01 eb             	add    %rbp,%r11
    53f8:	48 8d 44 d9 10       	lea    0x10(%rcx,%rbx,8),%rax
    53fd:	4e 8d 1c da          	lea    (%rdx,%r11,8),%r11
    5401:	4a 8d 1c d1          	lea    (%rcx,%r10,8),%rbx
    5405:	4c 8d 14 f5 08 00 00 	lea    0x8(,%rsi,8),%r10
    540c:	00 
    540d:	4c 89 54 24 70       	mov    %r10,0x70(%rsp)
    5412:	4e 8d 0c 22          	lea    (%rdx,%r12,1),%r9
    5416:	49 01 d2             	add    %rdx,%r10
    5419:	4c 39 d8             	cmp    %r11,%rax
    541c:	41 0f 93 c3          	setae  %r11b
    5420:	49 39 d9             	cmp    %rbx,%r9
    5423:	0f 93 44 24 68       	setae  0x68(%rsp)
    5428:	48 01 ee             	add    %rbp,%rsi
    542b:	44 0a 5c 24 68       	or     0x68(%rsp),%r11b
    5430:	48 8d 34 f2          	lea    (%rdx,%rsi,8),%rsi
    5434:	48 39 f0             	cmp    %rsi,%rax
    5437:	40 0f 93 c6          	setae  %sil
    543b:	49 39 da             	cmp    %rbx,%r10
    543e:	0f 93 c3             	setae  %bl
    5441:	09 de                	or     %ebx,%esi
    5443:	41 84 f3             	test   %sil,%r11b
    5446:	0f 84 14 0c 00 00    	je     6060 <interp_._omp_fn.1+0x1cb0>
    544c:	83 bc 24 bc 00 00 00 	cmpl   $0x1,0xbc(%rsp)
    5453:	01 
    5454:	0f 86 06 0c 00 00    	jbe    6060 <interp_._omp_fn.1+0x1cb0>
    545a:	48 8b 5c 24 70       	mov    0x70(%rsp),%rbx
    545f:	48 8b ac 24 00 01 00 	mov    0x100(%rsp),%rbp
    5466:	00 
    5467:	31 f6                	xor    %esi,%esi
    5469:	4c 8d 5c 1a 08       	lea    0x8(%rdx,%rbx,1),%r11
    546e:	4a 8d 5c 22 08       	lea    0x8(%rdx,%r12,1),%rbx
    5473:	0f 1f 44 00 00       	nopl   0x0(%rax,%rax,1)
    5478:	66 41 0f 10 34 32    	movupd (%r10,%rsi,1),%xmm6
    547e:	66 41 0f 10 04 33    	movupd (%r11,%rsi,1),%xmm0
    5484:	66 0f 10 3c 33       	movupd (%rbx,%rsi,1),%xmm7
    5489:	66 0f 10 2c 70       	movupd (%rax,%rsi,2),%xmm5
    548e:	66 0f 58 c6          	addpd  %xmm6,%xmm0
    5492:	66 41 0f 10 34 31    	movupd (%r9,%rsi,1),%xmm6
    5498:	66 0f 16 6c 70 10    	movhpd 0x10(%rax,%rsi,2),%xmm5
    549e:	66 0f 58 c7          	addpd  %xmm7,%xmm0
    54a2:	66 0f 58 c6          	addpd  %xmm6,%xmm0
    54a6:	66 0f 59 c1          	mulpd  %xmm1,%xmm0
    54aa:	66 0f 58 c5          	addpd  %xmm5,%xmm0
    54ae:	66 0f 13 04 70       	movlpd %xmm0,(%rax,%rsi,2)
    54b3:	66 0f 17 44 70 10    	movhpd %xmm0,0x10(%rax,%rsi,2)
    54b9:	48 83 c6 10          	add    $0x10,%rsi
    54bd:	48 39 ee             	cmp    %rbp,%rsi
    54c0:	75 b6                	jne    5478 <interp_._omp_fn.1+0x10c8>
    54c2:	4c 8b 9c 24 c8 00 00 	mov    0xc8(%rsp),%r11
    54c9:	00 
    54ca:	48 8b b4 24 e8 00 00 	mov    0xe8(%rsp),%rsi
    54d1:	00 
    54d2:	48 8b 84 24 e0 00 00 	mov    0xe0(%rsp),%rax
    54d9:	00 
    54da:	48 8b 5c 24 60       	mov    0x60(%rsp),%rbx
    54df:	4f 8d 14 03          	lea    (%r11,%r8,1),%r10
    54e3:	4e 8d 0c 06          	lea    (%rsi,%r8,1),%r9
    54e7:	48 01 fe             	add    %rdi,%rsi
    54ea:	f2 42 0f 10 04 d2    	movsd  (%rdx,%r10,8),%xmm0
    54f0:	4d 8d 14 3b          	lea    (%r11,%rdi,1),%r10
    54f4:	f2 42 0f 58 04 ca    	addsd  (%rdx,%r9,8),%xmm0
    54fa:	48 01 d8             	add    %rbx,%rax
    54fd:	f2 0f 58 04 f2       	addsd  (%rdx,%rsi,8),%xmm0
    5502:	f2 42 0f 58 04 d2    	addsd  (%rdx,%r10,8),%xmm0
    5508:	44 8b 9c 24 f8 00 00 	mov    0xf8(%rsp),%r11d
    550f:	00 
    5510:	f2 0f 59 c3          	mulsd  %xmm3,%xmm0
    5514:	f2 0f 58 04 c1       	addsd  (%rcx,%rax,8),%xmm0
    5519:	f2 0f 11 04 c1       	movsd  %xmm0,(%rcx,%rax,8)
    551e:	44 39 5c 24 30       	cmp    %r11d,0x30(%rsp)
    5523:	7e 3d                	jle    5562 <interp_._omp_fn.1+0x11b2>
    5525:	48 8b 84 24 10 01 00 	mov    0x110(%rsp),%rax
    552c:	00 
    552d:	48 01 d8             	add    %rbx,%rax
    5530:	48 8b 9c 24 18 01 00 	mov    0x118(%rsp),%rbx
    5537:	00 
    5538:	49 01 d8             	add    %rbx,%r8
    553b:	48 01 df             	add    %rbx,%rdi
    553e:	f2 42 0f 10 04 c2    	movsd  (%rdx,%r8,8),%xmm0
    5544:	f2 42 0f 58 04 ca    	addsd  (%rdx,%r9,8),%xmm0
    554a:	f2 0f 58 04 fa       	addsd  (%rdx,%rdi,8),%xmm0
    554f:	f2 0f 58 04 f2       	addsd  (%rdx,%rsi,8),%xmm0
    5554:	f2 0f 59 c3          	mulsd  %xmm3,%xmm0
    5558:	f2 0f 58 04 c1       	addsd  (%rcx,%rax,8),%xmm0
    555d:	f2 0f 11 04 c1       	movsd  %xmm0,(%rcx,%rax,8)
    5562:	8b bc 24 80 00 00 00 	mov    0x80(%rsp),%edi
    5569:	39 7c 24 50          	cmp    %edi,0x50(%rsp)
    556d:	74 21                	je     5590 <interp_._omp_fn.1+0x11e0>
    556f:	41 83 c6 01          	add    $0x1,%r14d
    5573:	44 39 74 24 78       	cmp    %r14d,0x78(%rsp)
    5578:	0f 8e 02 0c 00 00    	jle    6180 <interp_._omp_fn.1+0x1dd0>
    557e:	83 44 24 50 01       	addl   $0x1,0x50(%rsp)
    5583:	e9 20 fc ff ff       	jmp    51a8 <interp_._omp_fn.1+0xdf8>
    5588:	0f 1f 84 00 00 00 00 	nopl   0x0(%rax,%rax,1)
    558f:	00 
    5590:	4c 8b bc 24 58 01 00 	mov    0x158(%rsp),%r15
    5597:	00 
    5598:	e8 f3 cb ff ff       	call   2190 <GOMP_barrier@plt>
    559d:	49 8b 47 18          	mov    0x18(%r15),%rax
    55a1:	49 8b 57 10          	mov    0x10(%r15),%rdx
    55a5:	8b 00                	mov    (%rax),%eax
    55a7:	8b 3a                	mov    (%rdx),%edi
    55a9:	44 8d 60 ff          	lea    -0x1(%rax),%r12d
    55ad:	89 bc 24 a8 00 00 00 	mov    %edi,0xa8(%rsp)
    55b4:	8d 6f ff             	lea    -0x1(%rdi),%ebp
    55b7:	83 f8 01             	cmp    $0x1,%eax
    55ba:	0f 8e 30 08 00 00    	jle    5df0 <interp_._omp_fn.1+0x1a40>
    55c0:	83 ff 01             	cmp    $0x1,%edi
    55c3:	0f 8e 27 08 00 00    	jle    5df0 <interp_._omp_fn.1+0x1a40>
    55c9:	e8 a2 ca ff ff       	call   2070 <omp_get_num_threads@plt>
    55ce:	89 c3                	mov    %eax,%ebx
    55d0:	e8 2b cb ff ff       	call   2100 <omp_get_thread_num@plt>
    55d5:	31 d2                	xor    %edx,%edx
    55d7:	89 c6                	mov    %eax,%esi
    55d9:	44 89 e0             	mov    %r12d,%eax
    55dc:	0f af c5             	imul   %ebp,%eax
    55df:	f7 f3                	div    %ebx
    55e1:	89 c1                	mov    %eax,%ecx
    55e3:	39 d6                	cmp    %edx,%esi
    55e5:	0f 82 b4 0b 00 00    	jb     619f <interp_._omp_fn.1+0x1def>
    55eb:	0f af f1             	imul   %ecx,%esi
    55ee:	8d 04 16             	lea    (%rsi,%rdx,1),%eax
    55f1:	8d 14 01             	lea    (%rcx,%rax,1),%edx
    55f4:	39 d0                	cmp    %edx,%eax
    55f6:	0f 83 f4 07 00 00    	jae    5df0 <interp_._omp_fn.1+0x1a40>
    55fc:	31 d2                	xor    %edx,%edx
    55fe:	44 8b 74 24 48       	mov    0x48(%rsp),%r14d
    5603:	4d 8b 6f 20          	mov    0x20(%r15),%r13
    5607:	c7 44 24 70 00 00 00 	movl   $0x0,0x70(%rsp)
    560e:	00 
    560f:	f7 f5                	div    %ebp
    5611:	44 8b 84 24 38 01 00 	mov    0x138(%rsp),%r8d
    5618:	00 
    5619:	83 c0 01             	add    $0x1,%eax
    561c:	44 8d 62 01          	lea    0x1(%rdx),%r12d
    5620:	89 44 24 78          	mov    %eax,0x78(%rsp)
    5624:	49 8b 47 08          	mov    0x8(%r15),%rax
    5628:	4d 8b 3f             	mov    (%r15),%r15
    562b:	8b 18                	mov    (%rax),%ebx
    562d:	8d 41 ff             	lea    -0x1(%rcx),%eax
    5630:	89 84 24 a0 00 00 00 	mov    %eax,0xa0(%rsp)
    5637:	89 d8                	mov    %ebx,%eax
    5639:	89 5c 24 50          	mov    %ebx,0x50(%rsp)
    563d:	44 29 f0             	sub    %r14d,%eax
    5640:	8d 78 ff             	lea    -0x1(%rax),%edi
    5643:	41 89 c3             	mov    %eax,%r11d
    5646:	89 f8                	mov    %edi,%eax
    5648:	89 fa                	mov    %edi,%edx
    564a:	4c 89 5c 24 30       	mov    %r11,0x30(%rsp)
    564f:	d1 e8                	shr    %eax
    5651:	83 e2 fe             	and    $0xfffffffe,%edx
    5654:	89 bc 24 c0 00 00 00 	mov    %edi,0xc0(%rsp)
    565b:	83 e8 01             	sub    $0x1,%eax
    565e:	44 01 f2             	add    %r14d,%edx
    5661:	48 83 c0 01          	add    $0x1,%rax
    5665:	48 c1 e0 04          	shl    $0x4,%rax
    5669:	48 89 84 24 18 01 00 	mov    %rax,0x118(%rsp)
    5670:	00 
    5671:	8d 04 12             	lea    (%rdx,%rdx,1),%eax
    5674:	89 c1                	mov    %eax,%ecx
    5676:	83 c0 02             	add    $0x2,%eax
    5679:	44 29 f1             	sub    %r14d,%ecx
    567c:	44 29 f0             	sub    %r14d,%eax
    567f:	48 63 c9             	movslq %ecx,%rcx
    5682:	48 98                	cltq   
    5684:	48 89 8c 24 f8 00 00 	mov    %rcx,0xf8(%rsp)
    568b:	00 
    568c:	48 63 ca             	movslq %edx,%rcx
    568f:	48 89 8c 24 00 01 00 	mov    %rcx,0x100(%rsp)
    5696:	00 
    5697:	8d 4a 01             	lea    0x1(%rdx),%ecx
    569a:	48 89 84 24 30 01 00 	mov    %rax,0x130(%rsp)
    56a1:	00 
    56a2:	48 63 c1             	movslq %ecx,%rax
    56a5:	48 89 84 24 28 01 00 	mov    %rax,0x128(%rsp)
    56ac:	00 
    56ad:	89 f8                	mov    %edi,%eax
    56af:	48 8d 04 c5 08 00 00 	lea    0x8(,%rax,8),%rax
    56b6:	00 
    56b7:	89 8c 24 08 01 00 00 	mov    %ecx,0x108(%rsp)
    56be:	48 89 84 24 48 01 00 	mov    %rax,0x148(%rsp)
    56c5:	00 
    56c6:	89 d8                	mov    %ebx,%eax
    56c8:	8d 5b fe             	lea    -0x2(%rbx),%ebx
    56cb:	8d 48 ff             	lea    -0x1(%rax),%ecx
    56ce:	89 de                	mov    %ebx,%esi
    56d0:	89 da                	mov    %ebx,%edx
    56d2:	89 9c 24 bc 00 00 00 	mov    %ebx,0xbc(%rsp)
    56d9:	48 8d 44 09 fe       	lea    -0x2(%rcx,%rcx,1),%rax
    56de:	83 ce 01             	or     $0x1,%esi
    56e1:	83 e2 fe             	and    $0xfffffffe,%edx
    56e4:	48 89 84 24 c8 00 00 	mov    %rax,0xc8(%rsp)
    56eb:	00 
    56ec:	89 d8                	mov    %ebx,%eax
    56ee:	d1 e8                	shr    %eax
    56f0:	83 e8 01             	sub    $0x1,%eax
    56f3:	48 83 c0 01          	add    $0x1,%rax
    56f7:	48 c1 e0 04          	shl    $0x4,%rax
    56fb:	48 89 84 24 20 01 00 	mov    %rax,0x120(%rsp)
    5702:	00 
    5703:	8d 04 36             	lea    (%rsi,%rsi,1),%eax
    5706:	89 c7                	mov    %eax,%edi
    5708:	83 c0 02             	add    $0x2,%eax
    570b:	44 29 c7             	sub    %r8d,%edi
    570e:	44 29 c0             	sub    %r8d,%eax
    5711:	48 63 ff             	movslq %edi,%rdi
    5714:	48 98                	cltq   
    5716:	48 89 bc 24 e0 00 00 	mov    %rdi,0xe0(%rsp)
    571d:	00 
    571e:	8d 7a 02             	lea    0x2(%rdx),%edi
    5721:	83 c2 03             	add    $0x3,%edx
    5724:	48 89 84 24 40 01 00 	mov    %rax,0x140(%rsp)
    572b:	00 
    572c:	48 63 c2             	movslq %edx,%rax
    572f:	48 89 84 24 38 01 00 	mov    %rax,0x138(%rsp)
    5736:	00 
    5737:	89 d8                	mov    %ebx,%eax
    5739:	48 8d 04 c5 08 00 00 	lea    0x8(,%rax,8),%rax
    5740:	00 
    5741:	89 bc 24 e8 00 00 00 	mov    %edi,0xe8(%rsp)
    5748:	48 63 ff             	movslq %edi,%rdi
    574b:	48 89 84 24 50 01 00 	mov    %rax,0x150(%rsp)
    5752:	00 
    5753:	49 63 c0             	movslq %r8d,%rax
    5756:	48 89 84 24 b0 00 00 	mov    %rax,0xb0(%rsp)
    575d:	00 
    575e:	48 f7 d8             	neg    %rax
    5761:	48 c1 e0 03          	shl    $0x3,%rax
    5765:	48 89 bc 24 f0 00 00 	mov    %rdi,0xf0(%rsp)
    576c:	00 
    576d:	48 63 fe             	movslq %esi,%rdi
    5770:	48 89 84 24 58 01 00 	mov    %rax,0x158(%rsp)
    5777:	00 
    5778:	49 63 c6             	movslq %r14d,%rax
    577b:	48 89 84 24 98 00 00 	mov    %rax,0x98(%rsp)
    5782:	00 
    5783:	48 89 bc 24 10 01 00 	mov    %rdi,0x110(%rsp)
    578a:	00 
    578b:	48 8b 7c 24 08       	mov    0x8(%rsp),%rdi
    5790:	f2 0f 10 25 58 8e 00 	movsd  0x8e58(%rip),%xmm4        # e5f0 <options.163.0+0x550>
    5797:	00 
    5798:	66 0f 28 15 50 8e 00 	movapd 0x8e50(%rip),%xmm2        # e5f0 <options.163.0+0x550>
    579f:	00 
    57a0:	48 01 c7             	add    %rax,%rdi
    57a3:	4b 8d 44 1b ff       	lea    -0x1(%r11,%r11,1),%rax
    57a8:	f2 0f 10 1d 50 8e 00 	movsd  0x8e50(%rip),%xmm3        # e600 <options.163.0+0x560>
    57af:	00 
    57b0:	66 0f 28 0d 48 8e 00 	movapd 0x8e48(%rip),%xmm1        # e600 <options.163.0+0x560>
    57b7:	00 
    57b8:	48 89 84 24 d8 00 00 	mov    %rax,0xd8(%rsp)
    57bf:	00 
    57c0:	48 8d 41 02          	lea    0x2(%rcx),%rax
    57c4:	48 89 bc 24 d0 00 00 	mov    %rdi,0xd0(%rsp)
    57cb:	00 
    57cc:	48 89 44 24 38       	mov    %rax,0x38(%rsp)
    57d1:	0f 1f 80 00 00 00 00 	nopl   0x0(%rax)
    57d8:	8b 7c 24 50          	mov    0x50(%rsp),%edi
    57dc:	39 7c 24 48          	cmp    %edi,0x48(%rsp)
    57e0:	0f 8d 92 02 00 00    	jge    5a78 <interp_._omp_fn.1+0x16c8>
    57e6:	8b 5c 24 78          	mov    0x78(%rsp),%ebx
    57ea:	43 8d 3c 24          	lea    (%r12,%r12,1),%edi
    57ee:	48 8b 4c 24 08       	mov    0x8(%rsp),%rcx
    57f3:	2b bc 24 b8 00 00 00 	sub    0xb8(%rsp),%edi
    57fa:	4c 8b 5c 24 18       	mov    0x18(%rsp),%r11
    57ff:	8d 04 1b             	lea    (%rbx,%rbx,1),%eax
    5802:	2b 44 24 4c          	sub    0x4c(%rsp),%eax
    5806:	48 63 ff             	movslq %edi,%rdi
    5809:	4c 8b 74 24 40       	mov    0x40(%rsp),%r14
    580e:	48 98                	cltq   
    5810:	48 0f af 44 24 20    	imul   0x20(%rsp),%rax
    5816:	48 8b 6c 24 30       	mov    0x30(%rsp),%rbp
    581b:	48 0f af 7c 24 28    	imul   0x28(%rsp),%rdi
    5821:	48 8d 14 01          	lea    (%rcx,%rax,1),%rdx
    5825:	48 03 84 24 d0 00 00 	add    0xd0(%rsp),%rax
    582c:	00 
    582d:	48 8d 0c 3a          	lea    (%rdx,%rdi,1),%rcx
    5831:	8d 53 01             	lea    0x1(%rbx),%edx
    5834:	48 8b 5c 24 10       	mov    0x10(%rsp),%rbx
    5839:	48 01 c7             	add    %rax,%rdi
    583c:	48 89 4c 24 58       	mov    %rcx,0x58(%rsp)
    5841:	41 8d 4c 24 01       	lea    0x1(%r12),%ecx
    5846:	48 63 d2             	movslq %edx,%rdx
    5849:	49 8d 44 fd 00       	lea    0x0(%r13,%rdi,8),%rax
    584e:	48 63 c9             	movslq %ecx,%rcx
    5851:	48 0f af d3          	imul   %rbx,%rdx
    5855:	48 03 bc 24 d8 00 00 	add    0xd8(%rsp),%rdi
    585c:	00 
    585d:	49 0f af cb          	imul   %r11,%rcx
    5861:	49 8d 34 16          	lea    (%r14,%rdx,1),%rsi
    5865:	48 29 da             	sub    %rbx,%rdx
    5868:	49 89 ca             	mov    %rcx,%r10
    586b:	4c 01 f2             	add    %r14,%rdx
    586e:	4c 8b b4 24 98 00 00 	mov    0x98(%rsp),%r14
    5875:	00 
    5876:	4c 8d 04 0e          	lea    (%rsi,%rcx,1),%r8
    587a:	4d 29 da             	sub    %r11,%r10
    587d:	4c 8d 1c 11          	lea    (%rcx,%rdx,1),%r11
    5881:	4c 89 44 24 60       	mov    %r8,0x60(%rsp)
    5886:	49 8d 1c 12          	lea    (%r10,%rdx,1),%rbx
    588a:	4c 01 f1             	add    %r14,%rcx
    588d:	4e 8d 04 16          	lea    (%rsi,%r10,1),%r8
    5891:	48 89 9c 24 80 00 00 	mov    %rbx,0x80(%rsp)
    5898:	00 
    5899:	49 8d 5c fd 00       	lea    0x0(%r13,%rdi,8),%rbx
    589e:	4c 89 f7             	mov    %r14,%rdi
    58a1:	48 01 f1             	add    %rsi,%rcx
    58a4:	4f 8d 34 33          	lea    (%r11,%r14,1),%r14
    58a8:	49 01 fa             	add    %rdi,%r10
    58ab:	4c 89 44 24 68       	mov    %r8,0x68(%rsp)
    58b0:	4d 8d 0c cf          	lea    (%r15,%rcx,8),%r9
    58b4:	4c 01 f5             	add    %r14,%rbp
    58b7:	4c 01 d6             	add    %r10,%rsi
    58ba:	4f 8d 04 f7          	lea    (%r15,%r14,8),%r8
    58be:	4c 01 d2             	add    %r10,%rdx
    58c1:	49 8d 2c ef          	lea    (%r15,%rbp,8),%rbp
    58c5:	49 8d 3c f7          	lea    (%r15,%rsi,8),%rdi
    58c9:	48 39 e8             	cmp    %rbp,%rax
    58cc:	4d 8d 14 d7          	lea    (%r15,%rdx,8),%r10
    58d0:	40 0f 93 c5          	setae  %bpl
    58d4:	49 39 d8             	cmp    %rbx,%r8
    58d7:	0f 93 84 24 88 00 00 	setae  0x88(%rsp)
    58de:	00 
    58df:	48 03 4c 24 30       	add    0x30(%rsp),%rcx
    58e4:	40 0a ac 24 88 00 00 	or     0x88(%rsp),%bpl
    58eb:	00 
    58ec:	49 8d 0c cf          	lea    (%r15,%rcx,8),%rcx
    58f0:	48 39 c8             	cmp    %rcx,%rax
    58f3:	0f 93 c1             	setae  %cl
    58f6:	49 39 d9             	cmp    %rbx,%r9
    58f9:	0f 93 84 24 88 00 00 	setae  0x88(%rsp)
    5900:	00 
    5901:	0a 8c 24 88 00 00 00 	or     0x88(%rsp),%cl
    5908:	21 e9                	and    %ebp,%ecx
    590a:	83 bc 24 c0 00 00 00 	cmpl   $0x1,0xc0(%rsp)
    5911:	01 
    5912:	40 0f 97 c5          	seta   %bpl
    5916:	48 03 74 24 30       	add    0x30(%rsp),%rsi
    591b:	49 8d 34 f7          	lea    (%r15,%rsi,8),%rsi
    591f:	21 e9                	and    %ebp,%ecx
    5921:	48 39 f0             	cmp    %rsi,%rax
    5924:	40 0f 93 c6          	setae  %sil
    5928:	48 39 df             	cmp    %rbx,%rdi
    592b:	40 0f 93 c5          	setae  %bpl
    592f:	09 ee                	or     %ebp,%esi
    5931:	40 84 f1             	test   %sil,%cl
    5934:	0f 84 96 07 00 00    	je     60d0 <interp_._omp_fn.1+0x1d20>
    593a:	48 03 54 24 30       	add    0x30(%rsp),%rdx
    593f:	49 8d 14 d7          	lea    (%r15,%rdx,8),%rdx
    5943:	48 39 d0             	cmp    %rdx,%rax
    5946:	0f 93 c2             	setae  %dl
    5949:	49 39 da             	cmp    %rbx,%r10
    594c:	0f 93 c1             	setae  %cl
    594f:	08 d1                	or     %dl,%cl
    5951:	0f 84 79 07 00 00    	je     60d0 <interp_._omp_fn.1+0x1d20>
    5957:	48 8b 8c 24 18 01 00 	mov    0x118(%rsp),%rcx
    595e:	00 
    595f:	31 d2                	xor    %edx,%edx
    5961:	0f 1f 80 00 00 00 00 	nopl   0x0(%rax)
    5968:	66 41 0f 10 3c 11    	movupd (%r9,%rdx,1),%xmm7
    596e:	66 0f 10 04 17       	movupd (%rdi,%rdx,1),%xmm0
    5973:	66 41 0f 10 34 10    	movupd (%r8,%rdx,1),%xmm6
    5979:	66 0f 10 2c 50       	movupd (%rax,%rdx,2),%xmm5
    597e:	66 0f 58 c7          	addpd  %xmm7,%xmm0
    5982:	66 41 0f 10 3c 12    	movupd (%r10,%rdx,1),%xmm7
    5988:	66 0f 16 6c 50 10    	movhpd 0x10(%rax,%rdx,2),%xmm5
    598e:	66 0f 58 c6          	addpd  %xmm6,%xmm0
    5992:	66 0f 58 c7          	addpd  %xmm7,%xmm0
    5996:	66 0f 59 c2          	mulpd  %xmm2,%xmm0
    599a:	66 0f 58 c5          	addpd  %xmm5,%xmm0
    599e:	66 0f 13 04 50       	movlpd %xmm0,(%rax,%rdx,2)
    59a3:	66 0f 17 44 50 10    	movhpd %xmm0,0x10(%rax,%rdx,2)
    59a9:	48 83 c2 10          	add    $0x10,%rdx
    59ad:	48 39 ca             	cmp    %rcx,%rdx
    59b0:	75 b6                	jne    5968 <interp_._omp_fn.1+0x15b8>
    59b2:	48 8b bc 24 00 01 00 	mov    0x100(%rsp),%rdi
    59b9:	00 
    59ba:	4c 8b 74 24 60       	mov    0x60(%rsp),%r14
    59bf:	48 8b 74 24 68       	mov    0x68(%rsp),%rsi
    59c4:	4c 8b 84 24 80 00 00 	mov    0x80(%rsp),%r8
    59cb:	00 
    59cc:	48 89 f9             	mov    %rdi,%rcx
    59cf:	48 89 fa             	mov    %rdi,%rdx
    59d2:	48 8b 5c 24 58       	mov    0x58(%rsp),%rbx
    59d7:	48 8b 84 24 f8 00 00 	mov    0xf8(%rsp),%rax
    59de:	00 
    59df:	48 01 f2             	add    %rsi,%rdx
    59e2:	4c 01 f1             	add    %r14,%rcx
    59e5:	f2 41 0f 10 04 cf    	movsd  (%r15,%rcx,8),%xmm0
    59eb:	f2 41 0f 58 04 d7    	addsd  (%r15,%rdx,8),%xmm0
    59f1:	4a 8d 14 1f          	lea    (%rdi,%r11,1),%rdx
    59f5:	4c 01 c7             	add    %r8,%rdi
    59f8:	f2 41 0f 58 04 d7    	addsd  (%r15,%rdx,8),%xmm0
    59fe:	f2 41 0f 58 04 ff    	addsd  (%r15,%rdi,8),%xmm0
    5a04:	48 01 d8             	add    %rbx,%rax
    5a07:	8b 7c 24 50          	mov    0x50(%rsp),%edi
    5a0b:	f2 0f 59 c4          	mulsd  %xmm4,%xmm0
    5a0f:	f2 41 0f 58 44 c5 00 	addsd  0x0(%r13,%rax,8),%xmm0
    5a16:	f2 41 0f 11 44 c5 00 	movsd  %xmm0,0x0(%r13,%rax,8)
    5a1d:	39 bc 24 08 01 00 00 	cmp    %edi,0x108(%rsp)
    5a24:	7d 52                	jge    5a78 <interp_._omp_fn.1+0x16c8>
    5a26:	48 8b bc 24 28 01 00 	mov    0x128(%rsp),%rdi
    5a2d:	00 
    5a2e:	48 89 f2             	mov    %rsi,%rdx
    5a31:	4c 89 f1             	mov    %r14,%rcx
    5a34:	48 8b 84 24 30 01 00 	mov    0x130(%rsp),%rax
    5a3b:	00 
    5a3c:	48 01 fa             	add    %rdi,%rdx
    5a3f:	48 01 f9             	add    %rdi,%rcx
    5a42:	49 01 fb             	add    %rdi,%r11
    5a45:	48 01 d8             	add    %rbx,%rax
    5a48:	f2 41 0f 10 04 d7    	movsd  (%r15,%rdx,8),%xmm0
    5a4e:	4c 89 c2             	mov    %r8,%rdx
    5a51:	f2 41 0f 58 04 cf    	addsd  (%r15,%rcx,8),%xmm0
    5a57:	48 01 fa             	add    %rdi,%rdx
    5a5a:	f2 43 0f 58 04 df    	addsd  (%r15,%r11,8),%xmm0
    5a60:	f2 41 0f 58 04 d7    	addsd  (%r15,%rdx,8),%xmm0
    5a66:	f2 0f 59 c4          	mulsd  %xmm4,%xmm0
    5a6a:	f2 41 0f 58 44 c5 00 	addsd  0x0(%r13,%rax,8),%xmm0
    5a71:	f2 41 0f 11 44 c5 00 	movsd  %xmm0,0x0(%r13,%rax,8)
    5a78:	83 7c 24 50 01       	cmpl   $0x1,0x50(%rsp)
    5a7d:	0f 8e 43 03 00 00    	jle    5dc6 <interp_._omp_fn.1+0x1a16>
    5a83:	8b 7c 24 78          	mov    0x78(%rsp),%edi
    5a87:	43 8d 14 24          	lea    (%r12,%r12,1),%edx
    5a8b:	4c 8b 5c 24 08       	mov    0x8(%rsp),%r11
    5a90:	45 8d 44 24 01       	lea    0x1(%r12),%r8d
    5a95:	2b 94 24 b8 00 00 00 	sub    0xb8(%rsp),%edx
    5a9c:	4c 8b 74 24 10       	mov    0x10(%rsp),%r14
    5aa1:	4d 63 c0             	movslq %r8d,%r8
    5aa4:	8d 0c 3f             	lea    (%rdi,%rdi,1),%ecx
    5aa7:	2b 4c 24 4c          	sub    0x4c(%rsp),%ecx
    5aab:	48 63 d2             	movslq %edx,%rdx
    5aae:	48 8b 5c 24 18       	mov    0x18(%rsp),%rbx
    5ab3:	48 63 c9             	movslq %ecx,%rcx
    5ab6:	48 0f af 4c 24 20    	imul   0x20(%rsp),%rcx
    5abc:	4c 8b 54 24 40       	mov    0x40(%rsp),%r10
    5ac1:	48 0f af 54 24 28    	imul   0x28(%rsp),%rdx
    5ac7:	4c 0f af c3          	imul   %rbx,%r8
    5acb:	49 8d 04 0b          	lea    (%r11,%rcx,1),%rax
    5acf:	48 01 d0             	add    %rdx,%rax
    5ad2:	48 89 44 24 68       	mov    %rax,0x68(%rsp)
    5ad7:	8d 47 01             	lea    0x1(%rdi),%eax
    5ada:	4c 89 c7             	mov    %r8,%rdi
    5add:	48 98                	cltq   
    5adf:	48 29 df             	sub    %rbx,%rdi
    5ae2:	49 0f af c6          	imul   %r14,%rax
    5ae6:	4d 8d 0c 02          	lea    (%r10,%rax,1),%r9
    5aea:	4c 29 f0             	sub    %r14,%rax
    5aed:	4c 01 d0             	add    %r10,%rax
    5af0:	49 8d 1c 39          	lea    (%r9,%rdi,1),%rbx
    5af4:	4b 8d 34 01          	lea    (%r9,%r8,1),%rsi
    5af8:	4d 8d 34 00          	lea    (%r8,%rax,1),%r14
    5afc:	4c 8d 14 07          	lea    (%rdi,%rax,1),%r10
    5b00:	4c 89 d8             	mov    %r11,%rax
    5b03:	48 89 5c 24 58       	mov    %rbx,0x58(%rsp)
    5b08:	48 2b 84 24 b0 00 00 	sub    0xb0(%rsp),%rax
    5b0f:	00 
    5b10:	48 8b bc 24 c8 00 00 	mov    0xc8(%rsp),%rdi
    5b17:	00 
    5b18:	4a 8d 2c f5 08 00 00 	lea    0x8(,%r14,8),%rbp
    5b1f:	00 
    5b20:	4c 89 b4 24 80 00 00 	mov    %r14,0x80(%rsp)
    5b27:	00 
    5b28:	48 01 c8             	add    %rcx,%rax
    5b2b:	48 8b 4c 24 38       	mov    0x38(%rsp),%rcx
    5b30:	4d 8d 04 2f          	lea    (%r15,%rbp,1),%r8
    5b34:	4c 89 54 24 60       	mov    %r10,0x60(%rsp)
    5b39:	48 01 c2             	add    %rax,%rdx
    5b3c:	49 8d 44 d5 10       	lea    0x10(%r13,%rdx,8),%rax
    5b41:	48 8d 54 17 03       	lea    0x3(%rdi,%rdx,1),%rdx
    5b46:	49 01 ce             	add    %rcx,%r14
    5b49:	4d 8d 5c d5 00       	lea    0x0(%r13,%rdx,8),%r11
    5b4e:	48 8d 3c f5 08 00 00 	lea    0x8(,%rsi,8),%rdi
    5b55:	00 
    5b56:	48 8d 14 dd 08 00 00 	lea    0x8(,%rbx,8),%rdx
    5b5d:	00 
    5b5e:	4d 8d 0c 3f          	lea    (%r15,%rdi,1),%r9
    5b62:	48 89 bc 24 90 00 00 	mov    %rdi,0x90(%rsp)
    5b69:	00 
    5b6a:	48 89 94 24 88 00 00 	mov    %rdx,0x88(%rsp)
    5b71:	00 
    5b72:	49 8d 3c 17          	lea    (%r15,%rdx,1),%rdi
    5b76:	4b 8d 14 f7          	lea    (%r15,%r14,8),%rdx
    5b7a:	48 39 d0             	cmp    %rdx,%rax
    5b7d:	4a 8d 1c d5 08 00 00 	lea    0x8(,%r10,8),%rbx
    5b84:	00 
    5b85:	41 0f 93 c6          	setae  %r14b
    5b89:	4d 39 d8             	cmp    %r11,%r8
    5b8c:	4d 8d 14 1f          	lea    (%r15,%rbx,1),%r10
    5b90:	0f 93 c2             	setae  %dl
    5b93:	41 09 d6             	or     %edx,%r14d
    5b96:	48 89 ca             	mov    %rcx,%rdx
    5b99:	48 01 f2             	add    %rsi,%rdx
    5b9c:	49 8d 14 d7          	lea    (%r15,%rdx,8),%rdx
    5ba0:	48 39 d0             	cmp    %rdx,%rax
    5ba3:	0f 93 c1             	setae  %cl
    5ba6:	4d 39 d9             	cmp    %r11,%r9
    5ba9:	0f 93 c2             	setae  %dl
    5bac:	09 ca                	or     %ecx,%edx
    5bae:	44 21 f2             	and    %r14d,%edx
    5bb1:	83 bc 24 bc 00 00 00 	cmpl   $0x1,0xbc(%rsp)
    5bb8:	01 
    5bb9:	0f 97 c1             	seta   %cl
    5bbc:	21 ca                	and    %ecx,%edx
    5bbe:	48 8b 4c 24 58       	mov    0x58(%rsp),%rcx
    5bc3:	48 03 4c 24 38       	add    0x38(%rsp),%rcx
    5bc8:	49 8d 0c cf          	lea    (%r15,%rcx,8),%rcx
    5bcc:	48 39 c8             	cmp    %rcx,%rax
    5bcf:	0f 93 c1             	setae  %cl
    5bd2:	4c 39 df             	cmp    %r11,%rdi
    5bd5:	41 0f 93 c6          	setae  %r14b
    5bd9:	44 09 f1             	or     %r14d,%ecx
    5bdc:	84 ca                	test   %cl,%dl
    5bde:	0f 84 ec 03 00 00    	je     5fd0 <interp_._omp_fn.1+0x1c20>
    5be4:	48 8b 54 24 60       	mov    0x60(%rsp),%rdx
    5be9:	48 03 54 24 38       	add    0x38(%rsp),%rdx
    5bee:	49 8d 14 d7          	lea    (%r15,%rdx,8),%rdx
    5bf2:	48 39 d0             	cmp    %rdx,%rax
    5bf5:	0f 93 c2             	setae  %dl
    5bf8:	4d 39 da             	cmp    %r11,%r10
    5bfb:	0f 93 c1             	setae  %cl
    5bfe:	08 d1                	or     %dl,%cl
    5c00:	0f 84 ca 03 00 00    	je     5fd0 <interp_._omp_fn.1+0x1c20>
    5c06:	48 8b 94 24 88 00 00 	mov    0x88(%rsp),%rdx
    5c0d:	00 
    5c0e:	49 8d 6c 2f 08       	lea    0x8(%r15,%rbp,1),%rbp
    5c13:	49 8d 5c 1f 08       	lea    0x8(%r15,%rbx,1),%rbx
    5c18:	48 8b 8c 24 90 00 00 	mov    0x90(%rsp),%rcx
    5c1f:	00 
    5c20:	4c 8b b4 24 20 01 00 	mov    0x120(%rsp),%r14
    5c27:	00 
    5c28:	4d 8d 5c 17 08       	lea    0x8(%r15,%rdx,1),%r11
    5c2d:	49 8d 4c 0f 08       	lea    0x8(%r15,%rcx,1),%rcx
    5c32:	31 d2                	xor    %edx,%edx
    5c34:	0f 1f 40 00          	nopl   0x0(%rax)
    5c38:	66 0f 10 34 11       	movupd (%rcx,%rdx,1),%xmm6
    5c3d:	66 41 0f 10 04 13    	movupd (%r11,%rdx,1),%xmm0
    5c43:	66 41 0f 10 3c 11    	movupd (%r9,%rdx,1),%xmm7
    5c49:	66 0f 10 2c 50       	movupd (%rax,%rdx,2),%xmm5
    5c4e:	66 0f 58 c6          	addpd  %xmm6,%xmm0
    5c52:	66 0f 10 34 17       	movupd (%rdi,%rdx,1),%xmm6
    5c57:	66 0f 16 6c 50 10    	movhpd 0x10(%rax,%rdx,2),%xmm5
    5c5d:	66 0f 58 c7          	addpd  %xmm7,%xmm0
    5c61:	66 0f 10 7c 15 00    	movupd 0x0(%rbp,%rdx,1),%xmm7
    5c67:	66 0f 58 c6          	addpd  %xmm6,%xmm0
    5c6b:	66 0f 10 34 13       	movupd (%rbx,%rdx,1),%xmm6
    5c70:	66 0f 58 c7          	addpd  %xmm7,%xmm0
    5c74:	66 41 0f 10 3c 10    	movupd (%r8,%rdx,1),%xmm7
    5c7a:	66 0f 58 c6          	addpd  %xmm6,%xmm0
    5c7e:	66 41 0f 10 34 12    	movupd (%r10,%rdx,1),%xmm6
    5c84:	66 0f 58 c7          	addpd  %xmm7,%xmm0
    5c88:	66 0f 58 c6          	addpd  %xmm6,%xmm0
    5c8c:	66 0f 59 c1          	mulpd  %xmm1,%xmm0
    5c90:	66 0f 58 c5          	addpd  %xmm5,%xmm0
    5c94:	66 0f 13 04 50       	movlpd %xmm0,(%rax,%rdx,2)
    5c99:	66 0f 17 44 50 10    	movhpd %xmm0,0x10(%rax,%rdx,2)
    5c9f:	48 83 c2 10          	add    $0x10,%rdx
    5ca3:	4c 39 f2             	cmp    %r14,%rdx
    5ca6:	75 90                	jne    5c38 <interp_._omp_fn.1+0x1888>
    5ca8:	48 8b 9c 24 f0 00 00 	mov    0xf0(%rsp),%rbx
    5caf:	00 
    5cb0:	4c 8b 74 24 58       	mov    0x58(%rsp),%r14
    5cb5:	48 8b ac 24 10 01 00 	mov    0x110(%rsp),%rbp
    5cbc:	00 
    5cbd:	4c 8b 9c 24 80 00 00 	mov    0x80(%rsp),%r11
    5cc4:	00 
    5cc5:	48 89 df             	mov    %rbx,%rdi
    5cc8:	4c 8d 04 33          	lea    (%rbx,%rsi,1),%r8
    5ccc:	4c 8b 54 24 60       	mov    0x60(%rsp),%r10
    5cd1:	48 89 d9             	mov    %rbx,%rcx
    5cd4:	4c 01 f7             	add    %r14,%rdi
    5cd7:	4c 8d 0c 2e          	lea    (%rsi,%rbp,1),%r9
    5cdb:	f2 43 0f 10 04 c7    	movsd  (%r15,%r8,8),%xmm0
    5ce1:	4c 01 d9             	add    %r11,%rcx
    5ce4:	f2 41 0f 58 04 ff    	addsd  (%r15,%rdi,8),%xmm0
    5cea:	f2 43 0f 58 04 cf    	addsd  (%r15,%r9,8),%xmm0
    5cf0:	4d 89 f1             	mov    %r14,%r9
    5cf3:	4c 01 d3             	add    %r10,%rbx
    5cf6:	49 01 e9             	add    %rbp,%r9
    5cf9:	48 89 da             	mov    %rbx,%rdx
    5cfc:	48 8b 84 24 e0 00 00 	mov    0xe0(%rsp),%rax
    5d03:	00 
    5d04:	48 03 44 24 68       	add    0x68(%rsp),%rax
    5d09:	f2 43 0f 58 04 cf    	addsd  (%r15,%r9,8),%xmm0
    5d0f:	4d 89 d9             	mov    %r11,%r9
    5d12:	f2 41 0f 58 04 cf    	addsd  (%r15,%rcx,8),%xmm0
    5d18:	4c 89 f3             	mov    %r14,%rbx
    5d1b:	49 01 e9             	add    %rbp,%r9
    5d1e:	f2 41 0f 58 04 d7    	addsd  (%r15,%rdx,8),%xmm0
    5d24:	4d 89 de             	mov    %r11,%r14
    5d27:	4d 89 d3             	mov    %r10,%r11
    5d2a:	f2 43 0f 58 04 cf    	addsd  (%r15,%r9,8),%xmm0
    5d30:	4d 89 d1             	mov    %r10,%r9
    5d33:	44 8b 54 24 50       	mov    0x50(%rsp),%r10d
    5d38:	49 01 e9             	add    %rbp,%r9
    5d3b:	f2 43 0f 58 04 cf    	addsd  (%r15,%r9,8),%xmm0
    5d41:	f2 0f 59 c3          	mulsd  %xmm3,%xmm0
    5d45:	f2 41 0f 58 44 c5 00 	addsd  0x0(%r13,%rax,8),%xmm0
    5d4c:	f2 41 0f 11 44 c5 00 	movsd  %xmm0,0x0(%r13,%rax,8)
    5d53:	44 39 94 24 e8 00 00 	cmp    %r10d,0xe8(%rsp)
    5d5a:	00 
    5d5b:	7d 69                	jge    5dc6 <interp_._omp_fn.1+0x1a16>
    5d5d:	4c 8b 94 24 38 01 00 	mov    0x138(%rsp),%r10
    5d64:	00 
    5d65:	48 8b 44 24 68       	mov    0x68(%rsp),%rax
    5d6a:	48 03 84 24 40 01 00 	add    0x140(%rsp),%rax
    5d71:	00 
    5d72:	4c 01 d6             	add    %r10,%rsi
    5d75:	4c 01 d3             	add    %r10,%rbx
    5d78:	f2 41 0f 10 04 df    	movsd  (%r15,%rbx,8),%xmm0
    5d7e:	f2 41 0f 58 04 f7    	addsd  (%r15,%rsi,8),%xmm0
    5d84:	4c 89 f6             	mov    %r14,%rsi
    5d87:	4c 01 d6             	add    %r10,%rsi
    5d8a:	f2 43 0f 58 04 c7    	addsd  (%r15,%r8,8),%xmm0
    5d90:	f2 41 0f 58 04 ff    	addsd  (%r15,%rdi,8),%xmm0
    5d96:	f2 41 0f 58 04 f7    	addsd  (%r15,%rsi,8),%xmm0
    5d9c:	4c 89 de             	mov    %r11,%rsi
    5d9f:	4c 01 d6             	add    %r10,%rsi
    5da2:	f2 41 0f 58 04 f7    	addsd  (%r15,%rsi,8),%xmm0
    5da8:	f2 41 0f 58 04 cf    	addsd  (%r15,%rcx,8),%xmm0
    5dae:	f2 41 0f 58 04 d7    	addsd  (%r15,%rdx,8),%xmm0
    5db4:	f2 0f 59 c3          	mulsd  %xmm3,%xmm0
    5db8:	f2 41 0f 58 44 c5 00 	addsd  0x0(%r13,%rax,8),%xmm0
    5dbf:	f2 41 0f 11 44 c5 00 	movsd  %xmm0,0x0(%r13,%rax,8)
    5dc6:	8b bc 24 a0 00 00 00 	mov    0xa0(%rsp),%edi
    5dcd:	39 7c 24 70          	cmp    %edi,0x70(%rsp)
    5dd1:	74 1d                	je     5df0 <interp_._omp_fn.1+0x1a40>
    5dd3:	41 83 c4 01          	add    $0x1,%r12d
    5dd7:	44 39 a4 24 a8 00 00 	cmp    %r12d,0xa8(%rsp)
    5dde:	00 
    5ddf:	0f 8e 73 03 00 00    	jle    6158 <interp_._omp_fn.1+0x1da8>
    5de5:	83 44 24 70 01       	addl   $0x1,0x70(%rsp)
    5dea:	e9 e9 f9 ff ff       	jmp    57d8 <interp_._omp_fn.1+0x1428>
    5def:	90                   	nop
    5df0:	48 81 c4 68 01 00 00 	add    $0x168,%rsp
    5df7:	5b                   	pop    %rbx
    5df8:	5d                   	pop    %rbp
    5df9:	41 5c                	pop    %r12
    5dfb:	41 5d                	pop    %r13
    5dfd:	41 5e                	pop    %r14
    5dff:	41 5f                	pop    %r15
    5e01:	c3                   	ret    
    5e02:	66 0f 1f 44 00 00    	nopw   0x0(%rax,%rax,1)
    5e08:	48 8b 84 24 10 01 00 	mov    0x110(%rsp),%rax
    5e0f:	00 
    5e10:	44 8b 54 24 70       	mov    0x70(%rsp),%r10d
    5e15:	4a 8d 74 d8 10       	lea    0x10(%rax,%r11,8),%rsi
    5e1a:	4d 01 ca             	add    %r9,%r10
    5e1d:	4a 8d 44 c9 10       	lea    0x10(%rcx,%r9,8),%rax
    5e22:	48 01 d6             	add    %rdx,%rsi
    5e25:	4e 8d 4c d1 18       	lea    0x18(%rcx,%r10,8),%r9
    5e2a:	66 0f 1f 44 00 00    	nopw   0x0(%rax,%rax,1)
    5e30:	f2 0f 10 00          	movsd  (%rax),%xmm0
    5e34:	f2 0f 58 40 f8       	addsd  -0x8(%rax),%xmm0
    5e39:	48 83 c0 08          	add    $0x8,%rax
    5e3d:	48 83 c6 10          	add    $0x10,%rsi
    5e41:	f2 0f 59 c3          	mulsd  %xmm3,%xmm0
    5e45:	f2 0f 58 46 f0       	addsd  -0x10(%rsi),%xmm0
    5e4a:	f2 0f 11 46 f0       	movsd  %xmm0,-0x10(%rsi)
    5e4f:	4c 39 c8             	cmp    %r9,%rax
    5e52:	75 dc                	jne    5e30 <interp_._omp_fn.1+0x1a80>
    5e54:	e9 ae ea ff ff       	jmp    4907 <interp_._omp_fn.1+0x557>
    5e59:	0f 1f 80 00 00 00 00 	nopl   0x0(%rax)
    5e60:	48 8b b4 24 18 01 00 	mov    0x118(%rsp),%rsi
    5e67:	00 
    5e68:	49 8d 04 33          	lea    (%r11,%rsi,1),%rax
    5e6c:	48 01 f3             	add    %rsi,%rbx
    5e6f:	4c 03 9c 24 20 01 00 	add    0x120(%rsp),%r11
    5e76:	00 
    5e77:	48 8d 04 c2          	lea    (%rdx,%rax,8),%rax
    5e7b:	48 8d 34 d9          	lea    (%rcx,%rbx,8),%rsi
    5e7f:	4e 8d 4c da 10       	lea    0x10(%rdx,%r11,8),%r9
    5e84:	0f 1f 40 00          	nopl   0x0(%rax)
    5e88:	f2 0f 10 00          	movsd  (%rax),%xmm0
    5e8c:	f2 0f 58 06          	addsd  (%rsi),%xmm0
    5e90:	48 83 c0 10          	add    $0x10,%rax
    5e94:	48 83 c6 08          	add    $0x8,%rsi
    5e98:	f2 0f 11 40 f0       	movsd  %xmm0,-0x10(%rax)
    5e9d:	4c 39 c8             	cmp    %r9,%rax
    5ea0:	75 e6                	jne    5e88 <interp_._omp_fn.1+0x1ad8>
    5ea2:	e9 e9 e8 ff ff       	jmp    4790 <interp_._omp_fn.1+0x3e0>
    5ea7:	66 0f 1f 84 00 00 00 	nopw   0x0(%rax,%rax,1)
    5eae:	00 00 
    5eb0:	48 8b 84 24 30 01 00 	mov    0x130(%rsp),%rax
    5eb7:	00 
    5eb8:	4c 8b 94 24 28 01 00 	mov    0x128(%rsp),%r10
    5ebf:	00 
    5ec0:	4e 8d 04 c2          	lea    (%rdx,%r8,8),%r8
    5ec4:	48 8d 0c ca          	lea    (%rdx,%rcx,8),%rcx
    5ec8:	4e 8d 0c c8          	lea    (%rax,%r9,8),%r9
    5ecc:	31 c0                	xor    %eax,%eax
    5ece:	49 01 f1             	add    %rsi,%r9
    5ed1:	0f 1f 80 00 00 00 00 	nopl   0x0(%rax)
    5ed8:	f2 41 0f 10 44 00 10 	movsd  0x10(%r8,%rax,1),%xmm0
    5edf:	f2 0f 58 44 01 10    	addsd  0x10(%rcx,%rax,1),%xmm0
    5ee5:	f2 41 0f 58 44 00 08 	addsd  0x8(%r8,%rax,1),%xmm0
    5eec:	f2 0f 58 44 01 08    	addsd  0x8(%rcx,%rax,1),%xmm0
    5ef2:	f2 0f 59 c3          	mulsd  %xmm3,%xmm0
    5ef6:	f2 41 0f 58 44 41 10 	addsd  0x10(%r9,%rax,2),%xmm0
    5efd:	f2 41 0f 11 44 41 10 	movsd  %xmm0,0x10(%r9,%rax,2)
    5f04:	48 83 c0 08          	add    $0x8,%rax
    5f08:	4c 39 d0             	cmp    %r10,%rax
    5f0b:	75 cb                	jne    5ed8 <interp_._omp_fn.1+0x1b28>
    5f0d:	e9 fd ef ff ff       	jmp    4f0f <interp_._omp_fn.1+0xb5f>
    5f12:	66 0f 1f 44 00 00    	nopw   0x0(%rax,%rax,1)
    5f18:	48 8b 84 24 80 00 00 	mov    0x80(%rsp),%rax
    5f1f:	00 
    5f20:	4c 8b 94 24 20 01 00 	mov    0x120(%rsp),%r10
    5f27:	00 
    5f28:	49 01 c0             	add    %rax,%r8
    5f2b:	48 01 c5             	add    %rax,%rbp
    5f2e:	31 c0                	xor    %eax,%eax
    5f30:	4a 8d 0c c6          	lea    (%rsi,%r8,8),%rcx
    5f34:	4c 8d 0c ea          	lea    (%rdx,%rbp,8),%r9
    5f38:	4e 8d 04 ea          	lea    (%rdx,%r13,8),%r8
    5f3c:	0f 1f 40 00          	nopl   0x0(%rax)
    5f40:	f2 41 0f 10 04 00    	movsd  (%r8,%rax,1),%xmm0
    5f46:	f2 41 0f 58 04 01    	addsd  (%r9,%rax,1),%xmm0
    5f4c:	f2 0f 59 c4          	mulsd  %xmm4,%xmm0
    5f50:	f2 0f 58 04 41       	addsd  (%rcx,%rax,2),%xmm0
    5f55:	f2 0f 11 04 41       	movsd  %xmm0,(%rcx,%rax,2)
    5f5a:	48 83 c0 08          	add    $0x8,%rax
    5f5e:	49 39 c2             	cmp    %rax,%r10
    5f61:	75 dd                	jne    5f40 <interp_._omp_fn.1+0x1b90>
    5f63:	e9 b0 ed ff ff       	jmp    4d18 <interp_._omp_fn.1+0x968>
    5f68:	0f 1f 84 00 00 00 00 	nopl   0x0(%rax,%rax,1)
    5f6f:	00 
    5f70:	48 8b 84 24 50 01 00 	mov    0x150(%rsp),%rax
    5f77:	00 
    5f78:	4c 8b 8c 24 40 01 00 	mov    0x140(%rsp),%r9
    5f7f:	00 
    5f80:	48 01 c7             	add    %rax,%rdi
    5f83:	49 01 c3             	add    %rax,%r11
    5f86:	49 01 c2             	add    %rax,%r10
    5f89:	31 c0                	xor    %eax,%eax
    5f8b:	48 8d 34 f9          	lea    (%rcx,%rdi,8),%rsi
    5f8f:	4e 8d 04 d2          	lea    (%rdx,%r10,8),%r8
    5f93:	4a 8d 3c da          	lea    (%rdx,%r11,8),%rdi
    5f97:	66 0f 1f 84 00 00 00 	nopw   0x0(%rax,%rax,1)
    5f9e:	00 00 
    5fa0:	f2 0f 10 04 07       	movsd  (%rdi,%rax,1),%xmm0
    5fa5:	f2 41 0f 58 04 00    	addsd  (%r8,%rax,1),%xmm0
    5fab:	f2 0f 59 c4          	mulsd  %xmm4,%xmm0
    5faf:	f2 0f 58 04 46       	addsd  (%rsi,%rax,2),%xmm0
    5fb4:	f2 0f 11 04 46       	movsd  %xmm0,(%rsi,%rax,2)
    5fb9:	48 83 c0 08          	add    $0x8,%rax
    5fbd:	4c 39 c8             	cmp    %r9,%rax
    5fc0:	75 de                	jne    5fa0 <interp_._omp_fn.1+0x1bf0>
    5fc2:	e9 81 f3 ff ff       	jmp    5348 <interp_._omp_fn.1+0xf98>
    5fc7:	66 0f 1f 84 00 00 00 	nopw   0x0(%rax,%rax,1)
    5fce:	00 00 
    5fd0:	48 8b 84 24 58 01 00 	mov    0x158(%rsp),%rax
    5fd7:	00 
    5fd8:	48 8b 7c 24 68       	mov    0x68(%rsp),%rdi
    5fdd:	49 8d 0c f7          	lea    (%r15,%rsi,8),%rcx
    5fe1:	4c 8b 8c 24 50 01 00 	mov    0x150(%rsp),%r9
    5fe8:	00 
    5fe9:	48 8d 14 f8          	lea    (%rax,%rdi,8),%rdx
    5fed:	48 8b 44 24 58       	mov    0x58(%rsp),%rax
    5ff2:	4c 01 ea             	add    %r13,%rdx
    5ff5:	49 8d 34 c7          	lea    (%r15,%rax,8),%rsi
    5ff9:	48 8b 84 24 80 00 00 	mov    0x80(%rsp),%rax
    6000:	00 
    6001:	49 8d 3c c7          	lea    (%r15,%rax,8),%rdi
    6005:	48 8b 44 24 60       	mov    0x60(%rsp),%rax
    600a:	4d 8d 04 c7          	lea    (%r15,%rax,8),%r8
    600e:	31 c0                	xor    %eax,%eax
    6010:	f2 0f 10 44 06 10    	movsd  0x10(%rsi,%rax,1),%xmm0
    6016:	f2 0f 58 44 01 10    	addsd  0x10(%rcx,%rax,1),%xmm0
    601c:	f2 0f 58 44 01 08    	addsd  0x8(%rcx,%rax,1),%xmm0
    6022:	f2 0f 58 44 06 08    	addsd  0x8(%rsi,%rax,1),%xmm0
    6028:	f2 0f 58 44 07 10    	addsd  0x10(%rdi,%rax,1),%xmm0
    602e:	f2 41 0f 58 44 00 10 	addsd  0x10(%r8,%rax,1),%xmm0
    6035:	f2 0f 58 44 07 08    	addsd  0x8(%rdi,%rax,1),%xmm0
    603b:	f2 41 0f 58 44 00 08 	addsd  0x8(%r8,%rax,1),%xmm0
    6042:	f2 0f 59 c3          	mulsd  %xmm3,%xmm0
    6046:	f2 0f 58 44 42 10    	addsd  0x10(%rdx,%rax,2),%xmm0
    604c:	f2 0f 11 44 42 10    	movsd  %xmm0,0x10(%rdx,%rax,2)
    6052:	48 83 c0 08          	add    $0x8,%rax
    6056:	4c 39 c8             	cmp    %r9,%rax
    6059:	75 b5                	jne    6010 <interp_._omp_fn.1+0x1c60>
    605b:	e9 66 fd ff ff       	jmp    5dc6 <interp_._omp_fn.1+0x1a16>
    6060:	48 8b 84 24 48 01 00 	mov    0x148(%rsp),%rax
    6067:	00 
    6068:	48 8b 5c 24 60       	mov    0x60(%rsp),%rbx
    606d:	4e 8d 04 c2          	lea    (%rdx,%r8,8),%r8
    6071:	48 8d 3c fa          	lea    (%rdx,%rdi,8),%rdi
    6075:	4c 8b 8c 24 30 01 00 	mov    0x130(%rsp),%r9
    607c:	00 
    607d:	48 8d 34 d8          	lea    (%rax,%rbx,8),%rsi
    6081:	31 c0                	xor    %eax,%eax
    6083:	48 01 ce             	add    %rcx,%rsi
    6086:	66 2e 0f 1f 84 00 00 	cs nopw 0x0(%rax,%rax,1)
    608d:	00 00 00 
    6090:	f2 41 0f 10 44 00 10 	movsd  0x10(%r8,%rax,1),%xmm0
    6097:	f2 41 0f 58 44 00 08 	addsd  0x8(%r8,%rax,1),%xmm0
    609e:	f2 0f 58 44 07 10    	addsd  0x10(%rdi,%rax,1),%xmm0
    60a4:	f2 0f 58 44 07 08    	addsd  0x8(%rdi,%rax,1),%xmm0
    60aa:	f2 0f 59 c3          	mulsd  %xmm3,%xmm0
    60ae:	f2 0f 58 44 46 10    	addsd  0x10(%rsi,%rax,2),%xmm0
    60b4:	f2 0f 11 44 46 10    	movsd  %xmm0,0x10(%rsi,%rax,2)
    60ba:	48 83 c0 08          	add    $0x8,%rax
    60be:	49 39 c1             	cmp    %rax,%r9
    60c1:	75 cd                	jne    6090 <interp_._omp_fn.1+0x1ce0>
    60c3:	e9 9a f4 ff ff       	jmp    5562 <interp_._omp_fn.1+0x11b2>
    60c8:	0f 1f 84 00 00 00 00 	nopl   0x0(%rax,%rax,1)
    60cf:	00 
    60d0:	48 8b 9c 24 98 00 00 	mov    0x98(%rsp),%rbx
    60d7:	00 
    60d8:	48 8b 44 24 58       	mov    0x58(%rsp),%rax
    60dd:	4b 8d 3c f7          	lea    (%r15,%r14,8),%rdi
    60e1:	4c 8b 8c 24 48 01 00 	mov    0x148(%rsp),%r9
    60e8:	00 
    60e9:	48 01 d8             	add    %rbx,%rax
    60ec:	49 8d 54 c5 00       	lea    0x0(%r13,%rax,8),%rdx
    60f1:	48 8b 44 24 60       	mov    0x60(%rsp),%rax
    60f6:	48 01 d8             	add    %rbx,%rax
    60f9:	49 8d 0c c7          	lea    (%r15,%rax,8),%rcx
    60fd:	48 8b 44 24 68       	mov    0x68(%rsp),%rax
    6102:	48 01 d8             	add    %rbx,%rax
    6105:	49 8d 34 c7          	lea    (%r15,%rax,8),%rsi
    6109:	48 8b 84 24 80 00 00 	mov    0x80(%rsp),%rax
    6110:	00 
    6111:	48 01 d8             	add    %rbx,%rax
    6114:	4d 8d 04 c7          	lea    (%r15,%rax,8),%r8
    6118:	31 c0                	xor    %eax,%eax
    611a:	66 0f 1f 44 00 00    	nopw   0x0(%rax,%rax,1)
    6120:	f2 0f 10 04 06       	movsd  (%rsi,%rax,1),%xmm0
    6125:	f2 0f 58 04 01       	addsd  (%rcx,%rax,1),%xmm0
    612a:	f2 0f 58 04 07       	addsd  (%rdi,%rax,1),%xmm0
    612f:	f2 41 0f 58 04 00    	addsd  (%r8,%rax,1),%xmm0
    6135:	f2 0f 59 c4          	mulsd  %xmm4,%xmm0
    6139:	f2 0f 58 04 42       	addsd  (%rdx,%rax,2),%xmm0
    613e:	f2 0f 11 04 42       	movsd  %xmm0,(%rdx,%rax,2)
    6143:	48 83 c0 08          	add    $0x8,%rax
    6147:	49 39 c1             	cmp    %rax,%r9
    614a:	75 d4                	jne    6120 <interp_._omp_fn.1+0x1d70>
    614c:	e9 27 f9 ff ff       	jmp    5a78 <interp_._omp_fn.1+0x16c8>
    6151:	0f 1f 80 00 00 00 00 	nopl   0x0(%rax)
    6158:	83 44 24 78 01       	addl   $0x1,0x78(%rsp)
    615d:	41 bc 01 00 00 00    	mov    $0x1,%r12d
    6163:	e9 7d fc ff ff       	jmp    5de5 <interp_._omp_fn.1+0x1a35>
    6168:	0f 1f 84 00 00 00 00 	nopl   0x0(%rax,%rax,1)
    616f:	00 
    6170:	8b 7c 24 38          	mov    0x38(%rsp),%edi
    6174:	41 83 c0 01          	add    $0x1,%r8d
    6178:	e9 9e e7 ff ff       	jmp    491b <interp_._omp_fn.1+0x56b>
    617d:	0f 1f 00             	nopl   (%rax)
    6180:	44 8b 74 24 38       	mov    0x38(%rsp),%r14d
    6185:	41 83 c7 01          	add    $0x1,%r15d
    6189:	e9 f0 f3 ff ff       	jmp    557e <interp_._omp_fn.1+0x11ce>
    618e:	66 90                	xchg   %ax,%ax
    6190:	83 44 24 60 01       	addl   $0x1,0x60(%rsp)
    6195:	bf 01 00 00 00       	mov    $0x1,%edi
    619a:	e9 8a ed ff ff       	jmp    4f29 <interp_._omp_fn.1+0xb79>
    619f:	83 c1 01             	add    $0x1,%ecx
    61a2:	31 d2                	xor    %edx,%edx
    61a4:	e9 42 f4 ff ff       	jmp    55eb <interp_._omp_fn.1+0x123b>
    61a9:	83 c6 01             	add    $0x1,%esi
    61ac:	31 d2                	xor    %edx,%edx
    61ae:	e9 e3 ed ff ff       	jmp    4f96 <interp_._omp_fn.1+0xbe6>
    61b3:	83 c3 01             	add    $0x1,%ebx
    61b6:	31 d2                	xor    %edx,%edx
    61b8:	e9 bf e2 ff ff       	jmp    447c <interp_._omp_fn.1+0xcc>
    61bd:	83 c3 01             	add    $0x1,%ebx
    61c0:	31 d2                	xor    %edx,%edx
    61c2:	e9 bd e7 ff ff       	jmp    4984 <interp_._omp_fn.1+0x5d4>
    61c7:	66 0f 1f 84 00 00 00 	nopw   0x0(%rax,%rax,1)
    61ce:	00 00 

00000000000061d0 <comm3_._omp_fn.0>:
    61d0:	41 57                	push   %r15
    61d2:	41 56                	push   %r14
    61d4:	41 55                	push   %r13
    61d6:	41 54                	push   %r12
    61d8:	55                   	push   %rbp
    61d9:	53                   	push   %rbx
    61da:	48 89 fb             	mov    %rdi,%rbx
    61dd:	48 81 ec 98 00 00 00 	sub    $0x98,%rsp
    61e4:	48 8b 47 30          	mov    0x30(%rdi),%rax
    61e8:	48 89 7c 24 60       	mov    %rdi,0x60(%rsp)
    61ed:	48 89 44 24 68       	mov    %rax,0x68(%rsp)
    61f2:	48 8b 47 28          	mov    0x28(%rdi),%rax
    61f6:	48 89 44 24 20       	mov    %rax,0x20(%rsp)
    61fb:	48 8b 47 20          	mov    0x20(%rdi),%rax
    61ff:	48 89 44 24 78       	mov    %rax,0x78(%rsp)
    6204:	e8 67 be ff ff       	call   2070 <omp_get_num_threads@plt>
    6209:	41 89 c6             	mov    %eax,%r14d
    620c:	89 44 24 74          	mov    %eax,0x74(%rsp)
    6210:	e8 eb be ff ff       	call   2100 <omp_get_thread_num@plt>
    6215:	89 44 24 40          	mov    %eax,0x40(%rsp)
    6219:	89 c7                	mov    %eax,%edi
    621b:	48 8b 43 18          	mov    0x18(%rbx),%rax
    621f:	8b 00                	mov    (%rax),%eax
    6221:	83 e8 02             	sub    $0x2,%eax
    6224:	99                   	cltd   
    6225:	41 f7 fe             	idiv   %r14d
    6228:	39 d7                	cmp    %edx,%edi
    622a:	0f 8c 1c 05 00 00    	jl     674c <comm3_._omp_fn.0+0x57c>
    6230:	8b 4c 24 40          	mov    0x40(%rsp),%ecx
    6234:	0f af c8             	imul   %eax,%ecx
    6237:	01 ca                	add    %ecx,%edx
    6239:	01 d0                	add    %edx,%eax
    623b:	39 c2                	cmp    %eax,%edx
    623d:	0f 8d 39 02 00 00    	jge    647c <comm3_._omp_fn.0+0x2ac>
    6243:	48 8b 7c 24 60       	mov    0x60(%rsp),%rdi
    6248:	83 c0 02             	add    $0x2,%eax
    624b:	8d 5a 02             	lea    0x2(%rdx),%ebx
    624e:	4c 8b 7c 24 20       	mov    0x20(%rsp),%r15
    6253:	89 44 24 70          	mov    %eax,0x70(%rsp)
    6257:	48 8b 4c 24 68       	mov    0x68(%rsp),%rcx
    625c:	48 8b 47 10          	mov    0x10(%rdi),%rax
    6260:	48 8b 17             	mov    (%rdi),%rdx
    6263:	89 5c 24 08          	mov    %ebx,0x8(%rsp)
    6267:	4c 63 00             	movslq (%rax),%r8
    626a:	48 8b 47 08          	mov    0x8(%rdi),%rax
    626e:	48 8d 6a 08          	lea    0x8(%rdx),%rbp
    6272:	48 89 6c 24 38       	mov    %rbp,0x38(%rsp)
    6277:	8b 30                	mov    (%rax),%esi
    6279:	45 8d 48 ff          	lea    -0x1(%r8),%r9d
    627d:	48 63 c3             	movslq %ebx,%rax
    6280:	48 8b 5c 24 78       	mov    0x78(%rsp),%rbx
    6285:	4d 63 c9             	movslq %r9d,%r9
    6288:	49 0f af c7          	imul   %r15,%rax
    628c:	4d 89 c2             	mov    %r8,%r10
    628f:	4c 0f af cb          	imul   %rbx,%r9
    6293:	48 89 df             	mov    %rbx,%rdi
    6296:	4c 8d 1c 59          	lea    (%rcx,%rbx,2),%r11
    629a:	89 74 24 10          	mov    %esi,0x10(%rsp)
    629e:	4c 0f af c3          	imul   %rbx,%r8
    62a2:	48 01 cf             	add    %rcx,%rdi
    62a5:	48 63 f6             	movslq %esi,%rsi
    62a8:	48 01 c7             	add    %rax,%rdi
    62ab:	49 01 c3             	add    %rax,%r11
    62ae:	49 01 c9             	add    %rcx,%r9
    62b1:	49 01 c8             	add    %rcx,%r8
    62b4:	49 01 c1             	add    %rax,%r9
    62b7:	48 89 f1             	mov    %rsi,%rcx
    62ba:	49 01 c0             	add    %rax,%r8
    62bd:	48 89 d8             	mov    %rbx,%rax
    62c0:	48 8d 1c dd 00 00 00 	lea    0x0(,%rbx,8),%rbx
    62c7:	00 
    62c8:	48 01 f0             	add    %rsi,%rax
    62cb:	48 f7 de             	neg    %rsi
    62ce:	48 8d 04 c2          	lea    (%rdx,%rax,8),%rax
    62d2:	48 c1 e6 03          	shl    $0x3,%rsi
    62d6:	48 89 44 24 28       	mov    %rax,0x28(%rsp)
    62db:	89 c8                	mov    %ecx,%eax
    62dd:	d1 e8                	shr    %eax
    62df:	44 8d 70 ff          	lea    -0x1(%rax),%r14d
    62e3:	89 c8                	mov    %ecx,%eax
    62e5:	83 e0 fe             	and    $0xfffffffe,%eax
    62e8:	49 83 c6 01          	add    $0x1,%r14
    62ec:	89 44 24 48          	mov    %eax,0x48(%rsp)
    62f0:	89 c8                	mov    %ecx,%eax
    62f2:	49 c1 e6 04          	shl    $0x4,%r14
    62f6:	83 c9 01             	or     $0x1,%ecx
    62f9:	83 e8 01             	sub    $0x1,%eax
    62fc:	4c 89 74 24 58       	mov    %r14,0x58(%rsp)
    6301:	48 63 c9             	movslq %ecx,%rcx
    6304:	4d 89 fe             	mov    %r15,%r14
    6307:	89 44 24 30          	mov    %eax,0x30(%rsp)
    630b:	48 89 84 24 80 00 00 	mov    %rax,0x80(%rsp)
    6312:	00 
    6313:	48 8d 42 10          	lea    0x10(%rdx),%rax
    6317:	48 89 84 24 88 00 00 	mov    %rax,0x88(%rsp)
    631e:	00 
    631f:	48 8d 44 1a 08       	lea    0x8(%rdx,%rbx,1),%rax
    6324:	48 89 44 24 50       	mov    %rax,0x50(%rsp)
    6329:	0f 1f 80 00 00 00 00 	nopl   0x0(%rax)
    6330:	48 8b 44 24 28       	mov    0x28(%rsp),%rax
    6335:	bd 02 00 00 00       	mov    $0x2,%ebp
    633a:	48 8d 04 f8          	lea    (%rax,%rdi,8),%rax
    633e:	41 83 fa 02          	cmp    $0x2,%r10d
    6342:	7e 24                	jle    6368 <comm3_._omp_fn.0+0x198>
    6344:	0f 1f 40 00          	nopl   0x0(%rax)
    6348:	f2 0f 10 40 f8       	movsd  -0x8(%rax),%xmm0
    634d:	83 c5 01             	add    $0x1,%ebp
    6350:	f2 0f 11 44 30 08    	movsd  %xmm0,0x8(%rax,%rsi,1)
    6356:	f2 0f 10 44 30 10    	movsd  0x10(%rax,%rsi,1),%xmm0
    635c:	f2 0f 11 00          	movsd  %xmm0,(%rax)
    6360:	48 01 d8             	add    %rbx,%rax
    6363:	41 39 ea             	cmp    %ebp,%r10d
    6366:	75 e0                	jne    6348 <comm3_._omp_fn.0+0x178>
    6368:	8b 44 24 10          	mov    0x10(%rsp),%eax
    636c:	85 c0                	test   %eax,%eax
    636e:	0f 8e e9 00 00 00    	jle    645d <comm3_._omp_fn.0+0x28d>
    6374:	4c 89 c0             	mov    %r8,%rax
    6377:	48 89 fd             	mov    %rdi,%rbp
    637a:	4d 89 c4             	mov    %r8,%r12
    637d:	4c 29 d8             	sub    %r11,%rax
    6380:	4c 29 cd             	sub    %r9,%rbp
    6383:	4d 29 cc             	sub    %r9,%r12
    6386:	48 83 f8 01          	cmp    $0x1,%rax
    638a:	41 0f 95 c5          	setne  %r13b
    638e:	48 83 fd 01          	cmp    $0x1,%rbp
    6392:	0f 95 c0             	setne  %al
    6395:	44 21 e8             	and    %r13d,%eax
    6398:	83 7c 24 30 01       	cmpl   $0x1,0x30(%rsp)
    639d:	41 0f 97 c5          	seta   %r13b
    63a1:	44 21 e8             	and    %r13d,%eax
    63a4:	4d 89 c5             	mov    %r8,%r13
    63a7:	49 29 fd             	sub    %rdi,%r13
    63aa:	49 83 fd 01          	cmp    $0x1,%r13
    63ae:	41 0f 95 c5          	setne  %r13b
    63b2:	44 21 e8             	and    %r13d,%eax
    63b5:	49 83 fc 01          	cmp    $0x1,%r12
    63b9:	41 0f 95 c5          	setne  %r13b
    63bd:	44 84 e8             	test   %r13b,%al
    63c0:	0f 84 e2 02 00 00    	je     66a8 <comm3_._omp_fn.0+0x4d8>
    63c6:	49 8d 43 01          	lea    0x1(%r11),%rax
    63ca:	48 29 f8             	sub    %rdi,%rax
    63cd:	48 83 f8 02          	cmp    $0x2,%rax
    63d1:	0f 86 d1 02 00 00    	jbe    66a8 <comm3_._omp_fn.0+0x4d8>
    63d7:	48 8b 44 24 38       	mov    0x38(%rsp),%rax
    63dc:	48 8d 2c fd 00 00 00 	lea    0x0(,%rdi,8),%rbp
    63e3:	00 
    63e4:	48 89 54 24 18       	mov    %rdx,0x18(%rsp)
    63e9:	48 8b 54 24 58       	mov    0x58(%rsp),%rdx
    63ee:	4c 8d 2c 28          	lea    (%rax,%rbp,1),%r13
    63f2:	4e 8d 3c c8          	lea    (%rax,%r9,8),%r15
    63f6:	48 03 6c 24 50       	add    0x50(%rsp),%rbp
    63fb:	4e 8d 24 c0          	lea    (%rax,%r8,8),%r12
    63ff:	31 c0                	xor    %eax,%eax
    6401:	0f 1f 80 00 00 00 00 	nopl   0x0(%rax)
    6408:	66 41 0f 10 0c 07    	movupd (%r15,%rax,1),%xmm1
    640e:	41 0f 11 4c 05 00    	movups %xmm1,0x0(%r13,%rax,1)
    6414:	66 0f 10 54 05 00    	movupd 0x0(%rbp,%rax,1),%xmm2
    641a:	41 0f 11 14 04       	movups %xmm2,(%r12,%rax,1)
    641f:	48 83 c0 10          	add    $0x10,%rax
    6423:	48 39 d0             	cmp    %rdx,%rax
    6426:	75 e0                	jne    6408 <comm3_._omp_fn.0+0x238>
    6428:	48 8b 54 24 18       	mov    0x18(%rsp),%rdx
    642d:	44 8b 7c 24 48       	mov    0x48(%rsp),%r15d
    6432:	44 39 7c 24 10       	cmp    %r15d,0x10(%rsp)
    6437:	74 24                	je     645d <comm3_._omp_fn.0+0x28d>
    6439:	49 8d 04 09          	lea    (%r9,%rcx,1),%rax
    643d:	f2 0f 10 04 c2       	movsd  (%rdx,%rax,8),%xmm0
    6442:	48 8d 04 0f          	lea    (%rdi,%rcx,1),%rax
    6446:	f2 0f 11 04 c2       	movsd  %xmm0,(%rdx,%rax,8)
    644b:	49 8d 04 0b          	lea    (%r11,%rcx,1),%rax
    644f:	f2 0f 10 04 c2       	movsd  (%rdx,%rax,8),%xmm0
    6454:	49 8d 04 08          	lea    (%r8,%rcx,1),%rax
    6458:	f2 0f 11 04 c2       	movsd  %xmm0,(%rdx,%rax,8)
    645d:	83 44 24 08 01       	addl   $0x1,0x8(%rsp)
    6462:	4d 01 f1             	add    %r14,%r9
    6465:	8b 44 24 08          	mov    0x8(%rsp),%eax
    6469:	4c 01 f7             	add    %r14,%rdi
    646c:	4d 01 f3             	add    %r14,%r11
    646f:	4d 01 f0             	add    %r14,%r8
    6472:	39 44 24 70          	cmp    %eax,0x70(%rsp)
    6476:	0f 85 b4 fe ff ff    	jne    6330 <comm3_._omp_fn.0+0x160>
    647c:	e8 0f bd ff ff       	call   2190 <GOMP_barrier@plt>
    6481:	48 8b 44 24 60       	mov    0x60(%rsp),%rax
    6486:	48 8b 40 10          	mov    0x10(%rax),%rax
    648a:	8b 00                	mov    (%rax),%eax
    648c:	99                   	cltd   
    648d:	f7 7c 24 74          	idivl  0x74(%rsp)
    6491:	39 54 24 40          	cmp    %edx,0x40(%rsp)
    6495:	0f 8c a7 02 00 00    	jl     6742 <comm3_._omp_fn.0+0x572>
    649b:	44 8b 6c 24 40       	mov    0x40(%rsp),%r13d
    64a0:	44 0f af e8          	imul   %eax,%r13d
    64a4:	41 01 d5             	add    %edx,%r13d
    64a7:	44 01 e8             	add    %r13d,%eax
    64aa:	41 39 c5             	cmp    %eax,%r13d
    64ad:	0f 8d df 01 00 00    	jge    6692 <comm3_._omp_fn.0+0x4c2>
    64b3:	48 8b 7c 24 60       	mov    0x60(%rsp),%rdi
    64b8:	48 8b 74 24 20       	mov    0x20(%rsp),%rsi
    64bd:	41 83 c5 01          	add    $0x1,%r13d
    64c1:	48 8b 57 08          	mov    0x8(%rdi),%rdx
    64c5:	48 8b 4f 18          	mov    0x18(%rdi),%rcx
    64c9:	44 8b 3a             	mov    (%rdx),%r15d
    64cc:	48 8b 17             	mov    (%rdi),%rdx
    64cf:	48 8b 7c 24 68       	mov    0x68(%rsp),%rdi
    64d4:	4c 8d 0c 77          	lea    (%rdi,%rsi,2),%r9
    64d8:	45 85 ff             	test   %r15d,%r15d
    64db:	0f 8e b1 01 00 00    	jle    6692 <comm3_._omp_fn.0+0x4c2>
    64e1:	83 c0 01             	add    $0x1,%eax
    64e4:	49 89 f8             	mov    %rdi,%r8
    64e7:	48 8b 5c 24 78       	mov    0x78(%rsp),%rbx
    64ec:	4d 63 dd             	movslq %r13d,%r11
    64ef:	89 44 24 18          	mov    %eax,0x18(%rsp)
    64f3:	8b 01                	mov    (%rcx),%eax
    64f5:	49 01 f0             	add    %rsi,%r8
    64f8:	44 89 f9             	mov    %r15d,%ecx
    64fb:	4c 0f af db          	imul   %rbx,%r11
    64ff:	44 89 7c 24 50       	mov    %r15d,0x50(%rsp)
    6504:	83 c9 01             	or     $0x1,%ecx
    6507:	83 e8 01             	sub    $0x1,%eax
    650a:	48 98                	cltq   
    650c:	48 0f af c6          	imul   %rsi,%rax
    6510:	4d 01 d9             	add    %r11,%r9
    6513:	4d 01 d8             	add    %r11,%r8
    6516:	4c 8d 14 07          	lea    (%rdi,%rax,1),%r10
    651a:	48 01 f0             	add    %rsi,%rax
    651d:	48 01 f8             	add    %rdi,%rax
    6520:	4c 89 54 24 08       	mov    %r10,0x8(%rsp)
    6525:	48 89 c7             	mov    %rax,%rdi
    6528:	48 89 44 24 10       	mov    %rax,0x10(%rsp)
    652d:	44 89 f8             	mov    %r15d,%eax
    6530:	d1 e8                	shr    %eax
    6532:	44 8d 70 ff          	lea    -0x1(%rax),%r14d
    6536:	44 89 f8             	mov    %r15d,%eax
    6539:	83 e0 fe             	and    $0xfffffffe,%eax
    653c:	49 83 c6 01          	add    $0x1,%r14
    6540:	89 44 24 28          	mov    %eax,0x28(%rsp)
    6544:	41 8d 47 ff          	lea    -0x1(%r15),%eax
    6548:	49 c1 e6 04          	shl    $0x4,%r14
    654c:	49 89 df             	mov    %rbx,%r15
    654f:	89 44 24 70          	mov    %eax,0x70(%rsp)
    6553:	48 89 44 24 58       	mov    %rax,0x58(%rsp)
    6558:	48 8d 42 10          	lea    0x10(%rdx),%rax
    655c:	48 89 44 24 60       	mov    %rax,0x60(%rsp)
    6561:	49 8d 42 01          	lea    0x1(%r10),%rax
    6565:	48 89 44 24 30       	mov    %rax,0x30(%rsp)
    656a:	48 8d 42 08          	lea    0x8(%rdx),%rax
    656e:	48 89 44 24 38       	mov    %rax,0x38(%rsp)
    6573:	48 8d 44 f2 08       	lea    0x8(%rdx,%rsi,8),%rax
    6578:	48 89 44 24 40       	mov    %rax,0x40(%rsp)
    657d:	48 8d 47 01          	lea    0x1(%rdi),%rax
    6581:	48 89 44 24 48       	mov    %rax,0x48(%rsp)
    6586:	66 2e 0f 1f 84 00 00 	cs nopw 0x0(%rax,%rax,1)
    658d:	00 00 00 
    6590:	48 8b 44 24 08       	mov    0x8(%rsp),%rax
    6595:	4d 89 c2             	mov    %r8,%r10
    6598:	4a 8d 3c 18          	lea    (%rax,%r11,1),%rdi
    659c:	48 8b 44 24 10       	mov    0x10(%rsp),%rax
    65a1:	49 29 fa             	sub    %rdi,%r10
    65a4:	49 8d 34 03          	lea    (%r11,%rax,1),%rsi
    65a8:	49 8d 41 01          	lea    0x1(%r9),%rax
    65ac:	4c 29 c0             	sub    %r8,%rax
    65af:	48 89 f3             	mov    %rsi,%rbx
    65b2:	48 83 f8 02          	cmp    $0x2,%rax
    65b6:	0f 97 c0             	seta   %al
    65b9:	4c 29 cb             	sub    %r9,%rbx
    65bc:	48 83 fb 01          	cmp    $0x1,%rbx
    65c0:	0f 95 c3             	setne  %bl
    65c3:	21 c3                	and    %eax,%ebx
    65c5:	83 7c 24 70 01       	cmpl   $0x1,0x70(%rsp)
    65ca:	0f 97 c0             	seta   %al
    65cd:	21 d8                	and    %ebx,%eax
    65cf:	49 83 fa 01          	cmp    $0x1,%r10
    65d3:	0f 95 c3             	setne  %bl
    65d6:	21 d8                	and    %ebx,%eax
    65d8:	48 89 f3             	mov    %rsi,%rbx
    65db:	4c 29 c3             	sub    %r8,%rbx
    65de:	48 83 fb 01          	cmp    $0x1,%rbx
    65e2:	0f 95 c3             	setne  %bl
    65e5:	84 d8                	test   %bl,%al
    65e7:	0f 84 0b 01 00 00    	je     66f8 <comm3_._omp_fn.0+0x528>
    65ed:	48 83 7c 24 20 01    	cmpq   $0x1,0x20(%rsp)
    65f3:	0f 84 ff 00 00 00    	je     66f8 <comm3_._omp_fn.0+0x528>
    65f9:	48 8b 44 24 30       	mov    0x30(%rsp),%rax
    65fe:	4e 8d 14 c5 00 00 00 	lea    0x0(,%r8,8),%r10
    6605:	00 
    6606:	4c 01 d8             	add    %r11,%rax
    6609:	4c 8d 24 c2          	lea    (%rdx,%rax,8),%r12
    660d:	48 8b 44 24 38       	mov    0x38(%rsp),%rax
    6612:	4a 8d 2c 10          	lea    (%rax,%r10,1),%rbp
    6616:	48 8b 44 24 48       	mov    0x48(%rsp),%rax
    661b:	4c 03 54 24 40       	add    0x40(%rsp),%r10
    6620:	4c 01 d8             	add    %r11,%rax
    6623:	48 8d 1c c2          	lea    (%rdx,%rax,8),%rbx
    6627:	31 c0                	xor    %eax,%eax
    6629:	0f 1f 80 00 00 00 00 	nopl   0x0(%rax)
    6630:	66 41 0f 10 1c 04    	movupd (%r12,%rax,1),%xmm3
    6636:	0f 11 5c 05 00       	movups %xmm3,0x0(%rbp,%rax,1)
    663b:	66 41 0f 10 24 02    	movupd (%r10,%rax,1),%xmm4
    6641:	0f 11 24 03          	movups %xmm4,(%rbx,%rax,1)
    6645:	48 83 c0 10          	add    $0x10,%rax
    6649:	49 39 c6             	cmp    %rax,%r14
    664c:	75 e2                	jne    6630 <comm3_._omp_fn.0+0x460>
    664e:	8b 5c 24 28          	mov    0x28(%rsp),%ebx
    6652:	39 5c 24 50          	cmp    %ebx,0x50(%rsp)
    6656:	74 22                	je     667a <comm3_._omp_fn.0+0x4aa>
    6658:	48 01 cf             	add    %rcx,%rdi
    665b:	49 8d 04 08          	lea    (%r8,%rcx,1),%rax
    665f:	48 01 ce             	add    %rcx,%rsi
    6662:	f2 0f 10 04 fa       	movsd  (%rdx,%rdi,8),%xmm0
    6667:	f2 0f 11 04 c2       	movsd  %xmm0,(%rdx,%rax,8)
    666c:	49 8d 04 09          	lea    (%r9,%rcx,1),%rax
    6670:	f2 0f 10 04 c2       	movsd  (%rdx,%rax,8),%xmm0
    6675:	f2 0f 11 04 f2       	movsd  %xmm0,(%rdx,%rsi,8)
    667a:	41 83 c5 01          	add    $0x1,%r13d
    667e:	4d 01 fb             	add    %r15,%r11
    6681:	4d 01 f9             	add    %r15,%r9
    6684:	4d 01 f8             	add    %r15,%r8
    6687:	44 3b 6c 24 18       	cmp    0x18(%rsp),%r13d
    668c:	0f 85 fe fe ff ff    	jne    6590 <comm3_._omp_fn.0+0x3c0>
    6692:	48 81 c4 98 00 00 00 	add    $0x98,%rsp
    6699:	5b                   	pop    %rbx
    669a:	5d                   	pop    %rbp
    669b:	41 5c                	pop    %r12
    669d:	41 5d                	pop    %r13
    669f:	41 5e                	pop    %r14
    66a1:	41 5f                	pop    %r15
    66a3:	c3                   	ret    
    66a4:	0f 1f 40 00          	nopl   0x0(%rax)
    66a8:	4c 8b bc 24 80 00 00 	mov    0x80(%rsp),%r15
    66af:	00 
    66b0:	48 8b 44 24 38       	mov    0x38(%rsp),%rax
    66b5:	4f 8d 2c 0f          	lea    (%r15,%r9,1),%r13
    66b9:	4c 8b bc 24 88 00 00 	mov    0x88(%rsp),%r15
    66c0:	00 
    66c1:	4a 8d 04 c8          	lea    (%rax,%r9,8),%rax
    66c5:	4f 8d 3c ef          	lea    (%r15,%r13,8),%r15
    66c9:	4d 89 dd             	mov    %r11,%r13
    66cc:	4d 29 cd             	sub    %r9,%r13
    66cf:	90                   	nop
    66d0:	f2 0f 10 00          	movsd  (%rax),%xmm0
    66d4:	f2 0f 11 04 e8       	movsd  %xmm0,(%rax,%rbp,8)
    66d9:	f2 42 0f 10 04 e8    	movsd  (%rax,%r13,8),%xmm0
    66df:	f2 42 0f 11 04 e0    	movsd  %xmm0,(%rax,%r12,8)
    66e5:	48 83 c0 08          	add    $0x8,%rax
    66e9:	4c 39 f8             	cmp    %r15,%rax
    66ec:	75 e2                	jne    66d0 <comm3_._omp_fn.0+0x500>
    66ee:	e9 6a fd ff ff       	jmp    645d <comm3_._omp_fn.0+0x28d>
    66f3:	0f 1f 44 00 00       	nopl   0x0(%rax,%rax,1)
    66f8:	48 8b 5c 24 58       	mov    0x58(%rsp),%rbx
    66fd:	48 8d 44 fa 08       	lea    0x8(%rdx,%rdi,8),%rax
    6702:	48 8d 34 3b          	lea    (%rbx,%rdi,1),%rsi
    6706:	48 8b 5c 24 60       	mov    0x60(%rsp),%rbx
    670b:	48 8d 1c f3          	lea    (%rbx,%rsi,8),%rbx
    670f:	4c 89 ce             	mov    %r9,%rsi
    6712:	48 29 fe             	sub    %rdi,%rsi
    6715:	48 8b 7c 24 20       	mov    0x20(%rsp),%rdi
    671a:	66 0f 1f 44 00 00    	nopw   0x0(%rax,%rax,1)
    6720:	f2 0f 10 00          	movsd  (%rax),%xmm0
    6724:	f2 42 0f 11 04 d0    	movsd  %xmm0,(%rax,%r10,8)
    672a:	f2 0f 10 04 f0       	movsd  (%rax,%rsi,8),%xmm0
    672f:	f2 0f 11 04 f8       	movsd  %xmm0,(%rax,%rdi,8)
    6734:	48 83 c0 08          	add    $0x8,%rax
    6738:	48 39 d8             	cmp    %rbx,%rax
    673b:	75 e3                	jne    6720 <comm3_._omp_fn.0+0x550>
    673d:	e9 38 ff ff ff       	jmp    667a <comm3_._omp_fn.0+0x4aa>
    6742:	83 c0 01             	add    $0x1,%eax
    6745:	31 d2                	xor    %edx,%edx
    6747:	e9 4f fd ff ff       	jmp    649b <comm3_._omp_fn.0+0x2cb>
    674c:	83 c0 01             	add    $0x1,%eax
    674f:	31 d2                	xor    %edx,%edx
    6751:	e9 da fa ff ff       	jmp    6230 <comm3_._omp_fn.0+0x60>
    6756:	66 2e 0f 1f 84 00 00 	cs nopw 0x0(%rax,%rax,1)
    675d:	00 00 00 

0000000000006760 <rprj3_._omp_fn.0>:
    6760:	41 57                	push   %r15
    6762:	41 56                	push   %r14
    6764:	41 55                	push   %r13
    6766:	41 54                	push   %r12
    6768:	55                   	push   %rbp
    6769:	53                   	push   %rbx
    676a:	48 81 ec 08 42 00 00 	sub    $0x4208,%rsp
    6771:	8b 47 58             	mov    0x58(%rdi),%eax
    6774:	44 8b 67 54          	mov    0x54(%rdi),%r12d
    6778:	89 84 24 04 01 00 00 	mov    %eax,0x104(%rsp)
    677f:	41 83 fc 01          	cmp    $0x1,%r12d
    6783:	0f 8e 07 0d 00 00    	jle    7490 <rprj3_._omp_fn.0+0xd30>
    6789:	41 83 ec 01          	sub    $0x1,%r12d
    678d:	83 f8 01             	cmp    $0x1,%eax
    6790:	0f 8e fa 0c 00 00    	jle    7490 <rprj3_._omp_fn.0+0xd30>
    6796:	48 89 fb             	mov    %rdi,%rbx
    6799:	8d 68 ff             	lea    -0x1(%rax),%ebp
    679c:	e8 cf b8 ff ff       	call   2070 <omp_get_num_threads@plt>
    67a1:	41 89 c5             	mov    %eax,%r13d
    67a4:	e8 57 b9 ff ff       	call   2100 <omp_get_thread_num@plt>
    67a9:	31 d2                	xor    %edx,%edx
    67ab:	89 c6                	mov    %eax,%esi
    67ad:	44 89 e0             	mov    %r12d,%eax
    67b0:	0f af c5             	imul   %ebp,%eax
    67b3:	41 f7 f5             	div    %r13d
    67b6:	89 c1                	mov    %eax,%ecx
    67b8:	39 d6                	cmp    %edx,%esi
    67ba:	0f 82 8a 0e 00 00    	jb     764a <rprj3_._omp_fn.0+0xeea>
    67c0:	89 f0                	mov    %esi,%eax
    67c2:	0f af c1             	imul   %ecx,%eax
    67c5:	01 d0                	add    %edx,%eax
    67c7:	8d 14 01             	lea    (%rcx,%rax,1),%edx
    67ca:	39 d0                	cmp    %edx,%eax
    67cc:	0f 83 be 0c 00 00    	jae    7490 <rprj3_._omp_fn.0+0xd30>
    67d2:	31 d2                	xor    %edx,%edx
    67d4:	48 8b 73 40          	mov    0x40(%rbx),%rsi
    67d8:	44 8b 5b 48          	mov    0x48(%rbx),%r11d
    67dc:	f7 f5                	div    %ebp
    67de:	4c 8b 3b             	mov    (%rbx),%r15
    67e1:	48 89 b4 24 08 01 00 	mov    %rsi,0x108(%rsp)
    67e8:	00 
    67e9:	48 8b 73 38          	mov    0x38(%rbx),%rsi
    67ed:	44 89 9c 24 28 01 00 	mov    %r11d,0x128(%rsp)
    67f4:	00 
    67f5:	48 89 b4 24 10 01 00 	mov    %rsi,0x110(%rsp)
    67fc:	00 
    67fd:	48 8b 73 30          	mov    0x30(%rbx),%rsi
    6801:	48 89 b4 24 18 01 00 	mov    %rsi,0x118(%rsp)
    6808:	00 
    6809:	48 8b 73 28          	mov    0x28(%rbx),%rsi
    680d:	48 89 74 24 38       	mov    %rsi,0x38(%rsp)
    6812:	48 8b 73 20          	mov    0x20(%rbx),%rsi
    6816:	48 89 74 24 40       	mov    %rsi,0x40(%rsp)
    681b:	48 8b 73 18          	mov    0x18(%rbx),%rsi
    681f:	48 89 74 24 48       	mov    %rsi,0x48(%rsp)
    6824:	8b 73 50             	mov    0x50(%rbx),%esi
    6827:	89 b4 24 f8 00 00 00 	mov    %esi,0xf8(%rsp)
    682e:	8b 73 4c             	mov    0x4c(%rbx),%esi
    6831:	89 b4 24 fc 00 00 00 	mov    %esi,0xfc(%rsp)
    6838:	83 c0 02             	add    $0x2,%eax
    683b:	8d 72 02             	lea    0x2(%rdx),%esi
    683e:	48 8d 94 24 c0 01 00 	lea    0x1c0(%rsp),%rdx
    6845:	00 
    6846:	89 44 24 30          	mov    %eax,0x30(%rsp)
    684a:	48 8b 43 10          	mov    0x10(%rbx),%rax
    684e:	89 74 24 18          	mov    %esi,0x18(%rsp)
    6852:	44 8b 30             	mov    (%rax),%r14d
    6855:	48 8b 43 08          	mov    0x8(%rbx),%rax
    6859:	49 63 db             	movslq %r11d,%rbx
    685c:	48 89 9c 24 30 01 00 	mov    %rbx,0x130(%rsp)
    6863:	00 
    6864:	48 89 44 24 20       	mov    %rax,0x20(%rsp)
    6869:	8d 41 ff             	lea    -0x1(%rcx),%eax
    686c:	41 8d 76 fe          	lea    -0x2(%r14),%esi
    6870:	89 84 24 00 01 00 00 	mov    %eax,0x100(%rsp)
    6877:	48 89 d8             	mov    %rbx,%rax
    687a:	48 f7 d8             	neg    %rax
    687d:	44 89 74 24 1c       	mov    %r14d,0x1c(%rsp)
    6882:	41 83 ee 03          	sub    $0x3,%r14d
    6886:	48 8d 0c c5 00 00 00 	lea    0x0(,%rax,8),%rcx
    688d:	00 
    688e:	89 b4 24 2c 01 00 00 	mov    %esi,0x12c(%rsp)
    6895:	48 8d 41 10          	lea    0x10(%rcx),%rax
    6899:	48 89 8c 24 b8 01 00 	mov    %rcx,0x1b8(%rsp)
    68a0:	00 
    68a1:	48 8d 3c 02          	lea    (%rdx,%rax,1),%rdi
    68a5:	48 89 7c 24 58       	mov    %rdi,0x58(%rsp)
    68aa:	48 8d bc 24 e0 21 00 	lea    0x21e0(%rsp),%rdi
    68b1:	00 
    68b2:	48 01 f8             	add    %rdi,%rax
    68b5:	48 89 44 24 60       	mov    %rax,0x60(%rsp)
    68ba:	89 f0                	mov    %esi,%eax
    68bc:	d1 e8                	shr    %eax
    68be:	44 8d 40 ff          	lea    -0x1(%rax),%r8d
    68c2:	89 f0                	mov    %esi,%eax
    68c4:	83 e0 fe             	and    $0xfffffffe,%eax
    68c7:	83 c0 02             	add    $0x2,%eax
    68ca:	89 84 24 90 01 00 00 	mov    %eax,0x190(%rsp)
    68d1:	89 f0                	mov    %esi,%eax
    68d3:	f2 44 0f 10 15 14 7d 	movsd  0x7d14(%rip),%xmm10        # e5f0 <options.163.0+0x550>
    68da:	00 00 
    68dc:	48 89 84 24 20 01 00 	mov    %rax,0x120(%rsp)
    68e3:	00 
    68e4:	48 8d 44 00 fe       	lea    -0x2(%rax,%rax,1),%rax
    68e9:	f2 44 0f 10 0d 1e 7d 	movsd  0x7d1e(%rip),%xmm9        # e610 <options.163.0+0x570>
    68f0:	00 00 
    68f2:	48 89 44 24 50       	mov    %rax,0x50(%rsp)
    68f7:	48 8d 41 20          	lea    0x20(%rcx),%rax
    68fb:	66 44 0f 28 05 ec 7c 	movapd 0x7cec(%rip),%xmm8        # e5f0 <options.163.0+0x550>
    6902:	00 00 
    6904:	48 8d 34 02          	lea    (%rdx,%rax,1),%rsi
    6908:	48 01 f8             	add    %rdi,%rax
    690b:	44 89 b4 24 f4 00 00 	mov    %r14d,0xf4(%rsp)
    6912:	00 
    6913:	66 0f 28 3d f5 7c 00 	movapd 0x7cf5(%rip),%xmm7        # e610 <options.163.0+0x570>
    691a:	00 
    691b:	48 89 84 24 80 01 00 	mov    %rax,0x180(%rsp)
    6922:	00 
    6923:	48 8d 04 0f          	lea    (%rdi,%rcx,1),%rax
    6927:	66 0f 28 35 d1 7c 00 	movapd 0x7cd1(%rip),%xmm6        # e600 <options.163.0+0x560>
    692e:	00 
    692f:	48 89 84 24 48 01 00 	mov    %rax,0x148(%rsp)
    6936:	00 
    6937:	48 8d 04 0a          	lea    (%rdx,%rcx,1),%rax
    693b:	66 0f 28 2d dd 7c 00 	movapd 0x7cdd(%rip),%xmm5        # e620 <options.163.0+0x580>
    6942:	00 
    6943:	48 89 84 24 50 01 00 	mov    %rax,0x150(%rsp)
    694a:	00 
    694b:	44 89 f0             	mov    %r14d,%eax
    694e:	41 83 e6 fe          	and    $0xfffffffe,%r14d
    6952:	d1 e8                	shr    %eax
    6954:	48 89 74 24 10       	mov    %rsi,0x10(%rsp)
    6959:	83 e8 01             	sub    $0x1,%eax
    695c:	c7 44 24 34 00 00 00 	movl   $0x0,0x34(%rsp)
    6963:	00 
    6964:	48 83 c0 01          	add    $0x1,%rax
    6968:	48 c1 e0 04          	shl    $0x4,%rax
    696c:	48 89 44 24 08       	mov    %rax,0x8(%rsp)
    6971:	49 63 c6             	movslq %r14d,%rax
    6974:	48 89 c1             	mov    %rax,%rcx
    6977:	8d 70 02             	lea    0x2(%rax),%esi
    697a:	48 01 c0             	add    %rax,%rax
    697d:	48 29 d8             	sub    %rbx,%rax
    6980:	48 8d 04 c5 10 00 00 	lea    0x10(,%rax,8),%rax
    6987:	00 
    6988:	48 01 c7             	add    %rax,%rdi
    698b:	48 01 d0             	add    %rdx,%rax
    698e:	48 89 84 24 70 01 00 	mov    %rax,0x170(%rsp)
    6995:	00 
    6996:	8d 04 36             	lea    (%rsi,%rsi,1),%eax
    6999:	48 63 f6             	movslq %esi,%rsi
    699c:	89 c2                	mov    %eax,%edx
    699e:	48 89 bc 24 88 01 00 	mov    %rdi,0x188(%rsp)
    69a5:	00 
    69a6:	83 c0 02             	add    $0x2,%eax
    69a9:	44 29 da             	sub    %r11d,%edx
    69ac:	44 29 d8             	sub    %r11d,%eax
    69af:	48 89 b4 24 58 01 00 	mov    %rsi,0x158(%rsp)
    69b6:	00 
    69b7:	8d 71 03             	lea    0x3(%rcx),%esi
    69ba:	48 63 fa             	movslq %edx,%rdi
    69bd:	48 63 c8             	movslq %eax,%rcx
    69c0:	89 b4 24 94 01 00 00 	mov    %esi,0x194(%rsp)
    69c7:	48 89 bc 24 60 01 00 	mov    %rdi,0x160(%rsp)
    69ce:	00 
    69cf:	8d 7a ff             	lea    -0x1(%rdx),%edi
    69d2:	83 c2 01             	add    $0x1,%edx
    69d5:	48 63 d2             	movslq %edx,%rdx
    69d8:	48 63 ff             	movslq %edi,%rdi
    69db:	48 89 8c 24 98 01 00 	mov    %rcx,0x198(%rsp)
    69e2:	00 
    69e3:	48 89 94 24 78 01 00 	mov    %rdx,0x178(%rsp)
    69ea:	00 
    69eb:	8d 50 ff             	lea    -0x1(%rax),%edx
    69ee:	83 c0 01             	add    $0x1,%eax
    69f1:	48 98                	cltq   
    69f3:	48 63 d2             	movslq %edx,%rdx
    69f6:	48 89 bc 24 68 01 00 	mov    %rdi,0x168(%rsp)
    69fd:	00 
    69fe:	48 89 84 24 a8 01 00 	mov    %rax,0x1a8(%rsp)
    6a05:	00 
    6a06:	48 63 c6             	movslq %esi,%rax
    6a09:	48 89 84 24 b0 01 00 	mov    %rax,0x1b0(%rsp)
    6a10:	00 
    6a11:	b8 03 00 00 00       	mov    $0x3,%eax
    6a16:	48 29 d8             	sub    %rbx,%rax
    6a19:	48 89 94 24 a0 01 00 	mov    %rdx,0x1a0(%rsp)
    6a20:	00 
    6a21:	48 89 84 24 38 01 00 	mov    %rax,0x138(%rsp)
    6a28:	00 
    6a29:	49 8d 40 01          	lea    0x1(%r8),%rax
    6a2d:	48 c1 e0 05          	shl    $0x5,%rax
    6a31:	48 89 84 24 40 01 00 	mov    %rax,0x140(%rsp)
    6a38:	00 
    6a39:	0f 1f 80 00 00 00 00 	nopl   0x0(%rax)
    6a40:	8b 44 24 30          	mov    0x30(%rsp),%eax
    6a44:	8d 14 00             	lea    (%rax,%rax,1),%edx
    6a47:	8b 44 24 18          	mov    0x18(%rsp),%eax
    6a4b:	2b 94 24 f8 00 00 00 	sub    0xf8(%rsp),%edx
    6a52:	8d 0c 00             	lea    (%rax,%rax,1),%ecx
    6a55:	2b 8c 24 fc 00 00 00 	sub    0xfc(%rsp),%ecx
    6a5c:	83 7c 24 1c 01       	cmpl   $0x1,0x1c(%rsp)
    6a61:	0f 8e f3 09 00 00    	jle    745a <rprj3_._omp_fn.0+0xcfa>
    6a67:	48 8b 74 24 40       	mov    0x40(%rsp),%rsi
    6a6c:	48 63 c2             	movslq %edx,%rax
    6a6f:	48 8b 5c 24 48       	mov    0x48(%rsp),%rbx
    6a74:	4c 63 c1             	movslq %ecx,%r8
    6a77:	49 89 c1             	mov    %rax,%r9
    6a7a:	48 89 84 24 90 00 00 	mov    %rax,0x90(%rsp)
    6a81:	00 
    6a82:	8d 41 ff             	lea    -0x1(%rcx),%eax
    6a85:	4c 8b 5c 24 38       	mov    0x38(%rsp),%r11
    6a8a:	4c 0f af ce          	imul   %rsi,%r9
    6a8e:	89 84 24 88 00 00 00 	mov    %eax,0x88(%rsp)
    6a95:	48 98                	cltq   
    6a97:	48 0f af c3          	imul   %rbx,%rax
    6a9b:	4c 89 84 24 98 00 00 	mov    %r8,0x98(%rsp)
    6aa2:	00 
    6aa3:	4c 0f af c3          	imul   %rbx,%r8
    6aa7:	4d 01 d9             	add    %r11,%r9
    6aaa:	4c 8d 14 58          	lea    (%rax,%rbx,2),%r10
    6aae:	49 8d 3c 01          	lea    (%r9,%rax,1),%rdi
    6ab2:	48 89 3c 24          	mov    %rdi,(%rsp)
    6ab6:	4b 8d 3c 11          	lea    (%r9,%r10,1),%rdi
    6aba:	48 89 7c 24 28       	mov    %rdi,0x28(%rsp)
    6abf:	8d 7a ff             	lea    -0x1(%rdx),%edi
    6ac2:	48 63 d7             	movslq %edi,%rdx
    6ac5:	89 bc 24 80 00 00 00 	mov    %edi,0x80(%rsp)
    6acc:	48 89 f7             	mov    %rsi,%rdi
    6acf:	48 0f af d6          	imul   %rsi,%rdx
    6ad3:	49 8d 34 13          	lea    (%r11,%rdx,1),%rsi
    6ad7:	48 8d 14 7a          	lea    (%rdx,%rdi,2),%rdx
    6adb:	4c 01 da             	add    %r11,%rdx
    6ade:	83 bc 24 2c 01 00 00 	cmpl   $0x1,0x12c(%rsp)
    6ae5:	01 
    6ae6:	4e 8d 34 06          	lea    (%rsi,%r8,1),%r14
    6aea:	48 8d 0c 10          	lea    (%rax,%rdx,1),%rcx
    6aee:	4d 8d 2c 10          	lea    (%r8,%rdx,1),%r13
    6af2:	48 89 4c 24 68       	mov    %rcx,0x68(%rsp)
    6af7:	49 8d 0c 32          	lea    (%r10,%rsi,1),%rcx
    6afb:	4c 8d 24 30          	lea    (%rax,%rsi,1),%r12
    6aff:	48 89 4c 24 70       	mov    %rcx,0x70(%rsp)
    6b04:	49 8d 0c 12          	lea    (%r10,%rdx,1),%rcx
    6b08:	48 89 4c 24 78       	mov    %rcx,0x78(%rsp)
    6b0d:	0f 86 2d 0b 00 00    	jbe    7640 <rprj3_._omp_fn.0+0xee0>
    6b13:	48 8b 8c 24 38 01 00 	mov    0x138(%rsp),%rcx
    6b1a:	00 
    6b1b:	49 01 c9             	add    %rcx,%r9
    6b1e:	48 8d 3c 01          	lea    (%rcx,%rax,1),%rdi
    6b22:	49 01 c8             	add    %rcx,%r8
    6b25:	4c 01 d1             	add    %r10,%rcx
    6b28:	4c 01 c8             	add    %r9,%rax
    6b2b:	4d 01 d1             	add    %r10,%r9
    6b2e:	4b 8d 1c cf          	lea    (%r15,%r9,8),%rbx
    6b32:	4d 8d 0c 30          	lea    (%r8,%rsi,1),%r9
    6b36:	49 01 d0             	add    %rdx,%r8
    6b39:	4f 8d 14 c7          	lea    (%r15,%r8,8),%r10
    6b3d:	4c 8d 04 37          	lea    (%rdi,%rsi,1),%r8
    6b41:	48 01 d7             	add    %rdx,%rdi
    6b44:	48 01 ce             	add    %rcx,%rsi
    6b47:	48 01 d1             	add    %rdx,%rcx
    6b4a:	48 8b 94 24 40 01 00 	mov    0x140(%rsp),%rdx
    6b51:	00 
    6b52:	49 8d 04 c7          	lea    (%r15,%rax,8),%rax
    6b56:	4f 8d 1c cf          	lea    (%r15,%r9,8),%r11
    6b5a:	4f 8d 0c c7          	lea    (%r15,%r8,8),%r9
    6b5e:	4d 8d 04 ff          	lea    (%r15,%rdi,8),%r8
    6b62:	48 8d 2c 02          	lea    (%rdx,%rax,1),%rbp
    6b66:	49 8d 3c f7          	lea    (%r15,%rsi,8),%rdi
    6b6a:	48 8b 54 24 58       	mov    0x58(%rsp),%rdx
    6b6f:	49 8d 34 cf          	lea    (%r15,%rcx,8),%rsi
    6b73:	48 8b 4c 24 60       	mov    0x60(%rsp),%rcx
    6b78:	0f 1f 84 00 00 00 00 	nopl   0x0(%rax,%rax,1)
    6b7f:	00 
    6b80:	66 0f 10 00          	movupd (%rax),%xmm0
    6b84:	66 0f 10 0b          	movupd (%rbx),%xmm1
    6b88:	48 83 c0 20          	add    $0x20,%rax
    6b8c:	48 83 c3 20          	add    $0x20,%rbx
    6b90:	49 83 c3 20          	add    $0x20,%r11
    6b94:	49 83 c2 20          	add    $0x20,%r10
    6b98:	48 83 c2 20          	add    $0x20,%rdx
    6b9c:	49 83 c1 20          	add    $0x20,%r9
    6ba0:	49 83 c0 20          	add    $0x20,%r8
    6ba4:	48 83 c7 20          	add    $0x20,%rdi
    6ba8:	48 83 c6 20          	add    $0x20,%rsi
    6bac:	48 83 c1 20          	add    $0x20,%rcx
    6bb0:	66 0f 16 4b f0       	movhpd -0x10(%rbx),%xmm1
    6bb5:	66 0f 16 40 f0       	movhpd -0x10(%rax),%xmm0
    6bba:	66 0f 58 c1          	addpd  %xmm1,%xmm0
    6bbe:	66 41 0f 10 4b e0    	movupd -0x20(%r11),%xmm1
    6bc4:	66 41 0f 16 4b f0    	movhpd -0x10(%r11),%xmm1
    6bca:	66 0f 58 c1          	addpd  %xmm1,%xmm0
    6bce:	66 41 0f 10 4a e0    	movupd -0x20(%r10),%xmm1
    6bd4:	66 41 0f 16 4a f0    	movhpd -0x10(%r10),%xmm1
    6bda:	66 0f 58 c1          	addpd  %xmm1,%xmm0
    6bde:	66 0f 13 42 e0       	movlpd %xmm0,-0x20(%rdx)
    6be3:	66 0f 17 42 f0       	movhpd %xmm0,-0x10(%rdx)
    6be8:	66 41 0f 10 41 e0    	movupd -0x20(%r9),%xmm0
    6bee:	66 41 0f 10 48 e0    	movupd -0x20(%r8),%xmm1
    6bf4:	66 41 0f 16 41 f0    	movhpd -0x10(%r9),%xmm0
    6bfa:	66 41 0f 16 48 f0    	movhpd -0x10(%r8),%xmm1
    6c00:	66 0f 58 c1          	addpd  %xmm1,%xmm0
    6c04:	66 0f 10 4f e0       	movupd -0x20(%rdi),%xmm1
    6c09:	66 0f 16 4f f0       	movhpd -0x10(%rdi),%xmm1
    6c0e:	66 0f 58 c1          	addpd  %xmm1,%xmm0
    6c12:	66 0f 10 4e e0       	movupd -0x20(%rsi),%xmm1
    6c17:	66 0f 16 4e f0       	movhpd -0x10(%rsi),%xmm1
    6c1c:	66 0f 58 c1          	addpd  %xmm1,%xmm0
    6c20:	66 0f 13 41 e0       	movlpd %xmm0,-0x20(%rcx)
    6c25:	66 0f 17 41 f0       	movhpd %xmm0,-0x10(%rcx)
    6c2a:	48 39 c5             	cmp    %rax,%rbp
    6c2d:	0f 85 4d ff ff ff    	jne    6b80 <rprj3_._omp_fn.0+0x420>
    6c33:	8b 8c 24 90 01 00 00 	mov    0x190(%rsp),%ecx
    6c3a:	8b ac 24 28 01 00 00 	mov    0x128(%rsp),%ebp
    6c41:	8d 14 09             	lea    (%rcx,%rcx,1),%edx
    6c44:	48 8b 1c 24          	mov    (%rsp),%rbx
    6c48:	89 d0                	mov    %edx,%eax
    6c4a:	4c 8b 5c 24 28       	mov    0x28(%rsp),%r11
    6c4f:	4c 8b 4c 24 68       	mov    0x68(%rsp),%r9
    6c54:	29 e8                	sub    %ebp,%eax
    6c56:	4c 8b 54 24 70       	mov    0x70(%rsp),%r10
    6c5b:	83 e8 01             	sub    $0x1,%eax
    6c5e:	48 98                	cltq   
    6c60:	4c 8d 04 03          	lea    (%rbx,%rax,1),%r8
    6c64:	49 8d 3c 03          	lea    (%r11,%rax,1),%rdi
    6c68:	f2 43 0f 10 04 c7    	movsd  (%r15,%r8,8),%xmm0
    6c6e:	f2 41 0f 58 04 ff    	addsd  (%r15,%rdi,8),%xmm0
    6c74:	49 8d 3c 06          	lea    (%r14,%rax,1),%rdi
    6c78:	f2 41 0f 58 04 ff    	addsd  (%r15,%rdi,8),%xmm0
    6c7e:	49 8d 7c 05 00       	lea    0x0(%r13,%rax,1),%rdi
    6c83:	f2 41 0f 58 04 ff    	addsd  (%r15,%rdi,8),%xmm0
    6c89:	48 8d 70 ff          	lea    -0x1(%rax),%rsi
    6c8d:	49 8d 3c 01          	lea    (%r9,%rax,1),%rdi
    6c91:	4d 8d 04 04          	lea    (%r12,%rax,1),%r8
    6c95:	f2 0f 11 84 f4 c0 01 	movsd  %xmm0,0x1c0(%rsp,%rsi,8)
    6c9c:	00 00 
    6c9e:	f2 43 0f 10 04 c7    	movsd  (%r15,%r8,8),%xmm0
    6ca4:	f2 41 0f 58 04 ff    	addsd  (%r15,%rdi,8),%xmm0
    6caa:	49 8d 3c 02          	lea    (%r10,%rax,1),%rdi
    6cae:	f2 41 0f 58 04 ff    	addsd  (%r15,%rdi,8),%xmm0
    6cb4:	48 8b 7c 24 78       	mov    0x78(%rsp),%rdi
    6cb9:	48 01 f8             	add    %rdi,%rax
    6cbc:	f2 41 0f 58 04 c7    	addsd  (%r15,%rax,8),%xmm0
    6cc2:	f2 0f 11 84 f4 e0 21 	movsd  %xmm0,0x21e0(%rsp,%rsi,8)
    6cc9:	00 00 
    6ccb:	39 4c 24 1c          	cmp    %ecx,0x1c(%rsp)
    6ccf:	0f 8e 5b 09 00 00    	jle    7630 <rprj3_._omp_fn.0+0xed0>
    6cd5:	29 ea                	sub    %ebp,%edx
    6cd7:	48 89 d9             	mov    %rbx,%rcx
    6cda:	4c 89 de             	mov    %r11,%rsi
    6cdd:	8d 42 01             	lea    0x1(%rdx),%eax
    6ce0:	48 98                	cltq   
    6ce2:	48 01 c1             	add    %rax,%rcx
    6ce5:	48 01 c6             	add    %rax,%rsi
    6ce8:	49 01 c6             	add    %rax,%r14
    6ceb:	49 01 c5             	add    %rax,%r13
    6cee:	f2 41 0f 10 04 cf    	movsd  (%r15,%rcx,8),%xmm0
    6cf4:	4c 89 c9             	mov    %r9,%rcx
    6cf7:	48 8d 50 ff          	lea    -0x1(%rax),%rdx
    6cfb:	49 01 c4             	add    %rax,%r12
    6cfe:	f2 41 0f 58 04 f7    	addsd  (%r15,%rsi,8),%xmm0
    6d04:	f2 43 0f 58 04 f7    	addsd  (%r15,%r14,8),%xmm0
    6d0a:	48 01 c1             	add    %rax,%rcx
    6d0d:	f2 43 0f 58 04 ef    	addsd  (%r15,%r13,8),%xmm0
    6d13:	f2 0f 11 84 d4 c0 01 	movsd  %xmm0,0x1c0(%rsp,%rdx,8)
    6d1a:	00 00 
    6d1c:	f2 43 0f 10 04 e7    	movsd  (%r15,%r12,8),%xmm0
    6d22:	f2 41 0f 58 04 cf    	addsd  (%r15,%rcx,8),%xmm0
    6d28:	4c 89 d1             	mov    %r10,%rcx
    6d2b:	48 01 c1             	add    %rax,%rcx
    6d2e:	48 01 f8             	add    %rdi,%rax
    6d31:	f2 41 0f 58 04 cf    	addsd  (%r15,%rcx,8),%xmm0
    6d37:	f2 41 0f 58 04 c7    	addsd  (%r15,%rax,8),%xmm0
    6d3d:	f2 0f 11 84 d4 e0 21 	movsd  %xmm0,0x21e0(%rsp,%rdx,8)
    6d44:	00 00 
    6d46:	48 8b 74 24 40       	mov    0x40(%rsp),%rsi
    6d4b:	48 63 84 24 80 00 00 	movslq 0x80(%rsp),%rax
    6d52:	00 
    6d53:	48 8b 7c 24 48       	mov    0x48(%rsp),%rdi
    6d58:	48 63 94 24 88 00 00 	movslq 0x88(%rsp),%rdx
    6d5f:	00 
    6d60:	48 0f af c6          	imul   %rsi,%rax
    6d64:	48 8b 4c 24 38       	mov    0x38(%rsp),%rcx
    6d69:	4c 8b 94 24 98 00 00 	mov    0x98(%rsp),%r10
    6d70:	00 
    6d71:	48 0f af d7          	imul   %rdi,%rdx
    6d75:	4c 8b b4 24 08 01 00 	mov    0x108(%rsp),%r14
    6d7c:	00 
    6d7d:	48 8b 6c 24 50       	mov    0x50(%rsp),%rbp
    6d82:	4c 0f af d7          	imul   %rdi,%r10
    6d86:	4c 8b 84 24 30 01 00 	mov    0x130(%rsp),%r8
    6d8d:	00 
    6d8e:	4c 8d 1c 70          	lea    (%rax,%rsi,2),%r11
    6d92:	4c 8d 0c 01          	lea    (%rcx,%rax,1),%r9
    6d96:	48 83 c5 05          	add    $0x5,%rbp
    6d9a:	49 01 cb             	add    %rcx,%r11
    6d9d:	49 8d 1c 11          	lea    (%r9,%rdx,1),%rbx
    6da1:	4a 8d 04 1a          	lea    (%rdx,%r11,1),%rax
    6da5:	48 89 5c 24 68       	mov    %rbx,0x68(%rsp)
    6daa:	48 89 44 24 70       	mov    %rax,0x70(%rsp)
    6daf:	48 8d 04 7a          	lea    (%rdx,%rdi,2),%rax
    6db3:	49 8d 1c 01          	lea    (%r9,%rax,1),%rbx
    6db7:	48 89 5c 24 78       	mov    %rbx,0x78(%rsp)
    6dbc:	49 8d 1c 03          	lea    (%r11,%rax,1),%rbx
    6dc0:	48 89 9c 24 80 00 00 	mov    %rbx,0x80(%rsp)
    6dc7:	00 
    6dc8:	48 8b 9c 24 90 00 00 	mov    0x90(%rsp),%rbx
    6dcf:	00 
    6dd0:	48 0f af de          	imul   %rsi,%rbx
    6dd4:	4b 8d 34 11          	lea    (%r9,%r10,1),%rsi
    6dd8:	48 89 b4 24 98 00 00 	mov    %rsi,0x98(%rsp)
    6ddf:	00 
    6de0:	4b 8d 34 13          	lea    (%r11,%r10,1),%rsi
    6de4:	48 89 b4 24 a0 00 00 	mov    %rsi,0xa0(%rsp)
    6deb:	00 
    6dec:	48 01 cb             	add    %rcx,%rbx
    6def:	48 63 4c 24 18       	movslq 0x18(%rsp),%rcx
    6df4:	48 0f af 8c 24 18 01 	imul   0x118(%rsp),%rcx
    6dfb:	00 00 
    6dfd:	4a 8d 34 13          	lea    (%rbx,%r10,1),%rsi
    6e01:	4c 8d 2c 18          	lea    (%rax,%rbx,1),%r13
    6e05:	4c 29 c0             	sub    %r8,%rax
    6e08:	48 89 b4 24 a8 00 00 	mov    %rsi,0xa8(%rsp)
    6e0f:	00 
    6e10:	48 63 74 24 30       	movslq 0x30(%rsp),%rsi
    6e15:	4c 8d 24 1a          	lea    (%rdx,%rbx,1),%r12
    6e19:	4c 29 c2             	sub    %r8,%rdx
    6e1c:	48 0f af b4 24 10 01 	imul   0x110(%rsp),%rsi
    6e23:	00 00 
    6e25:	4c 89 ac 24 90 00 00 	mov    %r13,0x90(%rsp)
    6e2c:	00 
    6e2d:	4c 89 a4 24 88 00 00 	mov    %r12,0x88(%rsp)
    6e34:	00 
    6e35:	4d 29 c4             	sub    %r8,%r12
    6e38:	49 8d 3c 36          	lea    (%r14,%rsi,1),%rdi
    6e3c:	48 01 cf             	add    %rcx,%rdi
    6e3f:	48 01 f1             	add    %rsi,%rcx
    6e42:	48 8b 74 24 20       	mov    0x20(%rsp),%rsi
    6e47:	4c 01 f1             	add    %r14,%rcx
    6e4a:	48 89 bc 24 b0 00 00 	mov    %rdi,0xb0(%rsp)
    6e51:	00 
    6e52:	49 8d 3c 11          	lea    (%r9,%rdx,1),%rdi
    6e56:	4c 8d 74 ce 10       	lea    0x10(%rsi,%rcx,8),%r14
    6e5b:	48 89 bc 24 d0 00 00 	mov    %rdi,0xd0(%rsp)
    6e62:	00 
    6e63:	49 8d 7c ff 20       	lea    0x20(%r15,%rdi,8),%rdi
    6e68:	4c 89 34 24          	mov    %r14,(%rsp)
    6e6c:	4c 8b b4 24 20 01 00 	mov    0x120(%rsp),%r14
    6e73:	00 
    6e74:	4a 8d 4c 31 02       	lea    0x2(%rcx,%r14,1),%rcx
    6e79:	48 8d 34 ce          	lea    (%rsi,%rcx,8),%rsi
    6e7d:	49 8d 0c 13          	lea    (%r11,%rdx,1),%rcx
    6e81:	49 8d 14 01          	lea    (%r9,%rax,1),%rdx
    6e85:	4c 01 d8             	add    %r11,%rax
    6e88:	49 89 f6             	mov    %rsi,%r14
    6e8b:	48 89 8c 24 c8 00 00 	mov    %rcx,0xc8(%rsp)
    6e92:	00 
    6e93:	48 89 84 24 b8 00 00 	mov    %rax,0xb8(%rsp)
    6e9a:	00 
    6e9b:	49 8d 44 c7 20       	lea    0x20(%r15,%rax,8),%rax
    6ea0:	49 8d 74 cf 20       	lea    0x20(%r15,%rcx,8),%rsi
    6ea5:	48 89 44 24 28       	mov    %rax,0x28(%rsp)
    6eaa:	4c 89 e8             	mov    %r13,%rax
    6ead:	4d 89 c5             	mov    %r8,%r13
    6eb0:	4b 8d 4c e7 20       	lea    0x20(%r15,%r12,8),%rcx
    6eb5:	4d 29 ea             	sub    %r13,%r10
    6eb8:	49 01 ec             	add    %rbp,%r12
    6ebb:	4c 29 c0             	sub    %r8,%rax
    6ebe:	48 89 94 24 c0 00 00 	mov    %rdx,0xc0(%rsp)
    6ec5:	00 
    6ec6:	4c 01 d3             	add    %r10,%rbx
    6ec9:	4d 01 d1             	add    %r10,%r9
    6ecc:	4f 8d 24 e7          	lea    (%r15,%r12,8),%r12
    6ed0:	4d 01 d3             	add    %r10,%r11
    6ed3:	4c 8d 14 dd 18 00 00 	lea    0x18(,%rbx,8),%r10
    6eda:	00 
    6edb:	4c 89 8c 24 d8 00 00 	mov    %r9,0xd8(%rsp)
    6ee2:	00 
    6ee3:	4d 8d 44 c7 20       	lea    0x20(%r15,%rax,8),%r8
    6ee8:	4c 89 94 24 e8 00 00 	mov    %r10,0xe8(%rsp)
    6eef:	00 
    6ef0:	4d 01 fa             	add    %r15,%r10
    6ef3:	4c 39 24 24          	cmp    %r12,(%rsp)
    6ef7:	49 8d 54 d7 20       	lea    0x20(%r15,%rdx,8),%rdx
    6efc:	41 0f 93 c5          	setae  %r13b
    6f00:	4c 39 f1             	cmp    %r14,%rcx
    6f03:	4f 8d 4c cf 20       	lea    0x20(%r15,%r9,8),%r9
    6f08:	4c 89 9c 24 e0 00 00 	mov    %r11,0xe0(%rsp)
    6f0f:	00 
    6f10:	41 0f 93 c4          	setae  %r12b
    6f14:	4f 8d 5c df 20       	lea    0x20(%r15,%r11,8),%r11
    6f19:	45 09 e5             	or     %r12d,%r13d
    6f1c:	4c 8d 24 28          	lea    (%rax,%rbp,1),%r12
    6f20:	4c 89 f0             	mov    %r14,%rax
    6f23:	4f 8d 24 e7          	lea    (%r15,%r12,8),%r12
    6f27:	4c 39 24 24          	cmp    %r12,(%rsp)
    6f2b:	41 0f 93 c4          	setae  %r12b
    6f2f:	4d 39 c6             	cmp    %r8,%r14
    6f32:	0f 96 84 24 f3 00 00 	setbe  0xf3(%rsp)
    6f39:	00 
    6f3a:	44 0f b6 b4 24 f3 00 	movzbl 0xf3(%rsp),%r14d
    6f41:	00 00 
    6f43:	45 09 f4             	or     %r14d,%r12d
    6f46:	49 89 c6             	mov    %rax,%r14
    6f49:	45 21 ec             	and    %r13d,%r12d
    6f4c:	83 bc 24 f4 00 00 00 	cmpl   $0x1,0xf4(%rsp)
    6f53:	01 
    6f54:	41 0f 97 c5          	seta   %r13b
    6f58:	45 21 ec             	and    %r13d,%r12d
    6f5b:	4c 8b 6c 24 50       	mov    0x50(%rsp),%r13
    6f60:	49 8d 5c 1d 06       	lea    0x6(%r13,%rbx,1),%rbx
    6f65:	49 8d 1c df          	lea    (%r15,%rbx,8),%rbx
    6f69:	48 39 1c 24          	cmp    %rbx,(%rsp)
    6f6d:	0f 93 c3             	setae  %bl
    6f70:	4c 39 d0             	cmp    %r10,%rax
    6f73:	48 8b 84 24 d0 00 00 	mov    0xd0(%rsp),%rax
    6f7a:	00 
    6f7b:	41 0f 96 c5          	setbe  %r13b
    6f7f:	44 09 eb             	or     %r13d,%ebx
    6f82:	44 21 e3             	and    %r12d,%ebx
    6f85:	4c 8d 24 28          	lea    (%rax,%rbp,1),%r12
    6f89:	48 8b 84 24 c8 00 00 	mov    0xc8(%rsp),%rax
    6f90:	00 
    6f91:	4f 8d 24 e7          	lea    (%r15,%r12,8),%r12
    6f95:	4c 39 24 24          	cmp    %r12,(%rsp)
    6f99:	41 0f 93 c4          	setae  %r12b
    6f9d:	4c 39 f7             	cmp    %r14,%rdi
    6fa0:	41 0f 93 c5          	setae  %r13b
    6fa4:	45 09 ec             	or     %r13d,%r12d
    6fa7:	41 21 dc             	and    %ebx,%r12d
    6faa:	48 8d 1c 28          	lea    (%rax,%rbp,1),%rbx
    6fae:	48 8b 84 24 c0 00 00 	mov    0xc0(%rsp),%rax
    6fb5:	00 
    6fb6:	49 8d 1c df          	lea    (%r15,%rbx,8),%rbx
    6fba:	48 39 1c 24          	cmp    %rbx,(%rsp)
    6fbe:	0f 93 c3             	setae  %bl
    6fc1:	4c 39 f6             	cmp    %r14,%rsi
    6fc4:	41 0f 93 c5          	setae  %r13b
    6fc8:	44 09 eb             	or     %r13d,%ebx
    6fcb:	44 21 e3             	and    %r12d,%ebx
    6fce:	4c 8d 24 28          	lea    (%rax,%rbp,1),%r12
    6fd2:	48 8b 84 24 b8 00 00 	mov    0xb8(%rsp),%rax
    6fd9:	00 
    6fda:	4f 8d 24 e7          	lea    (%r15,%r12,8),%r12
    6fde:	4c 39 24 24          	cmp    %r12,(%rsp)
    6fe2:	41 0f 93 c4          	setae  %r12b
    6fe6:	4c 39 f2             	cmp    %r14,%rdx
    6fe9:	41 0f 93 c5          	setae  %r13b
    6fed:	45 09 ec             	or     %r13d,%r12d
    6ff0:	41 21 dc             	and    %ebx,%r12d
    6ff3:	48 8d 1c 28          	lea    (%rax,%rbp,1),%rbx
    6ff7:	48 8b 84 24 d8 00 00 	mov    0xd8(%rsp),%rax
    6ffe:	00 
    6fff:	49 8d 1c df          	lea    (%r15,%rbx,8),%rbx
    7003:	48 39 1c 24          	cmp    %rbx,(%rsp)
    7007:	0f 93 c3             	setae  %bl
    700a:	4c 39 74 24 28       	cmp    %r14,0x28(%rsp)
    700f:	41 0f 93 c5          	setae  %r13b
    7013:	44 09 eb             	or     %r13d,%ebx
    7016:	44 21 e3             	and    %r12d,%ebx
    7019:	4c 8d 24 28          	lea    (%rax,%rbp,1),%r12
    701d:	48 8b 04 24          	mov    (%rsp),%rax
    7021:	4f 8d 24 e7          	lea    (%r15,%r12,8),%r12
    7025:	4c 39 e0             	cmp    %r12,%rax
    7028:	41 0f 93 c4          	setae  %r12b
    702c:	4d 39 ce             	cmp    %r9,%r14
    702f:	41 0f 96 c5          	setbe  %r13b
    7033:	45 09 ec             	or     %r13d,%r12d
    7036:	44 84 e3             	test   %r12b,%bl
    7039:	0f 84 69 04 00 00    	je     74a8 <rprj3_._omp_fn.0+0xd48>
    703f:	48 8b 9c 24 e0 00 00 	mov    0xe0(%rsp),%rbx
    7046:	00 
    7047:	49 89 c4             	mov    %rax,%r12
    704a:	48 01 eb             	add    %rbp,%rbx
    704d:	49 8d 1c df          	lea    (%r15,%rbx,8),%rbx
    7051:	48 39 d8             	cmp    %rbx,%rax
    7054:	0f 93 c3             	setae  %bl
    7057:	4d 39 de             	cmp    %r11,%r14
    705a:	40 0f 96 c5          	setbe  %bpl
    705e:	40 08 dd             	or     %bl,%bpl
    7061:	0f 84 41 04 00 00    	je     74a8 <rprj3_._omp_fn.0+0xd48>
    7067:	48 8b 84 24 e8 00 00 	mov    0xe8(%rsp),%rax
    706e:	00 
    706f:	4c 89 bc 24 b8 00 00 	mov    %r15,0xb8(%rsp)
    7076:	00 
    7077:	31 db                	xor    %ebx,%ebx
    7079:	4d 89 e6             	mov    %r12,%r14
    707c:	4c 8b 6c 24 58       	mov    0x58(%rsp),%r13
    7081:	49 8d 6c 07 10       	lea    0x10(%r15,%rax,1),%rbp
    7086:	48 8b 84 24 50 01 00 	mov    0x150(%rsp),%rax
    708d:	00 
    708e:	4c 8b bc 24 80 01 00 	mov    0x180(%rsp),%r15
    7095:	00 
    7096:	66 44 0f 10 58 10    	movupd 0x10(%rax),%xmm11
    709c:	48 8b 84 24 48 01 00 	mov    0x148(%rsp),%rax
    70a3:	00 
    70a4:	4c 89 3c 24          	mov    %r15,(%rsp)
    70a8:	4c 8b 7c 24 60       	mov    0x60(%rsp),%r15
    70ad:	66 0f 10 50 10       	movupd 0x10(%rax),%xmm2
    70b2:	48 8b 44 24 28       	mov    0x28(%rsp),%rax
    70b7:	eb 10                	jmp    70c9 <rprj3_._omp_fn.0+0x969>
    70b9:	0f 1f 80 00 00 00 00 	nopl   0x0(%rax)
    70c0:	66 44 0f 28 dc       	movapd %xmm4,%xmm11
    70c5:	66 0f 28 d3          	movapd %xmm3,%xmm2
    70c9:	66 0f 10 04 59       	movupd (%rcx,%rbx,2),%xmm0
    70ce:	66 41 0f 10 0c 58    	movupd (%r8,%rbx,2),%xmm1
    70d4:	66 45 0f 16 5c 5d 10 	movhpd 0x10(%r13,%rbx,2),%xmm11
    70db:	66 41 0f 16 54 5f 10 	movhpd 0x10(%r15,%rbx,2),%xmm2
    70e2:	66 45 0f 10 24 5a    	movupd (%r10,%rbx,2),%xmm12
    70e8:	4c 8b 64 24 10       	mov    0x10(%rsp),%r12
    70ed:	66 41 0f 16 4c 58 10 	movhpd 0x10(%r8,%rbx,2),%xmm1
    70f4:	66 0f 16 44 59 10    	movhpd 0x10(%rcx,%rbx,2),%xmm0
    70fa:	66 0f 58 c1          	addpd  %xmm1,%xmm0
    70fe:	66 41 0f 10 0c 59    	movupd (%r9,%rbx,2),%xmm1
    7104:	66 45 0f 16 64 5a 10 	movhpd 0x10(%r10,%rbx,2),%xmm12
    710b:	66 41 0f 10 64 5c 10 	movupd 0x10(%r12,%rbx,2),%xmm4
    7112:	4c 8b 24 24          	mov    (%rsp),%r12
    7116:	66 41 0f 16 4c 59 10 	movhpd 0x10(%r9,%rbx,2),%xmm1
    711d:	66 0f 58 c1          	addpd  %xmm1,%xmm0
    7121:	66 41 0f 10 0c 5b    	movupd (%r11,%rbx,2),%xmm1
    7127:	66 41 0f 10 5c 5c 10 	movupd 0x10(%r12,%rbx,2),%xmm3
    712e:	66 41 0f 16 4c 5b 10 	movhpd 0x10(%r11,%rbx,2),%xmm1
    7135:	66 0f 58 c1          	addpd  %xmm1,%xmm0
    7139:	66 0f 10 4c 5d 00    	movupd 0x0(%rbp,%rbx,2),%xmm1
    713f:	66 0f 16 4c 5d 10    	movhpd 0x10(%rbp,%rbx,2),%xmm1
    7145:	66 41 0f 58 cc       	addpd  %xmm12,%xmm1
    714a:	66 44 0f 10 24 5e    	movupd (%rsi,%rbx,2),%xmm12
    7150:	66 44 0f 16 64 5e 10 	movhpd 0x10(%rsi,%rbx,2),%xmm12
    7157:	66 0f 58 c1          	addpd  %xmm1,%xmm0
    715b:	66 41 0f 10 4c 5a 10 	movupd 0x10(%r10,%rbx,2),%xmm1
    7162:	66 41 0f 12 4c 5a 08 	movlpd 0x8(%r10,%rbx,2),%xmm1
    7169:	66 0f 59 cf          	mulpd  %xmm7,%xmm1
    716d:	66 41 0f 59 c0       	mulpd  %xmm8,%xmm0
    7172:	66 0f 58 c1          	addpd  %xmm1,%xmm0
    7176:	66 0f 10 0c 5f       	movupd (%rdi,%rbx,2),%xmm1
    717b:	66 0f 16 4c 5f 10    	movhpd 0x10(%rdi,%rbx,2),%xmm1
    7181:	66 41 0f 58 cc       	addpd  %xmm12,%xmm1
    7186:	66 44 0f 10 24 5a    	movupd (%rdx,%rbx,2),%xmm12
    718c:	66 44 0f 16 64 5a 10 	movhpd 0x10(%rdx,%rbx,2),%xmm12
    7193:	66 41 0f 58 cc       	addpd  %xmm12,%xmm1
    7198:	66 44 0f 10 24 58    	movupd (%rax,%rbx,2),%xmm12
    719e:	66 44 0f 16 64 58 10 	movhpd 0x10(%rax,%rbx,2),%xmm12
    71a5:	66 41 0f 58 cc       	addpd  %xmm12,%xmm1
    71aa:	66 45 0f 10 64 5d 10 	movupd 0x10(%r13,%rbx,2),%xmm12
    71b1:	66 44 0f 14 e4       	unpcklpd %xmm4,%xmm12
    71b6:	66 45 0f 58 dc       	addpd  %xmm12,%xmm11
    71bb:	66 41 0f 58 cb       	addpd  %xmm11,%xmm1
    71c0:	66 0f 59 ce          	mulpd  %xmm6,%xmm1
    71c4:	66 0f 58 c1          	addpd  %xmm1,%xmm0
    71c8:	66 41 0f 10 4c 5f 10 	movupd 0x10(%r15,%rbx,2),%xmm1
    71cf:	66 0f 14 cb          	unpcklpd %xmm3,%xmm1
    71d3:	66 0f 58 d1          	addpd  %xmm1,%xmm2
    71d7:	66 0f 59 d5          	mulpd  %xmm5,%xmm2
    71db:	66 0f 58 c2          	addpd  %xmm2,%xmm0
    71df:	41 0f 11 04 1e       	movups %xmm0,(%r14,%rbx,1)
    71e4:	48 83 c3 10          	add    $0x10,%rbx
    71e8:	48 39 5c 24 08       	cmp    %rbx,0x8(%rsp)
    71ed:	0f 85 cd fe ff ff    	jne    70c0 <rprj3_._omp_fn.0+0x960>
    71f3:	48 8b bc 24 60 01 00 	mov    0x160(%rsp),%rdi
    71fa:	00 
    71fb:	48 8b 9c 24 88 00 00 	mov    0x88(%rsp),%rbx
    7202:	00 
    7203:	48 8b ac 24 90 00 00 	mov    0x90(%rsp),%rbp
    720a:	00 
    720b:	4c 8b bc 24 b8 00 00 	mov    0xb8(%rsp),%r15
    7212:	00 
    7213:	48 89 d9             	mov    %rbx,%rcx
    7216:	48 89 fa             	mov    %rdi,%rdx
    7219:	4c 8b ac 24 98 00 00 	mov    0x98(%rsp),%r13
    7220:	00 
    7221:	4c 8b a4 24 a0 00 00 	mov    0xa0(%rsp),%r12
    7228:	00 
    7229:	48 01 f9             	add    %rdi,%rcx
    722c:	48 01 ea             	add    %rbp,%rdx
    722f:	4c 8b 74 24 70       	mov    0x70(%rsp),%r14
    7234:	4c 8b 5c 24 68       	mov    0x68(%rsp),%r11
    7239:	f2 41 0f 10 04 cf    	movsd  (%r15,%rcx,8),%xmm0
    723f:	f2 41 0f 58 04 d7    	addsd  (%r15,%rdx,8),%xmm0
    7245:	48 89 fa             	mov    %rdi,%rdx
    7248:	4c 01 ea             	add    %r13,%rdx
    724b:	4c 8b 4c 24 78       	mov    0x78(%rsp),%r9
    7250:	48 8b b4 24 a8 00 00 	mov    0xa8(%rsp),%rsi
    7257:	00 
    7258:	f2 41 0f 58 04 d7    	addsd  (%r15,%rdx,8),%xmm0
    725e:	48 89 fa             	mov    %rdi,%rdx
    7261:	48 8b 8c 24 68 01 00 	mov    0x168(%rsp),%rcx
    7268:	00 
    7269:	4c 01 e2             	add    %r12,%rdx
    726c:	f2 0f 10 25 9c 73 00 	movsd  0x739c(%rip),%xmm4        # e610 <options.163.0+0x570>
    7273:	00 
    7274:	f2 44 0f 10 2d 73 73 	movsd  0x7373(%rip),%xmm13        # e5f0 <options.163.0+0x550>
    727b:	00 00 
    727d:	f2 41 0f 58 04 d7    	addsd  (%r15,%rdx,8),%xmm0
    7283:	48 01 f1             	add    %rsi,%rcx
    7286:	48 8b 94 24 78 01 00 	mov    0x178(%rsp),%rdx
    728d:	00 
    728e:	f2 41 0f 10 0c cf    	movsd  (%r15,%rcx,8),%xmm1
    7294:	4c 89 f1             	mov    %r14,%rcx
    7297:	4c 8b 94 24 80 00 00 	mov    0x80(%rsp),%r10
    729e:	00 
    729f:	48 01 f2             	add    %rsi,%rdx
    72a2:	48 01 f9             	add    %rdi,%rcx
    72a5:	f2 0f 10 9c fc c0 01 	movsd  0x1c0(%rsp,%rdi,8),%xmm3
    72ac:	00 00 
    72ae:	f2 0f 10 94 fc e0 21 	movsd  0x21e0(%rsp,%rdi,8),%xmm2
    72b5:	00 00 
    72b7:	f2 41 0f 58 0c d7    	addsd  (%r15,%rdx,8),%xmm1
    72bd:	48 89 fa             	mov    %rdi,%rdx
    72c0:	48 8b 84 24 58 01 00 	mov    0x158(%rsp),%rax
    72c7:	00 
    72c8:	48 01 f2             	add    %rsi,%rdx
    72cb:	4c 8b 84 24 b0 00 00 	mov    0xb0(%rsp),%r8
    72d2:	00 
    72d3:	f2 0f 58 c1          	addsd  %xmm1,%xmm0
    72d7:	f2 41 0f 10 0c d7    	movsd  (%r15,%rdx,8),%xmm1
    72dd:	4c 89 da             	mov    %r11,%rdx
    72e0:	4c 01 c0             	add    %r8,%rax
    72e3:	48 01 fa             	add    %rdi,%rdx
    72e6:	f2 0f 59 cc          	mulsd  %xmm4,%xmm1
    72ea:	f2 41 0f 59 c5       	mulsd  %xmm13,%xmm0
    72ef:	f2 0f 58 c1          	addsd  %xmm1,%xmm0
    72f3:	f2 41 0f 10 0c cf    	movsd  (%r15,%rcx,8),%xmm1
    72f9:	f2 41 0f 58 0c d7    	addsd  (%r15,%rdx,8),%xmm1
    72ff:	4c 89 ca             	mov    %r9,%rdx
    7302:	48 8b 8c 24 70 01 00 	mov    0x170(%rsp),%rcx
    7309:	00 
    730a:	48 01 fa             	add    %rdi,%rdx
    730d:	f2 41 0f 58 0c d7    	addsd  (%r15,%rdx,8),%xmm1
    7313:	4c 89 d2             	mov    %r10,%rdx
    7316:	f2 44 0f 10 19       	movsd  (%rcx),%xmm11
    731b:	48 01 fa             	add    %rdi,%rdx
    731e:	f2 41 0f 58 0c d7    	addsd  (%r15,%rdx,8),%xmm1
    7324:	f2 44 0f 10 25 d3 72 	movsd  0x72d3(%rip),%xmm12        # e600 <options.163.0+0x560>
    732b:	00 00 
    732d:	f2 44 0f 58 db       	addsd  %xmm3,%xmm11
    7332:	48 8b 94 24 88 01 00 	mov    0x188(%rsp),%rdx
    7339:	00 
    733a:	48 8b 4c 24 20       	mov    0x20(%rsp),%rcx
    733f:	f2 41 0f 58 cb       	addsd  %xmm11,%xmm1
    7344:	f2 44 0f 10 1d d3 72 	movsd  0x72d3(%rip),%xmm11        # e620 <options.163.0+0x580>
    734b:	00 00 
    734d:	f2 41 0f 59 cc       	mulsd  %xmm12,%xmm1
    7352:	f2 0f 58 c1          	addsd  %xmm1,%xmm0
    7356:	f2 0f 10 0a          	movsd  (%rdx),%xmm1
    735a:	8b 94 24 94 01 00 00 	mov    0x194(%rsp),%edx
    7361:	f2 0f 58 ca          	addsd  %xmm2,%xmm1
    7365:	f2 41 0f 59 cb       	mulsd  %xmm11,%xmm1
    736a:	f2 0f 58 c1          	addsd  %xmm1,%xmm0
    736e:	f2 0f 11 04 c1       	movsd  %xmm0,(%rcx,%rax,8)
    7373:	39 54 24 1c          	cmp    %edx,0x1c(%rsp)
    7377:	0f 8e dd 00 00 00    	jle    745a <rprj3_._omp_fn.0+0xcfa>
    737d:	48 8b bc 24 98 01 00 	mov    0x198(%rsp),%rdi
    7384:	00 
    7385:	48 89 da             	mov    %rbx,%rdx
    7388:	48 89 e9             	mov    %rbp,%rcx
    738b:	48 8b 84 24 b0 01 00 	mov    0x1b0(%rsp),%rax
    7392:	00 
    7393:	48 01 fa             	add    %rdi,%rdx
    7396:	48 01 f9             	add    %rdi,%rcx
    7399:	4c 01 c0             	add    %r8,%rax
    739c:	f2 0f 58 9c fc c0 01 	addsd  0x1c0(%rsp,%rdi,8),%xmm3
    73a3:	00 00 
    73a5:	f2 41 0f 10 04 d7    	movsd  (%r15,%rdx,8),%xmm0
    73ab:	4c 89 ea             	mov    %r13,%rdx
    73ae:	48 01 fa             	add    %rdi,%rdx
    73b1:	f2 41 0f 58 04 cf    	addsd  (%r15,%rcx,8),%xmm0
    73b7:	48 8b 8c 24 a0 01 00 	mov    0x1a0(%rsp),%rcx
    73be:	00 
    73bf:	f2 0f 58 94 fc e0 21 	addsd  0x21e0(%rsp,%rdi,8),%xmm2
    73c6:	00 00 
    73c8:	f2 41 0f 58 04 d7    	addsd  (%r15,%rdx,8),%xmm0
    73ce:	4c 89 e2             	mov    %r12,%rdx
    73d1:	48 01 fa             	add    %rdi,%rdx
    73d4:	48 01 f1             	add    %rsi,%rcx
    73d7:	f2 41 0f 58 04 d7    	addsd  (%r15,%rdx,8),%xmm0
    73dd:	48 8b 94 24 a8 01 00 	mov    0x1a8(%rsp),%rdx
    73e4:	00 
    73e5:	f2 41 0f 10 0c cf    	movsd  (%r15,%rcx,8),%xmm1
    73eb:	f2 41 0f 59 d3       	mulsd  %xmm11,%xmm2
    73f0:	4c 89 d9             	mov    %r11,%rcx
    73f3:	48 01 f2             	add    %rsi,%rdx
    73f6:	48 01 f9             	add    %rdi,%rcx
    73f9:	48 01 fe             	add    %rdi,%rsi
    73fc:	f2 41 0f 58 0c d7    	addsd  (%r15,%rdx,8),%xmm1
    7402:	f2 41 0f 59 24 f7    	mulsd  (%r15,%rsi,8),%xmm4
    7408:	4c 89 f2             	mov    %r14,%rdx
    740b:	48 01 fa             	add    %rdi,%rdx
    740e:	f2 0f 58 c1          	addsd  %xmm1,%xmm0
    7412:	f2 41 0f 10 0c cf    	movsd  (%r15,%rcx,8),%xmm1
    7418:	f2 41 0f 58 0c d7    	addsd  (%r15,%rdx,8),%xmm1
    741e:	4c 89 ca             	mov    %r9,%rdx
    7421:	48 01 fa             	add    %rdi,%rdx
    7424:	48 8b 4c 24 20       	mov    0x20(%rsp),%rcx
    7429:	f2 41 0f 58 0c d7    	addsd  (%r15,%rdx,8),%xmm1
    742f:	4c 89 d2             	mov    %r10,%rdx
    7432:	f2 41 0f 59 c5       	mulsd  %xmm13,%xmm0
    7437:	48 01 fa             	add    %rdi,%rdx
    743a:	f2 41 0f 58 0c d7    	addsd  (%r15,%rdx,8),%xmm1
    7440:	f2 0f 58 d9          	addsd  %xmm1,%xmm3
    7444:	f2 0f 58 c4          	addsd  %xmm4,%xmm0
    7448:	f2 41 0f 59 dc       	mulsd  %xmm12,%xmm3
    744d:	f2 0f 58 c3          	addsd  %xmm3,%xmm0
    7451:	f2 0f 58 c2          	addsd  %xmm2,%xmm0
    7455:	f2 0f 11 04 c1       	movsd  %xmm0,(%rcx,%rax,8)
    745a:	8b 74 24 34          	mov    0x34(%rsp),%esi
    745e:	39 b4 24 00 01 00 00 	cmp    %esi,0x100(%rsp)
    7465:	74 29                	je     7490 <rprj3_._omp_fn.0+0xd30>
    7467:	8b 74 24 18          	mov    0x18(%rsp),%esi
    746b:	8d 46 01             	lea    0x1(%rsi),%eax
    746e:	3b b4 24 04 01 00 00 	cmp    0x104(%rsp),%esi
    7475:	0f 8d a5 01 00 00    	jge    7620 <rprj3_._omp_fn.0+0xec0>
    747b:	83 44 24 34 01       	addl   $0x1,0x34(%rsp)
    7480:	89 44 24 18          	mov    %eax,0x18(%rsp)
    7484:	e9 b7 f5 ff ff       	jmp    6a40 <rprj3_._omp_fn.0+0x2e0>
    7489:	0f 1f 80 00 00 00 00 	nopl   0x0(%rax)
    7490:	48 81 c4 08 42 00 00 	add    $0x4208,%rsp
    7497:	5b                   	pop    %rbx
    7498:	5d                   	pop    %rbp
    7499:	41 5c                	pop    %r12
    749b:	41 5d                	pop    %r13
    749d:	41 5e                	pop    %r14
    749f:	41 5f                	pop    %r15
    74a1:	c3                   	ret    
    74a2:	66 0f 1f 44 00 00    	nopw   0x0(%rax,%rax,1)
    74a8:	48 8b 44 24 60       	mov    0x60(%rsp),%rax
    74ad:	48 8b 74 24 20       	mov    0x20(%rsp),%rsi
    74b2:	48 8d bc 24 e0 01 00 	lea    0x1e0(%rsp),%rdi
    74b9:	00 
    74ba:	48 8b 8c 24 b0 00 00 	mov    0xb0(%rsp),%rcx
    74c1:	00 
    74c2:	f2 44 0f 10 25 35 71 	movsd  0x7135(%rip),%xmm12        # e600 <options.163.0+0x560>
    74c9:	00 00 
    74cb:	f2 44 0f 10 1d 4c 71 	movsd  0x714c(%rip),%xmm11        # e620 <options.163.0+0x580>
    74d2:	00 00 
    74d4:	f2 0f 10 20          	movsd  (%rax),%xmm4
    74d8:	48 8b 44 24 58       	mov    0x58(%rsp),%rax
    74dd:	48 8d 54 ce 10       	lea    0x10(%rsi,%rcx,8),%rdx
    74e2:	f2 0f 10 18          	movsd  (%rax),%xmm3
    74e6:	8b 84 24 f4 00 00 00 	mov    0xf4(%rsp),%eax
    74ed:	48 01 c8             	add    %rcx,%rax
    74f0:	4c 8d 74 c6 18       	lea    0x18(%rsi,%rax,8),%r14
    74f5:	48 8b 44 24 68       	mov    0x68(%rsp),%rax
    74fa:	48 8d b4 24 00 22 00 	lea    0x2200(%rsp),%rsi
    7501:	00 
    7502:	4d 8d 2c c7          	lea    (%r15,%rax,8),%r13
    7506:	48 8b 44 24 70       	mov    0x70(%rsp),%rax
    750b:	4d 8d 24 c7          	lea    (%r15,%rax,8),%r12
    750f:	48 8b 44 24 78       	mov    0x78(%rsp),%rax
    7514:	49 8d 2c c7          	lea    (%r15,%rax,8),%rbp
    7518:	48 8b 84 24 80 00 00 	mov    0x80(%rsp),%rax
    751f:	00 
    7520:	49 8d 1c c7          	lea    (%r15,%rax,8),%rbx
    7524:	48 8b 84 24 88 00 00 	mov    0x88(%rsp),%rax
    752b:	00 
    752c:	4d 8d 1c c7          	lea    (%r15,%rax,8),%r11
    7530:	48 8b 84 24 90 00 00 	mov    0x90(%rsp),%rax
    7537:	00 
    7538:	4d 8d 14 c7          	lea    (%r15,%rax,8),%r10
    753c:	48 8b 84 24 98 00 00 	mov    0x98(%rsp),%rax
    7543:	00 
    7544:	4d 8d 0c c7          	lea    (%r15,%rax,8),%r9
    7548:	48 8b 84 24 a0 00 00 	mov    0xa0(%rsp),%rax
    754f:	00 
    7550:	4d 8d 04 c7          	lea    (%r15,%rax,8),%r8
    7554:	48 8b 84 24 a8 00 00 	mov    0xa8(%rsp),%rax
    755b:	00 
    755c:	49 8d 0c c7          	lea    (%r15,%rax,8),%rcx
    7560:	48 8b 84 24 b8 01 00 	mov    0x1b8(%rsp),%rax
    7567:	00 
    7568:	0f 1f 84 00 00 00 00 	nopl   0x0(%rax,%rax,1)
    756f:	00 
    7570:	f2 41 0f 10 44 03 20 	movsd  0x20(%r11,%rax,1),%xmm0
    7577:	f2 0f 10 4c 01 18    	movsd  0x18(%rcx,%rax,1),%xmm1
    757d:	66 0f 28 d4          	movapd %xmm4,%xmm2
    7581:	48 83 c2 08          	add    $0x8,%rdx
    7585:	f2 0f 58 4c 01 28    	addsd  0x28(%rcx,%rax,1),%xmm1
    758b:	66 44 0f 28 eb       	movapd %xmm3,%xmm13
    7590:	f2 0f 10 1c 07       	movsd  (%rdi,%rax,1),%xmm3
    7595:	f2 41 0f 58 44 02 20 	addsd  0x20(%r10,%rax,1),%xmm0
    759c:	f2 41 0f 58 44 01 20 	addsd  0x20(%r9,%rax,1),%xmm0
    75a3:	f2 41 0f 58 44 00 20 	addsd  0x20(%r8,%rax,1),%xmm0
    75aa:	f2 44 0f 58 eb       	addsd  %xmm3,%xmm13
    75af:	f2 0f 10 24 06       	movsd  (%rsi,%rax,1),%xmm4
    75b4:	f2 0f 58 d4          	addsd  %xmm4,%xmm2
    75b8:	f2 0f 58 c1          	addsd  %xmm1,%xmm0
    75bc:	f2 0f 10 4c 01 20    	movsd  0x20(%rcx,%rax,1),%xmm1
    75c2:	f2 41 0f 59 c9       	mulsd  %xmm9,%xmm1
    75c7:	f2 41 0f 59 c2       	mulsd  %xmm10,%xmm0
    75cc:	f2 41 0f 59 d3       	mulsd  %xmm11,%xmm2
    75d1:	f2 0f 58 c1          	addsd  %xmm1,%xmm0
    75d5:	f2 41 0f 10 4c 05 20 	movsd  0x20(%r13,%rax,1),%xmm1
    75dc:	f2 41 0f 58 4c 04 20 	addsd  0x20(%r12,%rax,1),%xmm1
    75e3:	f2 0f 58 4c 05 20    	addsd  0x20(%rbp,%rax,1),%xmm1
    75e9:	f2 0f 58 4c 03 20    	addsd  0x20(%rbx,%rax,1),%xmm1
    75ef:	48 83 c0 10          	add    $0x10,%rax
    75f3:	f2 41 0f 58 cd       	addsd  %xmm13,%xmm1
    75f8:	f2 41 0f 59 cc       	mulsd  %xmm12,%xmm1
    75fd:	f2 0f 58 c1          	addsd  %xmm1,%xmm0
    7601:	f2 0f 58 c2          	addsd  %xmm2,%xmm0
    7605:	f2 0f 11 42 f8       	movsd  %xmm0,-0x8(%rdx)
    760a:	49 39 d6             	cmp    %rdx,%r14
    760d:	0f 85 5d ff ff ff    	jne    7570 <rprj3_._omp_fn.0+0xe10>
    7613:	e9 42 fe ff ff       	jmp    745a <rprj3_._omp_fn.0+0xcfa>
    7618:	0f 1f 84 00 00 00 00 	nopl   0x0(%rax,%rax,1)
    761f:	00 
    7620:	83 44 24 30 01       	addl   $0x1,0x30(%rsp)
    7625:	b8 02 00 00 00       	mov    $0x2,%eax
    762a:	e9 4c fe ff ff       	jmp    747b <rprj3_._omp_fn.0+0xd1b>
    762f:	90                   	nop
    7630:	83 7c 24 1c 02       	cmpl   $0x2,0x1c(%rsp)
    7635:	0f 8f 0b f7 ff ff    	jg     6d46 <rprj3_._omp_fn.0+0x5e6>
    763b:	e9 1a fe ff ff       	jmp    745a <rprj3_._omp_fn.0+0xcfa>
    7640:	b9 02 00 00 00       	mov    $0x2,%ecx
    7645:	e9 f0 f5 ff ff       	jmp    6c3a <rprj3_._omp_fn.0+0x4da>
    764a:	83 c1 01             	add    $0x1,%ecx
    764d:	31 d2                	xor    %edx,%edx
    764f:	e9 6c f1 ff ff       	jmp    67c0 <rprj3_._omp_fn.0+0x60>
    7654:	66 66 2e 0f 1f 84 00 	data16 cs nopw 0x0(%rax,%rax,1)
    765b:	00 00 00 00 
    765f:	90                   	nop

0000000000007660 <norm2u3_>:
    7660:	41 57                	push   %r15
    7662:	48 89 f0             	mov    %rsi,%rax
    7665:	66 48 0f 6e c7       	movq   %rdi,%xmm0
    766a:	41 56                	push   %r14
    766c:	66 48 0f 6e e0       	movq   %rax,%xmm4
    7671:	49 89 ce             	mov    %rcx,%r14
    7674:	41 55                	push   %r13
    7676:	49 89 d5             	mov    %rdx,%r13
    7679:	31 d2                	xor    %edx,%edx
    767b:	66 0f 6c c4          	punpcklqdq %xmm4,%xmm0
    767f:	41 54                	push   %r12
    7681:	4d 89 cc             	mov    %r9,%r12
    7684:	55                   	push   %rbp
    7685:	4c 89 c5             	mov    %r8,%rbp
    7688:	53                   	push   %rbx
    7689:	48 83 ec 78          	sub    $0x78,%rsp
    768d:	48 63 00             	movslq (%rax),%rax
    7690:	4c 8b 84 24 b0 00 00 	mov    0xb0(%rsp),%r8
    7697:	00 
    7698:	48 8b b4 24 b8 00 00 	mov    0xb8(%rsp),%rsi
    769f:	00 
    76a0:	48 85 c0             	test   %rax,%rax
    76a3:	4c 8b bc 24 c0 00 00 	mov    0xc0(%rsp),%r15
    76aa:	00 
    76ab:	48 0f 48 c2          	cmovs  %rdx,%rax
    76af:	49 63 55 00          	movslq 0x0(%r13),%rdx
    76b3:	31 ff                	xor    %edi,%edi
    76b5:	48 89 d1             	mov    %rdx,%rcx
    76b8:	48 0f af d0          	imul   %rax,%rdx
    76bc:	66 48 0f 6e d0       	movq   %rax,%xmm2
    76c1:	48 f7 d0             	not    %rax
    76c4:	48 85 d2             	test   %rdx,%rdx
    76c7:	48 0f 48 d7          	cmovs  %rdi,%rdx
    76cb:	66 48 0f 6e ea       	movq   %rdx,%xmm5
    76d0:	48 29 d0             	sub    %rdx,%rax
    76d3:	8b 15 67 9a 00 00    	mov    0x9a67(%rip),%edx        # 11140 <__mg_data_MOD_timeron>
    76d9:	66 0f 6c d5          	punpcklqdq %xmm5,%xmm2
    76dd:	48 89 c3             	mov    %rax,%rbx
    76e0:	85 d2                	test   %edx,%edx
    76e2:	0f 85 a8 00 00 00    	jne    7790 <norm2u3_+0x130>
    76e8:	66 0f ef c9          	pxor   %xmm1,%xmm1
    76ec:	66 0f ef db          	pxor   %xmm3,%xmm3
    76f0:	41 8b 06             	mov    (%r14),%eax
    76f3:	83 e9 01             	sub    $0x1,%ecx
    76f6:	f2 0f 2a 1e          	cvtsi2sdl (%rsi),%xmm3
    76fa:	89 4c 24 6c          	mov    %ecx,0x6c(%rsp)
    76fe:	48 8d 74 24 30       	lea    0x30(%rsp),%rsi
    7703:	31 c9                	xor    %ecx,%ecx
    7705:	f2 41 0f 2a 08       	cvtsi2sdl (%r8),%xmm1
    770a:	83 e8 01             	sub    $0x1,%eax
    770d:	31 d2                	xor    %edx,%edx
    770f:	0f 29 44 24 30       	movaps %xmm0,0x30(%rsp)
    7714:	49 c7 04 24 00 00 00 	movq   $0x0,(%r12)
    771b:	00 
    771c:	48 8d 3d ad ac ff ff 	lea    -0x5353(%rip),%rdi        # 23d0 <norm2u3_._omp_fn.0>
    7723:	89 44 24 68          	mov    %eax,0x68(%rsp)
    7727:	48 c7 44 24 60 00 00 	movq   $0x0,0x60(%rsp)
    772e:	00 00 
    7730:	f2 0f 59 cb          	mulsd  %xmm3,%xmm1
    7734:	66 0f ef db          	pxor   %xmm3,%xmm3
    7738:	4c 89 64 24 58       	mov    %r12,0x58(%rsp)
    773d:	f2 41 0f 2a 1f       	cvtsi2sdl (%r15),%xmm3
    7742:	48 89 5c 24 50       	mov    %rbx,0x50(%rsp)
    7747:	0f 29 54 24 40       	movaps %xmm2,0x40(%rsp)
    774c:	f2 0f 59 cb          	mulsd  %xmm3,%xmm1
    7750:	f2 0f 11 0c 24       	movsd  %xmm1,(%rsp)
    7755:	e8 a6 aa ff ff       	call   2200 <GOMP_parallel@plt>
    775a:	f2 0f 10 44 24 60    	movsd  0x60(%rsp),%xmm0
    7760:	f2 0f 5e 04 24       	divsd  (%rsp),%xmm0
    7765:	f2 0f 51 c0          	sqrtsd %xmm0,%xmm0
    7769:	8b 05 d1 99 00 00    	mov    0x99d1(%rip),%eax        # 11140 <__mg_data_MOD_timeron>
    776f:	f2 0f 11 45 00       	movsd  %xmm0,0x0(%rbp)
    7774:	85 c0                	test   %eax,%eax
    7776:	75 58                	jne    77d0 <norm2u3_+0x170>
    7778:	48 83 c4 78          	add    $0x78,%rsp
    777c:	5b                   	pop    %rbx
    777d:	5d                   	pop    %rbp
    777e:	41 5c                	pop    %r12
    7780:	41 5d                	pop    %r13
    7782:	41 5e                	pop    %r14
    7784:	41 5f                	pop    %r15
    7786:	c3                   	ret    
    7787:	66 0f 1f 84 00 00 00 	nopw   0x0(%rax,%rax,1)
    778e:	00 00 
    7790:	48 8d 3d 81 68 00 00 	lea    0x6881(%rip),%rdi        # e018 <_IO_stdin_used+0x18>
    7797:	48 89 74 24 28       	mov    %rsi,0x28(%rsp)
    779c:	4c 89 44 24 20       	mov    %r8,0x20(%rsp)
    77a1:	0f 29 44 24 10       	movaps %xmm0,0x10(%rsp)
    77a6:	0f 29 14 24          	movaps %xmm2,(%rsp)
    77aa:	e8 d1 5a 00 00       	call   d280 <timer_start_>
    77af:	41 8b 4d 00          	mov    0x0(%r13),%ecx
    77b3:	48 8b 74 24 28       	mov    0x28(%rsp),%rsi
    77b8:	4c 8b 44 24 20       	mov    0x20(%rsp),%r8
    77bd:	66 0f 6f 44 24 10    	movdqa 0x10(%rsp),%xmm0
    77c3:	66 0f 6f 14 24       	movdqa (%rsp),%xmm2
    77c8:	e9 1b ff ff ff       	jmp    76e8 <norm2u3_+0x88>
    77cd:	0f 1f 00             	nopl   (%rax)
    77d0:	48 83 c4 78          	add    $0x78,%rsp
    77d4:	48 8d 3d 3d 68 00 00 	lea    0x683d(%rip),%rdi        # e018 <_IO_stdin_used+0x18>
    77db:	5b                   	pop    %rbx
    77dc:	5d                   	pop    %rbp
    77dd:	41 5c                	pop    %r12
    77df:	41 5d                	pop    %r13
    77e1:	41 5e                	pop    %r14
    77e3:	41 5f                	pop    %r15
    77e5:	e9 b6 5a 00 00       	jmp    d2a0 <timer_stop_>
    77ea:	66 0f 1f 44 00 00    	nopw   0x0(%rax,%rax,1)

00000000000077f0 <zran3_>:
    77f0:	41 57                	push   %r15
    77f2:	66 48 0f 6e cf       	movq   %rdi,%xmm1
    77f7:	66 48 0f 6e d9       	movq   %rcx,%xmm3
    77fc:	41 56                	push   %r14
    77fe:	41 55                	push   %r13
    7800:	49 89 fd             	mov    %rdi,%r13
    7803:	41 54                	push   %r12
    7805:	55                   	push   %rbp
    7806:	53                   	push   %rbx
    7807:	48 89 f3             	mov    %rsi,%rbx
    780a:	66 48 0f 6e d3       	movq   %rbx,%xmm2
    780f:	66 0f 6c ca          	punpcklqdq %xmm2,%xmm1
    7813:	66 48 0f 6e d2       	movq   %rdx,%xmm2
    7818:	48 81 ec 78 02 00 00 	sub    $0x278,%rsp
    781f:	48 63 2b             	movslq (%rbx),%rbp
    7822:	45 8b 30             	mov    (%r8),%r14d
    7825:	66 0f 6c d3          	punpcklqdq %xmm3,%xmm2
    7829:	48 8d 84 24 bc 00 00 	lea    0xbc(%rsp),%rax
    7830:	00 
    7831:	48 89 74 24 38       	mov    %rsi,0x38(%rsp)
    7836:	48 89 d6             	mov    %rdx,%rsi
    7839:	66 48 0f 6e f0       	movq   %rax,%xmm6
    783e:	31 c0                	xor    %eax,%eax
    7840:	48 85 ed             	test   %rbp,%rbp
    7843:	48 63 1e             	movslq (%rsi),%rbx
    7846:	48 0f 48 e8          	cmovs  %rax,%rbp
    784a:	48 89 54 24 28       	mov    %rdx,0x28(%rsp)
    784f:	0f 29 4c 24 10       	movaps %xmm1,0x10(%rsp)
    7854:	66 48 0f 6e ca       	movq   %rdx,%xmm1
    7859:	48 8d 94 24 c0 00 00 	lea    0xc0(%rsp),%rdx
    7860:	00 
    7861:	48 0f af dd          	imul   %rbp,%rbx
    7865:	66 48 0f 6e e2       	movq   %rdx,%xmm4
    786a:	66 0f 6c d9          	punpcklqdq %xmm1,%xmm3
    786e:	49 89 ec             	mov    %rbp,%r12
    7871:	66 48 0f 6e ed       	movq   %rbp,%xmm5
    7876:	66 0f 6c e6          	punpcklqdq %xmm6,%xmm4
    787a:	49 f7 d4             	not    %r12
    787d:	48 89 4c 24 40       	mov    %rcx,0x40(%rsp)
    7882:	4c 89 44 24 48       	mov    %r8,0x48(%rsp)
    7887:	48 85 db             	test   %rbx,%rbx
    788a:	4c 89 8c 24 90 00 00 	mov    %r9,0x90(%rsp)
    7891:	00 
    7892:	48 0f 48 d8          	cmovs  %rax,%rbx
    7896:	48 8b 05 13 6e 00 00 	mov    0x6e13(%rip),%rax        # e6b0 <options.163.0+0x610>
    789d:	0f 29 54 24 70       	movaps %xmm2,0x70(%rsp)
    78a2:	0f 29 9c 24 80 00 00 	movaps %xmm3,0x80(%rsp)
    78a9:	00 
    78aa:	48 89 84 24 30 01 00 	mov    %rax,0x130(%rsp)
    78b1:	00 
    78b2:	66 48 0f 6e fb       	movq   %rbx,%xmm7
    78b7:	48 8b 05 62 6c 00 00 	mov    0x6c62(%rip),%rax        # e520 <options.163.0+0x480>
    78be:	49 29 dc             	sub    %rbx,%r12
    78c1:	66 0f 6c ef          	punpcklqdq %xmm7,%xmm5
    78c5:	0f 29 64 24 60       	movaps %xmm4,0x60(%rsp)
    78ca:	48 89 84 24 e0 00 00 	mov    %rax,0xe0(%rsp)
    78d1:	00 
    78d2:	0f 29 6c 24 50       	movaps %xmm5,0x50(%rsp)
    78d7:	45 85 f6             	test   %r14d,%r14d
    78da:	0f 84 e0 08 00 00    	je     81c0 <zran3_+0x9d0>
    78e0:	48 8d 84 24 30 01 00 	lea    0x130(%rsp),%rax
    78e7:	00 
    78e8:	4c 8d bc 24 e0 00 00 	lea    0xe0(%rsp),%r15
    78ef:	00 
    78f0:	48 89 04 24          	mov    %rax,(%rsp)
    78f4:	eb 20                	jmp    7916 <zran3_+0x126>
    78f6:	66 2e 0f 1f 84 00 00 	cs nopw 0x0(%rax,%rax,1)
    78fd:	00 00 00 
    7900:	4c 89 ff             	mov    %r15,%rdi
    7903:	e8 a8 58 00 00       	call   d1b0 <randlc_>
    7908:	44 89 f0             	mov    %r14d,%eax
    790b:	c1 e8 1f             	shr    $0x1f,%eax
    790e:	41 01 c6             	add    %eax,%r14d
    7911:	41 d1 fe             	sar    %r14d
    7914:	74 2a                	je     7940 <zran3_+0x150>
    7916:	44 89 f2             	mov    %r14d,%edx
    7919:	4c 89 fe             	mov    %r15,%rsi
    791c:	c1 ea 1f             	shr    $0x1f,%edx
    791f:	41 8d 04 16          	lea    (%r14,%rdx,1),%eax
    7923:	83 e0 01             	and    $0x1,%eax
    7926:	29 d0                	sub    %edx,%eax
    7928:	83 f8 01             	cmp    $0x1,%eax
    792b:	75 d3                	jne    7900 <zran3_+0x110>
    792d:	48 8b 3c 24          	mov    (%rsp),%rdi
    7931:	e8 7a 58 00 00       	call   d1b0 <randlc_>
    7936:	4c 89 fe             	mov    %r15,%rsi
    7939:	eb c5                	jmp    7900 <zran3_+0x110>
    793b:	0f 1f 44 00 00       	nopl   0x0(%rax,%rax,1)
    7940:	48 8b 44 24 48       	mov    0x48(%rsp),%rax
    7945:	48 8b b4 24 90 00 00 	mov    0x90(%rsp),%rsi
    794c:	00 
    794d:	f2 0f 10 84 24 30 01 	movsd  0x130(%rsp),%xmm0
    7954:	00 00 
    7956:	8b 00                	mov    (%rax),%eax
    7958:	0f af 06             	imul   (%rsi),%eax
    795b:	f2 0f 11 84 24 c0 00 	movsd  %xmm0,0xc0(%rsp)
    7962:	00 00 
    7964:	41 89 c6             	mov    %eax,%r14d
    7967:	48 8b 05 42 6d 00 00 	mov    0x6d42(%rip),%rax        # e6b0 <options.163.0+0x610>
    796e:	48 89 84 24 30 01 00 	mov    %rax,0x130(%rsp)
    7975:	00 
    7976:	48 8b 05 a3 6b 00 00 	mov    0x6ba3(%rip),%rax        # e520 <options.163.0+0x480>
    797d:	48 89 84 24 e0 00 00 	mov    %rax,0xe0(%rsp)
    7984:	00 
    7985:	45 85 f6             	test   %r14d,%r14d
    7988:	75 1c                	jne    79a6 <zran3_+0x1b6>
    798a:	e9 72 08 00 00       	jmp    8201 <zran3_+0xa11>
    798f:	90                   	nop
    7990:	4c 89 ff             	mov    %r15,%rdi
    7993:	e8 18 58 00 00       	call   d1b0 <randlc_>
    7998:	44 89 f0             	mov    %r14d,%eax
    799b:	c1 e8 1f             	shr    $0x1f,%eax
    799e:	41 01 c6             	add    %eax,%r14d
    79a1:	41 d1 fe             	sar    %r14d
    79a4:	74 2a                	je     79d0 <zran3_+0x1e0>
    79a6:	44 89 f2             	mov    %r14d,%edx
    79a9:	4c 89 fe             	mov    %r15,%rsi
    79ac:	c1 ea 1f             	shr    $0x1f,%edx
    79af:	41 8d 04 16          	lea    (%r14,%rdx,1),%eax
    79b3:	83 e0 01             	and    $0x1,%eax
    79b6:	29 d0                	sub    %edx,%eax
    79b8:	83 f8 01             	cmp    $0x1,%eax
    79bb:	75 d3                	jne    7990 <zran3_+0x1a0>
    79bd:	48 8b 3c 24          	mov    (%rsp),%rdi
    79c1:	e8 ea 57 00 00       	call   d1b0 <randlc_>
    79c6:	4c 89 fe             	mov    %r15,%rsi
    79c9:	eb c5                	jmp    7990 <zran3_+0x1a0>
    79cb:	0f 1f 44 00 00       	nopl   0x0(%rax,%rax,1)
    79d0:	f2 0f 10 84 24 30 01 	movsd  0x130(%rsp),%xmm0
    79d7:	00 00 
    79d9:	48 8b 44 24 38       	mov    0x38(%rsp),%rax
    79de:	48 8b 74 24 28       	mov    0x28(%rsp),%rsi
    79e3:	31 d2                	xor    %edx,%edx
    79e5:	f2 0f 11 84 24 c8 00 	movsd  %xmm0,0xc8(%rsp)
    79ec:	00 00 
    79ee:	48 8b 7c 24 40       	mov    0x40(%rsp),%rdi
    79f3:	48 63 00             	movslq (%rax),%rax
    79f6:	66 0f 6e 07          	movd   (%rdi),%xmm0
    79fa:	48 8d 3d 5f b7 ff ff 	lea    -0x48a1(%rip),%rdi        # 3160 <zero3_._omp_fn.0>
    7a01:	48 85 c0             	test   %rax,%rax
    7a04:	48 0f 48 c2          	cmovs  %rdx,%rax
    7a08:	48 63 16             	movslq (%rsi),%rdx
    7a0b:	31 c9                	xor    %ecx,%ecx
    7a0d:	48 8b 34 24          	mov    (%rsp),%rsi
    7a11:	89 54 24 34          	mov    %edx,0x34(%rsp)
    7a15:	48 0f af d0          	imul   %rax,%rdx
    7a19:	66 0f 6e 74 24 34    	movd   0x34(%rsp),%xmm6
    7a1f:	66 0f 62 c6          	punpckldq %xmm6,%xmm0
    7a23:	66 0f 6f 74 24 10    	movdqa 0x10(%rsp),%xmm6
    7a29:	66 0f d6 84 24 58 01 	movq   %xmm0,0x158(%rsp)
    7a30:	00 00 
    7a32:	48 85 d2             	test   %rdx,%rdx
    7a35:	66 48 0f 6e c0       	movq   %rax,%xmm0
    7a3a:	48 0f 48 d1          	cmovs  %rcx,%rdx
    7a3e:	48 89 c1             	mov    %rax,%rcx
    7a41:	0f 29 b4 24 30 01 00 	movaps %xmm6,0x130(%rsp)
    7a48:	00 
    7a49:	48 f7 d1             	not    %rcx
    7a4c:	48 29 d1             	sub    %rdx,%rcx
    7a4f:	66 48 0f 6e fa       	movq   %rdx,%xmm7
    7a54:	31 d2                	xor    %edx,%edx
    7a56:	48 89 8c 24 50 01 00 	mov    %rcx,0x150(%rsp)
    7a5d:	00 
    7a5e:	66 0f 6c c7          	punpcklqdq %xmm7,%xmm0
    7a62:	31 c9                	xor    %ecx,%ecx
    7a64:	0f 29 84 24 40 01 00 	movaps %xmm0,0x140(%rsp)
    7a6b:	00 
    7a6c:	e8 8f a7 ff ff       	call   2200 <GOMP_parallel@plt>
    7a71:	48 8b bc 24 90 00 00 	mov    0x90(%rsp),%rdi
    7a78:	00 
    7a79:	8b 15 75 b8 00 00    	mov    0xb875(%rip),%edx        # 132f4 <__mg_data_MOD_is3>
    7a7f:	8b 0d 73 b8 00 00    	mov    0xb873(%rip),%ecx        # 132f8 <__mg_data_MOD_is2>
    7a85:	8b 35 71 b8 00 00    	mov    0xb871(%rip),%esi        # 132fc <__mg_data_MOD_is1>
    7a8b:	8d 42 fe             	lea    -0x2(%rdx),%eax
    7a8e:	0f af 07             	imul   (%rdi),%eax
    7a91:	48 8b 7c 24 48       	mov    0x48(%rsp),%rdi
    7a96:	8d 44 01 fe          	lea    -0x2(%rcx,%rax,1),%eax
    7a9a:	0f af 07             	imul   (%rdi),%eax
    7a9d:	44 8d 74 06 fe       	lea    -0x2(%rsi,%rax,1),%r14d
    7aa2:	48 8b 05 07 6c 00 00 	mov    0x6c07(%rip),%rax        # e6b0 <options.163.0+0x610>
    7aa9:	48 89 84 24 30 01 00 	mov    %rax,0x130(%rsp)
    7ab0:	00 
    7ab1:	48 8b 05 68 6a 00 00 	mov    0x6a68(%rip),%rax        # e520 <options.163.0+0x480>
    7ab8:	48 89 84 24 e0 00 00 	mov    %rax,0xe0(%rsp)
    7abf:	00 
    7ac0:	45 85 f6             	test   %r14d,%r14d
    7ac3:	75 21                	jne    7ae6 <zran3_+0x2f6>
    7ac5:	e9 26 07 00 00       	jmp    81f0 <zran3_+0xa00>
    7aca:	66 0f 1f 44 00 00    	nopw   0x0(%rax,%rax,1)
    7ad0:	4c 89 ff             	mov    %r15,%rdi
    7ad3:	e8 d8 56 00 00       	call   d1b0 <randlc_>
    7ad8:	44 89 f0             	mov    %r14d,%eax
    7adb:	c1 e8 1f             	shr    $0x1f,%eax
    7ade:	41 01 c6             	add    %eax,%r14d
    7ae1:	41 d1 fe             	sar    %r14d
    7ae4:	74 2a                	je     7b10 <zran3_+0x320>
    7ae6:	44 89 f2             	mov    %r14d,%edx
    7ae9:	4c 89 fe             	mov    %r15,%rsi
    7aec:	c1 ea 1f             	shr    $0x1f,%edx
    7aef:	41 8d 04 16          	lea    (%r14,%rdx,1),%eax
    7af3:	83 e0 01             	and    $0x1,%eax
    7af6:	29 d0                	sub    %edx,%eax
    7af8:	83 f8 01             	cmp    $0x1,%eax
    7afb:	75 d3                	jne    7ad0 <zran3_+0x2e0>
    7afd:	48 8b 3c 24          	mov    (%rsp),%rdi
    7b01:	e8 aa 56 00 00       	call   d1b0 <randlc_>
    7b06:	4c 89 fe             	mov    %r15,%rsi
    7b09:	eb c5                	jmp    7ad0 <zran3_+0x2e0>
    7b0b:	0f 1f 44 00 00       	nopl   0x0(%rax,%rax,1)
    7b10:	8b 35 e6 b7 00 00    	mov    0xb7e6(%rip),%esi        # 132fc <__mg_data_MOD_is1>
    7b16:	8b 0d dc b7 00 00    	mov    0xb7dc(%rip),%ecx        # 132f8 <__mg_data_MOD_is2>
    7b1c:	f2 0f 10 84 24 30 01 	movsd  0x130(%rsp),%xmm0
    7b23:	00 00 
    7b25:	8b 15 c9 b7 00 00    	mov    0xb7c9(%rip),%edx        # 132f4 <__mg_data_MOD_is3>
    7b2b:	8b 05 03 b8 00 00    	mov    0xb803(%rip),%eax        # 13334 <__mg_data_MOD_ie1>
    7b31:	48 8d bc 24 d8 00 00 	lea    0xd8(%rsp),%rdi
    7b38:	00 
    7b39:	f2 0f 11 84 24 d0 00 	movsd  %xmm0,0xd0(%rsp)
    7b40:	00 00 
    7b42:	41 be 02 00 00 00    	mov    $0x2,%r14d
    7b48:	48 89 bc 24 90 00 00 	mov    %rdi,0x90(%rsp)
    7b4f:	00 
    7b50:	29 f0                	sub    %esi,%eax
    7b52:	48 8b 35 cf 69 00 00 	mov    0x69cf(%rip),%rsi        # e528 <options.163.0+0x488>
    7b59:	83 c0 01             	add    $0x1,%eax
    7b5c:	89 84 24 bc 00 00 00 	mov    %eax,0xbc(%rsp)
    7b63:	8b 05 c7 b7 00 00    	mov    0xb7c7(%rip),%eax        # 13330 <__mg_data_MOD_ie2>
    7b69:	48 89 b4 24 d8 00 00 	mov    %rsi,0xd8(%rsp)
    7b70:	00 
    7b71:	48 8d b4 24 d0 00 00 	lea    0xd0(%rsp),%rsi
    7b78:	00 
    7b79:	29 c8                	sub    %ecx,%eax
    7b7b:	83 c0 02             	add    $0x2,%eax
    7b7e:	89 44 24 48          	mov    %eax,0x48(%rsp)
    7b82:	8b 05 a4 b7 00 00    	mov    0xb7a4(%rip),%eax        # 1332c <__mg_data_MOD_ie3>
    7b88:	29 d0                	sub    %edx,%eax
    7b8a:	83 c0 02             	add    $0x2,%eax
    7b8d:	89 44 24 34          	mov    %eax,0x34(%rsp)
    7b91:	e8 1a 56 00 00       	call   d1b0 <randlc_>
    7b96:	83 7c 24 34 01       	cmpl   $0x1,0x34(%rsp)
    7b9b:	48 8d b4 24 c8 00 00 	lea    0xc8(%rsp),%rsi
    7ba2:	00 
    7ba3:	7e 6d                	jle    7c12 <zran3_+0x422>
    7ba5:	48 89 9c 24 a0 00 00 	mov    %rbx,0xa0(%rsp)
    7bac:	00 
    7bad:	8b 5c 24 34          	mov    0x34(%rsp),%ebx
    7bb1:	4c 89 a4 24 a8 00 00 	mov    %r12,0xa8(%rsp)
    7bb8:	00 
    7bb9:	4d 89 f4             	mov    %r14,%r12
    7bbc:	4c 8b b4 24 90 00 00 	mov    0x90(%rsp),%r14
    7bc3:	00 
    7bc4:	48 89 ac 24 98 00 00 	mov    %rbp,0x98(%rsp)
    7bcb:	00 
    7bcc:	48 89 f5             	mov    %rsi,%rbp
    7bcf:	90                   	nop
    7bd0:	f2 0f 10 84 24 d8 00 	movsd  0xd8(%rsp),%xmm0
    7bd7:	00 00 
    7bd9:	48 8d 05 78 95 00 00 	lea    0x9578(%rip),%rax        # 11158 <__mg_data_MOD_timeron+0x18>
    7be0:	48 89 ee             	mov    %rbp,%rsi
    7be3:	4c 89 f7             	mov    %r14,%rdi
    7be6:	f2 42 0f 11 04 e0    	movsd  %xmm0,(%rax,%r12,8)
    7bec:	49 83 c4 01          	add    $0x1,%r12
    7bf0:	e8 bb 55 00 00       	call   d1b0 <randlc_>
    7bf5:	44 39 e3             	cmp    %r12d,%ebx
    7bf8:	7d d6                	jge    7bd0 <zran3_+0x3e0>
    7bfa:	48 8b ac 24 98 00 00 	mov    0x98(%rsp),%rbp
    7c01:	00 
    7c02:	48 8b 9c 24 a0 00 00 	mov    0xa0(%rsp),%rbx
    7c09:	00 
    7c0a:	4c 8b a4 24 a8 00 00 	mov    0xa8(%rsp),%r12
    7c11:	00 
    7c12:	8b 44 24 48          	mov    0x48(%rsp),%eax
    7c16:	4c 8b 34 24          	mov    (%rsp),%r14
    7c1a:	31 c9                	xor    %ecx,%ecx
    7c1c:	31 d2                	xor    %edx,%edx
    7c1e:	66 0f 6f 7c 24 50    	movdqa 0x50(%rsp),%xmm7
    7c24:	66 0f 6f 4c 24 60    	movdqa 0x60(%rsp),%xmm1
    7c2a:	48 8d 3d af b3 ff ff 	lea    -0x4c51(%rip),%rdi        # 2fe0 <zran3_._omp_fn.0>
    7c31:	4c 89 a4 24 48 01 00 	mov    %r12,0x148(%rsp)
    7c38:	00 
    7c39:	89 84 24 64 01 00 00 	mov    %eax,0x164(%rsp)
    7c40:	8b 44 24 34          	mov    0x34(%rsp),%eax
    7c44:	4c 89 f6             	mov    %r14,%rsi
    7c47:	0f 11 bc 24 38 01 00 	movups %xmm7,0x138(%rsp)
    7c4e:	00 
    7c4f:	89 84 24 60 01 00 00 	mov    %eax,0x160(%rsp)
    7c56:	0f 29 8c 24 50 01 00 	movaps %xmm1,0x150(%rsp)
    7c5d:	00 
    7c5e:	4c 89 ac 24 30 01 00 	mov    %r13,0x130(%rsp)
    7c65:	00 
    7c66:	e8 95 a5 ff ff       	call   2200 <GOMP_parallel@plt>
    7c6b:	66 0f ef c0          	pxor   %xmm0,%xmm0
    7c6f:	31 c9                	xor    %ecx,%ecx
    7c71:	31 d2                	xor    %edx,%edx
    7c73:	66 0f 6f 94 24 80 00 	movdqa 0x80(%rsp),%xmm2
    7c7a:	00 00 
    7c7c:	4c 89 b4 24 e8 00 00 	mov    %r14,0xe8(%rsp)
    7c83:	00 
    7c84:	4c 89 fe             	mov    %r15,%rsi
    7c87:	48 8d 3d e2 43 00 00 	lea    0x43e2(%rip),%rdi        # c070 <zran3_._omp_fn.1>
    7c8e:	4c 8b 74 24 38       	mov    0x38(%rsp),%r14
    7c93:	48 89 9c 24 f8 00 00 	mov    %rbx,0xf8(%rsp)
    7c9a:	00 
    7c9b:	0f 11 94 24 08 01 00 	movups %xmm2,0x108(%rsp)
    7ca2:	00 
    7ca3:	0f 29 84 24 20 01 00 	movaps %xmm0,0x120(%rsp)
    7caa:	00 
    7cab:	4c 89 a4 24 00 01 00 	mov    %r12,0x100(%rsp)
    7cb2:	00 
    7cb3:	48 89 ac 24 f0 00 00 	mov    %rbp,0xf0(%rsp)
    7cba:	00 
    7cbb:	4c 89 ac 24 e0 00 00 	mov    %r13,0xe0(%rsp)
    7cc2:	00 
    7cc3:	4c 89 b4 24 18 01 00 	mov    %r14,0x118(%rsp)
    7cca:	00 
    7ccb:	e8 30 a5 ff ff       	call   2200 <GOMP_parallel@plt>
    7cd0:	48 8b 44 24 28       	mov    0x28(%rsp),%rax
    7cd5:	31 d2                	xor    %edx,%edx
    7cd7:	4c 89 fe             	mov    %r15,%rsi
    7cda:	66 0f 6f 64 24 10    	movdqa 0x10(%rsp),%xmm4
    7ce0:	48 8d 3d c9 b1 ff ff 	lea    -0x4e37(%rip),%rdi        # 2eb0 <zran3_._omp_fn.2>
    7ce7:	48 89 9c 24 f8 00 00 	mov    %rbx,0xf8(%rsp)
    7cee:	00 
    7cef:	8b 08                	mov    (%rax),%ecx
    7cf1:	4c 89 a4 24 00 01 00 	mov    %r12,0x100(%rsp)
    7cf8:	00 
    7cf9:	48 89 ac 24 f0 00 00 	mov    %rbp,0xf0(%rsp)
    7d00:	00 
    7d01:	89 0c 24             	mov    %ecx,(%rsp)
    7d04:	48 8b 4c 24 40       	mov    0x40(%rsp),%rcx
    7d09:	66 0f 6e 1c 24       	movd   (%rsp),%xmm3
    7d0e:	0f 29 a4 24 e0 00 00 	movaps %xmm4,0xe0(%rsp)
    7d15:	00 
    7d16:	66 0f 6e 01          	movd   (%rcx),%xmm0
    7d1a:	31 c9                	xor    %ecx,%ecx
    7d1c:	66 0f 62 c3          	punpckldq %xmm3,%xmm0
    7d20:	66 0f d6 84 24 08 01 	movq   %xmm0,0x108(%rsp)
    7d27:	00 00 
    7d29:	e8 d2 a4 ff ff       	call   2200 <GOMP_parallel@plt>
    7d2e:	48 63 84 24 cc 01 00 	movslq 0x1cc(%rsp),%rax
    7d35:	00 
    7d36:	48 63 94 24 c8 01 00 	movslq 0x1c8(%rsp),%rdx
    7d3d:	00 
    7d3e:	48 63 8c 24 c4 01 00 	movslq 0x1c4(%rsp),%rcx
    7d45:	00 
    7d46:	f2 0f 10 05 e2 67 00 	movsd  0x67e2(%rip),%xmm0        # e530 <options.163.0+0x490>
    7d4d:	00 
    7d4e:	48 0f af c3          	imul   %rbx,%rax
    7d52:	48 0f af d5          	imul   %rbp,%rdx
    7d56:	4c 01 e0             	add    %r12,%rax
    7d59:	48 01 d0             	add    %rdx,%rax
    7d5c:	48 63 94 24 b8 01 00 	movslq 0x1b8(%rsp),%rdx
    7d63:	00 
    7d64:	48 01 c8             	add    %rcx,%rax
    7d67:	48 63 8c 24 b4 01 00 	movslq 0x1b4(%rsp),%rcx
    7d6e:	00 
    7d6f:	f2 41 0f 11 44 c5 00 	movsd  %xmm0,0x0(%r13,%rax,8)
    7d76:	48 63 84 24 bc 01 00 	movslq 0x1bc(%rsp),%rax
    7d7d:	00 
    7d7e:	48 0f af d5          	imul   %rbp,%rdx
    7d82:	48 0f af c3          	imul   %rbx,%rax
    7d86:	4c 01 e0             	add    %r12,%rax
    7d89:	48 01 d0             	add    %rdx,%rax
    7d8c:	48 63 94 24 a8 01 00 	movslq 0x1a8(%rsp),%rdx
    7d93:	00 
    7d94:	48 01 c8             	add    %rcx,%rax
    7d97:	48 63 8c 24 a4 01 00 	movslq 0x1a4(%rsp),%rcx
    7d9e:	00 
    7d9f:	f2 41 0f 11 44 c5 00 	movsd  %xmm0,0x0(%r13,%rax,8)
    7da6:	48 63 84 24 ac 01 00 	movslq 0x1ac(%rsp),%rax
    7dad:	00 
    7dae:	48 0f af d5          	imul   %rbp,%rdx
    7db2:	48 0f af c3          	imul   %rbx,%rax
    7db6:	4c 01 e0             	add    %r12,%rax
    7db9:	48 01 d0             	add    %rdx,%rax
    7dbc:	48 63 94 24 98 01 00 	movslq 0x198(%rsp),%rdx
    7dc3:	00 
    7dc4:	48 01 c8             	add    %rcx,%rax
    7dc7:	48 63 8c 24 94 01 00 	movslq 0x194(%rsp),%rcx
    7dce:	00 
    7dcf:	f2 41 0f 11 44 c5 00 	movsd  %xmm0,0x0(%r13,%rax,8)
    7dd6:	48 63 84 24 9c 01 00 	movslq 0x19c(%rsp),%rax
    7ddd:	00 
    7dde:	48 0f af d5          	imul   %rbp,%rdx
    7de2:	48 0f af c3          	imul   %rbx,%rax
    7de6:	4c 01 e0             	add    %r12,%rax
    7de9:	48 01 d0             	add    %rdx,%rax
    7dec:	48 63 94 24 88 01 00 	movslq 0x188(%rsp),%rdx
    7df3:	00 
    7df4:	48 01 c8             	add    %rcx,%rax
    7df7:	48 63 8c 24 84 01 00 	movslq 0x184(%rsp),%rcx
    7dfe:	00 
    7dff:	f2 41 0f 11 44 c5 00 	movsd  %xmm0,0x0(%r13,%rax,8)
    7e06:	48 63 84 24 8c 01 00 	movslq 0x18c(%rsp),%rax
    7e0d:	00 
    7e0e:	48 0f af d5          	imul   %rbp,%rdx
    7e12:	48 0f af c3          	imul   %rbx,%rax
    7e16:	4c 01 e0             	add    %r12,%rax
    7e19:	48 01 d0             	add    %rdx,%rax
    7e1c:	48 63 94 24 78 01 00 	movslq 0x178(%rsp),%rdx
    7e23:	00 
    7e24:	48 01 c8             	add    %rcx,%rax
    7e27:	48 63 8c 24 74 01 00 	movslq 0x174(%rsp),%rcx
    7e2e:	00 
    7e2f:	f2 41 0f 11 44 c5 00 	movsd  %xmm0,0x0(%r13,%rax,8)
    7e36:	48 63 84 24 7c 01 00 	movslq 0x17c(%rsp),%rax
    7e3d:	00 
    7e3e:	48 0f af d5          	imul   %rbp,%rdx
    7e42:	48 0f af c3          	imul   %rbx,%rax
    7e46:	4c 01 e0             	add    %r12,%rax
    7e49:	48 01 d0             	add    %rdx,%rax
    7e4c:	48 63 94 24 68 01 00 	movslq 0x168(%rsp),%rdx
    7e53:	00 
    7e54:	48 01 c8             	add    %rcx,%rax
    7e57:	48 63 8c 24 64 01 00 	movslq 0x164(%rsp),%rcx
    7e5e:	00 
    7e5f:	f2 41 0f 11 44 c5 00 	movsd  %xmm0,0x0(%r13,%rax,8)
    7e66:	48 63 84 24 6c 01 00 	movslq 0x16c(%rsp),%rax
    7e6d:	00 
    7e6e:	48 0f af d5          	imul   %rbp,%rdx
    7e72:	48 0f af c3          	imul   %rbx,%rax
    7e76:	4c 01 e0             	add    %r12,%rax
    7e79:	48 01 d0             	add    %rdx,%rax
    7e7c:	48 63 94 24 58 01 00 	movslq 0x158(%rsp),%rdx
    7e83:	00 
    7e84:	48 01 c8             	add    %rcx,%rax
    7e87:	48 63 8c 24 54 01 00 	movslq 0x154(%rsp),%rcx
    7e8e:	00 
    7e8f:	f2 41 0f 11 44 c5 00 	movsd  %xmm0,0x0(%r13,%rax,8)
    7e96:	48 63 84 24 5c 01 00 	movslq 0x15c(%rsp),%rax
    7e9d:	00 
    7e9e:	48 0f af d5          	imul   %rbp,%rdx
    7ea2:	48 0f af c3          	imul   %rbx,%rax
    7ea6:	4c 01 e0             	add    %r12,%rax
    7ea9:	48 01 d0             	add    %rdx,%rax
    7eac:	48 01 c8             	add    %rcx,%rax
    7eaf:	f2 41 0f 11 44 c5 00 	movsd  %xmm0,0x0(%r13,%rax,8)
    7eb6:	48 63 84 24 4c 01 00 	movslq 0x14c(%rsp),%rax
    7ebd:	00 
    7ebe:	48 63 94 24 48 01 00 	movslq 0x148(%rsp),%rdx
    7ec5:	00 
    7ec6:	48 63 8c 24 44 01 00 	movslq 0x144(%rsp),%rcx
    7ecd:	00 
    7ece:	48 8b 3d db 67 00 00 	mov    0x67db(%rip),%rdi        # e6b0 <options.163.0+0x610>
    7ed5:	48 0f af c3          	imul   %rbx,%rax
    7ed9:	48 0f af d5          	imul   %rbp,%rdx
    7edd:	4c 01 e0             	add    %r12,%rax
    7ee0:	48 01 d0             	add    %rdx,%rax
    7ee3:	48 63 94 24 38 01 00 	movslq 0x138(%rsp),%rdx
    7eea:	00 
    7eeb:	48 01 c8             	add    %rcx,%rax
    7eee:	48 63 8c 24 34 01 00 	movslq 0x134(%rsp),%rcx
    7ef5:	00 
    7ef6:	f2 41 0f 11 44 c5 00 	movsd  %xmm0,0x0(%r13,%rax,8)
    7efd:	48 63 84 24 3c 01 00 	movslq 0x13c(%rsp),%rax
    7f04:	00 
    7f05:	48 0f af d5          	imul   %rbp,%rdx
    7f09:	48 0f af c3          	imul   %rbx,%rax
    7f0d:	4c 01 e0             	add    %r12,%rax
    7f10:	48 01 d0             	add    %rdx,%rax
    7f13:	48 63 94 24 68 02 00 	movslq 0x268(%rsp),%rdx
    7f1a:	00 
    7f1b:	48 01 c8             	add    %rcx,%rax
    7f1e:	48 63 8c 24 64 02 00 	movslq 0x264(%rsp),%rcx
    7f25:	00 
    7f26:	f2 41 0f 11 44 c5 00 	movsd  %xmm0,0x0(%r13,%rax,8)
    7f2d:	48 63 84 24 6c 02 00 	movslq 0x26c(%rsp),%rax
    7f34:	00 
    7f35:	48 0f af d5          	imul   %rbp,%rdx
    7f39:	48 0f af c3          	imul   %rbx,%rax
    7f3d:	4c 01 e0             	add    %r12,%rax
    7f40:	48 01 d0             	add    %rdx,%rax
    7f43:	48 63 94 24 58 02 00 	movslq 0x258(%rsp),%rdx
    7f4a:	00 
    7f4b:	48 01 c8             	add    %rcx,%rax
    7f4e:	48 63 8c 24 54 02 00 	movslq 0x254(%rsp),%rcx
    7f55:	00 
    7f56:	49 89 7c c5 00       	mov    %rdi,0x0(%r13,%rax,8)
    7f5b:	48 63 84 24 5c 02 00 	movslq 0x25c(%rsp),%rax
    7f62:	00 
    7f63:	48 0f af c3          	imul   %rbx,%rax
    7f67:	48 0f af d5          	imul   %rbp,%rdx
    7f6b:	4c 01 e0             	add    %r12,%rax
    7f6e:	48 01 d0             	add    %rdx,%rax
    7f71:	48 63 94 24 48 02 00 	movslq 0x248(%rsp),%rdx
    7f78:	00 
    7f79:	48 01 c8             	add    %rcx,%rax
    7f7c:	48 63 8c 24 44 02 00 	movslq 0x244(%rsp),%rcx
    7f83:	00 
    7f84:	49 89 7c c5 00       	mov    %rdi,0x0(%r13,%rax,8)
    7f89:	48 63 84 24 4c 02 00 	movslq 0x24c(%rsp),%rax
    7f90:	00 
    7f91:	48 0f af d5          	imul   %rbp,%rdx
    7f95:	48 0f af c3          	imul   %rbx,%rax
    7f99:	4c 01 e0             	add    %r12,%rax
    7f9c:	48 01 d0             	add    %rdx,%rax
    7f9f:	48 63 94 24 38 02 00 	movslq 0x238(%rsp),%rdx
    7fa6:	00 
    7fa7:	48 01 c8             	add    %rcx,%rax
    7faa:	48 63 8c 24 34 02 00 	movslq 0x234(%rsp),%rcx
    7fb1:	00 
    7fb2:	49 89 7c c5 00       	mov    %rdi,0x0(%r13,%rax,8)
    7fb7:	48 63 84 24 3c 02 00 	movslq 0x23c(%rsp),%rax
    7fbe:	00 
    7fbf:	48 0f af d5          	imul   %rbp,%rdx
    7fc3:	48 0f af c3          	imul   %rbx,%rax
    7fc7:	4c 01 e0             	add    %r12,%rax
    7fca:	48 01 d0             	add    %rdx,%rax
    7fcd:	48 63 94 24 28 02 00 	movslq 0x228(%rsp),%rdx
    7fd4:	00 
    7fd5:	48 01 c8             	add    %rcx,%rax
    7fd8:	48 63 8c 24 24 02 00 	movslq 0x224(%rsp),%rcx
    7fdf:	00 
    7fe0:	49 89 7c c5 00       	mov    %rdi,0x0(%r13,%rax,8)
    7fe5:	48 63 84 24 2c 02 00 	movslq 0x22c(%rsp),%rax
    7fec:	00 
    7fed:	48 0f af d5          	imul   %rbp,%rdx
    7ff1:	48 0f af c3          	imul   %rbx,%rax
    7ff5:	4c 01 e0             	add    %r12,%rax
    7ff8:	48 01 d0             	add    %rdx,%rax
    7ffb:	48 63 94 24 18 02 00 	movslq 0x218(%rsp),%rdx
    8002:	00 
    8003:	48 01 c8             	add    %rcx,%rax
    8006:	48 63 8c 24 14 02 00 	movslq 0x214(%rsp),%rcx
    800d:	00 
    800e:	49 89 7c c5 00       	mov    %rdi,0x0(%r13,%rax,8)
    8013:	48 63 84 24 1c 02 00 	movslq 0x21c(%rsp),%rax
    801a:	00 
    801b:	48 0f af d5          	imul   %rbp,%rdx
    801f:	48 0f af c3          	imul   %rbx,%rax
    8023:	4c 01 e0             	add    %r12,%rax
    8026:	48 01 d0             	add    %rdx,%rax
    8029:	48 01 c8             	add    %rcx,%rax
    802c:	49 89 7c c5 00       	mov    %rdi,0x0(%r13,%rax,8)
    8031:	48 63 84 24 0c 02 00 	movslq 0x20c(%rsp),%rax
    8038:	00 
    8039:	48 63 94 24 08 02 00 	movslq 0x208(%rsp),%rdx
    8040:	00 
    8041:	48 63 8c 24 04 02 00 	movslq 0x204(%rsp),%rcx
    8048:	00 
    8049:	48 0f af c3          	imul   %rbx,%rax
    804d:	48 8b 74 24 28       	mov    0x28(%rsp),%rsi
    8052:	48 0f af d5          	imul   %rbp,%rdx
    8056:	4c 01 e0             	add    %r12,%rax
    8059:	48 01 d0             	add    %rdx,%rax
    805c:	48 63 94 24 f8 01 00 	movslq 0x1f8(%rsp),%rdx
    8063:	00 
    8064:	48 01 c8             	add    %rcx,%rax
    8067:	48 63 8c 24 f4 01 00 	movslq 0x1f4(%rsp),%rcx
    806e:	00 
    806f:	49 89 7c c5 00       	mov    %rdi,0x0(%r13,%rax,8)
    8074:	48 63 84 24 fc 01 00 	movslq 0x1fc(%rsp),%rax
    807b:	00 
    807c:	48 0f af d5          	imul   %rbp,%rdx
    8080:	48 0f af c3          	imul   %rbx,%rax
    8084:	4c 01 e0             	add    %r12,%rax
    8087:	48 01 d0             	add    %rdx,%rax
    808a:	48 63 94 24 e8 01 00 	movslq 0x1e8(%rsp),%rdx
    8091:	00 
    8092:	48 01 c8             	add    %rcx,%rax
    8095:	48 63 8c 24 e4 01 00 	movslq 0x1e4(%rsp),%rcx
    809c:	00 
    809d:	49 89 7c c5 00       	mov    %rdi,0x0(%r13,%rax,8)
    80a2:	48 63 84 24 ec 01 00 	movslq 0x1ec(%rsp),%rax
    80a9:	00 
    80aa:	48 0f af d5          	imul   %rbp,%rdx
    80ae:	48 0f af c3          	imul   %rbx,%rax
    80b2:	4c 01 e0             	add    %r12,%rax
    80b5:	48 01 d0             	add    %rdx,%rax
    80b8:	48 63 94 24 d8 01 00 	movslq 0x1d8(%rsp),%rdx
    80bf:	00 
    80c0:	48 01 c8             	add    %rcx,%rax
    80c3:	48 63 8c 24 d4 01 00 	movslq 0x1d4(%rsp),%rcx
    80ca:	00 
    80cb:	49 89 7c c5 00       	mov    %rdi,0x0(%r13,%rax,8)
    80d0:	48 63 84 24 dc 01 00 	movslq 0x1dc(%rsp),%rax
    80d7:	00 
    80d8:	48 0f af d5          	imul   %rbp,%rdx
    80dc:	48 0f af c3          	imul   %rbx,%rax
    80e0:	4c 01 e0             	add    %r12,%rax
    80e3:	48 01 d0             	add    %rdx,%rax
    80e6:	31 d2                	xor    %edx,%edx
    80e8:	48 01 c8             	add    %rcx,%rax
    80eb:	49 89 7c c5 00       	mov    %rdi,0x0(%r13,%rax,8)
    80f0:	49 63 06             	movslq (%r14),%rax
    80f3:	48 85 c0             	test   %rax,%rax
    80f6:	48 0f 48 c2          	cmovs  %rdx,%rax
    80fa:	48 63 16             	movslq (%rsi),%rdx
    80fd:	31 c9                	xor    %ecx,%ecx
    80ff:	48 0f af d0          	imul   %rax,%rdx
    8103:	66 48 0f 6e c0       	movq   %rax,%xmm0
    8108:	48 f7 d0             	not    %rax
    810b:	48 85 d2             	test   %rdx,%rdx
    810e:	48 0f 48 d1          	cmovs  %rcx,%rdx
    8112:	66 48 0f 6e ea       	movq   %rdx,%xmm5
    8117:	48 29 d0             	sub    %rdx,%rax
    811a:	8b 15 20 90 00 00    	mov    0x9020(%rip),%edx        # 11140 <__mg_data_MOD_timeron>
    8120:	66 0f 6c c5          	punpcklqdq %xmm5,%xmm0
    8124:	48 89 c3             	mov    %rax,%rbx
    8127:	85 d2                	test   %edx,%edx
    8129:	75 65                	jne    8190 <zran3_+0x9a0>
    812b:	66 0f 6f 74 24 10    	movdqa 0x10(%rsp),%xmm6
    8131:	66 0f 6f 7c 24 70    	movdqa 0x70(%rsp),%xmm7
    8137:	31 c9                	xor    %ecx,%ecx
    8139:	31 d2                	xor    %edx,%edx
    813b:	4c 89 fe             	mov    %r15,%rsi
    813e:	48 8d 3d 8b e0 ff ff 	lea    -0x1f75(%rip),%rdi        # 61d0 <comm3_._omp_fn.0>
    8145:	48 89 9c 24 10 01 00 	mov    %rbx,0x110(%rsp)
    814c:	00 
    814d:	0f 29 84 24 00 01 00 	movaps %xmm0,0x100(%rsp)
    8154:	00 
    8155:	0f 29 b4 24 e0 00 00 	movaps %xmm6,0xe0(%rsp)
    815c:	00 
    815d:	0f 29 bc 24 f0 00 00 	movaps %xmm7,0xf0(%rsp)
    8164:	00 
    8165:	e8 96 a0 ff ff       	call   2200 <GOMP_parallel@plt>
    816a:	8b 05 d0 8f 00 00    	mov    0x8fd0(%rip),%eax        # 11140 <__mg_data_MOD_timeron>
    8170:	85 c0                	test   %eax,%eax
    8172:	75 3c                	jne    81b0 <zran3_+0x9c0>
    8174:	48 81 c4 78 02 00 00 	add    $0x278,%rsp
    817b:	5b                   	pop    %rbx
    817c:	5d                   	pop    %rbp
    817d:	41 5c                	pop    %r12
    817f:	41 5d                	pop    %r13
    8181:	41 5e                	pop    %r14
    8183:	41 5f                	pop    %r15
    8185:	c3                   	ret    
    8186:	66 2e 0f 1f 84 00 00 	cs nopw 0x0(%rax,%rax,1)
    818d:	00 00 00 
    8190:	48 8d 3d 85 5e 00 00 	lea    0x5e85(%rip),%rdi        # e01c <_IO_stdin_used+0x1c>
    8197:	0f 29 04 24          	movaps %xmm0,(%rsp)
    819b:	e8 e0 50 00 00       	call   d280 <timer_start_>
    81a0:	66 0f 6f 04 24       	movdqa (%rsp),%xmm0
    81a5:	eb 84                	jmp    812b <zran3_+0x93b>
    81a7:	66 0f 1f 84 00 00 00 	nopw   0x0(%rax,%rax,1)
    81ae:	00 00 
    81b0:	48 8d 3d 65 5e 00 00 	lea    0x5e65(%rip),%rdi        # e01c <_IO_stdin_used+0x1c>
    81b7:	e8 e4 50 00 00       	call   d2a0 <timer_stop_>
    81bc:	eb b6                	jmp    8174 <zran3_+0x984>
    81be:	66 90                	xchg   %ax,%ax
    81c0:	48 8b 05 e9 64 00 00 	mov    0x64e9(%rip),%rax        # e6b0 <options.163.0+0x610>
    81c7:	4c 8d bc 24 e0 00 00 	lea    0xe0(%rsp),%r15
    81ce:	00 
    81cf:	48 89 84 24 c0 00 00 	mov    %rax,0xc0(%rsp)
    81d6:	00 
    81d7:	66 48 0f 6e c0       	movq   %rax,%xmm0
    81dc:	48 8d 84 24 30 01 00 	lea    0x130(%rsp),%rax
    81e3:	00 
    81e4:	48 89 04 24          	mov    %rax,(%rsp)
    81e8:	e9 ec f7 ff ff       	jmp    79d9 <zran3_+0x1e9>
    81ed:	0f 1f 00             	nopl   (%rax)
    81f0:	48 8b 05 b9 64 00 00 	mov    0x64b9(%rip),%rax        # e6b0 <options.163.0+0x610>
    81f7:	66 48 0f 6e c0       	movq   %rax,%xmm0
    81fc:	e9 2a f9 ff ff       	jmp    7b2b <zran3_+0x33b>
    8201:	48 8b 05 a8 64 00 00 	mov    0x64a8(%rip),%rax        # e6b0 <options.163.0+0x610>
    8208:	66 48 0f 6e c0       	movq   %rax,%xmm0
    820d:	e9 c7 f7 ff ff       	jmp    79d9 <zran3_+0x1e9>
    8212:	66 66 2e 0f 1f 84 00 	data16 cs nopw 0x0(%rax,%rax,1)
    8219:	00 00 00 00 
    821d:	0f 1f 00             	nopl   (%rax)

0000000000008220 <zero3_>:
    8220:	48 83 ec 38          	sub    $0x38,%rsp
    8224:	48 63 06             	movslq (%rsi),%rax
    8227:	49 89 c8             	mov    %rcx,%r8
    822a:	31 c9                	xor    %ecx,%ecx
    822c:	48 63 12             	movslq (%rdx),%rdx
    822f:	66 41 0f 6e 00       	movd   (%r8),%xmm0
    8234:	66 48 0f 6e de       	movq   %rsi,%xmm3
    8239:	48 89 e6             	mov    %rsp,%rsi
    823c:	48 85 c0             	test   %rax,%rax
    823f:	48 0f 48 c1          	cmovs  %rcx,%rax
    8243:	48 89 d1             	mov    %rdx,%rcx
    8246:	45 31 c9             	xor    %r9d,%r9d
    8249:	66 0f 6e c9          	movd   %ecx,%xmm1
    824d:	48 0f af d0          	imul   %rax,%rdx
    8251:	66 0f 62 c1          	punpckldq %xmm1,%xmm0
    8255:	48 89 c1             	mov    %rax,%rcx
    8258:	66 0f d6 44 24 28    	movq   %xmm0,0x28(%rsp)
    825e:	66 48 0f 6e c0       	movq   %rax,%xmm0
    8263:	48 f7 d1             	not    %rcx
    8266:	48 85 d2             	test   %rdx,%rdx
    8269:	49 0f 48 d1          	cmovs  %r9,%rdx
    826d:	66 48 0f 6e d2       	movq   %rdx,%xmm2
    8272:	48 29 d1             	sub    %rdx,%rcx
    8275:	31 d2                	xor    %edx,%edx
    8277:	66 0f 6c c2          	punpcklqdq %xmm2,%xmm0
    827b:	48 89 4c 24 20       	mov    %rcx,0x20(%rsp)
    8280:	31 c9                	xor    %ecx,%ecx
    8282:	0f 29 44 24 10       	movaps %xmm0,0x10(%rsp)
    8287:	66 48 0f 6e c7       	movq   %rdi,%xmm0
    828c:	48 8d 3d cd ae ff ff 	lea    -0x5133(%rip),%rdi        # 3160 <zero3_._omp_fn.0>
    8293:	66 0f 6c c3          	punpcklqdq %xmm3,%xmm0
    8297:	0f 29 04 24          	movaps %xmm0,(%rsp)
    829b:	e8 60 9f ff ff       	call   2200 <GOMP_parallel@plt>
    82a0:	48 83 c4 38          	add    $0x38,%rsp
    82a4:	c3                   	ret    
    82a5:	66 66 2e 0f 1f 84 00 	data16 cs nopw 0x0(%rax,%rax,1)
    82ac:	00 00 00 00 

00000000000082b0 <setup_>:
    82b0:	41 57                	push   %r15
    82b2:	4c 8d 0d 47 af 00 00 	lea    0xaf47(%rip),%r9        # 13200 <__mg_data_MOD_nx>
    82b9:	4c 8d 05 00 af 00 00 	lea    0xaf00(%rip),%r8        # 131c0 <__mg_data_MOD_ny>
    82c0:	41 56                	push   %r14
    82c2:	4c 8d 15 b7 ae 00 00 	lea    0xaeb7(%rip),%r10        # 13180 <__mg_data_MOD_nz>
    82c9:	41 55                	push   %r13
    82cb:	41 54                	push   %r12
    82cd:	55                   	push   %rbp
    82ce:	53                   	push   %rbx
    82cf:	48 81 ec 88 03 00 00 	sub    $0x388,%rsp
    82d6:	48 89 7c 24 28       	mov    %rdi,0x28(%rsp)
    82db:	48 63 3d 0a b0 00 00 	movslq 0xb00a(%rip),%rdi        # 132ec <__mg_data_MOD_lt>
    82e2:	48 89 4c 24 08       	mov    %rcx,0x8(%rsp)
    82e7:	48 8d 4f ff          	lea    -0x1(%rdi),%rcx
    82eb:	48 89 54 24 38       	mov    %rdx,0x38(%rsp)
    82f0:	48 89 f8             	mov    %rdi,%rax
    82f3:	66 41 0f 6e 04 89    	movd   (%r9,%rcx,4),%xmm0
    82f9:	66 41 0f 6e 14 88    	movd   (%r8,%rcx,4),%xmm2
    82ff:	48 8d 14 49          	lea    (%rcx,%rcx,2),%rdx
    8303:	48 89 74 24 30       	mov    %rsi,0x30(%rsp)
    8308:	48 8d 5a 01          	lea    0x1(%rdx),%rbx
    830c:	66 0f 62 c2          	punpckldq %xmm2,%xmm0
    8310:	48 89 5c 24 20       	mov    %rbx,0x20(%rsp)
    8315:	48 8d 5a 02          	lea    0x2(%rdx),%rbx
    8319:	66 0f d6 84 94 e0 00 	movq   %xmm0,0xe0(%rsp,%rdx,4)
    8320:	00 00 
    8322:	41 8b 34 8a          	mov    (%r10,%rcx,4),%esi
    8326:	48 89 5c 24 18       	mov    %rbx,0x18(%rsp)
    832b:	89 b4 9c e0 00 00 00 	mov    %esi,0xe0(%rsp,%rbx,4)
    8332:	8d 5f ff             	lea    -0x1(%rdi),%ebx
    8335:	89 5c 24 40          	mov    %ebx,0x40(%rsp)
    8339:	85 db                	test   %ebx,%ebx
    833b:	0f 8e f8 0d 00 00    	jle    9139 <setup_+0xe89>
    8341:	48 8d 74 7f 01       	lea    0x1(%rdi,%rdi,2),%rsi
    8346:	41 89 ff             	mov    %edi,%r15d
    8349:	48 8d 5a fd          	lea    -0x3(%rdx),%rbx
    834d:	8b b4 b4 d0 00 00 00 	mov    0xd0(%rsp,%rsi,4),%esi
    8354:	41 89 f3             	mov    %esi,%r11d
    8357:	41 c1 eb 1f          	shr    $0x1f,%r11d
    835b:	41 01 f3             	add    %esi,%r11d
    835e:	41 d1 fb             	sar    %r11d
    8361:	41 83 ef 02          	sub    $0x2,%r15d
    8365:	44 89 9c 9c e0 00 00 	mov    %r11d,0xe0(%rsp,%rbx,4)
    836c:	00 
    836d:	44 89 7c 24 14       	mov    %r15d,0x14(%rsp)
    8372:	0f 84 20 01 00 00    	je     8498 <setup_+0x1e8>
    8378:	85 f6                	test   %esi,%esi
    837a:	44 8d 5e 03          	lea    0x3(%rsi),%r11d
    837e:	44 0f 49 de          	cmovns %esi,%r11d
    8382:	41 c1 fb 02          	sar    $0x2,%r11d
    8386:	44 89 9c 94 c8 00 00 	mov    %r11d,0xc8(%rsp,%rdx,4)
    838d:	00 
    838e:	83 ff 03             	cmp    $0x3,%edi
    8391:	0f 84 01 01 00 00    	je     8498 <setup_+0x1e8>
    8397:	85 f6                	test   %esi,%esi
    8399:	44 8d 5e 07          	lea    0x7(%rsi),%r11d
    839d:	44 0f 49 de          	cmovns %esi,%r11d
    83a1:	41 c1 fb 03          	sar    $0x3,%r11d
    83a5:	44 89 9c 94 bc 00 00 	mov    %r11d,0xbc(%rsp,%rdx,4)
    83ac:	00 
    83ad:	83 ff 04             	cmp    $0x4,%edi
    83b0:	0f 84 e2 00 00 00    	je     8498 <setup_+0x1e8>
    83b6:	85 f6                	test   %esi,%esi
    83b8:	44 8d 5e 0f          	lea    0xf(%rsi),%r11d
    83bc:	44 0f 49 de          	cmovns %esi,%r11d
    83c0:	41 c1 fb 04          	sar    $0x4,%r11d
    83c4:	44 89 9c 94 b0 00 00 	mov    %r11d,0xb0(%rsp,%rdx,4)
    83cb:	00 
    83cc:	83 ff 05             	cmp    $0x5,%edi
    83cf:	0f 84 c3 00 00 00    	je     8498 <setup_+0x1e8>
    83d5:	85 f6                	test   %esi,%esi
    83d7:	44 8d 5e 1f          	lea    0x1f(%rsi),%r11d
    83db:	44 0f 49 de          	cmovns %esi,%r11d
    83df:	41 c1 fb 05          	sar    $0x5,%r11d
    83e3:	44 89 9c 94 a4 00 00 	mov    %r11d,0xa4(%rsp,%rdx,4)
    83ea:	00 
    83eb:	83 ff 06             	cmp    $0x6,%edi
    83ee:	0f 84 a4 00 00 00    	je     8498 <setup_+0x1e8>
    83f4:	85 f6                	test   %esi,%esi
    83f6:	44 8d 5e 3f          	lea    0x3f(%rsi),%r11d
    83fa:	44 0f 49 de          	cmovns %esi,%r11d
    83fe:	41 c1 fb 06          	sar    $0x6,%r11d
    8402:	44 89 9c 94 98 00 00 	mov    %r11d,0x98(%rsp,%rdx,4)
    8409:	00 
    840a:	83 ff 07             	cmp    $0x7,%edi
    840d:	0f 84 85 00 00 00    	je     8498 <setup_+0x1e8>
    8413:	85 f6                	test   %esi,%esi
    8415:	44 8d 5e 7f          	lea    0x7f(%rsi),%r11d
    8419:	44 0f 49 de          	cmovns %esi,%r11d
    841d:	41 c1 fb 07          	sar    $0x7,%r11d
    8421:	44 89 9c 94 8c 00 00 	mov    %r11d,0x8c(%rsp,%rdx,4)
    8428:	00 
    8429:	83 ff 08             	cmp    $0x8,%edi
    842c:	74 6a                	je     8498 <setup_+0x1e8>
    842e:	85 f6                	test   %esi,%esi
    8430:	44 8d 9e ff 00 00 00 	lea    0xff(%rsi),%r11d
    8437:	44 0f 49 de          	cmovns %esi,%r11d
    843b:	41 c1 fb 08          	sar    $0x8,%r11d
    843f:	44 89 9c 94 80 00 00 	mov    %r11d,0x80(%rsp,%rdx,4)
    8446:	00 
    8447:	83 ff 09             	cmp    $0x9,%edi
    844a:	74 4c                	je     8498 <setup_+0x1e8>
    844c:	85 f6                	test   %esi,%esi
    844e:	44 8d 9e ff 01 00 00 	lea    0x1ff(%rsi),%r11d
    8455:	44 0f 49 de          	cmovns %esi,%r11d
    8459:	41 c1 fb 09          	sar    $0x9,%r11d
    845d:	44 89 5c 94 74       	mov    %r11d,0x74(%rsp,%rdx,4)
    8462:	83 ff 0a             	cmp    $0xa,%edi
    8465:	74 31                	je     8498 <setup_+0x1e8>
    8467:	85 f6                	test   %esi,%esi
    8469:	44 8d 9e ff 03 00 00 	lea    0x3ff(%rsi),%r11d
    8470:	44 0f 49 de          	cmovns %esi,%r11d
    8474:	41 c1 fb 0a          	sar    $0xa,%r11d
    8478:	44 89 5c 94 68       	mov    %r11d,0x68(%rsp,%rdx,4)
    847d:	83 ff 0b             	cmp    $0xb,%edi
    8480:	74 16                	je     8498 <setup_+0x1e8>
    8482:	85 f6                	test   %esi,%esi
    8484:	44 8d 9e ff 07 00 00 	lea    0x7ff(%rsi),%r11d
    848b:	44 0f 49 de          	cmovns %esi,%r11d
    848f:	41 c1 fb 0b          	sar    $0xb,%r11d
    8493:	44 89 5c 94 5c       	mov    %r11d,0x5c(%rsp,%rdx,4)
    8498:	48 8d 74 7f 02       	lea    0x2(%rdi,%rdi,2),%rsi
    849d:	8b 6c 24 14          	mov    0x14(%rsp),%ebp
    84a1:	4c 8d 6a fe          	lea    -0x2(%rdx),%r13
    84a5:	8b b4 b4 d0 00 00 00 	mov    0xd0(%rsp,%rsi,4),%esi
    84ac:	41 89 f3             	mov    %esi,%r11d
    84af:	41 c1 eb 1f          	shr    $0x1f,%r11d
    84b3:	41 01 f3             	add    %esi,%r11d
    84b6:	41 d1 fb             	sar    %r11d
    84b9:	46 89 9c ac e0 00 00 	mov    %r11d,0xe0(%rsp,%r13,4)
    84c0:	00 
    84c1:	85 ed                	test   %ebp,%ebp
    84c3:	0f 84 20 01 00 00    	je     85e9 <setup_+0x339>
    84c9:	85 f6                	test   %esi,%esi
    84cb:	44 8d 5e 03          	lea    0x3(%rsi),%r11d
    84cf:	44 0f 49 de          	cmovns %esi,%r11d
    84d3:	41 c1 fb 02          	sar    $0x2,%r11d
    84d7:	44 89 9c 94 cc 00 00 	mov    %r11d,0xcc(%rsp,%rdx,4)
    84de:	00 
    84df:	83 f8 03             	cmp    $0x3,%eax
    84e2:	0f 84 01 01 00 00    	je     85e9 <setup_+0x339>
    84e8:	85 f6                	test   %esi,%esi
    84ea:	44 8d 5e 07          	lea    0x7(%rsi),%r11d
    84ee:	44 0f 49 de          	cmovns %esi,%r11d
    84f2:	41 c1 fb 03          	sar    $0x3,%r11d
    84f6:	44 89 9c 94 c0 00 00 	mov    %r11d,0xc0(%rsp,%rdx,4)
    84fd:	00 
    84fe:	83 f8 04             	cmp    $0x4,%eax
    8501:	0f 84 e2 00 00 00    	je     85e9 <setup_+0x339>
    8507:	85 f6                	test   %esi,%esi
    8509:	44 8d 5e 0f          	lea    0xf(%rsi),%r11d
    850d:	44 0f 49 de          	cmovns %esi,%r11d
    8511:	41 c1 fb 04          	sar    $0x4,%r11d
    8515:	44 89 9c 94 b4 00 00 	mov    %r11d,0xb4(%rsp,%rdx,4)
    851c:	00 
    851d:	83 f8 05             	cmp    $0x5,%eax
    8520:	0f 84 c3 00 00 00    	je     85e9 <setup_+0x339>
    8526:	85 f6                	test   %esi,%esi
    8528:	44 8d 5e 1f          	lea    0x1f(%rsi),%r11d
    852c:	44 0f 49 de          	cmovns %esi,%r11d
    8530:	41 c1 fb 05          	sar    $0x5,%r11d
    8534:	44 89 9c 94 a8 00 00 	mov    %r11d,0xa8(%rsp,%rdx,4)
    853b:	00 
    853c:	83 f8 06             	cmp    $0x6,%eax
    853f:	0f 84 a4 00 00 00    	je     85e9 <setup_+0x339>
    8545:	85 f6                	test   %esi,%esi
    8547:	44 8d 5e 3f          	lea    0x3f(%rsi),%r11d
    854b:	44 0f 49 de          	cmovns %esi,%r11d
    854f:	41 c1 fb 06          	sar    $0x6,%r11d
    8553:	44 89 9c 94 9c 00 00 	mov    %r11d,0x9c(%rsp,%rdx,4)
    855a:	00 
    855b:	83 f8 07             	cmp    $0x7,%eax
    855e:	0f 84 85 00 00 00    	je     85e9 <setup_+0x339>
    8564:	85 f6                	test   %esi,%esi
    8566:	44 8d 5e 7f          	lea    0x7f(%rsi),%r11d
    856a:	44 0f 49 de          	cmovns %esi,%r11d
    856e:	41 c1 fb 07          	sar    $0x7,%r11d
    8572:	44 89 9c 94 90 00 00 	mov    %r11d,0x90(%rsp,%rdx,4)
    8579:	00 
    857a:	83 f8 08             	cmp    $0x8,%eax
    857d:	74 6a                	je     85e9 <setup_+0x339>
    857f:	85 f6                	test   %esi,%esi
    8581:	44 8d 9e ff 00 00 00 	lea    0xff(%rsi),%r11d
    8588:	44 0f 49 de          	cmovns %esi,%r11d
    858c:	41 c1 fb 08          	sar    $0x8,%r11d
    8590:	44 89 9c 94 84 00 00 	mov    %r11d,0x84(%rsp,%rdx,4)
    8597:	00 
    8598:	83 f8 09             	cmp    $0x9,%eax
    859b:	74 4c                	je     85e9 <setup_+0x339>
    859d:	85 f6                	test   %esi,%esi
    859f:	44 8d 9e ff 01 00 00 	lea    0x1ff(%rsi),%r11d
    85a6:	44 0f 49 de          	cmovns %esi,%r11d
    85aa:	41 c1 fb 09          	sar    $0x9,%r11d
    85ae:	44 89 5c 94 78       	mov    %r11d,0x78(%rsp,%rdx,4)
    85b3:	83 f8 0a             	cmp    $0xa,%eax
    85b6:	74 31                	je     85e9 <setup_+0x339>
    85b8:	85 f6                	test   %esi,%esi
    85ba:	44 8d 9e ff 03 00 00 	lea    0x3ff(%rsi),%r11d
    85c1:	44 0f 49 de          	cmovns %esi,%r11d
    85c5:	41 c1 fb 0a          	sar    $0xa,%r11d
    85c9:	44 89 5c 94 6c       	mov    %r11d,0x6c(%rsp,%rdx,4)
    85ce:	83 f8 0b             	cmp    $0xb,%eax
    85d1:	74 16                	je     85e9 <setup_+0x339>
    85d3:	85 f6                	test   %esi,%esi
    85d5:	44 8d 9e ff 07 00 00 	lea    0x7ff(%rsi),%r11d
    85dc:	44 0f 49 de          	cmovns %esi,%r11d
    85e0:	41 c1 fb 0b          	sar    $0xb,%r11d
    85e4:	44 89 5c 94 60       	mov    %r11d,0x60(%rsp,%rdx,4)
    85e9:	48 8d 74 7f 03       	lea    0x3(%rdi,%rdi,2),%rsi
    85ee:	48 8d 6a ff          	lea    -0x1(%rdx),%rbp
    85f2:	8b b4 b4 d0 00 00 00 	mov    0xd0(%rsp,%rsi,4),%esi
    85f9:	41 89 f3             	mov    %esi,%r11d
    85fc:	41 c1 eb 1f          	shr    $0x1f,%r11d
    8600:	41 01 f3             	add    %esi,%r11d
    8603:	41 d1 fb             	sar    %r11d
    8606:	44 89 9c ac e0 00 00 	mov    %r11d,0xe0(%rsp,%rbp,4)
    860d:	00 
    860e:	44 8b 5c 24 14       	mov    0x14(%rsp),%r11d
    8613:	45 85 db             	test   %r11d,%r11d
    8616:	0f 84 20 01 00 00    	je     873c <setup_+0x48c>
    861c:	85 f6                	test   %esi,%esi
    861e:	44 8d 5e 03          	lea    0x3(%rsi),%r11d
    8622:	44 0f 49 de          	cmovns %esi,%r11d
    8626:	41 c1 fb 02          	sar    $0x2,%r11d
    862a:	44 89 9c 94 d0 00 00 	mov    %r11d,0xd0(%rsp,%rdx,4)
    8631:	00 
    8632:	83 f8 03             	cmp    $0x3,%eax
    8635:	0f 84 01 01 00 00    	je     873c <setup_+0x48c>
    863b:	85 f6                	test   %esi,%esi
    863d:	44 8d 5e 07          	lea    0x7(%rsi),%r11d
    8641:	44 0f 49 de          	cmovns %esi,%r11d
    8645:	41 c1 fb 03          	sar    $0x3,%r11d
    8649:	44 89 9c 94 c4 00 00 	mov    %r11d,0xc4(%rsp,%rdx,4)
    8650:	00 
    8651:	83 f8 04             	cmp    $0x4,%eax
    8654:	0f 84 e2 00 00 00    	je     873c <setup_+0x48c>
    865a:	85 f6                	test   %esi,%esi
    865c:	44 8d 5e 0f          	lea    0xf(%rsi),%r11d
    8660:	44 0f 49 de          	cmovns %esi,%r11d
    8664:	41 c1 fb 04          	sar    $0x4,%r11d
    8668:	44 89 9c 94 b8 00 00 	mov    %r11d,0xb8(%rsp,%rdx,4)
    866f:	00 
    8670:	83 f8 05             	cmp    $0x5,%eax
    8673:	0f 84 c3 00 00 00    	je     873c <setup_+0x48c>
    8679:	85 f6                	test   %esi,%esi
    867b:	44 8d 5e 1f          	lea    0x1f(%rsi),%r11d
    867f:	44 0f 49 de          	cmovns %esi,%r11d
    8683:	41 c1 fb 05          	sar    $0x5,%r11d
    8687:	44 89 9c 94 ac 00 00 	mov    %r11d,0xac(%rsp,%rdx,4)
    868e:	00 
    868f:	83 f8 06             	cmp    $0x6,%eax
    8692:	0f 84 a4 00 00 00    	je     873c <setup_+0x48c>
    8698:	85 f6                	test   %esi,%esi
    869a:	44 8d 5e 3f          	lea    0x3f(%rsi),%r11d
    869e:	44 0f 49 de          	cmovns %esi,%r11d
    86a2:	41 c1 fb 06          	sar    $0x6,%r11d
    86a6:	44 89 9c 94 a0 00 00 	mov    %r11d,0xa0(%rsp,%rdx,4)
    86ad:	00 
    86ae:	83 f8 07             	cmp    $0x7,%eax
    86b1:	0f 84 85 00 00 00    	je     873c <setup_+0x48c>
    86b7:	85 f6                	test   %esi,%esi
    86b9:	44 8d 5e 7f          	lea    0x7f(%rsi),%r11d
    86bd:	44 0f 49 de          	cmovns %esi,%r11d
    86c1:	41 c1 fb 07          	sar    $0x7,%r11d
    86c5:	44 89 9c 94 94 00 00 	mov    %r11d,0x94(%rsp,%rdx,4)
    86cc:	00 
    86cd:	83 f8 08             	cmp    $0x8,%eax
    86d0:	74 6a                	je     873c <setup_+0x48c>
    86d2:	85 f6                	test   %esi,%esi
    86d4:	44 8d 9e ff 00 00 00 	lea    0xff(%rsi),%r11d
    86db:	44 0f 49 de          	cmovns %esi,%r11d
    86df:	41 c1 fb 08          	sar    $0x8,%r11d
    86e3:	44 89 9c 94 88 00 00 	mov    %r11d,0x88(%rsp,%rdx,4)
    86ea:	00 
    86eb:	83 f8 09             	cmp    $0x9,%eax
    86ee:	74 4c                	je     873c <setup_+0x48c>
    86f0:	85 f6                	test   %esi,%esi
    86f2:	44 8d 9e ff 01 00 00 	lea    0x1ff(%rsi),%r11d
    86f9:	44 0f 49 de          	cmovns %esi,%r11d
    86fd:	41 c1 fb 09          	sar    $0x9,%r11d
    8701:	44 89 5c 94 7c       	mov    %r11d,0x7c(%rsp,%rdx,4)
    8706:	83 f8 0a             	cmp    $0xa,%eax
    8709:	74 31                	je     873c <setup_+0x48c>
    870b:	85 f6                	test   %esi,%esi
    870d:	44 8d 9e ff 03 00 00 	lea    0x3ff(%rsi),%r11d
    8714:	44 0f 49 de          	cmovns %esi,%r11d
    8718:	41 c1 fb 0a          	sar    $0xa,%r11d
    871c:	44 89 5c 94 70       	mov    %r11d,0x70(%rsp,%rdx,4)
    8721:	83 f8 0b             	cmp    $0xb,%eax
    8724:	74 16                	je     873c <setup_+0x48c>
    8726:	85 f6                	test   %esi,%esi
    8728:	44 8d 9e ff 07 00 00 	lea    0x7ff(%rsi),%r11d
    872f:	44 0f 49 de          	cmovns %esi,%r11d
    8733:	41 c1 fb 0b          	sar    $0xb,%r11d
    8737:	44 89 5c 94 64       	mov    %r11d,0x64(%rsp,%rdx,4)
    873c:	48 8b 74 24 08       	mov    0x8(%rsp),%rsi
    8741:	89 06                	mov    %eax,(%rsi)
    8743:	85 c0                	test   %eax,%eax
    8745:	0f 8e 8a 05 00 00    	jle    8cd5 <setup_+0xa25>
    874b:	8b b4 94 e0 00 00 00 	mov    0xe0(%rsp,%rdx,4),%esi
    8752:	4c 8d 5f fe          	lea    -0x2(%rdi),%r11
    8756:	44 8b 64 24 14       	mov    0x14(%rsp),%r12d
    875b:	41 89 34 89          	mov    %esi,(%r9,%rcx,4)
    875f:	89 74 24 4c          	mov    %esi,0x4c(%rsp)
    8763:	48 8b 74 24 20       	mov    0x20(%rsp),%rsi
    8768:	8b b4 b4 e0 00 00 00 	mov    0xe0(%rsp,%rsi,4),%esi
    876f:	41 89 34 88          	mov    %esi,(%r8,%rcx,4)
    8773:	89 74 24 48          	mov    %esi,0x48(%rsp)
    8777:	48 8b 74 24 18       	mov    0x18(%rsp),%rsi
    877c:	8b b4 b4 e0 00 00 00 	mov    0xe0(%rsp,%rsi,4),%esi
    8783:	41 89 34 8a          	mov    %esi,(%r10,%rcx,4)
    8787:	89 74 24 44          	mov    %esi,0x44(%rsp)
    878b:	4b 8d 34 5b          	lea    (%r11,%r11,2),%rsi
    878f:	44 8b b4 b4 e0 00 00 	mov    0xe0(%rsp,%rsi,4),%r14d
    8796:	00 
    8797:	47 89 34 99          	mov    %r14d,(%r9,%r11,4)
    879b:	46 8b b4 ac e0 00 00 	mov    0xe0(%rsp,%r13,4),%r14d
    87a2:	00 
    87a3:	47 89 34 98          	mov    %r14d,(%r8,%r11,4)
    87a7:	44 8b b4 ac e0 00 00 	mov    0xe0(%rsp,%rbp,4),%r14d
    87ae:	00 
    87af:	47 89 34 9a          	mov    %r14d,(%r10,%r11,4)
    87b3:	45 85 e4             	test   %r12d,%r12d
    87b6:	0f 84 b9 01 00 00    	je     8975 <setup_+0x6c5>
    87bc:	44 8b a4 b4 d4 00 00 	mov    0xd4(%rsp,%rsi,4),%r12d
    87c3:	00 
    87c4:	44 8d 78 fd          	lea    -0x3(%rax),%r15d
    87c8:	4d 63 f7             	movslq %r15d,%r14
    87cb:	47 89 24 b1          	mov    %r12d,(%r9,%r14,4)
    87cf:	44 8b a4 b4 d8 00 00 	mov    0xd8(%rsp,%rsi,4),%r12d
    87d6:	00 
    87d7:	47 89 24 b0          	mov    %r12d,(%r8,%r14,4)
    87db:	44 8b a4 b4 dc 00 00 	mov    0xdc(%rsp,%rsi,4),%r12d
    87e2:	00 
    87e3:	47 89 24 b2          	mov    %r12d,(%r10,%r14,4)
    87e7:	45 85 ff             	test   %r15d,%r15d
    87ea:	0f 84 85 01 00 00    	je     8975 <setup_+0x6c5>
    87f0:	44 8b a4 b4 c8 00 00 	mov    0xc8(%rsp,%rsi,4),%r12d
    87f7:	00 
    87f8:	44 8d 78 fc          	lea    -0x4(%rax),%r15d
    87fc:	4d 63 f7             	movslq %r15d,%r14
    87ff:	47 89 24 b1          	mov    %r12d,(%r9,%r14,4)
    8803:	44 8b a4 b4 cc 00 00 	mov    0xcc(%rsp,%rsi,4),%r12d
    880a:	00 
    880b:	47 89 24 b0          	mov    %r12d,(%r8,%r14,4)
    880f:	44 8b a4 b4 d0 00 00 	mov    0xd0(%rsp,%rsi,4),%r12d
    8816:	00 
    8817:	47 89 24 b2          	mov    %r12d,(%r10,%r14,4)
    881b:	45 85 ff             	test   %r15d,%r15d
    881e:	0f 84 51 01 00 00    	je     8975 <setup_+0x6c5>
    8824:	44 8b a4 b4 bc 00 00 	mov    0xbc(%rsp,%rsi,4),%r12d
    882b:	00 
    882c:	44 8d 78 fb          	lea    -0x5(%rax),%r15d
    8830:	4d 63 f7             	movslq %r15d,%r14
    8833:	47 89 24 b1          	mov    %r12d,(%r9,%r14,4)
    8837:	44 8b a4 b4 c0 00 00 	mov    0xc0(%rsp,%rsi,4),%r12d
    883e:	00 
    883f:	47 89 24 b0          	mov    %r12d,(%r8,%r14,4)
    8843:	44 8b a4 b4 c4 00 00 	mov    0xc4(%rsp,%rsi,4),%r12d
    884a:	00 
    884b:	47 89 24 b2          	mov    %r12d,(%r10,%r14,4)
    884f:	45 85 ff             	test   %r15d,%r15d
    8852:	0f 84 1d 01 00 00    	je     8975 <setup_+0x6c5>
    8858:	44 8b a4 b4 b0 00 00 	mov    0xb0(%rsp,%rsi,4),%r12d
    885f:	00 
    8860:	44 8d 78 fa          	lea    -0x6(%rax),%r15d
    8864:	4d 63 f7             	movslq %r15d,%r14
    8867:	47 89 24 b1          	mov    %r12d,(%r9,%r14,4)
    886b:	44 8b a4 b4 b4 00 00 	mov    0xb4(%rsp,%rsi,4),%r12d
    8872:	00 
    8873:	47 89 24 b0          	mov    %r12d,(%r8,%r14,4)
    8877:	44 8b a4 b4 b8 00 00 	mov    0xb8(%rsp,%rsi,4),%r12d
    887e:	00 
    887f:	47 89 24 b2          	mov    %r12d,(%r10,%r14,4)
    8883:	45 85 ff             	test   %r15d,%r15d
    8886:	0f 84 e9 00 00 00    	je     8975 <setup_+0x6c5>
    888c:	44 8b a4 b4 a4 00 00 	mov    0xa4(%rsp,%rsi,4),%r12d
    8893:	00 
    8894:	44 8d 78 f9          	lea    -0x7(%rax),%r15d
    8898:	4d 63 f7             	movslq %r15d,%r14
    889b:	47 89 24 b1          	mov    %r12d,(%r9,%r14,4)
    889f:	44 8b a4 b4 a8 00 00 	mov    0xa8(%rsp,%rsi,4),%r12d
    88a6:	00 
    88a7:	47 89 24 b0          	mov    %r12d,(%r8,%r14,4)
    88ab:	44 8b a4 b4 ac 00 00 	mov    0xac(%rsp,%rsi,4),%r12d
    88b2:	00 
    88b3:	47 89 24 b2          	mov    %r12d,(%r10,%r14,4)
    88b7:	45 85 ff             	test   %r15d,%r15d
    88ba:	0f 84 b5 00 00 00    	je     8975 <setup_+0x6c5>
    88c0:	44 8b a4 b4 98 00 00 	mov    0x98(%rsp,%rsi,4),%r12d
    88c7:	00 
    88c8:	44 8d 78 f8          	lea    -0x8(%rax),%r15d
    88cc:	4d 63 f7             	movslq %r15d,%r14
    88cf:	47 89 24 b1          	mov    %r12d,(%r9,%r14,4)
    88d3:	44 8b a4 b4 9c 00 00 	mov    0x9c(%rsp,%rsi,4),%r12d
    88da:	00 
    88db:	47 89 24 b0          	mov    %r12d,(%r8,%r14,4)
    88df:	44 8b a4 b4 a0 00 00 	mov    0xa0(%rsp,%rsi,4),%r12d
    88e6:	00 
    88e7:	47 89 24 b2          	mov    %r12d,(%r10,%r14,4)
    88eb:	45 85 ff             	test   %r15d,%r15d
    88ee:	0f 84 81 00 00 00    	je     8975 <setup_+0x6c5>
    88f4:	44 8b a4 b4 8c 00 00 	mov    0x8c(%rsp,%rsi,4),%r12d
    88fb:	00 
    88fc:	44 8d 78 f7          	lea    -0x9(%rax),%r15d
    8900:	4d 63 f7             	movslq %r15d,%r14
    8903:	47 89 24 b1          	mov    %r12d,(%r9,%r14,4)
    8907:	44 8b a4 b4 90 00 00 	mov    0x90(%rsp,%rsi,4),%r12d
    890e:	00 
    890f:	47 89 24 b0          	mov    %r12d,(%r8,%r14,4)
    8913:	44 8b a4 b4 94 00 00 	mov    0x94(%rsp,%rsi,4),%r12d
    891a:	00 
    891b:	47 89 24 b2          	mov    %r12d,(%r10,%r14,4)
    891f:	45 85 ff             	test   %r15d,%r15d
    8922:	74 51                	je     8975 <setup_+0x6c5>
    8924:	44 8b a4 b4 80 00 00 	mov    0x80(%rsp,%rsi,4),%r12d
    892b:	00 
    892c:	44 8d 78 f6          	lea    -0xa(%rax),%r15d
    8930:	4d 63 f7             	movslq %r15d,%r14
    8933:	47 89 24 b1          	mov    %r12d,(%r9,%r14,4)
    8937:	44 8b a4 b4 84 00 00 	mov    0x84(%rsp,%rsi,4),%r12d
    893e:	00 
    893f:	47 89 24 b0          	mov    %r12d,(%r8,%r14,4)
    8943:	44 8b a4 b4 88 00 00 	mov    0x88(%rsp,%rsi,4),%r12d
    894a:	00 
    894b:	47 89 24 b2          	mov    %r12d,(%r10,%r14,4)
    894f:	45 85 ff             	test   %r15d,%r15d
    8952:	74 21                	je     8975 <setup_+0x6c5>
    8954:	44 8b 7c b4 74       	mov    0x74(%rsp,%rsi,4),%r15d
    8959:	44 8d 70 f5          	lea    -0xb(%rax),%r14d
    895d:	4d 63 f6             	movslq %r14d,%r14
    8960:	47 89 3c b1          	mov    %r15d,(%r9,%r14,4)
    8964:	44 8b 4c b4 78       	mov    0x78(%rsp,%rsi,4),%r9d
    8969:	8b 74 b4 7c          	mov    0x7c(%rsp,%rsi,4),%esi
    896d:	47 89 0c b0          	mov    %r9d,(%r8,%r14,4)
    8971:	43 89 34 b2          	mov    %esi,(%r10,%r14,4)
    8975:	44 8b 64 24 4c       	mov    0x4c(%rsp),%r12d
    897a:	8b 74 24 48          	mov    0x48(%rsp),%esi
    897e:	4c 8d 0d 3b a9 00 00 	lea    0xa93b(%rip),%r9        # 132c0 <__mg_data_MOD_m1>
    8985:	4c 8d 05 f4 a8 00 00 	lea    0xa8f4(%rip),%r8        # 13280 <__mg_data_MOD_m2>
    898c:	4c 8b 7c 24 20       	mov    0x20(%rsp),%r15
    8991:	44 8b 54 24 44       	mov    0x44(%rsp),%r10d
    8996:	f3 0f 7e 05 9a 5b 00 	movq   0x5b9a(%rip),%xmm0        # e538 <options.163.0+0x498>
    899d:	00 
    899e:	41 83 c4 02          	add    $0x2,%r12d
    89a2:	83 c6 02             	add    $0x2,%esi
    89a5:	44 89 64 94 50       	mov    %r12d,0x50(%rsp,%rdx,4)
    89aa:	41 83 c2 02          	add    $0x2,%r10d
    89ae:	4c 8d a4 24 e0 00 00 	lea    0xe0(%rsp),%r12
    89b5:	00 
    89b6:	42 89 74 bc 50       	mov    %esi,0x50(%rsp,%r15,4)
    89bb:	48 8b 74 24 18       	mov    0x18(%rsp),%rsi
    89c0:	44 89 54 b4 50       	mov    %r10d,0x50(%rsp,%rsi,4)
    89c5:	8b 74 94 50          	mov    0x50(%rsp,%rdx,4),%esi
    89c9:	41 89 34 89          	mov    %esi,(%r9,%rcx,4)
    89cd:	42 8b 74 bc 50       	mov    0x50(%rsp,%r15,4),%esi
    89d2:	41 89 34 88          	mov    %esi,(%r8,%rcx,4)
    89d6:	48 8d 35 63 a8 00 00 	lea    0xa863(%rip),%rsi        # 13240 <__mg_data_MOD_m3>
    89dd:	44 89 14 8e          	mov    %r10d,(%rsi,%rcx,4)
    89e1:	4c 8d 54 24 50       	lea    0x50(%rsp),%r10
    89e6:	f3 0f 7e 8c 9c e0 00 	movq   0xe0(%rsp,%rbx,4),%xmm1
    89ed:	00 00 
    89ef:	66 0f fe c8          	paddd  %xmm0,%xmm1
    89f3:	66 41 0f d6 0c 9a    	movq   %xmm1,(%r10,%rbx,4)
    89f9:	44 8b bc ac e0 00 00 	mov    0xe0(%rsp,%rbp,4),%r15d
    8a00:	00 
    8a01:	45 8d 77 02          	lea    0x2(%r15),%r14d
    8a05:	44 89 74 ac 50       	mov    %r14d,0x50(%rsp,%rbp,4)
    8a0a:	8b 5c 9c 50          	mov    0x50(%rsp,%rbx,4),%ebx
    8a0e:	46 89 34 9e          	mov    %r14d,(%rsi,%r11,4)
    8a12:	43 89 1c 99          	mov    %ebx,(%r9,%r11,4)
    8a16:	42 8b 5c ac 50       	mov    0x50(%rsp,%r13,4),%ebx
    8a1b:	44 8b 6c 24 14       	mov    0x14(%rsp),%r13d
    8a20:	43 89 1c 98          	mov    %ebx,(%r8,%r11,4)
    8a24:	45 85 ed             	test   %r13d,%r13d
    8a27:	0f 84 a8 02 00 00    	je     8cd5 <setup_+0xa25>
    8a2d:	48 8d 6a fa          	lea    -0x6(%rdx),%rbp
    8a31:	48 8d 5a fc          	lea    -0x4(%rdx),%rbx
    8a35:	f3 41 0f 7e 0c ac    	movq   (%r12,%rbp,4),%xmm1
    8a3b:	44 8d 68 fd          	lea    -0x3(%rax),%r13d
    8a3f:	66 0f fe c8          	paddd  %xmm0,%xmm1
    8a43:	66 41 0f d6 0c aa    	movq   %xmm1,(%r10,%rbp,4)
    8a49:	44 8b bc 9c e0 00 00 	mov    0xe0(%rsp,%rbx,4),%r15d
    8a50:	00 
    8a51:	45 8d 5f 02          	lea    0x2(%r15),%r11d
    8a55:	44 89 5c 9c 50       	mov    %r11d,0x50(%rsp,%rbx,4)
    8a5a:	8b 6c ac 50          	mov    0x50(%rsp,%rbp,4),%ebp
    8a5e:	49 63 dd             	movslq %r13d,%rbx
    8a61:	44 89 1c 9e          	mov    %r11d,(%rsi,%rbx,4)
    8a65:	41 89 2c 99          	mov    %ebp,(%r9,%rbx,4)
    8a69:	8b 6c 94 3c          	mov    0x3c(%rsp,%rdx,4),%ebp
    8a6d:	41 89 2c 98          	mov    %ebp,(%r8,%rbx,4)
    8a71:	45 85 ed             	test   %r13d,%r13d
    8a74:	0f 84 5b 02 00 00    	je     8cd5 <setup_+0xa25>
    8a7a:	48 8d 6a f7          	lea    -0x9(%rdx),%rbp
    8a7e:	48 8d 5a f9          	lea    -0x7(%rdx),%rbx
    8a82:	f3 41 0f 7e 0c ac    	movq   (%r12,%rbp,4),%xmm1
    8a88:	44 8d 68 fc          	lea    -0x4(%rax),%r13d
    8a8c:	66 0f fe c8          	paddd  %xmm0,%xmm1
    8a90:	66 41 0f d6 0c aa    	movq   %xmm1,(%r10,%rbp,4)
    8a96:	44 8b bc 9c e0 00 00 	mov    0xe0(%rsp,%rbx,4),%r15d
    8a9d:	00 
    8a9e:	45 8d 5f 02          	lea    0x2(%r15),%r11d
    8aa2:	44 89 5c 9c 50       	mov    %r11d,0x50(%rsp,%rbx,4)
    8aa7:	8b 6c ac 50          	mov    0x50(%rsp,%rbp,4),%ebp
    8aab:	49 63 dd             	movslq %r13d,%rbx
    8aae:	44 89 1c 9e          	mov    %r11d,(%rsi,%rbx,4)
    8ab2:	41 89 2c 99          	mov    %ebp,(%r9,%rbx,4)
    8ab6:	8b 6c 94 30          	mov    0x30(%rsp,%rdx,4),%ebp
    8aba:	41 89 2c 98          	mov    %ebp,(%r8,%rbx,4)
    8abe:	45 85 ed             	test   %r13d,%r13d
    8ac1:	0f 84 0e 02 00 00    	je     8cd5 <setup_+0xa25>
    8ac7:	48 8d 6a f4          	lea    -0xc(%rdx),%rbp
    8acb:	48 8d 5a f6          	lea    -0xa(%rdx),%rbx
    8acf:	f3 41 0f 7e 0c ac    	movq   (%r12,%rbp,4),%xmm1
    8ad5:	44 8d 68 fb          	lea    -0x5(%rax),%r13d
    8ad9:	66 0f fe c8          	paddd  %xmm0,%xmm1
    8add:	66 41 0f d6 0c aa    	movq   %xmm1,(%r10,%rbp,4)
    8ae3:	44 8b b4 9c e0 00 00 	mov    0xe0(%rsp,%rbx,4),%r14d
    8aea:	00 
    8aeb:	45 8d 5e 02          	lea    0x2(%r14),%r11d
    8aef:	44 89 5c 9c 50       	mov    %r11d,0x50(%rsp,%rbx,4)
    8af4:	8b 6c ac 50          	mov    0x50(%rsp,%rbp,4),%ebp
    8af8:	49 63 dd             	movslq %r13d,%rbx
    8afb:	44 89 1c 9e          	mov    %r11d,(%rsi,%rbx,4)
    8aff:	41 89 2c 99          	mov    %ebp,(%r9,%rbx,4)
    8b03:	8b 6c 94 24          	mov    0x24(%rsp,%rdx,4),%ebp
    8b07:	41 89 2c 98          	mov    %ebp,(%r8,%rbx,4)
    8b0b:	45 85 ed             	test   %r13d,%r13d
    8b0e:	0f 84 c1 01 00 00    	je     8cd5 <setup_+0xa25>
    8b14:	48 8d 6a f1          	lea    -0xf(%rdx),%rbp
    8b18:	48 8d 5a f3          	lea    -0xd(%rdx),%rbx
    8b1c:	f3 41 0f 7e 0c ac    	movq   (%r12,%rbp,4),%xmm1
    8b22:	44 8d 68 fa          	lea    -0x6(%rax),%r13d
    8b26:	66 0f fe c8          	paddd  %xmm0,%xmm1
    8b2a:	66 41 0f d6 0c aa    	movq   %xmm1,(%r10,%rbp,4)
    8b30:	44 8b b4 9c e0 00 00 	mov    0xe0(%rsp,%rbx,4),%r14d
    8b37:	00 
    8b38:	45 8d 5e 02          	lea    0x2(%r14),%r11d
    8b3c:	44 89 5c 9c 50       	mov    %r11d,0x50(%rsp,%rbx,4)
    8b41:	8b 6c ac 50          	mov    0x50(%rsp,%rbp,4),%ebp
    8b45:	49 63 dd             	movslq %r13d,%rbx
    8b48:	44 89 1c 9e          	mov    %r11d,(%rsi,%rbx,4)
    8b4c:	41 89 2c 99          	mov    %ebp,(%r9,%rbx,4)
    8b50:	8b 6c 94 18          	mov    0x18(%rsp,%rdx,4),%ebp
    8b54:	41 89 2c 98          	mov    %ebp,(%r8,%rbx,4)
    8b58:	45 85 ed             	test   %r13d,%r13d
    8b5b:	0f 84 74 01 00 00    	je     8cd5 <setup_+0xa25>
    8b61:	48 8d 6a ee          	lea    -0x12(%rdx),%rbp
    8b65:	48 8d 5a f0          	lea    -0x10(%rdx),%rbx
    8b69:	f3 41 0f 7e 0c ac    	movq   (%r12,%rbp,4),%xmm1
    8b6f:	44 8d 68 f9          	lea    -0x7(%rax),%r13d
    8b73:	66 0f fe c8          	paddd  %xmm0,%xmm1
    8b77:	66 41 0f d6 0c aa    	movq   %xmm1,(%r10,%rbp,4)
    8b7d:	44 8b bc 9c e0 00 00 	mov    0xe0(%rsp,%rbx,4),%r15d
    8b84:	00 
    8b85:	45 8d 5f 02          	lea    0x2(%r15),%r11d
    8b89:	44 89 5c 9c 50       	mov    %r11d,0x50(%rsp,%rbx,4)
    8b8e:	8b 6c ac 50          	mov    0x50(%rsp,%rbp,4),%ebp
    8b92:	49 63 dd             	movslq %r13d,%rbx
    8b95:	44 89 1c 9e          	mov    %r11d,(%rsi,%rbx,4)
    8b99:	41 89 2c 99          	mov    %ebp,(%r9,%rbx,4)
    8b9d:	8b 6c 94 0c          	mov    0xc(%rsp,%rdx,4),%ebp
    8ba1:	41 89 2c 98          	mov    %ebp,(%r8,%rbx,4)
    8ba5:	45 85 ed             	test   %r13d,%r13d
    8ba8:	0f 84 27 01 00 00    	je     8cd5 <setup_+0xa25>
    8bae:	48 8d 6a eb          	lea    -0x15(%rdx),%rbp
    8bb2:	48 8d 5a ed          	lea    -0x13(%rdx),%rbx
    8bb6:	f3 41 0f 7e 0c ac    	movq   (%r12,%rbp,4),%xmm1
    8bbc:	44 8d 68 f8          	lea    -0x8(%rax),%r13d
    8bc0:	66 0f fe c8          	paddd  %xmm0,%xmm1
    8bc4:	66 41 0f d6 0c aa    	movq   %xmm1,(%r10,%rbp,4)
    8bca:	44 8b bc 9c e0 00 00 	mov    0xe0(%rsp,%rbx,4),%r15d
    8bd1:	00 
    8bd2:	45 8d 5f 02          	lea    0x2(%r15),%r11d
    8bd6:	44 89 5c 9c 50       	mov    %r11d,0x50(%rsp,%rbx,4)
    8bdb:	8b 6c ac 50          	mov    0x50(%rsp,%rbp,4),%ebp
    8bdf:	49 63 dd             	movslq %r13d,%rbx
    8be2:	44 89 1c 9e          	mov    %r11d,(%rsi,%rbx,4)
    8be6:	41 89 2c 99          	mov    %ebp,(%r9,%rbx,4)
    8bea:	8b 2c 94             	mov    (%rsp,%rdx,4),%ebp
    8bed:	41 89 2c 98          	mov    %ebp,(%r8,%rbx,4)
    8bf1:	45 85 ed             	test   %r13d,%r13d
    8bf4:	0f 84 db 00 00 00    	je     8cd5 <setup_+0xa25>
    8bfa:	48 8d 6a e8          	lea    -0x18(%rdx),%rbp
    8bfe:	48 8d 5a ea          	lea    -0x16(%rdx),%rbx
    8c02:	f3 41 0f 7e 0c ac    	movq   (%r12,%rbp,4),%xmm1
    8c08:	44 8d 68 f7          	lea    -0x9(%rax),%r13d
    8c0c:	66 0f fe c8          	paddd  %xmm0,%xmm1
    8c10:	66 41 0f d6 0c aa    	movq   %xmm1,(%r10,%rbp,4)
    8c16:	44 8b b4 9c e0 00 00 	mov    0xe0(%rsp,%rbx,4),%r14d
    8c1d:	00 
    8c1e:	45 8d 5e 02          	lea    0x2(%r14),%r11d
    8c22:	44 89 5c 9c 50       	mov    %r11d,0x50(%rsp,%rbx,4)
    8c27:	8b 6c ac 50          	mov    0x50(%rsp,%rbp,4),%ebp
    8c2b:	49 63 dd             	movslq %r13d,%rbx
    8c2e:	44 89 1c 9e          	mov    %r11d,(%rsi,%rbx,4)
    8c32:	41 89 2c 99          	mov    %ebp,(%r9,%rbx,4)
    8c36:	8b 6c 94 f4          	mov    -0xc(%rsp,%rdx,4),%ebp
    8c3a:	41 89 2c 98          	mov    %ebp,(%r8,%rbx,4)
    8c3e:	45 85 ed             	test   %r13d,%r13d
    8c41:	0f 84 8e 00 00 00    	je     8cd5 <setup_+0xa25>
    8c47:	48 8d 6a e5          	lea    -0x1b(%rdx),%rbp
    8c4b:	48 8d 5a e7          	lea    -0x19(%rdx),%rbx
    8c4f:	f3 41 0f 7e 0c ac    	movq   (%r12,%rbp,4),%xmm1
    8c55:	44 8d 68 f6          	lea    -0xa(%rax),%r13d
    8c59:	66 0f fe c8          	paddd  %xmm0,%xmm1
    8c5d:	66 41 0f d6 0c aa    	movq   %xmm1,(%r10,%rbp,4)
    8c63:	44 8b b4 9c e0 00 00 	mov    0xe0(%rsp,%rbx,4),%r14d
    8c6a:	00 
    8c6b:	45 8d 5e 02          	lea    0x2(%r14),%r11d
    8c6f:	44 89 5c 9c 50       	mov    %r11d,0x50(%rsp,%rbx,4)
    8c74:	8b 6c ac 50          	mov    0x50(%rsp,%rbp,4),%ebp
    8c78:	49 63 dd             	movslq %r13d,%rbx
    8c7b:	44 89 1c 9e          	mov    %r11d,(%rsi,%rbx,4)
    8c7f:	41 89 2c 99          	mov    %ebp,(%r9,%rbx,4)
    8c83:	8b 6c 94 e8          	mov    -0x18(%rsp,%rdx,4),%ebp
    8c87:	41 89 2c 98          	mov    %ebp,(%r8,%rbx,4)
    8c8b:	45 85 ed             	test   %r13d,%r13d
    8c8e:	74 45                	je     8cd5 <setup_+0xa25>
    8c90:	4c 8d 5a e2          	lea    -0x1e(%rdx),%r11
    8c94:	f3 43 0f 7e 0c 9c    	movq   (%r12,%r11,4),%xmm1
    8c9a:	66 0f fe c1          	paddd  %xmm1,%xmm0
    8c9e:	66 43 0f d6 04 9a    	movq   %xmm0,(%r10,%r11,4)
    8ca4:	4c 8d 52 e4          	lea    -0x1c(%rdx),%r10
    8ca8:	42 8b 9c 94 e0 00 00 	mov    0xe0(%rsp,%r10,4),%ebx
    8caf:	00 
    8cb0:	83 c3 02             	add    $0x2,%ebx
    8cb3:	42 89 5c 94 50       	mov    %ebx,0x50(%rsp,%r10,4)
    8cb8:	44 8d 50 f5          	lea    -0xb(%rax),%r10d
    8cbc:	46 8b 5c 9c 50       	mov    0x50(%rsp,%r11,4),%r11d
    8cc1:	4d 63 d2             	movslq %r10d,%r10
    8cc4:	47 89 1c 91          	mov    %r11d,(%r9,%r10,4)
    8cc8:	44 8b 4c 94 dc       	mov    -0x24(%rsp,%rdx,4),%r9d
    8ccd:	42 89 1c 96          	mov    %ebx,(%rsi,%r10,4)
    8cd1:	47 89 0c 90          	mov    %r9d,(%r8,%r10,4)
    8cd5:	48 8b 5c 24 20       	mov    0x20(%rsp),%rbx
    8cda:	44 8b 94 94 e0 00 00 	mov    0xe0(%rsp,%rdx,4),%r10d
    8ce1:	00 
    8ce2:	44 8b 8c 9c e0 00 00 	mov    0xe0(%rsp,%rbx,4),%r9d
    8ce9:	00 
    8cea:	48 8b 5c 24 08       	mov    0x8(%rsp),%rbx
    8cef:	41 8d 52 01          	lea    0x1(%r10),%edx
    8cf3:	41 83 c2 02          	add    $0x2,%r10d
    8cf7:	44 8b 7c 24 40       	mov    0x40(%rsp),%r15d
    8cfc:	89 15 32 a6 00 00    	mov    %edx,0xa632(%rip)        # 13334 <__mg_data_MOD_ie1>
    8d02:	41 8d 51 01          	lea    0x1(%r9),%edx
    8d06:	41 83 c1 02          	add    $0x2,%r9d
    8d0a:	89 03                	mov    %eax,(%rbx)
    8d0c:	48 8b 5c 24 28       	mov    0x28(%rsp),%rbx
    8d11:	89 15 19 a6 00 00    	mov    %edx,0xa619(%rip)        # 13330 <__mg_data_MOD_ie2>
    8d17:	44 89 13             	mov    %r10d,(%rbx)
    8d1a:	48 8b 5c 24 30       	mov    0x30(%rsp),%rbx
    8d1f:	c7 05 d3 a5 00 00 02 	movl   $0x2,0xa5d3(%rip)        # 132fc <__mg_data_MOD_is1>
    8d26:	00 00 00 
    8d29:	44 89 0b             	mov    %r9d,(%rbx)
    8d2c:	48 8b 5c 24 18       	mov    0x18(%rsp),%rbx
    8d31:	c7 05 bd a5 00 00 02 	movl   $0x2,0xa5bd(%rip)        # 132f8 <__mg_data_MOD_is2>
    8d38:	00 00 00 
    8d3b:	8b 94 9c e0 00 00 00 	mov    0xe0(%rsp,%rbx,4),%edx
    8d42:	48 8b 5c 24 38       	mov    0x38(%rsp),%rbx
    8d47:	c7 05 a3 a5 00 00 02 	movl   $0x2,0xa5a3(%rip)        # 132f4 <__mg_data_MOD_is3>
    8d4e:	00 00 00 
    8d51:	8d 72 01             	lea    0x1(%rdx),%esi
    8d54:	83 c2 02             	add    $0x2,%edx
    8d57:	89 35 cf a5 00 00    	mov    %esi,0xa5cf(%rip)        # 1332c <__mg_data_MOD_ie3>
    8d5d:	48 8d 35 9c a5 00 00 	lea    0xa59c(%rip),%rsi        # 13300 <__mg_data_MOD_ir>
    8d64:	89 13                	mov    %edx,(%rbx)
    8d66:	c7 04 8e 01 00 00 00 	movl   $0x1,(%rsi,%rcx,4)
    8d6d:	45 85 ff             	test   %r15d,%r15d
    8d70:	0f 8e 75 01 00 00    	jle    8eeb <setup_+0xc3b>
    8d76:	4c 8d 0d 03 a5 00 00 	lea    0xa503(%rip),%r9        # 13280 <__mg_data_MOD_m2>
    8d7d:	4c 8d 15 3c a5 00 00 	lea    0xa53c(%rip),%r10        # 132c0 <__mg_data_MOD_m1>
    8d84:	4c 8d 05 b5 a4 00 00 	lea    0xa4b5(%rip),%r8        # 13240 <__mg_data_MOD_m3>
    8d8b:	41 8b 14 89          	mov    (%r9,%rcx,4),%edx
    8d8f:	41 0f af 14 8a       	imul   (%r10,%rcx,4),%edx
    8d94:	41 0f af 14 88       	imul   (%r8,%rcx,4),%edx
    8d99:	48 8d 0d 5c a5 00 00 	lea    0xa55c(%rip),%rcx        # 132fc <__mg_data_MOD_is1>
    8da0:	03 14 b9             	add    (%rcx,%rdi,4),%edx
    8da3:	89 c1                	mov    %eax,%ecx
    8da5:	89 54 be f8          	mov    %edx,-0x8(%rsi,%rdi,4)
    8da9:	83 e9 02             	sub    $0x2,%ecx
    8dac:	0f 84 39 01 00 00    	je     8eeb <setup_+0xc3b>
    8db2:	48 63 c9             	movslq %ecx,%rcx
    8db5:	41 8b 3c 89          	mov    (%r9,%rcx,4),%edi
    8db9:	41 0f af 3c 8a       	imul   (%r10,%rcx,4),%edi
    8dbe:	41 0f af 3c 88       	imul   (%r8,%rcx,4),%edi
    8dc3:	01 fa                	add    %edi,%edx
    8dc5:	89 54 8e fc          	mov    %edx,-0x4(%rsi,%rcx,4)
    8dc9:	89 c1                	mov    %eax,%ecx
    8dcb:	83 e9 03             	sub    $0x3,%ecx
    8dce:	0f 84 17 01 00 00    	je     8eeb <setup_+0xc3b>
    8dd4:	48 63 c9             	movslq %ecx,%rcx
    8dd7:	41 8b 3c 89          	mov    (%r9,%rcx,4),%edi
    8ddb:	41 0f af 3c 8a       	imul   (%r10,%rcx,4),%edi
    8de0:	41 0f af 3c 88       	imul   (%r8,%rcx,4),%edi
    8de5:	01 fa                	add    %edi,%edx
    8de7:	89 54 8e fc          	mov    %edx,-0x4(%rsi,%rcx,4)
    8deb:	89 c1                	mov    %eax,%ecx
    8ded:	83 e9 04             	sub    $0x4,%ecx
    8df0:	0f 84 f5 00 00 00    	je     8eeb <setup_+0xc3b>
    8df6:	48 63 c9             	movslq %ecx,%rcx
    8df9:	41 8b 3c 89          	mov    (%r9,%rcx,4),%edi
    8dfd:	41 0f af 3c 8a       	imul   (%r10,%rcx,4),%edi
    8e02:	41 0f af 3c 88       	imul   (%r8,%rcx,4),%edi
    8e07:	01 fa                	add    %edi,%edx
    8e09:	89 54 8e fc          	mov    %edx,-0x4(%rsi,%rcx,4)
    8e0d:	89 c1                	mov    %eax,%ecx
    8e0f:	83 e9 05             	sub    $0x5,%ecx
    8e12:	0f 84 d3 00 00 00    	je     8eeb <setup_+0xc3b>
    8e18:	48 63 c9             	movslq %ecx,%rcx
    8e1b:	41 8b 3c 89          	mov    (%r9,%rcx,4),%edi
    8e1f:	41 0f af 3c 8a       	imul   (%r10,%rcx,4),%edi
    8e24:	41 0f af 3c 88       	imul   (%r8,%rcx,4),%edi
    8e29:	01 fa                	add    %edi,%edx
    8e2b:	89 54 8e fc          	mov    %edx,-0x4(%rsi,%rcx,4)
    8e2f:	89 c1                	mov    %eax,%ecx
    8e31:	83 e9 06             	sub    $0x6,%ecx
    8e34:	0f 84 b1 00 00 00    	je     8eeb <setup_+0xc3b>
    8e3a:	48 63 c9             	movslq %ecx,%rcx
    8e3d:	41 8b 3c 8a          	mov    (%r10,%rcx,4),%edi
    8e41:	41 0f af 3c 89       	imul   (%r9,%rcx,4),%edi
    8e46:	41 0f af 3c 88       	imul   (%r8,%rcx,4),%edi
    8e4b:	01 fa                	add    %edi,%edx
    8e4d:	89 54 8e fc          	mov    %edx,-0x4(%rsi,%rcx,4)
    8e51:	89 c1                	mov    %eax,%ecx
    8e53:	83 e9 07             	sub    $0x7,%ecx
    8e56:	0f 84 8f 00 00 00    	je     8eeb <setup_+0xc3b>
    8e5c:	48 63 c9             	movslq %ecx,%rcx
    8e5f:	41 8b 3c 8a          	mov    (%r10,%rcx,4),%edi
    8e63:	41 0f af 3c 89       	imul   (%r9,%rcx,4),%edi
    8e68:	41 0f af 3c 88       	imul   (%r8,%rcx,4),%edi
    8e6d:	01 fa                	add    %edi,%edx
    8e6f:	89 54 8e fc          	mov    %edx,-0x4(%rsi,%rcx,4)
    8e73:	89 c1                	mov    %eax,%ecx
    8e75:	83 e9 08             	sub    $0x8,%ecx
    8e78:	74 71                	je     8eeb <setup_+0xc3b>
    8e7a:	48 63 c9             	movslq %ecx,%rcx
    8e7d:	41 8b 3c 8a          	mov    (%r10,%rcx,4),%edi
    8e81:	41 0f af 3c 89       	imul   (%r9,%rcx,4),%edi
    8e86:	41 0f af 3c 88       	imul   (%r8,%rcx,4),%edi
    8e8b:	01 fa                	add    %edi,%edx
    8e8d:	89 54 8e fc          	mov    %edx,-0x4(%rsi,%rcx,4)
    8e91:	89 c1                	mov    %eax,%ecx
    8e93:	83 e9 09             	sub    $0x9,%ecx
    8e96:	74 53                	je     8eeb <setup_+0xc3b>
    8e98:	48 63 c9             	movslq %ecx,%rcx
    8e9b:	41 8b 3c 8a          	mov    (%r10,%rcx,4),%edi
    8e9f:	41 0f af 3c 89       	imul   (%r9,%rcx,4),%edi
    8ea4:	41 0f af 3c 88       	imul   (%r8,%rcx,4),%edi
    8ea9:	01 fa                	add    %edi,%edx
    8eab:	89 54 8e fc          	mov    %edx,-0x4(%rsi,%rcx,4)
    8eaf:	89 c1                	mov    %eax,%ecx
    8eb1:	83 e9 0a             	sub    $0xa,%ecx
    8eb4:	74 35                	je     8eeb <setup_+0xc3b>
    8eb6:	48 63 c9             	movslq %ecx,%rcx
    8eb9:	41 8b 3c 8a          	mov    (%r10,%rcx,4),%edi
    8ebd:	41 0f af 3c 89       	imul   (%r9,%rcx,4),%edi
    8ec2:	41 0f af 3c 88       	imul   (%r8,%rcx,4),%edi
    8ec7:	01 d7                	add    %edx,%edi
    8ec9:	89 7c 8e fc          	mov    %edi,-0x4(%rsi,%rcx,4)
    8ecd:	89 c1                	mov    %eax,%ecx
    8ecf:	83 e9 0b             	sub    $0xb,%ecx
    8ed2:	74 17                	je     8eeb <setup_+0xc3b>
    8ed4:	48 63 c9             	movslq %ecx,%rcx
    8ed7:	41 8b 14 8a          	mov    (%r10,%rcx,4),%edx
    8edb:	41 0f af 14 89       	imul   (%r9,%rcx,4),%edx
    8ee0:	41 0f af 14 88       	imul   (%r8,%rcx,4),%edx
    8ee5:	01 fa                	add    %edi,%edx
    8ee7:	89 54 8e fc          	mov    %edx,-0x4(%rsi,%rcx,4)
    8eeb:	44 8b 35 52 a4 00 00 	mov    0xa452(%rip),%r14d        # 13344 <__mg_data_MOD_debug_vec+0x4>
    8ef2:	45 85 f6             	test   %r14d,%r14d
    8ef5:	0f 8e 25 02 00 00    	jle    9120 <setup_+0xe70>
    8efb:	48 8d ac 24 70 01 00 	lea    0x170(%rsp),%rbp
    8f02:	00 
    8f03:	4c 8b 25 36 56 00 00 	mov    0x5636(%rip),%r12        # e540 <options.163.0+0x4a0>
    8f0a:	48 8d 1d ab 51 00 00 	lea    0x51ab(%rip),%rbx        # e0bc <options.163.0+0x1c>
    8f11:	c7 84 24 80 01 00 00 	movl   $0x1aa,0x180(%rsp)
    8f18:	aa 01 00 00 
    8f1c:	48 89 ef             	mov    %rbp,%rdi
    8f1f:	48 89 9c 24 78 01 00 	mov    %rbx,0x178(%rsp)
    8f26:	00 
    8f27:	4c 89 a4 24 70 01 00 	mov    %r12,0x170(%rsp)
    8f2e:	00 
    8f2f:	e8 4c 93 ff ff       	call   2280 <_gfortran_st_write@plt>
    8f34:	ba 0b 00 00 00       	mov    $0xb,%edx
    8f39:	48 8d 35 83 51 00 00 	lea    0x5183(%rip),%rsi        # e0c3 <options.163.0+0x23>
    8f40:	48 89 ef             	mov    %rbp,%rdi
    8f43:	e8 e8 91 ff ff       	call   2130 <_gfortran_transfer_character_write@plt>
    8f48:	48 89 ef             	mov    %rbp,%rdi
    8f4b:	e8 c0 92 ff ff       	call   2210 <_gfortran_st_write_done@plt>
    8f50:	48 89 ef             	mov    %rbp,%rdi
    8f53:	48 89 9c 24 78 01 00 	mov    %rbx,0x178(%rsp)
    8f5a:	00 
    8f5b:	c7 84 24 80 01 00 00 	movl   $0x1ac,0x180(%rsp)
    8f62:	ac 01 00 00 
    8f66:	4c 89 a4 24 70 01 00 	mov    %r12,0x170(%rsp)
    8f6d:	00 
    8f6e:	e8 0d 93 ff ff       	call   2280 <_gfortran_st_write@plt>
    8f73:	ba 13 00 00 00       	mov    $0x13,%edx
    8f78:	48 8d 35 50 51 00 00 	lea    0x5150(%rip),%rsi        # e0cf <options.163.0+0x2f>
    8f7f:	48 89 ef             	mov    %rbp,%rdi
    8f82:	e8 a9 91 ff ff       	call   2130 <_gfortran_transfer_character_write@plt>
    8f87:	ba 23 00 00 00       	mov    $0x23,%edx
    8f8c:	48 8d 35 4d 53 00 00 	lea    0x534d(%rip),%rsi        # e2e0 <options.163.0+0x240>
    8f93:	48 89 ef             	mov    %rbp,%rdi
    8f96:	e8 95 91 ff ff       	call   2130 <_gfortran_transfer_character_write@plt>
    8f9b:	48 89 ef             	mov    %rbp,%rdi
    8f9e:	e8 6d 92 ff ff       	call   2210 <_gfortran_st_write_done@plt>
    8fa3:	48 8d 05 39 51 00 00 	lea    0x5139(%rip),%rax        # e0e3 <options.163.0+0x43>
    8faa:	48 89 ef             	mov    %rbp,%rdi
    8fad:	48 89 9c 24 78 01 00 	mov    %rbx,0x178(%rsp)
    8fb4:	00 
    8fb5:	48 89 84 24 c0 01 00 	mov    %rax,0x1c0(%rsp)
    8fbc:	00 
    8fbd:	48 8b 05 84 55 00 00 	mov    0x5584(%rip),%rax        # e548 <options.163.0+0x4a8>
    8fc4:	48 8d 9c 24 e0 00 00 	lea    0xe0(%rsp),%rbx
    8fcb:	00 
    8fcc:	c7 84 24 80 01 00 00 	movl   $0x1ae,0x180(%rsp)
    8fd3:	ae 01 00 00 
    8fd7:	48 89 84 24 70 01 00 	mov    %rax,0x170(%rsp)
    8fde:	00 
    8fdf:	48 c7 84 24 c8 01 00 	movq   $0x6,0x1c8(%rsp)
    8fe6:	00 06 00 00 00 
    8feb:	e8 90 92 ff ff       	call   2280 <_gfortran_st_write@plt>
    8ff0:	4c 8b 7c 24 08       	mov    0x8(%rsp),%r15
    8ff5:	ba 04 00 00 00       	mov    $0x4,%edx
    8ffa:	48 89 ef             	mov    %rbp,%rdi
    8ffd:	4c 89 fe             	mov    %r15,%rsi
    9000:	e8 eb 90 ff ff       	call   20f0 <_gfortran_transfer_integer_write@plt>
    9005:	ba 04 00 00 00       	mov    $0x4,%edx
    900a:	48 8d 35 db a2 00 00 	lea    0xa2db(%rip),%rsi        # 132ec <__mg_data_MOD_lt>
    9011:	48 89 ef             	mov    %rbp,%rdi
    9014:	e8 d7 90 ff ff       	call   20f0 <_gfortran_transfer_integer_write@plt>
    9019:	49 63 07             	movslq (%r15),%rax
    901c:	ba 04 00 00 00       	mov    $0x4,%edx
    9021:	48 89 ef             	mov    %rbp,%rdi
    9024:	48 8d 44 40 fd       	lea    -0x3(%rax,%rax,2),%rax
    9029:	48 8d 34 83          	lea    (%rbx,%rax,4),%rsi
    902d:	e8 be 90 ff ff       	call   20f0 <_gfortran_transfer_integer_write@plt>
    9032:	49 63 07             	movslq (%r15),%rax
    9035:	ba 04 00 00 00       	mov    $0x4,%edx
    903a:	48 89 ef             	mov    %rbp,%rdi
    903d:	48 8d 44 40 fe       	lea    -0x2(%rax,%rax,2),%rax
    9042:	48 8d 34 83          	lea    (%rbx,%rax,4),%rsi
    9046:	e8 a5 90 ff ff       	call   20f0 <_gfortran_transfer_integer_write@plt>
    904b:	49 63 07             	movslq (%r15),%rax
    904e:	ba 04 00 00 00       	mov    $0x4,%edx
    9053:	48 89 ef             	mov    %rbp,%rdi
    9056:	48 8d 44 40 ff       	lea    -0x1(%rax,%rax,2),%rax
    905b:	48 8d 34 83          	lea    (%rbx,%rax,4),%rsi
    905f:	e8 8c 90 ff ff       	call   20f0 <_gfortran_transfer_integer_write@plt>
    9064:	48 8b 74 24 28       	mov    0x28(%rsp),%rsi
    9069:	ba 04 00 00 00       	mov    $0x4,%edx
    906e:	48 89 ef             	mov    %rbp,%rdi
    9071:	e8 7a 90 ff ff       	call   20f0 <_gfortran_transfer_integer_write@plt>
    9076:	48 8b 74 24 30       	mov    0x30(%rsp),%rsi
    907b:	ba 04 00 00 00       	mov    $0x4,%edx
    9080:	48 89 ef             	mov    %rbp,%rdi
    9083:	e8 68 90 ff ff       	call   20f0 <_gfortran_transfer_integer_write@plt>
    9088:	48 8b 74 24 38       	mov    0x38(%rsp),%rsi
    908d:	ba 04 00 00 00       	mov    $0x4,%edx
    9092:	48 89 ef             	mov    %rbp,%rdi
    9095:	e8 56 90 ff ff       	call   20f0 <_gfortran_transfer_integer_write@plt>
    909a:	ba 04 00 00 00       	mov    $0x4,%edx
    909f:	48 8d 35 56 a2 00 00 	lea    0xa256(%rip),%rsi        # 132fc <__mg_data_MOD_is1>
    90a6:	48 89 ef             	mov    %rbp,%rdi
    90a9:	e8 42 90 ff ff       	call   20f0 <_gfortran_transfer_integer_write@plt>
    90ae:	ba 04 00 00 00       	mov    $0x4,%edx
    90b3:	48 8d 35 3e a2 00 00 	lea    0xa23e(%rip),%rsi        # 132f8 <__mg_data_MOD_is2>
    90ba:	48 89 ef             	mov    %rbp,%rdi
    90bd:	e8 2e 90 ff ff       	call   20f0 <_gfortran_transfer_integer_write@plt>
    90c2:	ba 04 00 00 00       	mov    $0x4,%edx
    90c7:	48 8d 35 26 a2 00 00 	lea    0xa226(%rip),%rsi        # 132f4 <__mg_data_MOD_is3>
    90ce:	48 89 ef             	mov    %rbp,%rdi
    90d1:	e8 1a 90 ff ff       	call   20f0 <_gfortran_transfer_integer_write@plt>
    90d6:	ba 04 00 00 00       	mov    $0x4,%edx
    90db:	48 8d 35 52 a2 00 00 	lea    0xa252(%rip),%rsi        # 13334 <__mg_data_MOD_ie1>
    90e2:	48 89 ef             	mov    %rbp,%rdi
    90e5:	e8 06 90 ff ff       	call   20f0 <_gfortran_transfer_integer_write@plt>
    90ea:	ba 04 00 00 00       	mov    $0x4,%edx
    90ef:	48 8d 35 3a a2 00 00 	lea    0xa23a(%rip),%rsi        # 13330 <__mg_data_MOD_ie2>
    90f6:	48 89 ef             	mov    %rbp,%rdi
    90f9:	e8 f2 8f ff ff       	call   20f0 <_gfortran_transfer_integer_write@plt>
    90fe:	ba 04 00 00 00       	mov    $0x4,%edx
    9103:	48 8d 35 22 a2 00 00 	lea    0xa222(%rip),%rsi        # 1332c <__mg_data_MOD_ie3>
    910a:	48 89 ef             	mov    %rbp,%rdi
    910d:	e8 de 8f ff ff       	call   20f0 <_gfortran_transfer_integer_write@plt>
    9112:	48 89 ef             	mov    %rbp,%rdi
    9115:	e8 f6 90 ff ff       	call   2210 <_gfortran_st_write_done@plt>
    911a:	8b 05 cc a1 00 00    	mov    0xa1cc(%rip),%eax        # 132ec <__mg_data_MOD_lt>
    9120:	48 8b 7c 24 08       	mov    0x8(%rsp),%rdi
    9125:	89 07                	mov    %eax,(%rdi)
    9127:	48 81 c4 88 03 00 00 	add    $0x388,%rsp
    912e:	5b                   	pop    %rbx
    912f:	5d                   	pop    %rbp
    9130:	41 5c                	pop    %r12
    9132:	41 5d                	pop    %r13
    9134:	41 5e                	pop    %r14
    9136:	41 5f                	pop    %r15
    9138:	c3                   	ret    
    9139:	48 8b 5c 24 08       	mov    0x8(%rsp),%rbx
    913e:	89 3b                	mov    %edi,(%rbx)
    9140:	85 ff                	test   %edi,%edi
    9142:	0f 8e 8d fb ff ff    	jle    8cd5 <setup_+0xa25>
    9148:	44 8b 94 94 e0 00 00 	mov    0xe0(%rsp,%rdx,4),%r10d
    914f:	00 
    9150:	48 8b 5c 24 20       	mov    0x20(%rsp),%rbx
    9155:	83 c6 02             	add    $0x2,%esi
    9158:	45 89 14 89          	mov    %r10d,(%r9,%rcx,4)
    915c:	44 8b 8c 9c e0 00 00 	mov    0xe0(%rsp,%rbx,4),%r9d
    9163:	00 
    9164:	45 89 0c 88          	mov    %r9d,(%r8,%rcx,4)
    9168:	45 8d 42 02          	lea    0x2(%r10),%r8d
    916c:	44 89 44 94 50       	mov    %r8d,0x50(%rsp,%rdx,4)
    9171:	45 8d 41 02          	lea    0x2(%r9),%r8d
    9175:	44 89 44 9c 50       	mov    %r8d,0x50(%rsp,%rbx,4)
    917a:	4c 8b 44 24 18       	mov    0x18(%rsp),%r8
    917f:	42 89 74 84 50       	mov    %esi,0x50(%rsp,%r8,4)
    9184:	44 8b 44 94 50       	mov    0x50(%rsp,%rdx,4),%r8d
    9189:	48 8d 15 30 a1 00 00 	lea    0xa130(%rip),%rdx        # 132c0 <__mg_data_MOD_m1>
    9190:	44 89 04 8a          	mov    %r8d,(%rdx,%rcx,4)
    9194:	44 8b 44 9c 50       	mov    0x50(%rsp,%rbx,4),%r8d
    9199:	48 8d 15 e0 a0 00 00 	lea    0xa0e0(%rip),%rdx        # 13280 <__mg_data_MOD_m2>
    91a0:	44 89 04 8a          	mov    %r8d,(%rdx,%rcx,4)
    91a4:	48 8d 15 95 a0 00 00 	lea    0xa095(%rip),%rdx        # 13240 <__mg_data_MOD_m3>
    91ab:	89 34 8a             	mov    %esi,(%rdx,%rcx,4)
    91ae:	e9 37 fb ff ff       	jmp    8cea <setup_+0xa3a>
    91b3:	66 66 2e 0f 1f 84 00 	data16 cs nopw 0x0(%rax,%rax,1)
    91ba:	00 00 00 00 
    91be:	66 90                	xchg   %ax,%ax

00000000000091c0 <showall_>:
    91c0:	41 57                	push   %r15
    91c2:	31 c0                	xor    %eax,%eax
    91c4:	41 56                	push   %r14
    91c6:	49 89 c6             	mov    %rax,%r14
    91c9:	41 55                	push   %r13
    91cb:	41 54                	push   %r12
    91cd:	55                   	push   %rbp
    91ce:	48 8d 2d e7 4e 00 00 	lea    0x4ee7(%rip),%rbp        # e0bc <options.163.0+0x1c>
    91d5:	53                   	push   %rbx
    91d6:	48 81 ec 98 02 00 00 	sub    $0x298,%rsp
    91dd:	48 63 1e             	movslq (%rsi),%rbx
    91e0:	48 63 12             	movslq (%rdx),%rdx
    91e3:	4c 8d bc 24 80 00 00 	lea    0x80(%rsp),%r15
    91ea:	00 
    91eb:	48 89 7c 24 38       	mov    %rdi,0x38(%rsp)
    91f0:	48 85 db             	test   %rbx,%rbx
    91f3:	48 89 d0             	mov    %rdx,%rax
    91f6:	48 89 de             	mov    %rbx,%rsi
    91f9:	89 5c 24 24          	mov    %ebx,0x24(%rsp)
    91fd:	4c 0f 49 f3          	cmovns %rbx,%r14
    9201:	4c 89 ff             	mov    %r15,%rdi
    9204:	48 89 ac 24 88 00 00 	mov    %rbp,0x88(%rsp)
    920b:	00 
    920c:	c7 84 24 90 00 00 00 	movl   $0x504,0x90(%rsp)
    9213:	04 05 00 00 
    9217:	49 0f af d6          	imul   %r14,%rdx
    921b:	4c 89 34 24          	mov    %r14,(%rsp)
    921f:	48 89 d3             	mov    %rdx,%rbx
    9222:	48 85 d2             	test   %rdx,%rdx
    9225:	ba 00 00 00 00       	mov    $0x0,%edx
    922a:	48 0f 49 d3          	cmovns %rbx,%rdx
    922e:	8b 19                	mov    (%rcx),%ebx
    9230:	48 89 54 24 28       	mov    %rdx,0x28(%rsp)
    9235:	ba 12 00 00 00       	mov    $0x12,%edx
    923a:	39 d6                	cmp    %edx,%esi
    923c:	0f 4e d6             	cmovle %esi,%edx
    923f:	89 54 24 0c          	mov    %edx,0xc(%rsp)
    9243:	ba 0e 00 00 00       	mov    $0xe,%edx
    9248:	39 d0                	cmp    %edx,%eax
    924a:	0f 4e d0             	cmovle %eax,%edx
    924d:	b8 12 00 00 00       	mov    $0x12,%eax
    9252:	39 c3                	cmp    %eax,%ebx
    9254:	0f 4e c3             	cmovle %ebx,%eax
    9257:	89 54 24 34          	mov    %edx,0x34(%rsp)
    925b:	49 f7 de             	neg    %r14
    925e:	89 44 24 30          	mov    %eax,0x30(%rsp)
    9262:	48 8b 05 d7 52 00 00 	mov    0x52d7(%rip),%rax        # e540 <options.163.0+0x4a0>
    9269:	48 89 84 24 80 00 00 	mov    %rax,0x80(%rsp)
    9270:	00 
    9271:	e8 0a 90 ff ff       	call   2280 <_gfortran_st_write@plt>
    9276:	ba 02 00 00 00       	mov    $0x2,%edx
    927b:	48 8d 35 5a 50 00 00 	lea    0x505a(%rip),%rsi        # e2dc <options.163.0+0x23c>
    9282:	4c 89 ff             	mov    %r15,%rdi
    9285:	e8 a6 8e ff ff       	call   2130 <_gfortran_transfer_character_write@plt>
    928a:	4c 89 ff             	mov    %r15,%rdi
    928d:	e8 7e 8f ff ff       	call   2210 <_gfortran_st_write_done@plt>
    9292:	c7 44 24 20 01 00 00 	movl   $0x1,0x20(%rsp)
    9299:	00 
    929a:	48 c7 44 24 18 00 00 	movq   $0x0,0x18(%rsp)
    92a1:	00 00 
    92a3:	4c 89 74 24 10       	mov    %r14,0x10(%rsp)
    92a8:	85 db                	test   %ebx,%ebx
    92aa:	0f 8e 4c 01 00 00    	jle    93fc <showall_+0x23c>
    92b0:	8b 44 24 24          	mov    0x24(%rsp),%eax
    92b4:	85 c0                	test   %eax,%eax
    92b6:	0f 8e dd 00 00 00    	jle    9399 <showall_+0x1d9>
    92bc:	48 8b 44 24 38       	mov    0x38(%rsp),%rax
    92c1:	48 8b 4c 24 18       	mov    0x18(%rsp),%rcx
    92c6:	4c 8d 64 24 40       	lea    0x40(%rsp),%r12
    92cb:	41 be 01 00 00 00    	mov    $0x1,%r14d
    92d1:	4c 63 6c 24 34       	movslq 0x34(%rsp),%r13
    92d6:	48 8d 1c c8          	lea    (%rax,%rcx,8),%rbx
    92da:	66 0f 1f 44 00 00    	nopw   0x0(%rax,%rax,1)
    92e0:	48 8d 05 13 4e 00 00 	lea    0x4e13(%rip),%rax        # e0fa <options.163.0+0x5a>
    92e7:	4c 89 ff             	mov    %r15,%rdi
    92ea:	48 89 ac 24 88 00 00 	mov    %rbp,0x88(%rsp)
    92f1:	00 
    92f2:	41 83 c6 01          	add    $0x1,%r14d
    92f6:	48 89 84 24 d0 00 00 	mov    %rax,0xd0(%rsp)
    92fd:	00 
    92fe:	48 8b 05 43 52 00 00 	mov    0x5243(%rip),%rax        # e548 <options.163.0+0x4a8>
    9305:	c7 84 24 90 00 00 00 	movl   $0x507,0x90(%rsp)
    930c:	07 05 00 00 
    9310:	48 89 84 24 80 00 00 	mov    %rax,0x80(%rsp)
    9317:	00 
    9318:	48 c7 84 24 d8 00 00 	movq   $0x8,0xd8(%rsp)
    931f:	00 08 00 00 00 
    9324:	e8 57 8f ff ff       	call   2280 <_gfortran_st_write@plt>
    9329:	31 c9                	xor    %ecx,%ecx
    932b:	ba 08 00 00 00       	mov    $0x8,%edx
    9330:	4c 89 e6             	mov    %r12,%rsi
    9333:	48 b8 00 00 00 00 01 	movabs $0x30100000000,%rax
    933a:	03 00 00 
    933d:	4c 89 ff             	mov    %r15,%rdi
    9340:	48 89 5c 24 40       	mov    %rbx,0x40(%rsp)
    9345:	48 83 c3 08          	add    $0x8,%rbx
    9349:	48 89 44 24 58       	mov    %rax,0x58(%rsp)
    934e:	48 8b 04 24          	mov    (%rsp),%rax
    9352:	48 c7 44 24 50 08 00 	movq   $0x8,0x50(%rsp)
    9359:	00 00 
    935b:	48 89 44 24 68       	mov    %rax,0x68(%rsp)
    9360:	48 8b 44 24 10       	mov    0x10(%rsp),%rax
    9365:	48 c7 44 24 60 08 00 	movq   $0x8,0x60(%rsp)
    936c:	00 00 
    936e:	48 89 44 24 48       	mov    %rax,0x48(%rsp)
    9373:	48 c7 44 24 70 01 00 	movq   $0x1,0x70(%rsp)
    937a:	00 00 
    937c:	4c 89 6c 24 78       	mov    %r13,0x78(%rsp)
    9381:	e8 9a 8e ff ff       	call   2220 <_gfortran_transfer_array_write@plt>
    9386:	4c 89 ff             	mov    %r15,%rdi
    9389:	e8 82 8e ff ff       	call   2210 <_gfortran_st_write_done@plt>
    938e:	44 39 74 24 0c       	cmp    %r14d,0xc(%rsp)
    9393:	0f 8d 47 ff ff ff    	jge    92e0 <showall_+0x120>
    9399:	48 8b 05 a0 51 00 00 	mov    0x51a0(%rip),%rax        # e540 <options.163.0+0x4a0>
    93a0:	4c 89 ff             	mov    %r15,%rdi
    93a3:	48 89 ac 24 88 00 00 	mov    %rbp,0x88(%rsp)
    93aa:	00 
    93ab:	c7 84 24 90 00 00 00 	movl   $0x509,0x90(%rsp)
    93b2:	09 05 00 00 
    93b6:	48 89 84 24 80 00 00 	mov    %rax,0x80(%rsp)
    93bd:	00 
    93be:	e8 bd 8e ff ff       	call   2280 <_gfortran_st_write@plt>
    93c3:	48 8d 35 20 4d 00 00 	lea    0x4d20(%rip),%rsi        # e0ea <options.163.0+0x4a>
    93ca:	ba 0f 00 00 00       	mov    $0xf,%edx
    93cf:	4c 89 ff             	mov    %r15,%rdi
    93d2:	e8 59 8d ff ff       	call   2130 <_gfortran_transfer_character_write@plt>
    93d7:	4c 89 ff             	mov    %r15,%rdi
    93da:	e8 31 8e ff ff       	call   2210 <_gfortran_st_write_done@plt>
    93df:	83 44 24 20 01       	addl   $0x1,0x20(%rsp)
    93e4:	48 8b 74 24 28       	mov    0x28(%rsp),%rsi
    93e9:	8b 44 24 20          	mov    0x20(%rsp),%eax
    93ed:	48 01 74 24 18       	add    %rsi,0x18(%rsp)
    93f2:	39 44 24 30          	cmp    %eax,0x30(%rsp)
    93f6:	0f 8d b4 fe ff ff    	jge    92b0 <showall_+0xf0>
    93fc:	48 8b 05 3d 51 00 00 	mov    0x513d(%rip),%rax        # e540 <options.163.0+0x4a0>
    9403:	4c 89 ff             	mov    %r15,%rdi
    9406:	48 89 ac 24 88 00 00 	mov    %rbp,0x88(%rsp)
    940d:	00 
    940e:	c7 84 24 90 00 00 00 	movl   $0x50b,0x90(%rsp)
    9415:	0b 05 00 00 
    9419:	48 89 84 24 80 00 00 	mov    %rax,0x80(%rsp)
    9420:	00 
    9421:	e8 5a 8e ff ff       	call   2280 <_gfortran_st_write@plt>
    9426:	4c 89 ff             	mov    %r15,%rdi
    9429:	ba 02 00 00 00       	mov    $0x2,%edx
    942e:	48 8d 35 a7 4e 00 00 	lea    0x4ea7(%rip),%rsi        # e2dc <options.163.0+0x23c>
    9435:	e8 f6 8c ff ff       	call   2130 <_gfortran_transfer_character_write@plt>
    943a:	4c 89 ff             	mov    %r15,%rdi
    943d:	e8 ce 8d ff ff       	call   2210 <_gfortran_st_write_done@plt>
    9442:	48 81 c4 98 02 00 00 	add    $0x298,%rsp
    9449:	5b                   	pop    %rbx
    944a:	5d                   	pop    %rbp
    944b:	41 5c                	pop    %r12
    944d:	41 5d                	pop    %r13
    944f:	41 5e                	pop    %r14
    9451:	41 5f                	pop    %r15
    9453:	c3                   	ret    
    9454:	66 66 2e 0f 1f 84 00 	data16 cs nopw 0x0(%rax,%rax,1)
    945b:	00 00 00 00 
    945f:	90                   	nop

0000000000009460 <rep_nrm_>:
    9460:	41 57                	push   %r15
    9462:	41 56                	push   %r14
    9464:	41 55                	push   %r13
    9466:	4d 89 c5             	mov    %r8,%r13
    9469:	4c 8d 05 10 9d 00 00 	lea    0x9d10(%rip),%r8        # 13180 <__mg_data_MOD_nz>
    9470:	41 54                	push   %r12
    9472:	4d 89 cc             	mov    %r9,%r12
    9475:	55                   	push   %rbp
    9476:	48 81 ec 20 02 00 00 	sub    $0x220,%rsp
    947d:	49 63 01             	movslq (%r9),%rax
    9480:	49 89 e7             	mov    %rsp,%r15
    9483:	4c 8d 74 24 08       	lea    0x8(%rsp),%r14
    9488:	48 83 ec 08          	sub    $0x8,%rsp
    948c:	48 8d 04 85 fc ff ff 	lea    -0x4(,%rax,4),%rax
    9493:	ff 
    9494:	4d 89 f1             	mov    %r14,%r9
    9497:	49 01 c0             	add    %rax,%r8
    949a:	41 50                	push   %r8
    949c:	4c 8d 05 1d 9d 00 00 	lea    0x9d1d(%rip),%r8        # 131c0 <__mg_data_MOD_ny>
    94a3:	49 01 c0             	add    %rax,%r8
    94a6:	41 50                	push   %r8
    94a8:	4c 8d 05 51 9d 00 00 	lea    0x9d51(%rip),%r8        # 13200 <__mg_data_MOD_nx>
    94af:	4c 01 c0             	add    %r8,%rax
    94b2:	4d 89 f8             	mov    %r15,%r8
    94b5:	50                   	push   %rax
    94b6:	e8 a5 e1 ff ff       	call   7660 <norm2u3_>
    94bb:	48 8d 05 fa 4b 00 00 	lea    0x4bfa(%rip),%rax        # e0bc <options.163.0+0x1c>
    94c2:	c7 44 24 40 e0 03 00 	movl   $0x3e0,0x40(%rsp)
    94c9:	00 
    94ca:	48 89 44 24 38       	mov    %rax,0x38(%rsp)
    94cf:	48 8d 05 32 4e 00 00 	lea    0x4e32(%rip),%rax        # e308 <options.163.0+0x268>
    94d6:	48 89 84 24 80 00 00 	mov    %rax,0x80(%rsp)
    94dd:	00 
    94de:	48 8b 05 63 50 00 00 	mov    0x5063(%rip),%rax        # e548 <options.163.0+0x4a8>
    94e5:	48 c7 84 24 88 00 00 	movq   $0x31,0x88(%rsp)
    94ec:	00 31 00 00 00 
    94f1:	48 89 44 24 30       	mov    %rax,0x30(%rsp)
    94f6:	4c 89 fc             	mov    %r15,%rsp
    94f9:	48 8d 6c 24 10       	lea    0x10(%rsp),%rbp
    94fe:	48 89 ef             	mov    %rbp,%rdi
    9501:	e8 7a 8d ff ff       	call   2280 <_gfortran_st_write@plt>
    9506:	4c 89 e6             	mov    %r12,%rsi
    9509:	48 89 ef             	mov    %rbp,%rdi
    950c:	ba 04 00 00 00       	mov    $0x4,%edx
    9511:	e8 da 8b ff ff       	call   20f0 <_gfortran_transfer_integer_write@plt>
    9516:	4c 89 ee             	mov    %r13,%rsi
    9519:	48 89 ef             	mov    %rbp,%rdi
    951c:	ba 08 00 00 00       	mov    $0x8,%edx
    9521:	e8 0a 8c ff ff       	call   2130 <_gfortran_transfer_character_write@plt>
    9526:	4c 89 fe             	mov    %r15,%rsi
    9529:	48 89 ef             	mov    %rbp,%rdi
    952c:	ba 08 00 00 00       	mov    $0x8,%edx
    9531:	e8 0a 8b ff ff       	call   2040 <_gfortran_transfer_real_write@plt>
    9536:	4c 89 f6             	mov    %r14,%rsi
    9539:	48 89 ef             	mov    %rbp,%rdi
    953c:	ba 08 00 00 00       	mov    $0x8,%edx
    9541:	e8 fa 8a ff ff       	call   2040 <_gfortran_transfer_real_write@plt>
    9546:	48 89 ef             	mov    %rbp,%rdi
    9549:	e8 c2 8c ff ff       	call   2210 <_gfortran_st_write_done@plt>
    954e:	48 81 c4 20 02 00 00 	add    $0x220,%rsp
    9555:	5d                   	pop    %rbp
    9556:	41 5c                	pop    %r12
    9558:	41 5d                	pop    %r13
    955a:	41 5e                	pop    %r14
    955c:	41 5f                	pop    %r15
    955e:	c3                   	ret    
    955f:	90                   	nop

0000000000009560 <interp_>:
    9560:	41 57                	push   %r15
    9562:	66 48 0f 6e c6       	movq   %rsi,%xmm0
    9567:	31 c0                	xor    %eax,%eax
    9569:	66 48 0f 6e da       	movq   %rdx,%xmm3
    956e:	41 56                	push   %r14
    9570:	66 48 0f 6e d7       	movq   %rdi,%xmm2
    9575:	41 55                	push   %r13
    9577:	4d 89 c5             	mov    %r8,%r13
    957a:	66 0f 6c d0          	punpcklqdq %xmm0,%xmm2
    957e:	41 54                	push   %r12
    9580:	49 89 d4             	mov    %rdx,%r12
    9583:	55                   	push   %rbp
    9584:	4c 89 cd             	mov    %r9,%rbp
    9587:	53                   	push   %rbx
    9588:	48 81 ec 18 01 00 00 	sub    $0x118,%rsp
    958f:	48 63 12             	movslq (%rdx),%rdx
    9592:	44 8b 15 a7 7b 00 00 	mov    0x7ba7(%rip),%r10d        # 11140 <__mg_data_MOD_timeron>
    9599:	48 89 74 24 18       	mov    %rsi,0x18(%rsp)
    959e:	48 63 36             	movslq (%rsi),%rsi
    95a1:	48 89 4c 24 08       	mov    %rcx,0x8(%rsp)
    95a6:	49 63 09             	movslq (%r9),%rcx
    95a9:	48 85 f6             	test   %rsi,%rsi
    95ac:	4c 8b b4 24 50 01 00 	mov    0x150(%rsp),%r14
    95b3:	00 
    95b4:	48 89 7c 24 10       	mov    %rdi,0x10(%rsp)
    95b9:	48 0f 48 f0          	cmovs  %rax,%rsi
    95bd:	49 89 c9             	mov    %rcx,%r9
    95c0:	4c 8b bc 24 58 01 00 	mov    0x158(%rsp),%r15
    95c7:	00 
    95c8:	48 8b 9c 24 60 01 00 	mov    0x160(%rsp),%rbx
    95cf:	00 
    95d0:	0f 16 5c 24 08       	movhps 0x8(%rsp),%xmm3
    95d5:	48 0f af d6          	imul   %rsi,%rdx
    95d9:	49 89 f3             	mov    %rsi,%r11
    95dc:	49 f7 d3             	not    %r11
    95df:	48 85 d2             	test   %rdx,%rdx
    95e2:	48 0f 48 d0          	cmovs  %rax,%rdx
    95e6:	49 29 d3             	sub    %rdx,%r11
    95e9:	48 85 c9             	test   %rcx,%rcx
    95ec:	66 48 0f 6e ea       	movq   %rdx,%xmm5
    95f1:	48 0f 48 c8          	cmovs  %rax,%rcx
    95f5:	49 63 06             	movslq (%r14),%rax
    95f8:	45 31 c0             	xor    %r8d,%r8d
    95fb:	66 49 0f 6e fb       	movq   %r11,%xmm7
    9600:	66 0f 6c ef          	punpcklqdq %xmm7,%xmm5
    9604:	66 48 0f 6e fe       	movq   %rsi,%xmm7
    9609:	48 89 c7             	mov    %rax,%rdi
    960c:	48 0f af c1          	imul   %rcx,%rax
    9610:	66 48 0f 6e e1       	movq   %rcx,%xmm4
    9615:	48 85 c0             	test   %rax,%rax
    9618:	49 0f 48 c0          	cmovs  %r8,%rax
    961c:	49 89 c8             	mov    %rcx,%r8
    961f:	49 f7 d0             	not    %r8
    9622:	49 29 c0             	sub    %rax,%r8
    9625:	66 48 0f 6e c8       	movq   %rax,%xmm1
    962a:	66 49 0f 6e f0       	movq   %r8,%xmm6
    962f:	66 0f 6c e1          	punpcklqdq %xmm1,%xmm4
    9633:	66 0f 6c f7          	punpcklqdq %xmm7,%xmm6
    9637:	45 85 d2             	test   %r10d,%r10d
    963a:	0f 85 40 02 00 00    	jne    9880 <interp_+0x320>
    9640:	45 8b 17             	mov    (%r15),%r10d
    9643:	41 83 f9 03          	cmp    $0x3,%r9d
    9647:	0f 84 03 02 00 00    	je     9850 <interp_+0x2f0>
    964d:	83 ff 03             	cmp    $0x3,%edi
    9650:	0f 84 2a 01 00 00    	je     9780 <interp_+0x220>
    9656:	41 83 fa 03          	cmp    $0x3,%r10d
    965a:	0f 84 00 03 00 00    	je     9960 <interp_+0x400>
    9660:	48 8b 7c 24 08       	mov    0x8(%rsp),%rdi
    9665:	45 8b 14 24          	mov    (%r12),%r10d
    9669:	48 89 94 24 d8 00 00 	mov    %rdx,0xd8(%rsp)
    9670:	00 
    9671:	31 d2                	xor    %edx,%edx
    9673:	48 89 b4 24 d0 00 00 	mov    %rsi,0xd0(%rsp)
    967a:	00 
    967b:	8b 3f                	mov    (%rdi),%edi
    967d:	45 8d 4a ff          	lea    -0x1(%r10),%r9d
    9681:	48 89 8c 24 b8 00 00 	mov    %rcx,0xb8(%rsp)
    9688:	00 
    9689:	31 c9                	xor    %ecx,%ecx
    968b:	44 89 8c 24 ec 00 00 	mov    %r9d,0xec(%rsp)
    9692:	00 
    9693:	4c 8d 8c 24 a0 00 00 	lea    0xa0(%rsp),%r9
    969a:	00 
    969b:	83 ef 01             	sub    $0x1,%edi
    969e:	4c 89 ce             	mov    %r9,%rsi
    96a1:	4c 89 4c 24 20       	mov    %r9,0x20(%rsp)
    96a6:	89 bc 24 e8 00 00 00 	mov    %edi,0xe8(%rsp)
    96ad:	48 8d 3d ec a3 ff ff 	lea    -0x5c14(%rip),%rdi        # 3aa0 <interp_._omp_fn.0>
    96b4:	4c 89 9c 24 e0 00 00 	mov    %r11,0xe0(%rsp)
    96bb:	00 
    96bc:	4c 89 84 24 c8 00 00 	mov    %r8,0xc8(%rsp)
    96c3:	00 
    96c4:	48 89 84 24 c0 00 00 	mov    %rax,0xc0(%rsp)
    96cb:	00 
    96cc:	4c 89 ac 24 b0 00 00 	mov    %r13,0xb0(%rsp)
    96d3:	00 
    96d4:	0f 29 94 24 a0 00 00 	movaps %xmm2,0xa0(%rsp)
    96db:	00 
    96dc:	e8 1f 8b ff ff       	call   2200 <GOMP_parallel@plt>
    96e1:	8b 35 59 7a 00 00    	mov    0x7a59(%rip),%esi        # 11140 <__mg_data_MOD_timeron>
    96e7:	4c 8b 4c 24 20       	mov    0x20(%rsp),%r9
    96ec:	85 f6                	test   %esi,%esi
    96ee:	0f 85 40 01 00 00    	jne    9834 <interp_+0x2d4>
    96f4:	0f 1f 40 00          	nopl   0x0(%rax)
    96f8:	8b 0d 42 9c 00 00    	mov    0x9c42(%rip),%ecx        # 13340 <__mg_data_MOD_debug_vec>
    96fe:	85 c9                	test   %ecx,%ecx
    9700:	7e 55                	jle    9757 <interp_+0x1f7>
    9702:	8b 03                	mov    (%rbx),%eax
    9704:	48 83 ec 08          	sub    $0x8,%rsp
    9708:	4c 8d 05 f4 49 00 00 	lea    0x49f4(%rip),%r8        # e103 <options.163.0+0x63>
    970f:	4c 89 e2             	mov    %r12,%rdx
    9712:	83 e8 01             	sub    $0x1,%eax
    9715:	89 84 24 a8 00 00 00 	mov    %eax,0xa8(%rsp)
    971c:	6a 08                	push   $0x8
    971e:	48 8b 4c 24 18       	mov    0x18(%rsp),%rcx
    9723:	48 8b 74 24 28       	mov    0x28(%rsp),%rsi
    9728:	48 8b 7c 24 20       	mov    0x20(%rsp),%rdi
    972d:	e8 2e fd ff ff       	call   9460 <rep_nrm_>
    9732:	4c 89 f2             	mov    %r14,%rdx
    9735:	49 89 d9             	mov    %rbx,%r9
    9738:	4c 89 f9             	mov    %r15,%rcx
    973b:	4c 8d 05 ca 49 00 00 	lea    0x49ca(%rip),%r8        # e10c <options.163.0+0x6c>
    9742:	48 89 ee             	mov    %rbp,%rsi
    9745:	4c 89 ef             	mov    %r13,%rdi
    9748:	48 c7 04 24 08 00 00 	movq   $0x8,(%rsp)
    974f:	00 
    9750:	e8 0b fd ff ff       	call   9460 <rep_nrm_>
    9755:	58                   	pop    %rax
    9756:	5a                   	pop    %rdx
    9757:	8b 03                	mov    (%rbx),%eax
    9759:	39 05 f5 9b 00 00    	cmp    %eax,0x9bf5(%rip)        # 13354 <__mg_data_MOD_debug_vec+0x14>
    975f:	0f 8d bb 01 00 00    	jge    9920 <interp_+0x3c0>
    9765:	48 81 c4 18 01 00 00 	add    $0x118,%rsp
    976c:	5b                   	pop    %rbx
    976d:	5d                   	pop    %rbp
    976e:	41 5c                	pop    %r12
    9770:	41 5d                	pop    %r13
    9772:	41 5e                	pop    %r14
    9774:	41 5f                	pop    %r15
    9776:	c3                   	ret    
    9777:	66 0f 1f 84 00 00 00 	nopw   0x0(%rax,%rax,1)
    977e:	00 00 
    9780:	b8 01 00 00 00       	mov    $0x1,%eax
    9785:	b9 02 00 00 00       	mov    $0x2,%ecx
    978a:	66 45 0f ef c0       	pxor   %xmm8,%xmm8
    978f:	66 0f 6e c0          	movd   %eax,%xmm0
    9793:	66 0f 6e f9          	movd   %ecx,%xmm7
    9797:	31 d2                	xor    %edx,%edx
    9799:	41 83 fa 03          	cmp    $0x3,%r10d
    979d:	0f 94 c2             	sete   %dl
    97a0:	8d 4a 01             	lea    0x1(%rdx),%ecx
    97a3:	66 0f 6e c9          	movd   %ecx,%xmm1
    97a7:	4c 8d 8c 24 a0 00 00 	lea    0xa0(%rsp),%r9
    97ae:	00 
    97af:	66 41 0f 62 c8       	punpckldq %xmm8,%xmm1
    97b4:	66 0f 62 c7          	punpckldq %xmm7,%xmm0
    97b8:	31 c9                	xor    %ecx,%ecx
    97ba:	0f 11 ac 24 e8 00 00 	movups %xmm5,0xe8(%rsp)
    97c1:	00 
    97c2:	66 0f 6e ea          	movd   %edx,%xmm5
    97c6:	4c 89 ce             	mov    %r9,%rsi
    97c9:	66 0f 6c c1          	punpcklqdq %xmm1,%xmm0
    97cd:	31 d2                	xor    %edx,%edx
    97cf:	0f 11 a4 24 c8 00 00 	movups %xmm4,0xc8(%rsp)
    97d6:	00 
    97d7:	66 0f 6e e0          	movd   %eax,%xmm4
    97db:	48 8d 3d ce ab ff ff 	lea    -0x5432(%rip),%rdi        # 43b0 <interp_._omp_fn.1>
    97e2:	66 0f 62 e5          	punpckldq %xmm5,%xmm4
    97e6:	4c 89 4c 24 20       	mov    %r9,0x20(%rsp)
    97eb:	4c 89 ac 24 c0 00 00 	mov    %r13,0xc0(%rsp)
    97f2:	00 
    97f3:	0f 11 b4 24 d8 00 00 	movups %xmm6,0xd8(%rsp)
    97fa:	00 
    97fb:	66 0f d6 a4 24 08 01 	movq   %xmm4,0x108(%rsp)
    9802:	00 00 
    9804:	0f 11 84 24 f8 00 00 	movups %xmm0,0xf8(%rsp)
    980b:	00 
    980c:	0f 29 94 24 a0 00 00 	movaps %xmm2,0xa0(%rsp)
    9813:	00 
    9814:	0f 29 9c 24 b0 00 00 	movaps %xmm3,0xb0(%rsp)
    981b:	00 
    981c:	e8 df 89 ff ff       	call   2200 <GOMP_parallel@plt>
    9821:	8b 35 19 79 00 00    	mov    0x7919(%rip),%esi        # 11140 <__mg_data_MOD_timeron>
    9827:	4c 8b 4c 24 20       	mov    0x20(%rsp),%r9
    982c:	85 f6                	test   %esi,%esi
    982e:	0f 84 c4 fe ff ff    	je     96f8 <interp_+0x198>
    9834:	48 8d 3d e5 47 00 00 	lea    0x47e5(%rip),%rdi        # e020 <_IO_stdin_used+0x20>
    983b:	4c 89 4c 24 20       	mov    %r9,0x20(%rsp)
    9840:	e8 5b 3a 00 00       	call   d2a0 <timer_stop_>
    9845:	4c 8b 4c 24 20       	mov    0x20(%rsp),%r9
    984a:	e9 a9 fe ff ff       	jmp    96f8 <interp_+0x198>
    984f:	90                   	nop
    9850:	b8 01 00 00 00       	mov    $0x1,%eax
    9855:	66 44 0f 6e c0       	movd   %eax,%xmm8
    985a:	b8 02 00 00 00       	mov    $0x2,%eax
    985f:	66 0f 6e c0          	movd   %eax,%xmm0
    9863:	31 c0                	xor    %eax,%eax
    9865:	83 ff 03             	cmp    $0x3,%edi
    9868:	0f 94 c0             	sete   %al
    986b:	8d 48 01             	lea    0x1(%rax),%ecx
    986e:	66 0f 6e f9          	movd   %ecx,%xmm7
    9872:	e9 20 ff ff ff       	jmp    9797 <interp_+0x237>
    9877:	66 0f 1f 84 00 00 00 	nopw   0x0(%rax,%rax,1)
    987e:	00 00 
    9880:	48 8d 3d 99 47 00 00 	lea    0x4799(%rip),%rdi        # e020 <_IO_stdin_used+0x20>
    9887:	4c 89 44 24 48       	mov    %r8,0x48(%rsp)
    988c:	48 89 44 24 40       	mov    %rax,0x40(%rsp)
    9891:	48 89 4c 24 38       	mov    %rcx,0x38(%rsp)
    9896:	4c 89 5c 24 30       	mov    %r11,0x30(%rsp)
    989b:	48 89 54 24 28       	mov    %rdx,0x28(%rsp)
    98a0:	48 89 74 24 20       	mov    %rsi,0x20(%rsp)
    98a5:	0f 29 94 24 90 00 00 	movaps %xmm2,0x90(%rsp)
    98ac:	00 
    98ad:	0f 29 b4 24 80 00 00 	movaps %xmm6,0x80(%rsp)
    98b4:	00 
    98b5:	0f 29 6c 24 70       	movaps %xmm5,0x70(%rsp)
    98ba:	0f 29 64 24 60       	movaps %xmm4,0x60(%rsp)
    98bf:	0f 29 5c 24 50       	movaps %xmm3,0x50(%rsp)
    98c4:	e8 b7 39 00 00       	call   d280 <timer_start_>
    98c9:	44 8b 4d 00          	mov    0x0(%rbp),%r9d
    98cd:	41 8b 3e             	mov    (%r14),%edi
    98d0:	66 0f 6f 94 24 90 00 	movdqa 0x90(%rsp),%xmm2
    98d7:	00 00 
    98d9:	66 0f 6f 6c 24 70    	movdqa 0x70(%rsp),%xmm5
    98df:	66 0f 6f b4 24 80 00 	movdqa 0x80(%rsp),%xmm6
    98e6:	00 00 
    98e8:	66 0f 6f 64 24 60    	movdqa 0x60(%rsp),%xmm4
    98ee:	66 0f 6f 5c 24 50    	movdqa 0x50(%rsp),%xmm3
    98f4:	4c 8b 44 24 48       	mov    0x48(%rsp),%r8
    98f9:	48 8b 44 24 40       	mov    0x40(%rsp),%rax
    98fe:	48 8b 4c 24 38       	mov    0x38(%rsp),%rcx
    9903:	4c 8b 5c 24 30       	mov    0x30(%rsp),%r11
    9908:	48 8b 54 24 28       	mov    0x28(%rsp),%rdx
    990d:	48 8b 74 24 20       	mov    0x20(%rsp),%rsi
    9912:	e9 29 fd ff ff       	jmp    9640 <interp_+0xe0>
    9917:	66 0f 1f 84 00 00 00 	nopw   0x0(%rax,%rax,1)
    991e:	00 00 
    9920:	48 8b 4c 24 08       	mov    0x8(%rsp),%rcx
    9925:	48 8b 74 24 18       	mov    0x18(%rsp),%rsi
    992a:	4c 89 e2             	mov    %r12,%rdx
    992d:	48 8b 7c 24 10       	mov    0x10(%rsp),%rdi
    9932:	e8 89 f8 ff ff       	call   91c0 <showall_>
    9937:	4c 89 f9             	mov    %r15,%rcx
    993a:	4c 89 f2             	mov    %r14,%rdx
    993d:	48 89 ee             	mov    %rbp,%rsi
    9940:	48 81 c4 18 01 00 00 	add    $0x118,%rsp
    9947:	4c 89 ef             	mov    %r13,%rdi
    994a:	5b                   	pop    %rbx
    994b:	5d                   	pop    %rbp
    994c:	41 5c                	pop    %r12
    994e:	41 5d                	pop    %r13
    9950:	41 5e                	pop    %r14
    9952:	41 5f                	pop    %r15
    9954:	e9 67 f8 ff ff       	jmp    91c0 <showall_>
    9959:	0f 1f 80 00 00 00 00 	nopl   0x0(%rax)
    9960:	b9 01 00 00 00       	mov    $0x1,%ecx
    9965:	b8 01 00 00 00       	mov    $0x1,%eax
    996a:	66 45 0f ef c0       	pxor   %xmm8,%xmm8
    996f:	ba 01 00 00 00       	mov    $0x1,%edx
    9974:	66 0f 6e f9          	movd   %ecx,%xmm7
    9978:	b9 02 00 00 00       	mov    $0x2,%ecx
    997d:	66 0f 6e c0          	movd   %eax,%xmm0
    9981:	31 c0                	xor    %eax,%eax
    9983:	66 0f 6e c9          	movd   %ecx,%xmm1
    9987:	e9 1b fe ff ff       	jmp    97a7 <interp_+0x247>
    998c:	0f 1f 40 00          	nopl   0x0(%rax)

0000000000009990 <resid_>:
    9990:	41 57                	push   %r15
    9992:	66 48 0f 6e ea       	movq   %rdx,%xmm5
    9997:	31 c0                	xor    %eax,%eax
    9999:	66 48 0f 6e f9       	movq   %rcx,%xmm7
    999e:	41 56                	push   %r14
    99a0:	66 0f 6c ef          	punpcklqdq %xmm7,%xmm5
    99a4:	66 49 0f 6e f0       	movq   %r8,%xmm6
    99a9:	66 49 0f 6e f9       	movq   %r9,%xmm7
    99ae:	41 55                	push   %r13
    99b0:	66 0f 6c f7          	punpcklqdq %xmm7,%xmm6
    99b4:	66 48 0f 6e fe       	movq   %rsi,%xmm7
    99b9:	4d 89 cd             	mov    %r9,%r13
    99bc:	41 54                	push   %r12
    99be:	66 48 0f 6e d7       	movq   %rdi,%xmm2
    99c3:	4d 89 c4             	mov    %r8,%r12
    99c6:	55                   	push   %rbp
    99c7:	48 89 cd             	mov    %rcx,%rbp
    99ca:	66 0f 6c d7          	punpcklqdq %xmm7,%xmm2
    99ce:	53                   	push   %rbx
    99cf:	48 81 ec f8 00 00 00 	sub    $0xf8,%rsp
    99d6:	44 8b 0d 63 77 00 00 	mov    0x7763(%rip),%r9d        # 11140 <__mg_data_MOD_timeron>
    99dd:	48 89 54 24 20       	mov    %rdx,0x20(%rsp)
    99e2:	48 63 11             	movslq (%rcx),%rdx
    99e5:	0f 29 2c 24          	movaps %xmm5,(%rsp)
    99e9:	4c 8b bc 24 30 01 00 	mov    0x130(%rsp),%r15
    99f0:	00 
    99f1:	48 8b 9c 24 38 01 00 	mov    0x138(%rsp),%rbx
    99f8:	00 
    99f9:	48 85 d2             	test   %rdx,%rdx
    99fc:	0f 29 74 24 10       	movaps %xmm6,0x10(%rsp)
    9a01:	48 0f 48 d0          	cmovs  %rax,%rdx
    9a05:	49 63 00             	movslq (%r8),%rax
    9a08:	31 c9                	xor    %ecx,%ecx
    9a0a:	48 89 c6             	mov    %rax,%rsi
    9a0d:	48 0f af c2          	imul   %rdx,%rax
    9a11:	66 48 0f 6e da       	movq   %rdx,%xmm3
    9a16:	66 48 0f 6e ea       	movq   %rdx,%xmm5
    9a1b:	48 85 c0             	test   %rax,%rax
    9a1e:	48 0f 48 c1          	cmovs  %rcx,%rax
    9a22:	48 89 d1             	mov    %rdx,%rcx
    9a25:	48 f7 d1             	not    %rcx
    9a28:	66 48 0f 6e c8       	movq   %rax,%xmm1
    9a2d:	48 29 c1             	sub    %rax,%rcx
    9a30:	66 48 0f 6e c0       	movq   %rax,%xmm0
    9a35:	66 0f 6c d9          	punpcklqdq %xmm1,%xmm3
    9a39:	66 48 0f 6e e1       	movq   %rcx,%xmm4
    9a3e:	66 48 0f 6e c9       	movq   %rcx,%xmm1
    9a43:	66 0f 6c e5          	punpcklqdq %xmm5,%xmm4
    9a47:	66 0f 6c c1          	punpcklqdq %xmm1,%xmm0
    9a4b:	45 85 c9             	test   %r9d,%r9d
    9a4e:	0f 85 ec 01 00 00    	jne    9c40 <resid_+0x2b0>
    9a54:	41 8b 45 00          	mov    0x0(%r13),%eax
    9a58:	66 0f 6f 34 24       	movdqa (%rsp),%xmm6
    9a5d:	83 ee 01             	sub    $0x1,%esi
    9a60:	31 c9                	xor    %ecx,%ecx
    9a62:	4c 8d 74 24 70       	lea    0x70(%rsp),%r14
    9a67:	89 b4 24 e4 00 00 00 	mov    %esi,0xe4(%rsp)
    9a6e:	31 d2                	xor    %edx,%edx
    9a70:	48 8d 3d 89 8b ff ff 	lea    -0x7477(%rip),%rdi        # 2600 <resid_._omp_fn.0>
    9a77:	83 e8 01             	sub    $0x1,%eax
    9a7a:	4c 89 f6             	mov    %r14,%rsi
    9a7d:	4c 89 bc 24 90 00 00 	mov    %r15,0x90(%rsp)
    9a84:	00 
    9a85:	89 84 24 e0 00 00 00 	mov    %eax,0xe0(%rsp)
    9a8c:	66 0f d6 8c 24 d8 00 	movq   %xmm1,0xd8(%rsp)
    9a93:	00 00 
    9a95:	0f 11 9c 24 98 00 00 	movups %xmm3,0x98(%rsp)
    9a9c:	00 
    9a9d:	0f 11 a4 24 a8 00 00 	movups %xmm4,0xa8(%rsp)
    9aa4:	00 
    9aa5:	0f 11 84 24 b8 00 00 	movups %xmm0,0xb8(%rsp)
    9aac:	00 
    9aad:	0f 11 9c 24 c8 00 00 	movups %xmm3,0xc8(%rsp)
    9ab4:	00 
    9ab5:	0f 29 54 24 70       	movaps %xmm2,0x70(%rsp)
    9aba:	0f 29 b4 24 80 00 00 	movaps %xmm6,0x80(%rsp)
    9ac1:	00 
    9ac2:	e8 39 87 ff ff       	call   2200 <GOMP_parallel@plt>
    9ac7:	44 8b 05 72 76 00 00 	mov    0x7672(%rip),%r8d        # 11140 <__mg_data_MOD_timeron>
    9ace:	45 85 c0             	test   %r8d,%r8d
    9ad1:	0f 85 01 01 00 00    	jne    9bd8 <resid_+0x248>
    9ad7:	4c 63 7d 00          	movslq 0x0(%rbp),%r15
    9adb:	31 c0                	xor    %eax,%eax
    9add:	4d 85 ff             	test   %r15,%r15
    9ae0:	4c 0f 48 f8          	cmovs  %rax,%r15
    9ae4:	49 63 04 24          	movslq (%r12),%rax
    9ae8:	31 d2                	xor    %edx,%edx
    9aea:	49 0f af c7          	imul   %r15,%rax
    9aee:	48 85 c0             	test   %rax,%rax
    9af1:	48 0f 48 c2          	cmovs  %rdx,%rax
    9af5:	4c 89 fa             	mov    %r15,%rdx
    9af8:	48 f7 d2             	not    %rdx
    9afb:	48 29 c2             	sub    %rax,%rdx
    9afe:	66 0f 6f 0c 24       	movdqa (%rsp),%xmm1
    9b03:	66 0f 6f 6c 24 10    	movdqa 0x10(%rsp),%xmm5
    9b09:	4c 89 f6             	mov    %r14,%rsi
    9b0c:	31 c9                	xor    %ecx,%ecx
    9b0e:	66 48 0f 6e f8       	movq   %rax,%xmm7
    9b13:	66 49 0f 6e c7       	movq   %r15,%xmm0
    9b18:	48 89 94 24 a0 00 00 	mov    %rdx,0xa0(%rsp)
    9b1f:	00 
    9b20:	31 d2                	xor    %edx,%edx
    9b22:	66 0f 6c c7          	punpcklqdq %xmm7,%xmm0
    9b26:	48 8d 3d a3 c6 ff ff 	lea    -0x395d(%rip),%rdi        # 61d0 <comm3_._omp_fn.0>
    9b2d:	0f 29 4c 24 70       	movaps %xmm1,0x70(%rsp)
    9b32:	0f 29 84 24 90 00 00 	movaps %xmm0,0x90(%rsp)
    9b39:	00 
    9b3a:	0f 29 ac 24 80 00 00 	movaps %xmm5,0x80(%rsp)
    9b41:	00 
    9b42:	e8 b9 86 ff ff       	call   2200 <GOMP_parallel@plt>
    9b47:	8b 35 f3 75 00 00    	mov    0x75f3(%rip),%esi        # 11140 <__mg_data_MOD_timeron>
    9b4d:	85 f6                	test   %esi,%esi
    9b4f:	75 4f                	jne    9ba0 <resid_+0x210>
    9b51:	8b 0d e9 97 00 00    	mov    0x97e9(%rip),%ecx        # 13340 <__mg_data_MOD_debug_vec>
    9b57:	85 c9                	test   %ecx,%ecx
    9b59:	7e 25                	jle    9b80 <resid_+0x1f0>
    9b5b:	48 83 ec 08          	sub    $0x8,%rsp
    9b5f:	4c 89 e2             	mov    %r12,%rdx
    9b62:	49 89 d9             	mov    %rbx,%r9
    9b65:	4c 89 e9             	mov    %r13,%rcx
    9b68:	6a 08                	push   $0x8
    9b6a:	48 8b 7c 24 30       	mov    0x30(%rsp),%rdi
    9b6f:	4c 8d 05 9f 45 00 00 	lea    0x459f(%rip),%r8        # e115 <options.163.0+0x75>
    9b76:	48 89 ee             	mov    %rbp,%rsi
    9b79:	e8 e2 f8 ff ff       	call   9460 <rep_nrm_>
    9b7e:	58                   	pop    %rax
    9b7f:	5a                   	pop    %rdx
    9b80:	8b 03                	mov    (%rbx),%eax
    9b82:	39 05 c0 97 00 00    	cmp    %eax,0x97c0(%rip)        # 13348 <__mg_data_MOD_debug_vec+0x8>
    9b88:	7d 26                	jge    9bb0 <resid_+0x220>
    9b8a:	48 81 c4 f8 00 00 00 	add    $0xf8,%rsp
    9b91:	5b                   	pop    %rbx
    9b92:	5d                   	pop    %rbp
    9b93:	41 5c                	pop    %r12
    9b95:	41 5d                	pop    %r13
    9b97:	41 5e                	pop    %r14
    9b99:	41 5f                	pop    %r15
    9b9b:	c3                   	ret    
    9b9c:	0f 1f 40 00          	nopl   0x0(%rax)
    9ba0:	48 8d 3d 75 44 00 00 	lea    0x4475(%rip),%rdi        # e01c <_IO_stdin_used+0x1c>
    9ba7:	e8 f4 36 00 00       	call   d2a0 <timer_stop_>
    9bac:	eb a3                	jmp    9b51 <resid_+0x1c1>
    9bae:	66 90                	xchg   %ax,%ax
    9bb0:	48 8b 7c 24 20       	mov    0x20(%rsp),%rdi
    9bb5:	4c 89 e9             	mov    %r13,%rcx
    9bb8:	4c 89 e2             	mov    %r12,%rdx
    9bbb:	48 89 ee             	mov    %rbp,%rsi
    9bbe:	48 81 c4 f8 00 00 00 	add    $0xf8,%rsp
    9bc5:	5b                   	pop    %rbx
    9bc6:	5d                   	pop    %rbp
    9bc7:	41 5c                	pop    %r12
    9bc9:	41 5d                	pop    %r13
    9bcb:	41 5e                	pop    %r14
    9bcd:	41 5f                	pop    %r15
    9bcf:	e9 ec f5 ff ff       	jmp    91c0 <showall_>
    9bd4:	0f 1f 40 00          	nopl   0x0(%rax)
    9bd8:	48 8d 3d 45 44 00 00 	lea    0x4445(%rip),%rdi        # e024 <_IO_stdin_used+0x24>
    9bdf:	e8 bc 36 00 00       	call   d2a0 <timer_stop_>
    9be4:	4c 63 7d 00          	movslq 0x0(%rbp),%r15
    9be8:	31 c0                	xor    %eax,%eax
    9bea:	8b 3d 50 75 00 00    	mov    0x7550(%rip),%edi        # 11140 <__mg_data_MOD_timeron>
    9bf0:	4d 85 ff             	test   %r15,%r15
    9bf3:	4c 0f 48 f8          	cmovs  %rax,%r15
    9bf7:	49 63 04 24          	movslq (%r12),%rax
    9bfb:	31 d2                	xor    %edx,%edx
    9bfd:	49 0f af c7          	imul   %r15,%rax
    9c01:	48 85 c0             	test   %rax,%rax
    9c04:	48 0f 48 c2          	cmovs  %rdx,%rax
    9c08:	4c 89 fa             	mov    %r15,%rdx
    9c0b:	48 f7 d2             	not    %rdx
    9c0e:	48 29 c2             	sub    %rax,%rdx
    9c11:	85 ff                	test   %edi,%edi
    9c13:	0f 84 e5 fe ff ff    	je     9afe <resid_+0x16e>
    9c19:	48 8d 3d fc 43 00 00 	lea    0x43fc(%rip),%rdi        # e01c <_IO_stdin_used+0x1c>
    9c20:	48 89 54 24 30       	mov    %rdx,0x30(%rsp)
    9c25:	48 89 44 24 28       	mov    %rax,0x28(%rsp)
    9c2a:	e8 51 36 00 00       	call   d280 <timer_start_>
    9c2f:	48 8b 54 24 30       	mov    0x30(%rsp),%rdx
    9c34:	48 8b 44 24 28       	mov    0x28(%rsp),%rax
    9c39:	e9 c0 fe ff ff       	jmp    9afe <resid_+0x16e>
    9c3e:	66 90                	xchg   %ax,%ax
    9c40:	48 8d 3d dd 43 00 00 	lea    0x43dd(%rip),%rdi        # e024 <_IO_stdin_used+0x24>
    9c47:	0f 29 5c 24 60       	movaps %xmm3,0x60(%rsp)
    9c4c:	0f 29 64 24 50       	movaps %xmm4,0x50(%rsp)
    9c51:	0f 29 44 24 40       	movaps %xmm0,0x40(%rsp)
    9c56:	0f 29 54 24 30       	movaps %xmm2,0x30(%rsp)
    9c5b:	48 89 4c 24 28       	mov    %rcx,0x28(%rsp)
    9c60:	e8 1b 36 00 00       	call   d280 <timer_start_>
    9c65:	41 8b 34 24          	mov    (%r12),%esi
    9c69:	66 0f 6f 5c 24 60    	movdqa 0x60(%rsp),%xmm3
    9c6f:	66 0f 6f 64 24 50    	movdqa 0x50(%rsp),%xmm4
    9c75:	66 0f 6f 44 24 40    	movdqa 0x40(%rsp),%xmm0
    9c7b:	66 0f 6f 54 24 30    	movdqa 0x30(%rsp),%xmm2
    9c81:	f3 0f 7e 4c 24 28    	movq   0x28(%rsp),%xmm1
    9c87:	e9 c8 fd ff ff       	jmp    9a54 <resid_+0xc4>
    9c8c:	0f 1f 40 00          	nopl   0x0(%rax)

0000000000009c90 <psinv_>:
    9c90:	41 57                	push   %r15
    9c92:	66 48 0f 6e ca       	movq   %rdx,%xmm1
    9c97:	66 48 0f 6e da       	movq   %rdx,%xmm3
    9c9c:	31 c0                	xor    %eax,%eax
    9c9e:	41 56                	push   %r14
    9ca0:	66 48 0f 6e f9       	movq   %rcx,%xmm7
    9ca5:	66 48 0f 6e f6       	movq   %rsi,%xmm6
    9caa:	66 48 0f 6e d7       	movq   %rdi,%xmm2
    9caf:	41 55                	push   %r13
    9cb1:	66 0f 6c f1          	punpcklqdq %xmm1,%xmm6
    9cb5:	66 49 0f 6e c8       	movq   %r8,%xmm1
    9cba:	4d 89 c5             	mov    %r8,%r13
    9cbd:	41 54                	push   %r12
    9cbf:	49 89 cc             	mov    %rcx,%r12
    9cc2:	66 0f 6c f9          	punpcklqdq %xmm1,%xmm7
    9cc6:	55                   	push   %rbp
    9cc7:	48 89 d5             	mov    %rdx,%rbp
    9cca:	53                   	push   %rbx
    9ccb:	48 81 ec e8 00 00 00 	sub    $0xe8,%rsp
    9cd2:	48 63 12             	movslq (%rdx),%rdx
    9cd5:	48 89 74 24 08       	mov    %rsi,0x8(%rsp)
    9cda:	4c 8b b4 24 20 01 00 	mov    0x120(%rsp),%r14
    9ce1:	00 
    9ce2:	48 85 d2             	test   %rdx,%rdx
    9ce5:	0f 29 74 24 20       	movaps %xmm6,0x20(%rsp)
    9cea:	66 49 0f 6e f1       	movq   %r9,%xmm6
    9cef:	44 8b 0d 4a 74 00 00 	mov    0x744a(%rip),%r9d        # 11140 <__mg_data_MOD_timeron>
    9cf6:	48 0f 48 d0          	cmovs  %rax,%rdx
    9cfa:	48 63 01             	movslq (%rcx),%rax
    9cfd:	31 f6                	xor    %esi,%esi
    9cff:	0f 29 7c 24 10       	movaps %xmm7,0x10(%rsp)
    9d04:	66 0f 6c de          	punpcklqdq %xmm6,%xmm3
    9d08:	0f 16 54 24 08       	movhps 0x8(%rsp),%xmm2
    9d0d:	48 89 c1             	mov    %rax,%rcx
    9d10:	48 0f af c2          	imul   %rdx,%rax
    9d14:	66 48 0f 6e ea       	movq   %rdx,%xmm5
    9d19:	66 48 0f 6e f2       	movq   %rdx,%xmm6
    9d1e:	48 85 c0             	test   %rax,%rax
    9d21:	48 0f 48 c6          	cmovs  %rsi,%rax
    9d25:	48 89 d6             	mov    %rdx,%rsi
    9d28:	48 f7 d6             	not    %rsi
    9d2b:	48 29 c6             	sub    %rax,%rsi
    9d2e:	66 48 0f 6e f8       	movq   %rax,%xmm7
    9d33:	66 48 0f 6e c0       	movq   %rax,%xmm0
    9d38:	66 48 0f 6e ce       	movq   %rsi,%xmm1
    9d3d:	66 48 0f 6e e6       	movq   %rsi,%xmm4
    9d42:	66 0f 6c ef          	punpcklqdq %xmm7,%xmm5
    9d46:	66 0f 6c e6          	punpcklqdq %xmm6,%xmm4
    9d4a:	66 0f 6c c1          	punpcklqdq %xmm1,%xmm0
    9d4e:	45 85 c9             	test   %r9d,%r9d
    9d51:	0f 85 d9 01 00 00    	jne    9f30 <psinv_+0x2a0>
    9d57:	41 8b 45 00          	mov    0x0(%r13),%eax
    9d5b:	83 e9 01             	sub    $0x1,%ecx
    9d5e:	31 d2                	xor    %edx,%edx
    9d60:	48 8d 3d 29 95 ff ff 	lea    -0x6ad7(%rip),%rdi        # 3290 <psinv_._omp_fn.0>
    9d67:	48 8d 9c 24 80 00 00 	lea    0x80(%rsp),%rbx
    9d6e:	00 
    9d6f:	89 8c 24 d4 00 00 00 	mov    %ecx,0xd4(%rsp)
    9d76:	31 c9                	xor    %ecx,%ecx
    9d78:	83 e8 01             	sub    $0x1,%eax
    9d7b:	48 89 de             	mov    %rbx,%rsi
    9d7e:	0f 29 ac 24 a0 00 00 	movaps %xmm5,0xa0(%rsp)
    9d85:	00 
    9d86:	89 84 24 d0 00 00 00 	mov    %eax,0xd0(%rsp)
    9d8d:	0f 29 a4 24 b0 00 00 	movaps %xmm4,0xb0(%rsp)
    9d94:	00 
    9d95:	0f 29 84 24 c0 00 00 	movaps %xmm0,0xc0(%rsp)
    9d9c:	00 
    9d9d:	0f 29 94 24 80 00 00 	movaps %xmm2,0x80(%rsp)
    9da4:	00 
    9da5:	0f 29 9c 24 90 00 00 	movaps %xmm3,0x90(%rsp)
    9dac:	00 
    9dad:	e8 4e 84 ff ff       	call   2200 <GOMP_parallel@plt>
    9db2:	44 8b 05 87 73 00 00 	mov    0x7387(%rip),%r8d        # 11140 <__mg_data_MOD_timeron>
    9db9:	45 85 c0             	test   %r8d,%r8d
    9dbc:	0f 85 06 01 00 00    	jne    9ec8 <psinv_+0x238>
    9dc2:	4c 63 7d 00          	movslq 0x0(%rbp),%r15
    9dc6:	31 c0                	xor    %eax,%eax
    9dc8:	4d 85 ff             	test   %r15,%r15
    9dcb:	4c 0f 48 f8          	cmovs  %rax,%r15
    9dcf:	49 63 04 24          	movslq (%r12),%rax
    9dd3:	31 d2                	xor    %edx,%edx
    9dd5:	49 0f af c7          	imul   %r15,%rax
    9dd9:	48 85 c0             	test   %rax,%rax
    9ddc:	48 0f 48 c2          	cmovs  %rdx,%rax
    9de0:	4c 89 fa             	mov    %r15,%rdx
    9de3:	48 f7 d2             	not    %rdx
    9de6:	48 29 c2             	sub    %rax,%rdx
    9de9:	66 0f 6f 7c 24 20    	movdqa 0x20(%rsp),%xmm7
    9def:	66 48 0f 6e c8       	movq   %rax,%xmm1
    9df4:	48 89 de             	mov    %rbx,%rsi
    9df7:	31 c9                	xor    %ecx,%ecx
    9df9:	66 0f 6f 54 24 10    	movdqa 0x10(%rsp),%xmm2
    9dff:	66 49 0f 6e c7       	movq   %r15,%xmm0
    9e04:	48 89 94 24 b0 00 00 	mov    %rdx,0xb0(%rsp)
    9e0b:	00 
    9e0c:	31 d2                	xor    %edx,%edx
    9e0e:	66 0f 6c c1          	punpcklqdq %xmm1,%xmm0
    9e12:	48 8d 3d b7 c3 ff ff 	lea    -0x3c49(%rip),%rdi        # 61d0 <comm3_._omp_fn.0>
    9e19:	0f 29 bc 24 80 00 00 	movaps %xmm7,0x80(%rsp)
    9e20:	00 
    9e21:	0f 29 84 24 a0 00 00 	movaps %xmm0,0xa0(%rsp)
    9e28:	00 
    9e29:	0f 29 94 24 90 00 00 	movaps %xmm2,0x90(%rsp)
    9e30:	00 
    9e31:	e8 ca 83 ff ff       	call   2200 <GOMP_parallel@plt>
    9e36:	8b 35 04 73 00 00    	mov    0x7304(%rip),%esi        # 11140 <__mg_data_MOD_timeron>
    9e3c:	85 f6                	test   %esi,%esi
    9e3e:	75 50                	jne    9e90 <psinv_+0x200>
    9e40:	8b 0d fa 94 00 00    	mov    0x94fa(%rip),%ecx        # 13340 <__mg_data_MOD_debug_vec>
    9e46:	85 c9                	test   %ecx,%ecx
    9e48:	7e 25                	jle    9e6f <psinv_+0x1df>
    9e4a:	48 83 ec 08          	sub    $0x8,%rsp
    9e4e:	4c 89 e2             	mov    %r12,%rdx
    9e51:	4d 89 f1             	mov    %r14,%r9
    9e54:	4c 89 e9             	mov    %r13,%rcx
    9e57:	6a 08                	push   $0x8
    9e59:	48 8b 7c 24 18       	mov    0x18(%rsp),%rdi
    9e5e:	4c 8d 05 b9 42 00 00 	lea    0x42b9(%rip),%r8        # e11e <options.163.0+0x7e>
    9e65:	48 89 ee             	mov    %rbp,%rsi
    9e68:	e8 f3 f5 ff ff       	call   9460 <rep_nrm_>
    9e6d:	58                   	pop    %rax
    9e6e:	5a                   	pop    %rdx
    9e6f:	41 8b 06             	mov    (%r14),%eax
    9e72:	39 05 d4 94 00 00    	cmp    %eax,0x94d4(%rip)        # 1334c <__mg_data_MOD_debug_vec+0xc>
    9e78:	7d 26                	jge    9ea0 <psinv_+0x210>
    9e7a:	48 81 c4 e8 00 00 00 	add    $0xe8,%rsp
    9e81:	5b                   	pop    %rbx
    9e82:	5d                   	pop    %rbp
    9e83:	41 5c                	pop    %r12
    9e85:	41 5d                	pop    %r13
    9e87:	41 5e                	pop    %r14
    9e89:	41 5f                	pop    %r15
    9e8b:	c3                   	ret    
    9e8c:	0f 1f 40 00          	nopl   0x0(%rax)
    9e90:	48 8d 3d 85 41 00 00 	lea    0x4185(%rip),%rdi        # e01c <_IO_stdin_used+0x1c>
    9e97:	e8 04 34 00 00       	call   d2a0 <timer_stop_>
    9e9c:	eb a2                	jmp    9e40 <psinv_+0x1b0>
    9e9e:	66 90                	xchg   %ax,%ax
    9ea0:	48 8b 7c 24 08       	mov    0x8(%rsp),%rdi
    9ea5:	4c 89 e9             	mov    %r13,%rcx
    9ea8:	4c 89 e2             	mov    %r12,%rdx
    9eab:	48 89 ee             	mov    %rbp,%rsi
    9eae:	48 81 c4 e8 00 00 00 	add    $0xe8,%rsp
    9eb5:	5b                   	pop    %rbx
    9eb6:	5d                   	pop    %rbp
    9eb7:	41 5c                	pop    %r12
    9eb9:	41 5d                	pop    %r13
    9ebb:	41 5e                	pop    %r14
    9ebd:	41 5f                	pop    %r15
    9ebf:	e9 fc f2 ff ff       	jmp    91c0 <showall_>
    9ec4:	0f 1f 40 00          	nopl   0x0(%rax)
    9ec8:	48 8d 3d 59 41 00 00 	lea    0x4159(%rip),%rdi        # e028 <_IO_stdin_used+0x28>
    9ecf:	e8 cc 33 00 00       	call   d2a0 <timer_stop_>
    9ed4:	4c 63 7d 00          	movslq 0x0(%rbp),%r15
    9ed8:	31 c0                	xor    %eax,%eax
    9eda:	8b 3d 60 72 00 00    	mov    0x7260(%rip),%edi        # 11140 <__mg_data_MOD_timeron>
    9ee0:	4d 85 ff             	test   %r15,%r15
    9ee3:	4c 0f 48 f8          	cmovs  %rax,%r15
    9ee7:	49 63 04 24          	movslq (%r12),%rax
    9eeb:	31 d2                	xor    %edx,%edx
    9eed:	49 0f af c7          	imul   %r15,%rax
    9ef1:	48 85 c0             	test   %rax,%rax
    9ef4:	48 0f 48 c2          	cmovs  %rdx,%rax
    9ef8:	4c 89 fa             	mov    %r15,%rdx
    9efb:	48 f7 d2             	not    %rdx
    9efe:	48 29 c2             	sub    %rax,%rdx
    9f01:	85 ff                	test   %edi,%edi
    9f03:	0f 84 e0 fe ff ff    	je     9de9 <psinv_+0x159>
    9f09:	48 8d 3d 0c 41 00 00 	lea    0x410c(%rip),%rdi        # e01c <_IO_stdin_used+0x1c>
    9f10:	48 89 54 24 40       	mov    %rdx,0x40(%rsp)
    9f15:	48 89 44 24 30       	mov    %rax,0x30(%rsp)
    9f1a:	e8 61 33 00 00       	call   d280 <timer_start_>
    9f1f:	48 8b 54 24 40       	mov    0x40(%rsp),%rdx
    9f24:	48 8b 44 24 30       	mov    0x30(%rsp),%rax
    9f29:	e9 bb fe ff ff       	jmp    9de9 <psinv_+0x159>
    9f2e:	66 90                	xchg   %ax,%ax
    9f30:	48 8d 3d f1 40 00 00 	lea    0x40f1(%rip),%rdi        # e028 <_IO_stdin_used+0x28>
    9f37:	0f 29 6c 24 70       	movaps %xmm5,0x70(%rsp)
    9f3c:	0f 29 64 24 60       	movaps %xmm4,0x60(%rsp)
    9f41:	0f 29 44 24 50       	movaps %xmm0,0x50(%rsp)
    9f46:	0f 29 54 24 40       	movaps %xmm2,0x40(%rsp)
    9f4b:	0f 29 5c 24 30       	movaps %xmm3,0x30(%rsp)
    9f50:	e8 2b 33 00 00       	call   d280 <timer_start_>
    9f55:	41 8b 0c 24          	mov    (%r12),%ecx
    9f59:	66 0f 6f 6c 24 70    	movdqa 0x70(%rsp),%xmm5
    9f5f:	66 0f 6f 64 24 60    	movdqa 0x60(%rsp),%xmm4
    9f65:	66 0f 6f 44 24 50    	movdqa 0x50(%rsp),%xmm0
    9f6b:	66 0f 6f 54 24 40    	movdqa 0x40(%rsp),%xmm2
    9f71:	66 0f 6f 5c 24 30    	movdqa 0x30(%rsp),%xmm3
    9f77:	e9 db fd ff ff       	jmp    9d57 <psinv_+0xc7>
    9f7c:	0f 1f 40 00          	nopl   0x0(%rax)

0000000000009f80 <comm3_>:
    9f80:	53                   	push   %rbx
    9f81:	66 48 0f 6e e1       	movq   %rcx,%xmm4
    9f86:	31 c9                	xor    %ecx,%ecx
    9f88:	66 48 0f 6e ca       	movq   %rdx,%xmm1
    9f8d:	66 48 0f 6e c7       	movq   %rdi,%xmm0
    9f92:	66 48 0f 6e de       	movq   %rsi,%xmm3
    9f97:	66 0f 6c cc          	punpcklqdq %xmm4,%xmm1
    9f9b:	66 0f 6c c3          	punpcklqdq %xmm3,%xmm0
    9f9f:	48 83 ec 70          	sub    $0x70,%rsp
    9fa3:	48 63 06             	movslq (%rsi),%rax
    9fa6:	48 63 12             	movslq (%rdx),%rdx
    9fa9:	48 85 c0             	test   %rax,%rax
    9fac:	48 0f 48 c1          	cmovs  %rcx,%rax
    9fb0:	48 0f af d0          	imul   %rax,%rdx
    9fb4:	66 48 0f 6e d0       	movq   %rax,%xmm2
    9fb9:	48 f7 d0             	not    %rax
    9fbc:	48 85 d2             	test   %rdx,%rdx
    9fbf:	48 0f 48 d1          	cmovs  %rcx,%rdx
    9fc3:	66 48 0f 6e ea       	movq   %rdx,%xmm5
    9fc8:	48 29 d0             	sub    %rdx,%rax
    9fcb:	8b 15 6f 71 00 00    	mov    0x716f(%rip),%edx        # 11140 <__mg_data_MOD_timeron>
    9fd1:	66 0f 6c d5          	punpcklqdq %xmm5,%xmm2
    9fd5:	48 89 c3             	mov    %rax,%rbx
    9fd8:	85 d2                	test   %edx,%edx
    9fda:	75 3c                	jne    a018 <comm3_+0x98>
    9fdc:	48 8d 74 24 30       	lea    0x30(%rsp),%rsi
    9fe1:	31 c9                	xor    %ecx,%ecx
    9fe3:	31 d2                	xor    %edx,%edx
    9fe5:	48 89 5c 24 60       	mov    %rbx,0x60(%rsp)
    9fea:	48 8d 3d df c1 ff ff 	lea    -0x3e21(%rip),%rdi        # 61d0 <comm3_._omp_fn.0>
    9ff1:	0f 29 54 24 50       	movaps %xmm2,0x50(%rsp)
    9ff6:	0f 29 44 24 30       	movaps %xmm0,0x30(%rsp)
    9ffb:	0f 29 4c 24 40       	movaps %xmm1,0x40(%rsp)
    a000:	e8 fb 81 ff ff       	call   2200 <GOMP_parallel@plt>
    a005:	8b 05 35 71 00 00    	mov    0x7135(%rip),%eax        # 11140 <__mg_data_MOD_timeron>
    a00b:	85 c0                	test   %eax,%eax
    a00d:	75 39                	jne    a048 <comm3_+0xc8>
    a00f:	48 83 c4 70          	add    $0x70,%rsp
    a013:	5b                   	pop    %rbx
    a014:	c3                   	ret    
    a015:	0f 1f 00             	nopl   (%rax)
    a018:	48 8d 3d fd 3f 00 00 	lea    0x3ffd(%rip),%rdi        # e01c <_IO_stdin_used+0x1c>
    a01f:	0f 29 54 24 20       	movaps %xmm2,0x20(%rsp)
    a024:	0f 29 44 24 10       	movaps %xmm0,0x10(%rsp)
    a029:	0f 29 0c 24          	movaps %xmm1,(%rsp)
    a02d:	e8 4e 32 00 00       	call   d280 <timer_start_>
    a032:	66 0f 6f 54 24 20    	movdqa 0x20(%rsp),%xmm2
    a038:	66 0f 6f 44 24 10    	movdqa 0x10(%rsp),%xmm0
    a03e:	66 0f 6f 0c 24       	movdqa (%rsp),%xmm1
    a043:	eb 97                	jmp    9fdc <comm3_+0x5c>
    a045:	0f 1f 00             	nopl   (%rax)
    a048:	48 83 c4 70          	add    $0x70,%rsp
    a04c:	48 8d 3d c9 3f 00 00 	lea    0x3fc9(%rip),%rdi        # e01c <_IO_stdin_used+0x1c>
    a053:	5b                   	pop    %rbx
    a054:	e9 47 32 00 00       	jmp    d2a0 <timer_stop_>
    a059:	0f 1f 80 00 00 00 00 	nopl   0x0(%rax)

000000000000a060 <rprj3_>:
    a060:	41 57                	push   %r15
    a062:	49 89 f7             	mov    %rsi,%r15
    a065:	48 89 d6             	mov    %rdx,%rsi
    a068:	31 d2                	xor    %edx,%edx
    a06a:	41 56                	push   %r14
    a06c:	66 49 0f 6e f9       	movq   %r9,%xmm7
    a071:	66 49 0f 6e f0       	movq   %r8,%xmm6
    a076:	66 49 0f 6e e8       	movq   %r8,%xmm5
    a07b:	41 55                	push   %r13
    a07d:	66 48 0f 6e df       	movq   %rdi,%xmm3
    a082:	66 0f 6c f7          	punpcklqdq %xmm7,%xmm6
    a086:	41 54                	push   %r12
    a088:	66 0f 6c dd          	punpcklqdq %xmm5,%xmm3
    a08c:	55                   	push   %rbp
    a08d:	4c 89 cd             	mov    %r9,%rbp
    a090:	53                   	push   %rbx
    a091:	4c 89 c3             	mov    %r8,%rbx
    a094:	48 81 ec d8 00 00 00 	sub    $0xd8,%rsp
    a09b:	49 63 07             	movslq (%r15),%rax
    a09e:	4c 63 0e             	movslq (%rsi),%r9
    a0a1:	4c 8b a4 24 10 01 00 	mov    0x110(%rsp),%r12
    a0a8:	00 
    a0a9:	4c 8b ac 24 18 01 00 	mov    0x118(%rsp),%r13
    a0b0:	00 
    a0b1:	0f 29 74 24 10       	movaps %xmm6,0x10(%rsp)
    a0b6:	48 85 c0             	test   %rax,%rax
    a0b9:	49 89 c0             	mov    %rax,%r8
    a0bc:	4c 89 cf             	mov    %r9,%rdi
    a0bf:	4c 8b b4 24 20 01 00 	mov    0x120(%rsp),%r14
    a0c6:	00 
    a0c7:	48 0f 48 c2          	cmovs  %rdx,%rax
    a0cb:	66 49 0f 6e f5       	movq   %r13,%xmm6
    a0d0:	66 49 0f 6e fc       	movq   %r12,%xmm7
    a0d5:	66 0f 6c fe          	punpcklqdq %xmm6,%xmm7
    a0d9:	4c 0f af c8          	imul   %rax,%r9
    a0dd:	66 48 0f 6e e0       	movq   %rax,%xmm4
    a0e2:	48 f7 d0             	not    %rax
    a0e5:	0f 29 3c 24          	movaps %xmm7,(%rsp)
    a0e9:	4d 85 c9             	test   %r9,%r9
    a0ec:	4c 0f 48 ca          	cmovs  %rdx,%r9
    a0f0:	48 63 55 00          	movslq 0x0(%rbp),%rdx
    a0f4:	45 31 d2             	xor    %r10d,%r10d
    a0f7:	48 85 d2             	test   %rdx,%rdx
    a0fa:	66 49 0f 6e f1       	movq   %r9,%xmm6
    a0ff:	49 0f 48 d2          	cmovs  %r10,%rdx
    a103:	4c 29 c8             	sub    %r9,%rax
    a106:	66 0f 6c e6          	punpcklqdq %xmm6,%xmm4
    a10a:	66 48 0f 6e c0       	movq   %rax,%xmm0
    a10f:	49 63 04 24          	movslq (%r12),%rax
    a113:	66 48 0f 6e fa       	movq   %rdx,%xmm7
    a118:	49 89 c1             	mov    %rax,%r9
    a11b:	48 0f af c2          	imul   %rdx,%rax
    a11f:	66 0f 6c c7          	punpcklqdq %xmm7,%xmm0
    a123:	48 f7 d2             	not    %rdx
    a126:	48 85 c0             	test   %rax,%rax
    a129:	49 0f 48 c2          	cmovs  %r10,%rax
    a12d:	44 8b 15 0c 70 00 00 	mov    0x700c(%rip),%r10d        # 11140 <__mg_data_MOD_timeron>
    a134:	48 29 c2             	sub    %rax,%rdx
    a137:	66 48 0f 6e d0       	movq   %rax,%xmm2
    a13c:	66 48 0f 6e ca       	movq   %rdx,%xmm1
    a141:	66 0f 6c d1          	punpcklqdq %xmm1,%xmm2
    a145:	45 85 d2             	test   %r10d,%r10d
    a148:	0f 85 32 02 00 00    	jne    a380 <rprj3_+0x320>
    a14e:	31 c0                	xor    %eax,%eax
    a150:	41 83 f8 03          	cmp    $0x3,%r8d
    a154:	4c 8d 7c 24 70       	lea    0x70(%rsp),%r15
    a159:	48 89 ac 24 80 00 00 	mov    %rbp,0x80(%rsp)
    a160:	00 
    a161:	0f 94 c0             	sete   %al
    a164:	31 f6                	xor    %esi,%esi
    a166:	0f 11 84 24 98 00 00 	movups %xmm0,0x98(%rsp)
    a16d:	00 
    a16e:	83 c0 01             	add    $0x1,%eax
    a171:	83 ff 03             	cmp    $0x3,%edi
    a174:	41 8b 7d 00          	mov    0x0(%r13),%edi
    a178:	0f 11 94 24 a8 00 00 	movups %xmm2,0xa8(%rsp)
    a17f:	00 
    a180:	40 0f 94 c6          	sete   %sil
    a184:	31 d2                	xor    %edx,%edx
    a186:	66 0f 6e c8          	movd   %eax,%xmm1
    a18a:	0f 29 5c 24 70       	movaps %xmm3,0x70(%rsp)
    a18f:	83 c6 01             	add    $0x1,%esi
    a192:	83 39 03             	cmpl   $0x3,(%rcx)
    a195:	8d 4f ff             	lea    -0x1(%rdi),%ecx
    a198:	0f 11 a4 24 88 00 00 	movups %xmm4,0x88(%rsp)
    a19f:	00 
    a1a0:	0f 94 c2             	sete   %dl
    a1a3:	66 0f 6e f1          	movd   %ecx,%xmm6
    a1a7:	66 0f 6e fe          	movd   %esi,%xmm7
    a1ab:	31 c9                	xor    %ecx,%ecx
    a1ad:	83 c2 01             	add    $0x1,%edx
    a1b0:	66 0f 62 cf          	punpckldq %xmm7,%xmm1
    a1b4:	41 83 e9 01          	sub    $0x1,%r9d
    a1b8:	4c 89 fe             	mov    %r15,%rsi
    a1bb:	66 0f 6e ea          	movd   %edx,%xmm5
    a1bf:	48 8d 3d 9a c5 ff ff 	lea    -0x3a66(%rip),%rdi        # 6760 <rprj3_._omp_fn.0>
    a1c6:	31 d2                	xor    %edx,%edx
    a1c8:	44 89 8c 24 c8 00 00 	mov    %r9d,0xc8(%rsp)
    a1cf:	00 
    a1d0:	66 0f 62 ee          	punpckldq %xmm6,%xmm5
    a1d4:	66 0f 6c cd          	punpcklqdq %xmm5,%xmm1
    a1d8:	0f 11 8c 24 b8 00 00 	movups %xmm1,0xb8(%rsp)
    a1df:	00 
    a1e0:	e8 1b 80 ff ff       	call   2200 <GOMP_parallel@plt>
    a1e5:	44 8b 05 54 6f 00 00 	mov    0x6f54(%rip),%r8d        # 11140 <__mg_data_MOD_timeron>
    a1ec:	45 85 c0             	test   %r8d,%r8d
    a1ef:	0f 85 13 01 00 00    	jne    a308 <rprj3_+0x2a8>
    a1f5:	48 63 45 00          	movslq 0x0(%rbp),%rax
    a1f9:	31 d2                	xor    %edx,%edx
    a1fb:	48 85 c0             	test   %rax,%rax
    a1fe:	48 0f 48 c2          	cmovs  %rdx,%rax
    a202:	49 63 14 24          	movslq (%r12),%rdx
    a206:	31 c9                	xor    %ecx,%ecx
    a208:	48 0f af d0          	imul   %rax,%rdx
    a20c:	48 85 d2             	test   %rdx,%rdx
    a20f:	48 0f 48 d1          	cmovs  %rcx,%rdx
    a213:	48 89 c1             	mov    %rax,%rcx
    a216:	48 f7 d1             	not    %rcx
    a219:	48 29 d1             	sub    %rdx,%rcx
    a21c:	66 48 0f 6e d2       	movq   %rdx,%xmm2
    a221:	66 0f 6f 5c 24 10    	movdqa 0x10(%rsp),%xmm3
    a227:	4c 89 fe             	mov    %r15,%rsi
    a22a:	31 d2                	xor    %edx,%edx
    a22c:	66 0f 6f 24 24       	movdqa (%rsp),%xmm4
    a231:	66 48 0f 6e c0       	movq   %rax,%xmm0
    a236:	48 89 8c 24 a0 00 00 	mov    %rcx,0xa0(%rsp)
    a23d:	00 
    a23e:	31 c9                	xor    %ecx,%ecx
    a240:	66 0f 6c c2          	punpcklqdq %xmm2,%xmm0
    a244:	48 8d 3d 85 bf ff ff 	lea    -0x407b(%rip),%rdi        # 61d0 <comm3_._omp_fn.0>
    a24b:	0f 29 5c 24 70       	movaps %xmm3,0x70(%rsp)
    a250:	0f 29 84 24 90 00 00 	movaps %xmm0,0x90(%rsp)
    a257:	00 
    a258:	0f 29 a4 24 80 00 00 	movaps %xmm4,0x80(%rsp)
    a25f:	00 
    a260:	e8 9b 7f ff ff       	call   2200 <GOMP_parallel@plt>
    a265:	8b 35 d5 6e 00 00    	mov    0x6ed5(%rip),%esi        # 11140 <__mg_data_MOD_timeron>
    a26b:	85 f6                	test   %esi,%esi
    a26d:	75 59                	jne    a2c8 <rprj3_+0x268>
    a26f:	8b 0d cb 90 00 00    	mov    0x90cb(%rip),%ecx        # 13340 <__mg_data_MOD_debug_vec>
    a275:	85 c9                	test   %ecx,%ecx
    a277:	7e 2d                	jle    a2a6 <rprj3_+0x246>
    a279:	41 8b 06             	mov    (%r14),%eax
    a27c:	48 83 ec 08          	sub    $0x8,%rsp
    a280:	4c 89 e2             	mov    %r12,%rdx
    a283:	4d 89 f9             	mov    %r15,%r9
    a286:	4c 8d 05 9a 3e 00 00 	lea    0x3e9a(%rip),%r8        # e127 <options.163.0+0x87>
    a28d:	4c 89 e9             	mov    %r13,%rcx
    a290:	48 89 ee             	mov    %rbp,%rsi
    a293:	48 89 df             	mov    %rbx,%rdi
    a296:	83 e8 01             	sub    $0x1,%eax
    a299:	89 44 24 78          	mov    %eax,0x78(%rsp)
    a29d:	6a 08                	push   $0x8
    a29f:	e8 bc f1 ff ff       	call   9460 <rep_nrm_>
    a2a4:	58                   	pop    %rax
    a2a5:	5a                   	pop    %rdx
    a2a6:	41 8b 06             	mov    (%r14),%eax
    a2a9:	39 05 a1 90 00 00    	cmp    %eax,0x90a1(%rip)        # 13350 <__mg_data_MOD_debug_vec+0x10>
    a2af:	7d 2f                	jge    a2e0 <rprj3_+0x280>
    a2b1:	48 81 c4 d8 00 00 00 	add    $0xd8,%rsp
    a2b8:	5b                   	pop    %rbx
    a2b9:	5d                   	pop    %rbp
    a2ba:	41 5c                	pop    %r12
    a2bc:	41 5d                	pop    %r13
    a2be:	41 5e                	pop    %r14
    a2c0:	41 5f                	pop    %r15
    a2c2:	c3                   	ret    
    a2c3:	0f 1f 44 00 00       	nopl   0x0(%rax,%rax,1)
    a2c8:	48 8d 3d 4d 3d 00 00 	lea    0x3d4d(%rip),%rdi        # e01c <_IO_stdin_used+0x1c>
    a2cf:	e8 cc 2f 00 00       	call   d2a0 <timer_stop_>
    a2d4:	eb 99                	jmp    a26f <rprj3_+0x20f>
    a2d6:	66 2e 0f 1f 84 00 00 	cs nopw 0x0(%rax,%rax,1)
    a2dd:	00 00 00 
    a2e0:	48 81 c4 d8 00 00 00 	add    $0xd8,%rsp
    a2e7:	4c 89 e9             	mov    %r13,%rcx
    a2ea:	4c 89 e2             	mov    %r12,%rdx
    a2ed:	48 89 ee             	mov    %rbp,%rsi
    a2f0:	48 89 df             	mov    %rbx,%rdi
    a2f3:	5b                   	pop    %rbx
    a2f4:	5d                   	pop    %rbp
    a2f5:	41 5c                	pop    %r12
    a2f7:	41 5d                	pop    %r13
    a2f9:	41 5e                	pop    %r14
    a2fb:	41 5f                	pop    %r15
    a2fd:	e9 be ee ff ff       	jmp    91c0 <showall_>
    a302:	66 0f 1f 44 00 00    	nopw   0x0(%rax,%rax,1)
    a308:	48 8d 3d 1d 3d 00 00 	lea    0x3d1d(%rip),%rdi        # e02c <_IO_stdin_used+0x2c>
    a30f:	e8 8c 2f 00 00       	call   d2a0 <timer_stop_>
    a314:	48 63 45 00          	movslq 0x0(%rbp),%rax
    a318:	31 d2                	xor    %edx,%edx
    a31a:	8b 3d 20 6e 00 00    	mov    0x6e20(%rip),%edi        # 11140 <__mg_data_MOD_timeron>
    a320:	48 85 c0             	test   %rax,%rax
    a323:	48 0f 48 c2          	cmovs  %rdx,%rax
    a327:	49 63 14 24          	movslq (%r12),%rdx
    a32b:	31 c9                	xor    %ecx,%ecx
    a32d:	48 0f af d0          	imul   %rax,%rdx
    a331:	48 85 d2             	test   %rdx,%rdx
    a334:	48 0f 48 d1          	cmovs  %rcx,%rdx
    a338:	48 89 c1             	mov    %rax,%rcx
    a33b:	48 f7 d1             	not    %rcx
    a33e:	48 29 d1             	sub    %rdx,%rcx
    a341:	85 ff                	test   %edi,%edi
    a343:	0f 84 d3 fe ff ff    	je     a21c <rprj3_+0x1bc>
    a349:	48 8d 3d cc 3c 00 00 	lea    0x3ccc(%rip),%rdi        # e01c <_IO_stdin_used+0x1c>
    a350:	48 89 4c 24 40       	mov    %rcx,0x40(%rsp)
    a355:	48 89 44 24 30       	mov    %rax,0x30(%rsp)
    a35a:	48 89 54 24 20       	mov    %rdx,0x20(%rsp)
    a35f:	e8 1c 2f 00 00       	call   d280 <timer_start_>
    a364:	48 8b 4c 24 40       	mov    0x40(%rsp),%rcx
    a369:	48 8b 44 24 30       	mov    0x30(%rsp),%rax
    a36e:	48 8b 54 24 20       	mov    0x20(%rsp),%rdx
    a373:	e9 a4 fe ff ff       	jmp    a21c <rprj3_+0x1bc>
    a378:	0f 1f 84 00 00 00 00 	nopl   0x0(%rax,%rax,1)
    a37f:	00 
    a380:	48 8d 3d a5 3c 00 00 	lea    0x3ca5(%rip),%rdi        # e02c <_IO_stdin_used+0x2c>
    a387:	48 89 4c 24 68       	mov    %rcx,0x68(%rsp)
    a38c:	48 89 74 24 60       	mov    %rsi,0x60(%rsp)
    a391:	0f 29 44 24 50       	movaps %xmm0,0x50(%rsp)
    a396:	0f 29 54 24 40       	movaps %xmm2,0x40(%rsp)
    a39b:	0f 29 64 24 30       	movaps %xmm4,0x30(%rsp)
    a3a0:	0f 29 5c 24 20       	movaps %xmm3,0x20(%rsp)
    a3a5:	e8 d6 2e 00 00       	call   d280 <timer_start_>
    a3aa:	48 8b 74 24 60       	mov    0x60(%rsp),%rsi
    a3af:	45 8b 07             	mov    (%r15),%r8d
    a3b2:	45 8b 0c 24          	mov    (%r12),%r9d
    a3b6:	48 8b 4c 24 68       	mov    0x68(%rsp),%rcx
    a3bb:	8b 3e                	mov    (%rsi),%edi
    a3bd:	66 0f 6f 44 24 50    	movdqa 0x50(%rsp),%xmm0
    a3c3:	66 0f 6f 54 24 40    	movdqa 0x40(%rsp),%xmm2
    a3c9:	66 0f 6f 64 24 30    	movdqa 0x30(%rsp),%xmm4
    a3cf:	66 0f 6f 5c 24 20    	movdqa 0x20(%rsp),%xmm3
    a3d5:	e9 74 fd ff ff       	jmp    a14e <rprj3_+0xee>
    a3da:	66 0f 1f 44 00 00    	nopw   0x0(%rax,%rax,1)

000000000000a3e0 <mg3p_>:
    a3e0:	41 57                	push   %r15
    a3e2:	41 56                	push   %r14
    a3e4:	49 89 fe             	mov    %rdi,%r14
    a3e7:	48 89 d7             	mov    %rdx,%rdi
    a3ea:	41 55                	push   %r13
    a3ec:	4c 8d 2d 0d 8f 00 00 	lea    0x8f0d(%rip),%r13        # 13300 <__mg_data_MOD_ir>
    a3f3:	41 54                	push   %r12
    a3f5:	4c 8d 25 44 8e 00 00 	lea    0x8e44(%rip),%r12        # 13240 <__mg_data_MOD_m3>
    a3fc:	55                   	push   %rbp
    a3fd:	48 8d 2d 7c 8e 00 00 	lea    0x8e7c(%rip),%rbp        # 13280 <__mg_data_MOD_m2>
    a404:	53                   	push   %rbx
    a405:	48 8d 1d b4 8e 00 00 	lea    0x8eb4(%rip),%rbx        # 132c0 <__mg_data_MOD_m1>
    a40c:	48 81 ec 98 00 00 00 	sub    $0x98,%rsp
    a413:	48 8b 84 24 d0 00 00 	mov    0xd0(%rsp),%rax
    a41a:	00 
    a41b:	48 89 54 24 08       	mov    %rdx,0x8(%rsp)
    a420:	4c 8b bc 24 e0 00 00 	mov    0xe0(%rsp),%r15
    a427:	00 
    a428:	8b 15 be 8e 00 00    	mov    0x8ebe(%rip),%edx        # 132ec <__mg_data_MOD_lt>
    a42e:	48 89 74 24 40       	mov    %rsi,0x40(%rsp)
    a433:	48 89 44 24 50       	mov    %rax,0x50(%rsp)
    a438:	48 8b 84 24 d8 00 00 	mov    0xd8(%rsp),%rax
    a43f:	00 
    a440:	48 89 4c 24 30       	mov    %rcx,0x30(%rsp)
    a445:	48 89 44 24 58       	mov    %rax,0x58(%rsp)
    a44a:	48 63 05 9f 8e 00 00 	movslq 0x8e9f(%rip),%rax        # 132f0 <__mg_data_MOD_lb>
    a451:	4c 89 44 24 20       	mov    %r8,0x20(%rsp)
    a456:	4c 89 4c 24 48       	mov    %r9,0x48(%rsp)
    a45b:	89 44 24 10          	mov    %eax,0x10(%rsp)
    a45f:	41 89 17             	mov    %edx,(%r15)
    a462:	39 d0                	cmp    %edx,%eax
    a464:	0f 8d 97 00 00 00    	jge    a501 <mg3p_+0x121>
    a46a:	4c 89 74 24 18       	mov    %r14,0x18(%rsp)
    a46f:	49 89 ee             	mov    %rbp,%r14
    a472:	4c 89 e5             	mov    %r12,%rbp
    a475:	49 89 dc             	mov    %rbx,%r12
    a478:	48 89 fb             	mov    %rdi,%rbx
    a47b:	0f 1f 44 00 00       	nopl   0x0(%rax,%rax,1)
    a480:	8d 4a ff             	lea    -0x1(%rdx),%ecx
    a483:	48 63 d2             	movslq %edx,%rdx
    a486:	48 83 ec 08          	sub    $0x8,%rsp
    a48a:	48 63 c9             	movslq %ecx,%rcx
    a48d:	49 63 54 95 fc       	movslq -0x4(%r13,%rdx,4),%rdx
    a492:	48 83 e9 01          	sub    $0x1,%rcx
    a496:	4c 8d 0c 8d 00 00 00 	lea    0x0(,%rcx,4),%r9
    a49d:	00 
    a49e:	48 8d 7c d3 f8       	lea    -0x8(%rbx,%rdx,8),%rdi
    a4a3:	4d 63 44 8d 00       	movslq 0x0(%r13,%rcx,4),%r8
    a4a8:	41 57                	push   %r15
    a4aa:	4a 8d 54 0d 00       	lea    0x0(%rbp,%r9,1),%rdx
    a4af:	49 8d 71 04          	lea    0x4(%r9),%rsi
    a4b3:	52                   	push   %rdx
    a4b4:	4b 8d 14 0e          	lea    (%r14,%r9,1),%rdx
    a4b8:	4d 8d 1c 36          	lea    (%r14,%rsi,1),%r11
    a4bc:	4d 01 e1             	add    %r12,%r9
    a4bf:	52                   	push   %rdx
    a4c0:	48 8d 4c 35 00       	lea    0x0(%rbp,%rsi,1),%rcx
    a4c5:	4c 89 da             	mov    %r11,%rdx
    a4c8:	4c 01 e6             	add    %r12,%rsi
    a4cb:	4e 8d 44 c3 f8       	lea    -0x8(%rbx,%r8,8),%r8
    a4d0:	e8 8b fb ff ff       	call   a060 <rprj3_>
    a4d5:	41 8b 07             	mov    (%r15),%eax
    a4d8:	48 83 c4 20          	add    $0x20,%rsp
    a4dc:	8d 50 ff             	lea    -0x1(%rax),%edx
    a4df:	41 89 17             	mov    %edx,(%r15)
    a4e2:	39 54 24 10          	cmp    %edx,0x10(%rsp)
    a4e6:	7c 98                	jl     a480 <mg3p_+0xa0>
    a4e8:	48 63 05 01 8e 00 00 	movslq 0x8e01(%rip),%rax        # 132f0 <__mg_data_MOD_lb>
    a4ef:	4c 89 e3             	mov    %r12,%rbx
    a4f2:	49 89 ec             	mov    %rbp,%r12
    a4f5:	4c 89 f5             	mov    %r14,%rbp
    a4f8:	4c 8b 74 24 18       	mov    0x18(%rsp),%r14
    a4fd:	89 44 24 10          	mov    %eax,0x10(%rsp)
    a501:	49 63 54 85 fc       	movslq -0x4(%r13,%rax,4),%rdx
    a506:	48 8d 70 ff          	lea    -0x1(%rax),%rsi
    a50a:	31 c9                	xor    %ecx,%ecx
    a50c:	41 89 07             	mov    %eax,(%r15)
    a50f:	66 0f 6e 5c b5 00    	movd   0x0(%rbp,%rsi,4),%xmm3
    a515:	66 41 0f 6e 04 b4    	movd   (%r12,%rsi,4),%xmm0
    a51b:	4d 8d 44 d6 f8       	lea    -0x8(%r14,%rdx,8),%r8
    a520:	48 63 54 83 fc       	movslq -0x4(%rbx,%rax,4),%rdx
    a525:	66 0f 62 c3          	punpckldq %xmm3,%xmm0
    a529:	4c 89 44 24 60       	mov    %r8,0x60(%rsp)
    a52e:	66 0f d6 84 24 88 00 	movq   %xmm0,0x88(%rsp)
    a535:	00 00 
    a537:	48 85 d2             	test   %rdx,%rdx
    a53a:	48 0f 48 d1          	cmovs  %rcx,%rdx
    a53e:	48 63 4c b5 00       	movslq 0x0(%rbp,%rsi,4),%rcx
    a543:	31 ff                	xor    %edi,%edi
    a545:	48 0f af ca          	imul   %rdx,%rcx
    a549:	66 48 0f 6e c2       	movq   %rdx,%xmm0
    a54e:	48 85 c9             	test   %rcx,%rcx
    a551:	48 0f 48 cf          	cmovs  %rdi,%rcx
    a555:	48 89 d7             	mov    %rdx,%rdi
    a558:	48 8d 14 b3          	lea    (%rbx,%rsi,4),%rdx
    a55c:	48 f7 d7             	not    %rdi
    a55f:	48 89 54 24 68       	mov    %rdx,0x68(%rsp)
    a564:	48 8d 74 24 60       	lea    0x60(%rsp),%rsi
    a569:	31 d2                	xor    %edx,%edx
    a56b:	66 48 0f 6e e1       	movq   %rcx,%xmm4
    a570:	48 29 cf             	sub    %rcx,%rdi
    a573:	31 c9                	xor    %ecx,%ecx
    a575:	48 89 74 24 38       	mov    %rsi,0x38(%rsp)
    a57a:	48 89 bc 24 80 00 00 	mov    %rdi,0x80(%rsp)
    a581:	00 
    a582:	66 0f 6c c4          	punpcklqdq %xmm4,%xmm0
    a586:	48 8d 3d d3 8b ff ff 	lea    -0x742d(%rip),%rdi        # 3160 <zero3_._omp_fn.0>
    a58d:	0f 29 44 24 70       	movaps %xmm0,0x70(%rsp)
    a592:	e8 69 7c ff ff       	call   2200 <GOMP_parallel@plt>
    a597:	49 63 17             	movslq (%r15),%rdx
    a59a:	48 8b 44 24 08       	mov    0x8(%rsp),%rax
    a59f:	48 83 ec 08          	sub    $0x8,%rsp
    a5a3:	48 83 ea 01          	sub    $0x1,%rdx
    a5a7:	48 8d 0c 95 00 00 00 	lea    0x0(,%rdx,4),%rcx
    a5ae:	00 
    a5af:	49 63 54 95 00       	movslq 0x0(%r13,%rdx,4),%rdx
    a5b4:	41 57                	push   %r15
    a5b6:	4c 8d 14 0b          	lea    (%rbx,%rcx,1),%r10
    a5ba:	4c 8b 4c 24 30       	mov    0x30(%rsp),%r9
    a5bf:	4c 8d 5c 0d 00       	lea    0x0(%rbp,%rcx,1),%r11
    a5c4:	48 8d 14 d5 f8 ff ff 	lea    -0x8(,%rdx,8),%rdx
    a5cb:	ff 
    a5cc:	4d 8d 04 0c          	lea    (%r12,%rcx,1),%r8
    a5d0:	4c 89 d9             	mov    %r11,%rcx
    a5d3:	48 8d 3c 10          	lea    (%rax,%rdx,1),%rdi
    a5d7:	49 8d 34 16          	lea    (%r14,%rdx,1),%rsi
    a5db:	4c 89 d2             	mov    %r10,%rdx
    a5de:	e8 ad f6 ff ff       	call   9c90 <psinv_>
    a5e3:	8b 05 07 8d 00 00    	mov    0x8d07(%rip),%eax        # 132f0 <__mg_data_MOD_lb>
    a5e9:	8d 50 01             	lea    0x1(%rax),%edx
    a5ec:	8b 05 fa 8c 00 00    	mov    0x8cfa(%rip),%eax        # 132ec <__mg_data_MOD_lt>
    a5f2:	41 89 17             	mov    %edx,(%r15)
    a5f5:	89 44 24 3c          	mov    %eax,0x3c(%rsp)
    a5f9:	5e                   	pop    %rsi
    a5fa:	5f                   	pop    %rdi
    a5fb:	39 d0                	cmp    %edx,%eax
    a5fd:	0f 8e af 01 00 00    	jle    a7b2 <mg3p_+0x3d2>
    a603:	0f 1f 44 00 00       	nopl   0x0(%rax,%rax,1)
    a608:	48 63 c2             	movslq %edx,%rax
    a60b:	31 c9                	xor    %ecx,%ecx
    a60d:	48 8d 70 ff          	lea    -0x1(%rax),%rsi
    a611:	48 89 44 24 18       	mov    %rax,0x18(%rsp)
    a616:	49 63 54 b5 00       	movslq 0x0(%r13,%rsi,4),%rdx
    a61b:	66 0f 6e 4c b5 00    	movd   0x0(%rbp,%rsi,4),%xmm1
    a621:	4c 8d 04 b5 00 00 00 	lea    0x0(,%rsi,4),%r8
    a628:	00 
    a629:	66 41 0f 6e 04 b4    	movd   (%r12,%rsi,4),%xmm0
    a62f:	4c 89 44 24 10       	mov    %r8,0x10(%rsp)
    a634:	49 8d 7c d6 f8       	lea    -0x8(%r14,%rdx,8),%rdi
    a639:	48 63 14 b3          	movslq (%rbx,%rsi,4),%rdx
    a63d:	66 0f 62 c1          	punpckldq %xmm1,%xmm0
    a641:	48 89 7c 24 60       	mov    %rdi,0x60(%rsp)
    a646:	48 8d 3d 13 8b ff ff 	lea    -0x74ed(%rip),%rdi        # 3160 <zero3_._omp_fn.0>
    a64d:	66 0f d6 84 24 88 00 	movq   %xmm0,0x88(%rsp)
    a654:	00 00 
    a656:	48 85 d2             	test   %rdx,%rdx
    a659:	48 0f 48 d1          	cmovs  %rcx,%rdx
    a65d:	48 63 4c b5 00       	movslq 0x0(%rbp,%rsi,4),%rcx
    a662:	45 31 c9             	xor    %r9d,%r9d
    a665:	48 0f af ca          	imul   %rdx,%rcx
    a669:	48 89 d6             	mov    %rdx,%rsi
    a66c:	66 48 0f 6e c2       	movq   %rdx,%xmm0
    a671:	48 f7 d6             	not    %rsi
    a674:	4a 8d 14 03          	lea    (%rbx,%r8,1),%rdx
    a678:	48 89 54 24 68       	mov    %rdx,0x68(%rsp)
    a67d:	48 85 c9             	test   %rcx,%rcx
    a680:	49 0f 48 c9          	cmovs  %r9,%rcx
    a684:	31 d2                	xor    %edx,%edx
    a686:	48 29 ce             	sub    %rcx,%rsi
    a689:	66 48 0f 6e d1       	movq   %rcx,%xmm2
    a68e:	31 c9                	xor    %ecx,%ecx
    a690:	48 89 b4 24 80 00 00 	mov    %rsi,0x80(%rsp)
    a697:	00 
    a698:	48 8b 74 24 38       	mov    0x38(%rsp),%rsi
    a69d:	66 0f 6c c2          	punpcklqdq %xmm2,%xmm0
    a6a1:	0f 29 44 24 70       	movaps %xmm0,0x70(%rsp)
    a6a6:	e8 55 7b ff ff       	call   2200 <GOMP_parallel@plt>
    a6ab:	48 8b 44 24 18       	mov    0x18(%rsp),%rax
    a6b0:	49 63 0f             	movslq (%r15),%rcx
    a6b3:	48 83 ec 08          	sub    $0x8,%rsp
    a6b7:	4c 8b 44 24 18       	mov    0x18(%rsp),%r8
    a6bc:	49 63 44 85 f8       	movslq -0x8(%r13,%rax,4),%rax
    a6c1:	48 83 e9 01          	sub    $0x1,%rcx
    a6c5:	48 8d 14 8d 00 00 00 	lea    0x0(,%rcx,4),%rdx
    a6cc:	00 
    a6cd:	49 8d 70 fc          	lea    -0x4(%r8),%rsi
    a6d1:	4d 63 44 8d 00       	movslq 0x0(%r13,%rcx,4),%r8
    a6d6:	41 57                	push   %r15
    a6d8:	49 8d 7c c6 f8       	lea    -0x8(%r14,%rax,8),%rdi
    a6dd:	49 8d 04 14          	lea    (%r12,%rdx,1),%rax
    a6e1:	50                   	push   %rax
    a6e2:	48 8d 44 15 00       	lea    0x0(%rbp,%rdx,1),%rax
    a6e7:	4c 8d 5c 35 00       	lea    0x0(%rbp,%rsi,1),%r11
    a6ec:	50                   	push   %rax
    a6ed:	49 8d 0c 34          	lea    (%r12,%rsi,1),%rcx
    a6f1:	4c 8d 0c 13          	lea    (%rbx,%rdx,1),%r9
    a6f5:	48 01 de             	add    %rbx,%rsi
    a6f8:	4c 89 da             	mov    %r11,%rdx
    a6fb:	4f 8d 44 c6 f8       	lea    -0x8(%r14,%r8,8),%r8
    a700:	e8 5b ee ff ff       	call   9560 <interp_>
    a705:	49 63 07             	movslq (%r15),%rax
    a708:	48 8b 7c 24 28       	mov    0x28(%rsp),%rdi
    a70d:	48 83 c4 20          	add    $0x20,%rsp
    a711:	48 83 e8 01          	sub    $0x1,%rax
    a715:	48 8d 14 85 00 00 00 	lea    0x0(,%rax,4),%rdx
    a71c:	00 
    a71d:	49 63 44 85 00       	movslq 0x0(%r13,%rax,4),%rax
    a722:	41 57                	push   %r15
    a724:	ff 74 24 38          	push   0x38(%rsp)
    a728:	48 8d 0c 13          	lea    (%rbx,%rdx,1),%rcx
    a72c:	4d 8d 0c 14          	lea    (%r12,%rdx,1),%r9
    a730:	48 8d 04 c5 f8 ff ff 	lea    -0x8(,%rax,8),%rax
    a737:	ff 
    a738:	4c 8d 44 15 00       	lea    0x0(%rbp,%rdx,1),%r8
    a73d:	48 8d 34 07          	lea    (%rdi,%rax,1),%rsi
    a741:	49 8d 3c 06          	lea    (%r14,%rax,1),%rdi
    a745:	48 89 f2             	mov    %rsi,%rdx
    a748:	e8 43 f2 ff ff       	call   9990 <resid_>
    a74d:	49 63 07             	movslq (%r15),%rax
    a750:	48 8b 7c 24 18       	mov    0x18(%rsp),%rdi
    a755:	4c 8b 4c 24 30       	mov    0x30(%rsp),%r9
    a75a:	48 83 e8 01          	sub    $0x1,%rax
    a75e:	48 8d 14 85 00 00 00 	lea    0x0(,%rax,4),%rdx
    a765:	00 
    a766:	49 63 44 85 00       	movslq 0x0(%r13,%rax,4),%rax
    a76b:	4c 89 3c 24          	mov    %r15,(%rsp)
    a76f:	4c 8d 1c 13          	lea    (%rbx,%rdx,1),%r11
    a773:	48 8d 4c 15 00       	lea    0x0(%rbp,%rdx,1),%rcx
    a778:	48 8d 04 c5 f8 ff ff 	lea    -0x8(,%rax,8),%rax
    a77f:	ff 
    a780:	4d 8d 04 14          	lea    (%r12,%rdx,1),%r8
    a784:	4c 89 da             	mov    %r11,%rdx
    a787:	49 8d 34 06          	lea    (%r14,%rax,1),%rsi
    a78b:	48 01 c7             	add    %rax,%rdi
    a78e:	e8 fd f4 ff ff       	call   9c90 <psinv_>
    a793:	41 8b 07             	mov    (%r15),%eax
    a796:	8d 50 01             	lea    0x1(%rax),%edx
    a799:	41 89 17             	mov    %edx,(%r15)
    a79c:	58                   	pop    %rax
    a79d:	59                   	pop    %rcx
    a79e:	39 54 24 2c          	cmp    %edx,0x2c(%rsp)
    a7a2:	0f 8f 60 fe ff ff    	jg     a608 <mg3p_+0x228>
    a7a8:	8b 05 3e 8b 00 00    	mov    0x8b3e(%rip),%eax        # 132ec <__mg_data_MOD_lt>
    a7ae:	89 44 24 2c          	mov    %eax,0x2c(%rsp)
    a7b2:	8b 44 24 2c          	mov    0x2c(%rsp),%eax
    a7b6:	48 83 ec 08          	sub    $0x8,%rsp
    a7ba:	4d 89 f0             	mov    %r14,%r8
    a7bd:	8d 50 ff             	lea    -0x1(%rax),%edx
    a7c0:	41 89 07             	mov    %eax,(%r15)
    a7c3:	48 63 d2             	movslq %edx,%rdx
    a7c6:	48 83 ea 01          	sub    $0x1,%rdx
    a7ca:	48 8d 0c 95 00 00 00 	lea    0x0(,%rdx,4),%rcx
    a7d1:	00 
    a7d2:	49 63 54 95 00       	movslq 0x0(%r13,%rdx,4),%rdx
    a7d7:	41 57                	push   %r15
    a7d9:	4c 8b 6c 24 68       	mov    0x68(%rsp),%r13
    a7de:	4c 8d 54 0d 00       	lea    0x0(%rbp,%rcx,1),%r10
    a7e3:	48 8d 34 0b          	lea    (%rbx,%rcx,1),%rsi
    a7e7:	49 01 cc             	add    %rcx,%r12
    a7ea:	49 8d 7c d6 f8       	lea    -0x8(%r14,%rdx,8),%rdi
    a7ef:	4c 89 e1             	mov    %r12,%rcx
    a7f2:	4c 89 d2             	mov    %r10,%rdx
    a7f5:	41 55                	push   %r13
    a7f7:	48 8b 6c 24 68       	mov    0x68(%rsp),%rbp
    a7fc:	55                   	push   %rbp
    a7fd:	48 8b 5c 24 68       	mov    0x68(%rsp),%rbx
    a802:	49 89 d9             	mov    %rbx,%r9
    a805:	e8 56 ed ff ff       	call   9560 <interp_>
    a80a:	48 83 c4 20          	add    $0x20,%rsp
    a80e:	4d 89 e9             	mov    %r13,%r9
    a811:	49 89 e8             	mov    %rbp,%r8
    a814:	41 57                	push   %r15
    a816:	48 89 d9             	mov    %rbx,%rcx
    a819:	4c 89 f7             	mov    %r14,%rdi
    a81c:	ff 74 24 38          	push   0x38(%rsp)
    a820:	4c 8b 64 24 18       	mov    0x18(%rsp),%r12
    a825:	48 8b 74 24 50       	mov    0x50(%rsp),%rsi
    a82a:	4c 89 e2             	mov    %r12,%rdx
    a82d:	e8 5e f1 ff ff       	call   9990 <resid_>
    a832:	4c 8b 4c 24 30       	mov    0x30(%rsp),%r9
    a837:	4d 89 e8             	mov    %r13,%r8
    a83a:	48 89 e9             	mov    %rbp,%rcx
    a83d:	4c 89 bc 24 e0 00 00 	mov    %r15,0xe0(%rsp)
    a844:	00 
    a845:	48 81 c4 a8 00 00 00 	add    $0xa8,%rsp
    a84c:	48 89 da             	mov    %rbx,%rdx
    a84f:	4c 89 f6             	mov    %r14,%rsi
    a852:	5b                   	pop    %rbx
    a853:	4c 89 e7             	mov    %r12,%rdi
    a856:	5d                   	pop    %rbp
    a857:	41 5c                	pop    %r12
    a859:	41 5d                	pop    %r13
    a85b:	41 5e                	pop    %r14
    a85d:	41 5f                	pop    %r15
    a85f:	e9 2c f4 ff ff       	jmp    9c90 <psinv_>
    a864:	66 66 2e 0f 1f 84 00 	data16 cs nopw 0x0(%rax,%rax,1)
    a86b:	00 00 00 00 
    a86f:	90                   	nop

000000000000a870 <MAIN__>:
    a870:	41 57                	push   %r15
    a872:	41 56                	push   %r14
    a874:	41 55                	push   %r13
    a876:	41 54                	push   %r12
    a878:	55                   	push   %rbp
    a879:	53                   	push   %rbx
    a87a:	48 81 ec 98 03 00 00 	sub    $0x398,%rsp
    a881:	48 8d 84 24 c0 00 00 	lea    0xc0(%rsp),%rax
    a888:	00 
    a889:	4c 8d 6c 24 68       	lea    0x68(%rsp),%r13
    a88e:	48 89 c7             	mov    %rax,%rdi
    a891:	48 89 44 24 58       	mov    %rax,0x58(%rsp)
    a896:	e8 05 78 ff ff       	call   20a0 <_gfortran_ieee_procedure_entry@plt>
    a89b:	c7 44 24 68 01 00 00 	movl   $0x1,0x68(%rsp)
    a8a2:	00 
    a8a3:	0f 1f 44 00 00       	nopl   0x0(%rax,%rax,1)
    a8a8:	4c 89 ef             	mov    %r13,%rdi
    a8ab:	e8 b0 29 00 00       	call   d260 <timer_clear_>
    a8b0:	8b 44 24 68          	mov    0x68(%rsp),%eax
    a8b4:	83 c0 01             	add    $0x1,%eax
    a8b7:	89 44 24 68          	mov    %eax,0x68(%rsp)
    a8bb:	83 f8 0a             	cmp    $0xa,%eax
    a8be:	7e e8                	jle    a8a8 <MAIN__+0x38>
    a8c0:	48 8d 2d 69 37 00 00 	lea    0x3769(%rip),%rbp        # e030 <_IO_stdin_used+0x30>
    a8c7:	48 89 ef             	mov    %rbp,%rdi
    a8ca:	e8 b1 29 00 00       	call   d280 <timer_start_>
    a8cf:	48 8d 3d 6a 68 00 00 	lea    0x686a(%rip),%rdi        # 11140 <__mg_data_MOD_timeron>
    a8d6:	e8 15 2a 00 00       	call   d2f0 <check_timer_flag_>
    a8db:	44 8b 05 5e 68 00 00 	mov    0x685e(%rip),%r8d        # 11140 <__mg_data_MOD_timeron>
    a8e2:	45 85 c0             	test   %r8d,%r8d
    a8e5:	0f 85 5c 10 00 00    	jne    b947 <MAIN__+0x10d7>
    a8eb:	48 8d 05 4e 3a 00 00 	lea    0x3a4e(%rip),%rax        # e340 <options.163.0+0x2a0>
    a8f2:	48 8d 9c 24 80 01 00 	lea    0x180(%rsp),%rbx
    a8f9:	00 
    a8fa:	c7 84 24 90 01 00 00 	movl   $0x6a,0x190(%rsp)
    a901:	6a 00 00 00 
    a905:	48 89 84 24 d0 01 00 	mov    %rax,0x1d0(%rsp)
    a90c:	00 
    a90d:	48 89 df             	mov    %rbx,%rdi
    a910:	48 8b 05 31 3c 00 00 	mov    0x3c31(%rip),%rax        # e548 <options.163.0+0x4a8>
    a917:	4c 8d 3d 9e 37 00 00 	lea    0x379e(%rip),%r15        # e0bc <options.163.0+0x1c>
    a91e:	4c 89 bc 24 88 01 00 	mov    %r15,0x188(%rsp)
    a925:	00 
    a926:	48 89 84 24 80 01 00 	mov    %rax,0x180(%rsp)
    a92d:	00 
    a92e:	48 c7 84 24 d8 01 00 	movq   $0x4d,0x1d8(%rsp)
    a935:	00 4d 00 00 00 
    a93a:	e8 41 79 ff ff       	call   2280 <_gfortran_st_write@plt>
    a93f:	48 89 df             	mov    %rbx,%rdi
    a942:	e8 c9 78 ff ff       	call   2210 <_gfortran_st_write_done@plt>
    a947:	48 8d 44 24 64       	lea    0x64(%rsp),%rax
    a94c:	48 89 df             	mov    %rbx,%rdi
    a94f:	48 8d 0d da 37 00 00 	lea    0x37da(%rip),%rcx        # e130 <options.163.0+0x90>
    a956:	48 89 84 24 a8 01 00 	mov    %rax,0x1a8(%rsp)
    a95d:	00 
    a95e:	66 48 0f 6e c1       	movq   %rcx,%xmm0
    a963:	48 8d 05 cf 37 00 00 	lea    0x37cf(%rip),%rax        # e139 <options.163.0+0x99>
    a96a:	66 48 0f 6e e8       	movq   %rax,%xmm5
    a96f:	48 8b 05 ea 3b 00 00 	mov    0x3bea(%rip),%rax        # e560 <options.163.0+0x4c0>
    a976:	4c 89 bc 24 88 01 00 	mov    %r15,0x188(%rsp)
    a97d:	00 
    a97e:	66 0f 6c c5          	punpcklqdq %xmm5,%xmm0
    a982:	c7 84 24 90 01 00 00 	movl   $0x6c,0x190(%rsp)
    a989:	6c 00 00 00 
    a98d:	c7 44 24 64 00 00 00 	movl   $0x0,0x64(%rsp)
    a994:	00 
    a995:	48 c7 84 24 b8 01 00 	movq   $0x8,0x1b8(%rsp)
    a99c:	00 08 00 00 00 
    a9a1:	48 c7 84 24 d0 01 00 	movq   $0x3,0x1d0(%rsp)
    a9a8:	00 03 00 00 00 
    a9ad:	c7 84 24 b0 02 00 00 	movl   $0x0,0x2b0(%rsp)
    a9b4:	00 00 00 00 
    a9b8:	48 89 84 24 80 01 00 	mov    %rax,0x180(%rsp)
    a9bf:	00 
    a9c0:	0f 29 84 24 c0 01 00 	movaps %xmm0,0x1c0(%rsp)
    a9c7:	00 
    a9c8:	e8 53 77 ff ff       	call   2120 <_gfortran_st_open@plt>
    a9cd:	8b 7c 24 64          	mov    0x64(%rsp),%edi
    a9d1:	85 ff                	test   %edi,%edi
    a9d3:	0f 84 e9 00 00 00    	je     aac2 <MAIN__+0x252>
    a9d9:	48 8d 05 dc 36 00 00 	lea    0x36dc(%rip),%rax        # e0bc <options.163.0+0x1c>
    a9e0:	48 89 df             	mov    %rbx,%rdi
    a9e3:	c7 84 24 90 01 00 00 	movl   $0x75,0x190(%rsp)
    a9ea:	75 00 00 00 
    a9ee:	48 89 84 24 88 01 00 	mov    %rax,0x188(%rsp)
    a9f5:	00 
    a9f6:	48 8d 05 bb 39 00 00 	lea    0x39bb(%rip),%rax        # e3b8 <options.163.0+0x318>
    a9fd:	48 89 84 24 d0 01 00 	mov    %rax,0x1d0(%rsp)
    aa04:	00 
    aa05:	48 8b 05 3c 3b 00 00 	mov    0x3b3c(%rip),%rax        # e548 <options.163.0+0x4a8>
    aa0c:	48 c7 84 24 d8 01 00 	movq   $0x2c,0x1d8(%rsp)
    aa13:	00 2c 00 00 00 
    aa18:	48 89 84 24 80 01 00 	mov    %rax,0x180(%rsp)
    aa1f:	00 
    aa20:	e8 5b 78 ff ff       	call   2280 <_gfortran_st_write@plt>
    aa25:	48 89 df             	mov    %rbx,%rdi
    aa28:	e8 e3 77 ff ff       	call   2210 <_gfortran_st_write_done@plt>
    aa2d:	48 8d 15 0c 89 00 00 	lea    0x890c(%rip),%rdx        # 13340 <__mg_data_MOD_debug_vec>
    aa34:	31 c0                	xor    %eax,%eax
    aa36:	b9 08 00 00 00       	mov    $0x8,%ecx
    aa3b:	c7 05 a7 88 00 00 0a 	movl   $0xa,0x88a7(%rip)        # 132ec <__mg_data_MOD_lt>
    aa42:	00 00 00 
    aa45:	48 89 d7             	mov    %rdx,%rdi
    aa48:	ba 0a 00 00 00       	mov    $0xa,%edx
    aa4d:	f3 ab                	rep stos %eax,%es:(%rdi)
    aa4f:	48 8d 05 aa 87 00 00 	lea    0x87aa(%rip),%rax        # 13200 <__mg_data_MOD_nx>
    aa56:	c7 84 24 80 00 00 00 	movl   $0x32,0x80(%rsp)
    aa5d:	32 00 00 00 
    aa61:	48 89 44 24 20       	mov    %rax,0x20(%rsp)
    aa66:	48 8d 05 53 87 00 00 	lea    0x8753(%rip),%rax        # 131c0 <__mg_data_MOD_ny>
    aa6d:	48 89 44 24 18       	mov    %rax,0x18(%rsp)
    aa72:	48 8d 05 07 87 00 00 	lea    0x8707(%rip),%rax        # 13180 <__mg_data_MOD_nz>
    aa79:	48 89 44 24 28       	mov    %rax,0x28(%rsp)
    aa7e:	48 8d 84 24 80 00 00 	lea    0x80(%rsp),%rax
    aa85:	00 
    aa86:	48 89 44 24 50       	mov    %rax,0x50(%rsp)
    aa8b:	48 8d 84 24 f0 00 00 	lea    0xf0(%rsp),%rax
    aa92:	00 
    aa93:	c7 05 87 87 00 00 00 	movl   $0x400,0x8787(%rip)        # 13224 <__mg_data_MOD_nx+0x24>
    aa9a:	04 00 00 
    aa9d:	c7 05 3d 87 00 00 00 	movl   $0x400,0x873d(%rip)        # 131e4 <__mg_data_MOD_ny+0x24>
    aaa4:	04 00 00 
    aaa7:	c7 05 f3 86 00 00 00 	movl   $0x400,0x86f3(%rip)        # 131a4 <__mg_data_MOD_nz+0x24>
    aaae:	04 00 00 
    aab1:	48 89 44 24 40       	mov    %rax,0x40(%rsp)
    aab6:	c6 05 a3 88 00 00 44 	movb   $0x44,0x88a3(%rip)        # 13360 <__mg_data_MOD_class>
    aabd:	e9 3e 02 00 00       	jmp    ad00 <MAIN__+0x490>
    aac2:	48 8d 05 c7 38 00 00 	lea    0x38c7(%rip),%rax        # e390 <options.163.0+0x2f0>
    aac9:	48 89 df             	mov    %rbx,%rdi
    aacc:	4c 89 bc 24 88 01 00 	mov    %r15,0x188(%rsp)
    aad3:	00 
    aad4:	4c 8d 35 25 87 00 00 	lea    0x8725(%rip),%r14        # 13200 <__mg_data_MOD_nx>
    aadb:	48 89 84 24 d0 01 00 	mov    %rax,0x1d0(%rsp)
    aae2:	00 
    aae3:	48 8b 05 5e 3a 00 00 	mov    0x3a5e(%rip),%rax        # e548 <options.163.0+0x4a8>
    aaea:	c7 84 24 90 01 00 00 	movl   $0x6e,0x190(%rsp)
    aaf1:	6e 00 00 00 
    aaf5:	48 89 84 24 80 01 00 	mov    %rax,0x180(%rsp)
    aafc:	00 
    aafd:	48 c7 84 24 d8 01 00 	movq   $0x25,0x1d8(%rsp)
    ab04:	00 25 00 00 00 
    ab09:	e8 72 77 ff ff       	call   2280 <_gfortran_st_write@plt>
    ab0e:	48 89 df             	mov    %rbx,%rdi
    ab11:	e8 fa 76 ff ff       	call   2210 <_gfortran_st_write_done@plt>
    ab16:	4c 8b 25 4b 3a 00 00 	mov    0x3a4b(%rip),%r12        # e568 <options.163.0+0x4c8>
    ab1d:	48 89 df             	mov    %rbx,%rdi
    ab20:	4c 89 bc 24 88 01 00 	mov    %r15,0x188(%rsp)
    ab27:	00 
    ab28:	c7 84 24 90 01 00 00 	movl   $0x70,0x190(%rsp)
    ab2f:	70 00 00 00 
    ab33:	4c 89 a4 24 80 01 00 	mov    %r12,0x180(%rsp)
    ab3a:	00 
    ab3b:	e8 90 76 ff ff       	call   21d0 <_gfortran_st_read@plt>
    ab40:	ba 04 00 00 00       	mov    $0x4,%edx
    ab45:	48 8d 35 a0 87 00 00 	lea    0x87a0(%rip),%rsi        # 132ec <__mg_data_MOD_lt>
    ab4c:	48 89 df             	mov    %rbx,%rdi
    ab4f:	e8 bc 75 ff ff       	call   2110 <_gfortran_transfer_integer@plt>
    ab54:	48 89 df             	mov    %rbx,%rdi
    ab57:	e8 24 75 ff ff       	call   2080 <_gfortran_st_read_done@plt>
    ab5c:	48 89 df             	mov    %rbx,%rdi
    ab5f:	4c 89 bc 24 88 01 00 	mov    %r15,0x188(%rsp)
    ab66:	00 
    ab67:	c7 84 24 90 01 00 00 	movl   $0x71,0x190(%rsp)
    ab6e:	71 00 00 00 
    ab72:	4c 89 a4 24 80 01 00 	mov    %r12,0x180(%rsp)
    ab79:	00 
    ab7a:	e8 51 76 ff ff       	call   21d0 <_gfortran_st_read@plt>
    ab7f:	48 63 05 66 87 00 00 	movslq 0x8766(%rip),%rax        # 132ec <__mg_data_MOD_lt>
    ab86:	ba 04 00 00 00       	mov    $0x4,%edx
    ab8b:	48 89 df             	mov    %rbx,%rdi
    ab8e:	4c 89 74 24 20       	mov    %r14,0x20(%rsp)
    ab93:	49 8d 74 86 fc       	lea    -0x4(%r14,%rax,4),%rsi
    ab98:	e8 73 75 ff ff       	call   2110 <_gfortran_transfer_integer@plt>
    ab9d:	48 63 05 48 87 00 00 	movslq 0x8748(%rip),%rax        # 132ec <__mg_data_MOD_lt>
    aba4:	ba 04 00 00 00       	mov    $0x4,%edx
    aba9:	48 89 df             	mov    %rbx,%rdi
    abac:	48 8d 0d 0d 86 00 00 	lea    0x860d(%rip),%rcx        # 131c0 <__mg_data_MOD_ny>
    abb3:	48 8d 74 81 fc       	lea    -0x4(%rcx,%rax,4),%rsi
    abb8:	48 89 4c 24 18       	mov    %rcx,0x18(%rsp)
    abbd:	e8 4e 75 ff ff       	call   2110 <_gfortran_transfer_integer@plt>
    abc2:	48 63 05 23 87 00 00 	movslq 0x8723(%rip),%rax        # 132ec <__mg_data_MOD_lt>
    abc9:	48 8d 15 b0 85 00 00 	lea    0x85b0(%rip),%rdx        # 13180 <__mg_data_MOD_nz>
    abd0:	48 89 df             	mov    %rbx,%rdi
    abd3:	48 89 54 24 28       	mov    %rdx,0x28(%rsp)
    abd8:	48 8d 74 82 fc       	lea    -0x4(%rdx,%rax,4),%rsi
    abdd:	ba 04 00 00 00       	mov    $0x4,%edx
    abe2:	e8 29 75 ff ff       	call   2110 <_gfortran_transfer_integer@plt>
    abe7:	48 89 df             	mov    %rbx,%rdi
    abea:	e8 91 74 ff ff       	call   2080 <_gfortran_st_read_done@plt>
    abef:	48 89 df             	mov    %rbx,%rdi
    abf2:	4c 89 bc 24 88 01 00 	mov    %r15,0x188(%rsp)
    abf9:	00 
    abfa:	c7 84 24 90 01 00 00 	movl   $0x72,0x190(%rsp)
    ac01:	72 00 00 00 
    ac05:	4c 89 a4 24 80 01 00 	mov    %r12,0x180(%rsp)
    ac0c:	00 
    ac0d:	e8 be 75 ff ff       	call   21d0 <_gfortran_st_read@plt>
    ac12:	48 8d 84 24 80 00 00 	lea    0x80(%rsp),%rax
    ac19:	00 
    ac1a:	ba 04 00 00 00       	mov    $0x4,%edx
    ac1f:	48 89 df             	mov    %rbx,%rdi
    ac22:	48 89 c6             	mov    %rax,%rsi
    ac25:	48 89 44 24 50       	mov    %rax,0x50(%rsp)
    ac2a:	e8 e1 74 ff ff       	call   2110 <_gfortran_transfer_integer@plt>
    ac2f:	48 89 df             	mov    %rbx,%rdi
    ac32:	e8 49 74 ff ff       	call   2080 <_gfortran_st_read_done@plt>
    ac37:	48 89 df             	mov    %rbx,%rdi
    ac3a:	4c 89 bc 24 88 01 00 	mov    %r15,0x188(%rsp)
    ac41:	00 
    ac42:	c7 84 24 90 01 00 00 	movl   $0x73,0x190(%rsp)
    ac49:	73 00 00 00 
    ac4d:	4c 89 a4 24 80 01 00 	mov    %r12,0x180(%rsp)
    ac54:	00 
    ac55:	e8 76 75 ff ff       	call   21d0 <_gfortran_st_read@plt>
    ac5a:	31 c9                	xor    %ecx,%ecx
    ac5c:	ba 04 00 00 00       	mov    $0x4,%edx
    ac61:	48 89 df             	mov    %rbx,%rdi
    ac64:	48 8d 05 d5 86 00 00 	lea    0x86d5(%rip),%rax        # 13340 <__mg_data_MOD_debug_vec>
    ac6b:	66 0f 6f 05 fd 39 00 	movdqa 0x39fd(%rip),%xmm0        # e670 <options.163.0+0x5d0>
    ac72:	00 
    ac73:	48 c7 84 24 f8 00 00 	movq   $0xffffffffffffffff,0xf8(%rsp)
    ac7a:	00 ff ff ff ff 
    ac7f:	48 89 84 24 f0 00 00 	mov    %rax,0xf0(%rsp)
    ac86:	00 
    ac87:	b8 01 01 00 00       	mov    $0x101,%eax
    ac8c:	48 c1 e0 20          	shl    $0x20,%rax
    ac90:	0f 29 84 24 10 01 00 	movaps %xmm0,0x110(%rsp)
    ac97:	00 
    ac98:	66 0f 6f 05 e0 39 00 	movdqa 0x39e0(%rip),%xmm0        # e680 <options.163.0+0x5e0>
    ac9f:	00 
    aca0:	48 89 84 24 08 01 00 	mov    %rax,0x108(%rsp)
    aca7:	00 
    aca8:	48 8d 84 24 f0 00 00 	lea    0xf0(%rsp),%rax
    acaf:	00 
    acb0:	48 89 c6             	mov    %rax,%rsi
    acb3:	48 89 44 24 40       	mov    %rax,0x40(%rsp)
    acb8:	0f 29 84 24 20 01 00 	movaps %xmm0,0x120(%rsp)
    acbf:	00 
    acc0:	48 c7 84 24 00 01 00 	movq   $0x4,0x100(%rsp)
    acc7:	00 04 00 00 00 
    accc:	e8 bf 75 ff ff       	call   2290 <_gfortran_transfer_array@plt>
    acd1:	48 89 df             	mov    %rbx,%rdi
    acd4:	e8 a7 73 ff ff       	call   2080 <_gfortran_st_read_done@plt>
    acd9:	48 63 05 0c 86 00 00 	movslq 0x860c(%rip),%rax        # 132ec <__mg_data_MOD_lt>
    ace0:	48 8b 4c 24 18       	mov    0x18(%rsp),%rcx
    ace5:	48 89 c2             	mov    %rax,%rdx
    ace8:	48 83 e8 01          	sub    $0x1,%rax
    acec:	8b 0c 81             	mov    (%rcx,%rax,4),%ecx
    acef:	41 39 0c 86          	cmp    %ecx,(%r14,%rax,4)
    acf3:	0f 84 bd 0b 00 00    	je     b8b6 <MAIN__+0x1046>
    acf9:	c6 05 60 86 00 00 55 	movb   $0x55,0x8660(%rip)        # 13360 <__mg_data_MOD_class>
    ad00:	66 0f 28 15 38 39 00 	movapd 0x3938(%rip),%xmm2        # e640 <options.163.0+0x5a0>
    ad07:	00 
    ad08:	f2 0f 10 0d 48 38 00 	movsd  0x3848(%rip),%xmm1        # e558 <options.163.0+0x4b8>
    ad0f:	00 
    ad10:	31 c0                	xor    %eax,%eax
    ad12:	89 54 24 70          	mov    %edx,0x70(%rsp)
    ad16:	4c 8d 7c 24 7c       	lea    0x7c(%rsp),%r15
    ad1b:	4c 8d 74 24 78       	lea    0x78(%rsp),%r14
    ad20:	f3 0f 7e 05 68 39 00 	movq   0x3968(%rip),%xmm0        # e690 <options.163.0+0x5f0>
    ad27:	00 
    ad28:	0f 11 15 d1 63 00 00 	movups %xmm2,0x63d1(%rip)        # 11100 <__mg_fields_MOD_c>
    ad2f:	4c 8d 64 24 74       	lea    0x74(%rsp),%r12
    ad34:	f2 0f 11 0d d4 63 00 	movsd  %xmm1,0x63d4(%rip)        # 11110 <__mg_fields_MOD_c+0x10>
    ad3b:	00 
    ad3c:	0f 11 05 dd 63 00 00 	movups %xmm0,0x63dd(%rip)        # 11120 <__mg_fields_MOD_a>
    ad43:	66 0f 28 05 55 39 00 	movapd 0x3955(%rip),%xmm0        # e6a0 <options.163.0+0x600>
    ad4a:	00 
    ad4b:	48 c7 05 c2 63 00 00 	movq   $0x0,0x63c2(%rip)        # 11118 <__mg_fields_MOD_c+0x18>
    ad52:	00 00 00 00 
    ad56:	0f 11 05 d3 63 00 00 	movups %xmm0,0x63d3(%rip)        # 11130 <__mg_fields_MOD_a+0x10>
    ad5d:	c7 05 89 85 00 00 01 	movl   $0x1,0x8589(%rip)        # 132f0 <__mg_data_MOD_lb>
    ad64:	00 00 00 
    ad67:	e8 b4 18 00 00       	call   c620 <alloc_space_>
    ad6c:	48 8d 44 24 70       	lea    0x70(%rsp),%rax
    ad71:	4c 89 fa             	mov    %r15,%rdx
    ad74:	4c 89 f6             	mov    %r14,%rsi
    ad77:	48 89 c1             	mov    %rax,%rcx
    ad7a:	4c 89 e7             	mov    %r12,%rdi
    ad7d:	48 89 44 24 08       	mov    %rax,0x8(%rsp)
    ad82:	e8 29 d5 ff ff       	call   82b0 <setup_>
    ad87:	4c 89 f9             	mov    %r15,%rcx
    ad8a:	4c 89 f2             	mov    %r14,%rdx
    ad8d:	4c 89 e6             	mov    %r12,%rsi
    ad90:	48 8b 3d e9 62 00 00 	mov    0x62e9(%rip),%rdi        # 11080 <__mg_fields_MOD_u>
    ad97:	e8 84 d4 ff ff       	call   8220 <zero3_>
    ad9c:	48 83 ec 08          	sub    $0x8,%rsp
    ada0:	48 63 05 45 85 00 00 	movslq 0x8545(%rip),%rax        # 132ec <__mg_data_MOD_lt>
    ada7:	4c 89 e6             	mov    %r12,%rsi
    adaa:	ff 74 24 10          	push   0x10(%rsp)
    adae:	48 8b 4c 24 28       	mov    0x28(%rsp),%rcx
    adb3:	48 8b 54 24 30       	mov    0x30(%rsp),%rdx
    adb8:	48 8d 04 85 fc ff ff 	lea    -0x4(,%rax,4),%rax
    adbf:	ff 
    adc0:	48 8b 3d 79 62 00 00 	mov    0x6279(%rip),%rdi        # 11040 <__mg_fields_MOD_v>
    adc7:	4c 8d 0c 01          	lea    (%rcx,%rax,1),%r9
    adcb:	4c 89 f9             	mov    %r15,%rcx
    adce:	4c 8d 04 02          	lea    (%rdx,%rax,1),%r8
    add2:	4c 89 f2             	mov    %r14,%rdx
    add5:	e8 16 ca ff ff       	call   77f0 <zran3_>
    adda:	4c 8b 54 24 38       	mov    0x38(%rsp),%r10
    addf:	48 63 05 06 85 00 00 	movslq 0x8506(%rip),%rax        # 132ec <__mg_data_MOD_lt>
    ade6:	48 8d b4 24 b0 00 00 	lea    0xb0(%rsp),%rsi
    aded:	00 
    adee:	48 8b 4c 24 28       	mov    0x28(%rsp),%rcx
    adf3:	48 8d bc 24 a8 00 00 	lea    0xa8(%rsp),%rdi
    adfa:	00 
    adfb:	49 89 f1             	mov    %rsi,%r9
    adfe:	48 8d 04 85 fc ff ff 	lea    -0x4(,%rax,4),%rax
    ae05:	ff 
    ae06:	49 89 f8             	mov    %rdi,%r8
    ae09:	49 8d 14 02          	lea    (%r10,%rax,1),%rdx
    ae0d:	48 89 14 24          	mov    %rdx,(%rsp)
    ae11:	48 8d 14 01          	lea    (%rcx,%rax,1),%rdx
    ae15:	4c 89 f9             	mov    %r15,%rcx
    ae18:	52                   	push   %rdx
    ae19:	48 03 44 24 38       	add    0x38(%rsp),%rax
    ae1e:	4c 89 f2             	mov    %r14,%rdx
    ae21:	50                   	push   %rax
    ae22:	48 89 7c 24 58       	mov    %rdi,0x58(%rsp)
    ae27:	48 8b 3d 12 62 00 00 	mov    0x6212(%rip),%rdi        # 11040 <__mg_fields_MOD_v>
    ae2e:	48 89 74 24 68       	mov    %rsi,0x68(%rsp)
    ae33:	4c 89 e6             	mov    %r12,%rsi
    ae36:	e8 25 c8 ff ff       	call   7660 <norm2u3_>
    ae3b:	4c 8d 1d a6 35 00 00 	lea    0x35a6(%rip),%r11        # e3e8 <options.163.0+0x348>
    ae42:	48 8d 35 73 32 00 00 	lea    0x3273(%rip),%rsi        # e0bc <options.163.0+0x1c>
    ae49:	48 89 df             	mov    %rbx,%rdi
    ae4c:	4c 89 9c 24 f0 01 00 	mov    %r11,0x1f0(%rsp)
    ae53:	00 
    ae54:	4c 8b 1d ed 36 00 00 	mov    0x36ed(%rip),%r11        # e548 <options.163.0+0x4a8>
    ae5b:	48 89 b4 24 a8 01 00 	mov    %rsi,0x1a8(%rsp)
    ae62:	00 
    ae63:	4c 89 9c 24 a0 01 00 	mov    %r11,0x1a0(%rsp)
    ae6a:	00 
    ae6b:	c7 84 24 b0 01 00 00 	movl   $0xca,0x1b0(%rsp)
    ae72:	ca 00 00 00 
    ae76:	48 c7 84 24 f8 01 00 	movq   $0x37,0x1f8(%rsp)
    ae7d:	00 37 00 00 00 
    ae82:	48 83 c4 20          	add    $0x20,%rsp
    ae86:	e8 f5 73 ff ff       	call   2280 <_gfortran_st_write@plt>
    ae8b:	48 8b 54 24 20       	mov    0x20(%rsp),%rdx
    ae90:	48 63 05 55 84 00 00 	movslq 0x8455(%rip),%rax        # 132ec <__mg_data_MOD_lt>
    ae97:	48 89 df             	mov    %rbx,%rdi
    ae9a:	48 8d 74 82 fc       	lea    -0x4(%rdx,%rax,4),%rsi
    ae9f:	ba 04 00 00 00       	mov    $0x4,%edx
    aea4:	e8 47 72 ff ff       	call   20f0 <_gfortran_transfer_integer_write@plt>
    aea9:	48 8b 4c 24 18       	mov    0x18(%rsp),%rcx
    aeae:	ba 04 00 00 00       	mov    $0x4,%edx
    aeb3:	48 89 df             	mov    %rbx,%rdi
    aeb6:	48 63 05 2f 84 00 00 	movslq 0x842f(%rip),%rax        # 132ec <__mg_data_MOD_lt>
    aebd:	48 8d 74 81 fc       	lea    -0x4(%rcx,%rax,4),%rsi
    aec2:	e8 29 72 ff ff       	call   20f0 <_gfortran_transfer_integer_write@plt>
    aec7:	4c 8b 54 24 28       	mov    0x28(%rsp),%r10
    aecc:	ba 04 00 00 00       	mov    $0x4,%edx
    aed1:	48 89 df             	mov    %rbx,%rdi
    aed4:	48 63 05 11 84 00 00 	movslq 0x8411(%rip),%rax        # 132ec <__mg_data_MOD_lt>
    aedb:	49 8d 74 82 fc       	lea    -0x4(%r10,%rax,4),%rsi
    aee0:	e8 0b 72 ff ff       	call   20f0 <_gfortran_transfer_integer_write@plt>
    aee5:	ba 01 00 00 00       	mov    $0x1,%edx
    aeea:	48 8d 35 6f 84 00 00 	lea    0x846f(%rip),%rsi        # 13360 <__mg_data_MOD_class>
    aef1:	48 89 df             	mov    %rbx,%rdi
    aef4:	e8 37 72 ff ff       	call   2130 <_gfortran_transfer_character_write@plt>
    aef9:	48 89 df             	mov    %rbx,%rdi
    aefc:	e8 0f 73 ff ff       	call   2210 <_gfortran_st_write_done@plt>
    af01:	4c 8d 1d 18 35 00 00 	lea    0x3518(%rip),%r11        # e420 <options.163.0+0x380>
    af08:	48 8d 35 ad 31 00 00 	lea    0x31ad(%rip),%rsi        # e0bc <options.163.0+0x1c>
    af0f:	48 89 df             	mov    %rbx,%rdi
    af12:	4c 89 9c 24 d0 01 00 	mov    %r11,0x1d0(%rsp)
    af19:	00 
    af1a:	4c 8b 1d 27 36 00 00 	mov    0x3627(%rip),%r11        # e548 <options.163.0+0x4a8>
    af21:	48 89 b4 24 88 01 00 	mov    %rsi,0x188(%rsp)
    af28:	00 
    af29:	4c 89 9c 24 80 01 00 	mov    %r11,0x180(%rsp)
    af30:	00 
    af31:	c7 84 24 90 01 00 00 	movl   $0xcb,0x190(%rsp)
    af38:	cb 00 00 00 
    af3c:	48 c7 84 24 d8 01 00 	movq   $0x26,0x1d8(%rsp)
    af43:	00 26 00 00 00 
    af48:	e8 33 73 ff ff       	call   2280 <_gfortran_st_write@plt>
    af4d:	48 8b 74 24 50       	mov    0x50(%rsp),%rsi
    af52:	ba 04 00 00 00       	mov    $0x4,%edx
    af57:	48 89 df             	mov    %rbx,%rdi
    af5a:	e8 91 71 ff ff       	call   20f0 <_gfortran_transfer_integer_write@plt>
    af5f:	48 89 df             	mov    %rbx,%rdi
    af62:	e8 a9 72 ff ff       	call   2210 <_gfortran_st_write_done@plt>
    af67:	4c 8d 1d da 34 00 00 	lea    0x34da(%rip),%r11        # e448 <options.163.0+0x3a8>
    af6e:	48 8d 35 47 31 00 00 	lea    0x3147(%rip),%rsi        # e0bc <options.163.0+0x1c>
    af75:	48 89 df             	mov    %rbx,%rdi
    af78:	4c 89 9c 24 d0 01 00 	mov    %r11,0x1d0(%rsp)
    af7f:	00 
    af80:	4c 8b 1d c1 35 00 00 	mov    0x35c1(%rip),%r11        # e548 <options.163.0+0x4a8>
    af87:	48 89 b4 24 88 01 00 	mov    %rsi,0x188(%rsp)
    af8e:	00 
    af8f:	4c 89 9c 24 80 01 00 	mov    %r11,0x180(%rsp)
    af96:	00 
    af97:	c7 84 24 90 01 00 00 	movl   $0xcc,0x190(%rsp)
    af9e:	cc 00 00 00 
    afa2:	48 c7 84 24 d8 01 00 	movq   $0x26,0x1d8(%rsp)
    afa9:	00 26 00 00 00 
    afae:	e8 cd 72 ff ff       	call   2280 <_gfortran_st_write@plt>
    afb3:	31 c0                	xor    %eax,%eax
    afb5:	e8 86 72 ff ff       	call   2240 <omp_get_max_threads_@plt>
    afba:	48 8b 74 24 40       	mov    0x40(%rsp),%rsi
    afbf:	ba 04 00 00 00       	mov    $0x4,%edx
    afc4:	48 89 df             	mov    %rbx,%rdi
    afc7:	89 84 24 f0 00 00 00 	mov    %eax,0xf0(%rsp)
    afce:	e8 1d 71 ff ff       	call   20f0 <_gfortran_transfer_integer_write@plt>
    afd3:	48 89 df             	mov    %rbx,%rdi
    afd6:	e8 35 72 ff ff       	call   2210 <_gfortran_st_write_done@plt>
    afdb:	48 8b 05 5e 35 00 00 	mov    0x355e(%rip),%rax        # e540 <options.163.0+0x4a0>
    afe2:	48 8d 35 d3 30 00 00 	lea    0x30d3(%rip),%rsi        # e0bc <options.163.0+0x1c>
    afe9:	48 89 df             	mov    %rbx,%rdi
    afec:	48 89 b4 24 88 01 00 	mov    %rsi,0x188(%rsp)
    aff3:	00 
    aff4:	48 89 84 24 80 01 00 	mov    %rax,0x180(%rsp)
    affb:	00 
    affc:	c7 84 24 90 01 00 00 	movl   $0xcd,0x190(%rsp)
    b003:	cd 00 00 00 
    b007:	e8 74 72 ff ff       	call   2280 <_gfortran_st_write@plt>
    b00c:	48 89 df             	mov    %rbx,%rdi
    b00f:	e8 fc 71 ff ff       	call   2210 <_gfortran_st_write_done@plt>
    b014:	4c 8d 1d 05 61 00 00 	lea    0x6105(%rip),%r11        # 11120 <__mg_fields_MOD_a>
    b01b:	ff 74 24 08          	push   0x8(%rsp)
    b01f:	48 8b 15 9a 60 00 00 	mov    0x609a(%rip),%rdx        # 110c0 <__mg_fields_MOD_r>
    b026:	41 53                	push   %r11
    b028:	4d 89 f9             	mov    %r15,%r9
    b02b:	4d 89 f0             	mov    %r14,%r8
    b02e:	4c 89 e1             	mov    %r12,%rcx
    b031:	48 8b 35 08 60 00 00 	mov    0x6008(%rip),%rsi        # 11040 <__mg_fields_MOD_v>
    b038:	48 8b 3d 41 60 00 00 	mov    0x6041(%rip),%rdi        # 11080 <__mg_fields_MOD_u>
    b03f:	e8 4c e9 ff ff       	call   9990 <resid_>
    b044:	48 63 05 a1 82 00 00 	movslq 0x82a1(%rip),%rax        # 132ec <__mg_data_MOD_lt>
    b04b:	4c 89 e6             	mov    %r12,%rsi
    b04e:	4c 8b 54 24 38       	mov    0x38(%rsp),%r10
    b053:	48 8b 4c 24 28       	mov    0x28(%rsp),%rcx
    b058:	48 8b 3d 61 60 00 00 	mov    0x6061(%rip),%rdi        # 110c0 <__mg_fields_MOD_r>
    b05f:	48 8d 04 85 fc ff ff 	lea    -0x4(,%rax,4),%rax
    b066:	ff 
    b067:	49 8d 14 02          	lea    (%r10,%rax,1),%rdx
    b06b:	48 89 14 24          	mov    %rdx,(%rsp)
    b06f:	48 8d 14 01          	lea    (%rcx,%rax,1),%rdx
    b073:	4c 89 f9             	mov    %r15,%rcx
    b076:	52                   	push   %rdx
    b077:	48 03 44 24 38       	add    0x38(%rsp),%rax
    b07c:	4c 89 f2             	mov    %r14,%rdx
    b07f:	50                   	push   %rax
    b080:	4c 8b 4c 24 68       	mov    0x68(%rsp),%r9
    b085:	4c 8b 44 24 58       	mov    0x58(%rsp),%r8
    b08a:	e8 d1 c5 ff ff       	call   7660 <norm2u3_>
    b08f:	48 83 c4 18          	add    $0x18,%rsp
    b093:	4d 89 e1             	mov    %r12,%r9
    b096:	48 8b 15 23 60 00 00 	mov    0x6023(%rip),%rdx        # 110c0 <__mg_fields_MOD_r>
    b09d:	ff 74 24 10          	push   0x10(%rsp)
    b0a1:	48 8b 35 98 5f 00 00 	mov    0x5f98(%rip),%rsi        # 11040 <__mg_fields_MOD_v>
    b0a8:	4c 8d 05 51 60 00 00 	lea    0x6051(%rip),%r8        # 11100 <__mg_fields_MOD_c>
    b0af:	48 8d 0d 6a 60 00 00 	lea    0x606a(%rip),%rcx        # 11120 <__mg_fields_MOD_a>
    b0b6:	48 8b 3d c3 5f 00 00 	mov    0x5fc3(%rip),%rdi        # 11080 <__mg_fields_MOD_u>
    b0bd:	41 57                	push   %r15
    b0bf:	41 56                	push   %r14
    b0c1:	e8 1a f3 ff ff       	call   a3e0 <mg3p_>
    b0c6:	48 83 c4 20          	add    $0x20,%rsp
    b0ca:	4d 89 f9             	mov    %r15,%r9
    b0cd:	4c 8d 1d 4c 60 00 00 	lea    0x604c(%rip),%r11        # 11120 <__mg_fields_MOD_a>
    b0d4:	ff 74 24 08          	push   0x8(%rsp)
    b0d8:	4d 89 f0             	mov    %r14,%r8
    b0db:	4c 89 e1             	mov    %r12,%rcx
    b0de:	48 8b 15 db 5f 00 00 	mov    0x5fdb(%rip),%rdx        # 110c0 <__mg_fields_MOD_r>
    b0e5:	48 8b 35 54 5f 00 00 	mov    0x5f54(%rip),%rsi        # 11040 <__mg_fields_MOD_v>
    b0ec:	41 53                	push   %r11
    b0ee:	48 8b 3d 8b 5f 00 00 	mov    0x5f8b(%rip),%rdi        # 11080 <__mg_fields_MOD_u>
    b0f5:	e8 96 e8 ff ff       	call   9990 <resid_>
    b0fa:	48 8b 4c 24 18       	mov    0x18(%rsp),%rcx
    b0ff:	4c 89 fa             	mov    %r15,%rdx
    b102:	4c 89 f6             	mov    %r14,%rsi
    b105:	4c 89 e7             	mov    %r12,%rdi
    b108:	e8 a3 d1 ff ff       	call   82b0 <setup_>
    b10d:	4c 89 f9             	mov    %r15,%rcx
    b110:	4c 89 f2             	mov    %r14,%rdx
    b113:	4c 89 e6             	mov    %r12,%rsi
    b116:	48 8b 3d 63 5f 00 00 	mov    0x5f63(%rip),%rdi        # 11080 <__mg_fields_MOD_u>
    b11d:	e8 fe d0 ff ff       	call   8220 <zero3_>
    b122:	48 63 05 c3 81 00 00 	movslq 0x81c3(%rip),%rax        # 132ec <__mg_data_MOD_lt>
    b129:	5a                   	pop    %rdx
    b12a:	4c 89 e6             	mov    %r12,%rsi
    b12d:	ff 74 24 10          	push   0x10(%rsp)
    b131:	48 8b 4c 24 28       	mov    0x28(%rsp),%rcx
    b136:	48 8b 54 24 30       	mov    0x30(%rsp),%rdx
    b13b:	48 8d 04 85 fc ff ff 	lea    -0x4(,%rax,4),%rax
    b142:	ff 
    b143:	48 8b 3d f6 5e 00 00 	mov    0x5ef6(%rip),%rdi        # 11040 <__mg_fields_MOD_v>
    b14a:	4c 8d 0c 01          	lea    (%rcx,%rax,1),%r9
    b14e:	4c 89 f9             	mov    %r15,%rcx
    b151:	4c 8d 04 02          	lea    (%rdx,%rax,1),%r8
    b155:	4c 89 f2             	mov    %r14,%rdx
    b158:	e8 93 c6 ff ff       	call   77f0 <zran3_>
    b15d:	48 89 ef             	mov    %rbp,%rdi
    b160:	e8 3b 21 00 00       	call   d2a0 <timer_stop_>
    b165:	48 89 ef             	mov    %rbp,%rdi
    b168:	e8 63 21 00 00       	call   d2d0 <timer_read_>
    b16d:	48 8d 05 d1 2f 00 00 	lea    0x2fd1(%rip),%rax        # e145 <options.163.0+0xa5>
    b174:	48 8d 35 41 2f 00 00 	lea    0x2f41(%rip),%rsi        # e0bc <options.163.0+0x1c>
    b17b:	48 89 df             	mov    %rbx,%rdi
    b17e:	48 89 84 24 e0 01 00 	mov    %rax,0x1e0(%rsp)
    b185:	00 
    b186:	48 8b 05 bb 33 00 00 	mov    0x33bb(%rip),%rax        # e548 <options.163.0+0x4a8>
    b18d:	f2 0f 11 84 24 c0 00 	movsd  %xmm0,0xc0(%rsp)
    b194:	00 00 
    b196:	48 89 84 24 90 01 00 	mov    %rax,0x190(%rsp)
    b19d:	00 
    b19e:	48 89 b4 24 98 01 00 	mov    %rsi,0x198(%rsp)
    b1a5:	00 
    b1a6:	c7 84 24 a0 01 00 00 	movl   $0xe8,0x1a0(%rsp)
    b1ad:	e8 00 00 00 
    b1b1:	48 c7 84 24 e8 01 00 	movq   $0xc,0x1e8(%rsp)
    b1b8:	00 0c 00 00 00 
    b1bd:	e8 be 70 ff ff       	call   2280 <_gfortran_st_write@plt>
    b1c2:	ba 16 00 00 00       	mov    $0x16,%edx
    b1c7:	48 8d 35 84 2f 00 00 	lea    0x2f84(%rip),%rsi        # e152 <options.163.0+0xb2>
    b1ce:	48 89 df             	mov    %rbx,%rdi
    b1d1:	e8 5a 6f ff ff       	call   2130 <_gfortran_transfer_character_write@plt>
    b1d6:	48 8d b4 24 c0 00 00 	lea    0xc0(%rsp),%rsi
    b1dd:	00 
    b1de:	ba 08 00 00 00       	mov    $0x8,%edx
    b1e3:	48 89 df             	mov    %rbx,%rdi
    b1e6:	e8 55 6e ff ff       	call   2040 <_gfortran_transfer_real_write@plt>
    b1eb:	48 8d 35 77 2f 00 00 	lea    0x2f77(%rip),%rsi        # e169 <options.163.0+0xc9>
    b1f2:	ba 08 00 00 00       	mov    $0x8,%edx
    b1f7:	48 89 df             	mov    %rbx,%rdi
    b1fa:	e8 31 6f ff ff       	call   2130 <_gfortran_transfer_character_write@plt>
    b1ff:	48 89 df             	mov    %rbx,%rdi
    b202:	e8 09 70 ff ff       	call   2210 <_gfortran_st_write_done@plt>
    b207:	c7 44 24 78 02 00 00 	movl   $0x2,0x78(%rsp)
    b20e:	00 
    b20f:	59                   	pop    %rcx
    b210:	5e                   	pop    %rsi
    b211:	0f 1f 80 00 00 00 00 	nopl   0x0(%rax)
    b218:	4c 89 ef             	mov    %r13,%rdi
    b21b:	e8 40 20 00 00       	call   d260 <timer_clear_>
    b220:	8b 44 24 68          	mov    0x68(%rsp),%eax
    b224:	83 c0 01             	add    $0x1,%eax
    b227:	89 44 24 68          	mov    %eax,0x68(%rsp)
    b22b:	83 f8 0a             	cmp    $0xa,%eax
    b22e:	7e e8                	jle    b218 <MAIN__+0x9a8>
    b230:	48 8d 3d fd 2d 00 00 	lea    0x2dfd(%rip),%rdi        # e034 <_IO_stdin_used+0x34>
    b237:	e8 44 20 00 00       	call   d280 <timer_start_>
    b23c:	8b 05 fe 5e 00 00    	mov    0x5efe(%rip),%eax        # 11140 <__mg_data_MOD_timeron>
    b242:	85 c0                	test   %eax,%eax
    b244:	0f 85 ec 06 00 00    	jne    b936 <MAIN__+0x10c6>
    b24a:	48 8d 05 cf 5e 00 00 	lea    0x5ecf(%rip),%rax        # 11120 <__mg_fields_MOD_a>
    b251:	ff 74 24 08          	push   0x8(%rsp)
    b255:	48 8b 15 64 5e 00 00 	mov    0x5e64(%rip),%rdx        # 110c0 <__mg_fields_MOD_r>
    b25c:	4d 89 f9             	mov    %r15,%r9
    b25f:	48 8b 35 da 5d 00 00 	mov    0x5dda(%rip),%rsi        # 11040 <__mg_fields_MOD_v>
    b266:	50                   	push   %rax
    b267:	4d 89 f0             	mov    %r14,%r8
    b26a:	4c 89 e1             	mov    %r12,%rcx
    b26d:	48 8b 3d 0c 5e 00 00 	mov    0x5e0c(%rip),%rdi        # 11080 <__mg_fields_MOD_u>
    b274:	e8 17 e7 ff ff       	call   9990 <resid_>
    b279:	8b 2d c1 5e 00 00    	mov    0x5ec1(%rip),%ebp        # 11140 <__mg_data_MOD_timeron>
    b27f:	41 5a                	pop    %r10
    b281:	41 5b                	pop    %r11
    b283:	85 ed                	test   %ebp,%ebp
    b285:	0f 85 9a 06 00 00    	jne    b925 <MAIN__+0x10b5>
    b28b:	48 83 ec 08          	sub    $0x8,%rsp
    b28f:	48 63 05 56 80 00 00 	movslq 0x8056(%rip),%rax        # 132ec <__mg_data_MOD_lt>
    b296:	4c 89 e6             	mov    %r12,%rsi
    b299:	bd 01 00 00 00       	mov    $0x1,%ebp
    b29e:	48 8b 4c 24 30       	mov    0x30(%rsp),%rcx
    b2a3:	48 8b 3d 16 5e 00 00 	mov    0x5e16(%rip),%rdi        # 110c0 <__mg_fields_MOD_r>
    b2aa:	48 8d 04 85 fc ff ff 	lea    -0x4(,%rax,4),%rax
    b2b1:	ff 
    b2b2:	48 8d 14 01          	lea    (%rcx,%rax,1),%rdx
    b2b6:	52                   	push   %rdx
    b2b7:	48 8b 4c 24 28       	mov    0x28(%rsp),%rcx
    b2bc:	48 8d 14 01          	lea    (%rcx,%rax,1),%rdx
    b2c0:	4c 89 f9             	mov    %r15,%rcx
    b2c3:	52                   	push   %rdx
    b2c4:	48 03 44 24 38       	add    0x38(%rsp),%rax
    b2c9:	4c 89 f2             	mov    %r14,%rdx
    b2cc:	50                   	push   %rax
    b2cd:	4c 8b 4c 24 68       	mov    0x68(%rsp),%r9
    b2d2:	4c 8b 44 24 58       	mov    0x58(%rsp),%r8
    b2d7:	e8 84 c3 ff ff       	call   7660 <norm2u3_>
    b2dc:	8b 84 24 a0 00 00 00 	mov    0xa0(%rsp),%eax
    b2e3:	c7 84 24 8c 00 00 00 	movl   $0x1,0x8c(%rsp)
    b2ea:	01 00 00 00 
    b2ee:	89 44 24 30          	mov    %eax,0x30(%rsp)
    b2f2:	48 83 c4 20          	add    $0x20,%rsp
    b2f6:	48 8d 4c 24 6c       	lea    0x6c(%rsp),%rcx
    b2fb:	48 89 4c 24 30       	mov    %rcx,0x30(%rsp)
    b300:	85 c0                	test   %eax,%eax
    b302:	0f 8e 43 01 00 00    	jle    b44b <MAIN__+0xbdb>
    b308:	0f 1f 84 00 00 00 00 	nopl   0x0(%rax,%rax,1)
    b30f:	00 
    b310:	83 fd 01             	cmp    $0x1,%ebp
    b313:	74 13                	je     b328 <MAIN__+0xab8>
    b315:	39 6c 24 10          	cmp    %ebp,0x10(%rsp)
    b319:	74 0d                	je     b328 <MAIN__+0xab8>
    b31b:	69 c5 cd cc cc cc    	imul   $0xcccccccd,%ebp,%eax
    b321:	3d 33 33 33 33       	cmp    $0x33333333,%eax
    b326:	77 66                	ja     b38e <MAIN__+0xb1e>
    b328:	48 8d 05 8d 2d 00 00 	lea    0x2d8d(%rip),%rax        # e0bc <options.163.0+0x1c>
    b32f:	48 89 df             	mov    %rbx,%rdi
    b332:	c7 84 24 90 01 00 00 	movl   $0xf9,0x190(%rsp)
    b339:	f9 00 00 00 
    b33d:	48 89 84 24 88 01 00 	mov    %rax,0x188(%rsp)
    b344:	00 
    b345:	48 8d 05 41 2e 00 00 	lea    0x2e41(%rip),%rax        # e18d <options.163.0+0xed>
    b34c:	48 89 84 24 d0 01 00 	mov    %rax,0x1d0(%rsp)
    b353:	00 
    b354:	48 8b 05 ed 31 00 00 	mov    0x31ed(%rip),%rax        # e548 <options.163.0+0x4a8>
    b35b:	48 c7 84 24 d8 01 00 	movq   $0xe,0x1d8(%rsp)
    b362:	00 0e 00 00 00 
    b367:	48 89 84 24 80 01 00 	mov    %rax,0x180(%rsp)
    b36e:	00 
    b36f:	e8 0c 6f ff ff       	call   2280 <_gfortran_st_write@plt>
    b374:	48 8b 74 24 30       	mov    0x30(%rsp),%rsi
    b379:	48 89 df             	mov    %rbx,%rdi
    b37c:	ba 04 00 00 00       	mov    $0x4,%edx
    b381:	e8 6a 6d ff ff       	call   20f0 <_gfortran_transfer_integer_write@plt>
    b386:	48 89 df             	mov    %rbx,%rdi
    b389:	e8 82 6e ff ff       	call   2210 <_gfortran_st_write_done@plt>
    b38e:	44 8b 0d ab 5d 00 00 	mov    0x5dab(%rip),%r9d        # 11140 <__mg_data_MOD_timeron>
    b395:	45 85 c9             	test   %r9d,%r9d
    b398:	0f 85 ba 04 00 00    	jne    b858 <MAIN__+0xfe8>
    b39e:	48 83 ec 08          	sub    $0x8,%rsp
    b3a2:	48 8d 05 17 5d 00 00 	lea    0x5d17(%rip),%rax        # 110c0 <__mg_fields_MOD_r>
    b3a9:	4d 89 e1             	mov    %r12,%r9
    b3ac:	ff 74 24 10          	push   0x10(%rsp)
    b3b0:	4c 8d 05 49 5d 00 00 	lea    0x5d49(%rip),%r8        # 11100 <__mg_fields_MOD_c>
    b3b7:	48 8d 0d 62 5d 00 00 	lea    0x5d62(%rip),%rcx        # 11120 <__mg_fields_MOD_a>
    b3be:	41 57                	push   %r15
    b3c0:	41 56                	push   %r14
    b3c2:	48 8b 10             	mov    (%rax),%rdx
    b3c5:	48 8d 05 74 5c 00 00 	lea    0x5c74(%rip),%rax        # 11040 <__mg_fields_MOD_v>
    b3cc:	48 8b 30             	mov    (%rax),%rsi
    b3cf:	48 8d 05 aa 5c 00 00 	lea    0x5caa(%rip),%rax        # 11080 <__mg_fields_MOD_u>
    b3d6:	48 8b 38             	mov    (%rax),%rdi
    b3d9:	e8 02 f0 ff ff       	call   a3e0 <mg3p_>
    b3de:	44 8b 05 5b 5d 00 00 	mov    0x5d5b(%rip),%r8d        # 11140 <__mg_data_MOD_timeron>
    b3e5:	48 83 c4 20          	add    $0x20,%rsp
    b3e9:	45 85 c0             	test   %r8d,%r8d
    b3ec:	0f 85 36 04 00 00    	jne    b828 <MAIN__+0xfb8>
    b3f2:	48 8d 05 27 5d 00 00 	lea    0x5d27(%rip),%rax        # 11120 <__mg_fields_MOD_a>
    b3f9:	4c 89 e1             	mov    %r12,%rcx
    b3fc:	4d 89 f9             	mov    %r15,%r9
    b3ff:	4d 89 f0             	mov    %r14,%r8
    b402:	ff 74 24 08          	push   0x8(%rsp)
    b406:	50                   	push   %rax
    b407:	48 8d 05 b2 5c 00 00 	lea    0x5cb2(%rip),%rax        # 110c0 <__mg_fields_MOD_r>
    b40e:	48 8b 10             	mov    (%rax),%rdx
    b411:	48 8d 05 28 5c 00 00 	lea    0x5c28(%rip),%rax        # 11040 <__mg_fields_MOD_v>
    b418:	48 8b 30             	mov    (%rax),%rsi
    b41b:	48 8d 05 5e 5c 00 00 	lea    0x5c5e(%rip),%rax        # 11080 <__mg_fields_MOD_u>
    b422:	48 8b 38             	mov    (%rax),%rdi
    b425:	e8 66 e5 ff ff       	call   9990 <resid_>
    b42a:	8b 35 10 5d 00 00    	mov    0x5d10(%rip),%esi        # 11140 <__mg_data_MOD_timeron>
    b430:	5a                   	pop    %rdx
    b431:	59                   	pop    %rcx
    b432:	85 f6                	test   %esi,%esi
    b434:	0f 85 c6 03 00 00    	jne    b800 <MAIN__+0xf90>
    b43a:	83 c5 01             	add    $0x1,%ebp
    b43d:	89 6c 24 6c          	mov    %ebp,0x6c(%rsp)
    b441:	3b 6c 24 10          	cmp    0x10(%rsp),%ebp
    b445:	0f 8e c5 fe ff ff    	jle    b310 <MAIN__+0xaa0>
    b44b:	48 83 ec 08          	sub    $0x8,%rsp
    b44f:	48 63 05 96 7e 00 00 	movslq 0x7e96(%rip),%rax        # 132ec <__mg_data_MOD_lt>
    b456:	48 8b 3d 63 5c 00 00 	mov    0x5c63(%rip),%rdi        # 110c0 <__mg_fields_MOD_r>
    b45d:	4c 89 e6             	mov    %r12,%rsi
    b460:	48 8b 4c 24 30       	mov    0x30(%rsp),%rcx
    b465:	48 8d 04 85 fc ff ff 	lea    -0x4(,%rax,4),%rax
    b46c:	ff 
    b46d:	48 8d 14 01          	lea    (%rcx,%rax,1),%rdx
    b471:	52                   	push   %rdx
    b472:	48 8b 4c 24 28       	mov    0x28(%rsp),%rcx
    b477:	48 8d 14 01          	lea    (%rcx,%rax,1),%rdx
    b47b:	4c 89 f9             	mov    %r15,%rcx
    b47e:	52                   	push   %rdx
    b47f:	48 03 44 24 38       	add    0x38(%rsp),%rax
    b484:	4c 89 f2             	mov    %r14,%rdx
    b487:	50                   	push   %rax
    b488:	4c 8b 4c 24 68       	mov    0x68(%rsp),%r9
    b48d:	4c 8b 44 24 58       	mov    0x58(%rsp),%r8
    b492:	e8 c9 c1 ff ff       	call   7660 <norm2u3_>
    b497:	48 83 c4 20          	add    $0x20,%rsp
    b49b:	48 8d 3d 92 2b 00 00 	lea    0x2b92(%rip),%rdi        # e034 <_IO_stdin_used+0x34>
    b4a2:	e8 f9 1d 00 00       	call   d2a0 <timer_stop_>
    b4a7:	48 8d 3d 86 2b 00 00 	lea    0x2b86(%rip),%rdi        # e034 <_IO_stdin_used+0x34>
    b4ae:	e8 1d 1e 00 00       	call   d2d0 <timer_read_>
    b4b3:	48 8d 05 02 2c 00 00 	lea    0x2c02(%rip),%rax        # e0bc <options.163.0+0x1c>
    b4ba:	48 89 df             	mov    %rbx,%rdi
    b4bd:	48 c7 84 24 b8 00 00 	movq   $0x0,0xb8(%rsp)
    b4c4:	00 00 00 00 00 
    b4c9:	48 89 84 24 88 01 00 	mov    %rax,0x188(%rsp)
    b4d0:	00 
    b4d1:	48 8d 05 9a 2c 00 00 	lea    0x2c9a(%rip),%rax        # e172 <options.163.0+0xd2>
    b4d8:	48 89 84 24 d0 01 00 	mov    %rax,0x1d0(%rsp)
    b4df:	00 
    b4e0:	48 8b 05 61 30 00 00 	mov    0x3061(%rip),%rax        # e548 <options.163.0+0x4a8>
    b4e7:	f2 0f 11 44 24 08    	movsd  %xmm0,0x8(%rsp)
    b4ed:	48 89 84 24 80 01 00 	mov    %rax,0x180(%rsp)
    b4f4:	00 
    b4f5:	f2 0f 11 84 24 a8 00 	movsd  %xmm0,0xa8(%rsp)
    b4fc:	00 00 
    b4fe:	c7 84 24 90 01 00 00 	movl   $0x10e,0x190(%rsp)
    b505:	0e 01 00 00 
    b509:	48 c7 84 24 d8 01 00 	movq   $0x1a,0x1d8(%rsp)
    b510:	00 1a 00 00 00 
    b515:	e8 66 6d ff ff       	call   2280 <_gfortran_st_write@plt>
    b51a:	48 89 df             	mov    %rbx,%rdi
    b51d:	e8 ee 6c ff ff       	call   2210 <_gfortran_st_write_done@plt>
    b522:	0f b6 05 37 7e 00 00 	movzbl 0x7e37(%rip),%eax        # 13360 <__mg_data_MOD_class>
    b529:	3c 55                	cmp    $0x55,%al
    b52b:	0f 84 e4 07 00 00    	je     bd15 <MAIN__+0x14a5>
    b531:	83 e8 41             	sub    $0x41,%eax
    b534:	3c 16                	cmp    $0x16,%al
    b536:	77 28                	ja     b560 <MAIN__+0xcf0>
    b538:	48 8d 15 01 2b 00 00 	lea    0x2b01(%rip),%rdx        # e040 <_IO_stdin_used+0x40>
    b53f:	0f b6 c0             	movzbl %al,%eax
    b542:	48 63 04 82          	movslq (%rdx,%rax,4),%rax
    b546:	48 01 d0             	add    %rdx,%rax
    b549:	ff e0                	jmp    *%rax
    b54b:	48 8b 05 1e 30 00 00 	mov    0x301e(%rip),%rax        # e570 <options.163.0+0x4d0>
    b552:	48 89 84 24 b8 00 00 	mov    %rax,0xb8(%rsp)
    b559:	00 
    b55a:	66 0f 1f 44 00 00    	nopw   0x0(%rax,%rax,1)
    b560:	f2 0f 10 8c 24 b8 00 	movsd  0xb8(%rsp),%xmm1
    b567:	00 00 
    b569:	f2 0f 10 84 24 98 00 	movsd  0x98(%rsp),%xmm0
    b570:	00 00 
    b572:	f2 0f 5c c1          	subsd  %xmm1,%xmm0
    b576:	66 0f 54 05 62 30 00 	andpd  0x3062(%rip),%xmm0        # e5e0 <options.163.0+0x540>
    b57d:	00 
    b57e:	f2 0f 5e c1          	divsd  %xmm1,%xmm0
    b582:	f2 0f 11 84 24 88 00 	movsd  %xmm0,0x88(%rsp)
    b589:	00 00 
    b58b:	66 0f 2e c0          	ucomisd %xmm0,%xmm0
    b58f:	7a 12                	jp     b5a3 <MAIN__+0xd33>
    b591:	f2 0f 10 0d 17 30 00 	movsd  0x3017(%rip),%xmm1        # e5b0 <options.163.0+0x510>
    b598:	00 
    b599:	66 0f 2f c8          	comisd %xmm0,%xmm1
    b59d:	0f 83 62 06 00 00    	jae    bc05 <MAIN__+0x1395>
    b5a3:	48 8d 05 42 2c 00 00 	lea    0x2c42(%rip),%rax        # e1ec <options.163.0+0x14c>
    b5aa:	48 89 df             	mov    %rbx,%rdi
    b5ad:	4c 8d 35 08 2b 00 00 	lea    0x2b08(%rip),%r14        # e0bc <options.163.0+0x1c>
    b5b4:	c7 84 24 84 00 00 00 	movl   $0x0,0x84(%rsp)
    b5bb:	00 00 00 00 
    b5bf:	48 89 84 24 d0 01 00 	mov    %rax,0x1d0(%rsp)
    b5c6:	00 
    b5c7:	48 8b 05 7a 2f 00 00 	mov    0x2f7a(%rip),%rax        # e548 <options.163.0+0x4a8>
    b5ce:	4c 89 b4 24 88 01 00 	mov    %r14,0x188(%rsp)
    b5d5:	00 
    b5d6:	48 89 84 24 80 01 00 	mov    %rax,0x180(%rsp)
    b5dd:	00 
    b5de:	c7 84 24 90 01 00 00 	movl   $0x130,0x190(%rsp)
    b5e5:	30 01 00 00 
    b5e9:	48 c7 84 24 d8 01 00 	movq   $0x18,0x1d8(%rsp)
    b5f0:	00 18 00 00 00 
    b5f5:	e8 86 6c ff ff       	call   2280 <_gfortran_st_write@plt>
    b5fa:	48 89 df             	mov    %rbx,%rdi
    b5fd:	e8 0e 6c ff ff       	call   2210 <_gfortran_st_write_done@plt>
    b602:	48 8d 05 67 2e 00 00 	lea    0x2e67(%rip),%rax        # e470 <options.163.0+0x3d0>
    b609:	48 89 df             	mov    %rbx,%rdi
    b60c:	4c 89 b4 24 88 01 00 	mov    %r14,0x188(%rsp)
    b613:	00 
    b614:	48 89 84 24 d0 01 00 	mov    %rax,0x1d0(%rsp)
    b61b:	00 
    b61c:	48 8b 05 25 2f 00 00 	mov    0x2f25(%rip),%rax        # e548 <options.163.0+0x4a8>
    b623:	c7 84 24 90 01 00 00 	movl   $0x131,0x190(%rsp)
    b62a:	31 01 00 00 
    b62e:	48 89 84 24 80 01 00 	mov    %rax,0x180(%rsp)
    b635:	00 
    b636:	48 c7 84 24 d8 01 00 	movq   $0x24,0x1d8(%rsp)
    b63d:	00 24 00 00 00 
    b642:	e8 39 6c ff ff       	call   2280 <_gfortran_st_write@plt>
    b647:	48 8b 74 24 38       	mov    0x38(%rsp),%rsi
    b64c:	ba 08 00 00 00       	mov    $0x8,%edx
    b651:	48 89 df             	mov    %rbx,%rdi
    b654:	e8 e7 69 ff ff       	call   2040 <_gfortran_transfer_real_write@plt>
    b659:	48 89 df             	mov    %rbx,%rdi
    b65c:	e8 af 6b ff ff       	call   2210 <_gfortran_st_write_done@plt>
    b661:	48 8d 05 30 2e 00 00 	lea    0x2e30(%rip),%rax        # e498 <options.163.0+0x3f8>
    b668:	48 89 df             	mov    %rbx,%rdi
    b66b:	4c 89 b4 24 88 01 00 	mov    %r14,0x188(%rsp)
    b672:	00 
    b673:	48 89 84 24 d0 01 00 	mov    %rax,0x1d0(%rsp)
    b67a:	00 
    b67b:	48 8b 05 c6 2e 00 00 	mov    0x2ec6(%rip),%rax        # e548 <options.163.0+0x4a8>
    b682:	c7 84 24 90 01 00 00 	movl   $0x132,0x190(%rsp)
    b689:	32 01 00 00 
    b68d:	48 c7 84 24 d8 01 00 	movq   $0x24,0x1d8(%rsp)
    b694:	00 24 00 00 00 
    b699:	48 89 84 24 80 01 00 	mov    %rax,0x180(%rsp)
    b6a0:	00 
    b6a1:	e8 da 6b ff ff       	call   2280 <_gfortran_st_write@plt>
    b6a6:	48 8d b4 24 b8 00 00 	lea    0xb8(%rsp),%rsi
    b6ad:	00 
    b6ae:	48 89 df             	mov    %rbx,%rdi
    b6b1:	ba 08 00 00 00       	mov    $0x8,%edx
    b6b6:	e8 85 69 ff ff       	call   2040 <_gfortran_transfer_real_write@plt>
    b6bb:	48 89 df             	mov    %rbx,%rdi
    b6be:	e8 4d 6b ff ff       	call   2210 <_gfortran_st_write_done@plt>
    b6c3:	48 63 05 22 7c 00 00 	movslq 0x7c22(%rip),%rax        # 132ec <__mg_data_MOD_lt>
    b6ca:	f2 0f 10 74 24 08    	movsd  0x8(%rsp),%xmm6
    b6d0:	66 0f ef ff          	pxor   %xmm7,%xmm7
    b6d4:	48 8b 4c 24 20       	mov    0x20(%rsp),%rcx
    b6d9:	48 8b 54 24 28       	mov    0x28(%rsp),%rdx
    b6de:	48 83 e8 01          	sub    $0x1,%rax
    b6e2:	66 0f 2e f7          	ucomisd %xmm7,%xmm6
    b6e6:	8b 34 81             	mov    (%rcx,%rax,4),%esi
    b6e9:	48 8b 4c 24 18       	mov    0x18(%rsp),%rcx
    b6ee:	8b 14 82             	mov    (%rdx,%rax,4),%edx
    b6f1:	8b 0c 81             	mov    (%rcx,%rax,4),%ecx
    b6f4:	0f 8a 6f 01 00 00    	jp     b869 <MAIN__+0xff9>
    b6fa:	66 0f ef c0          	pxor   %xmm0,%xmm0
    b6fe:	0f 85 65 01 00 00    	jne    b869 <MAIN__+0xff9>
    b704:	48 8b 4c 24 18       	mov    0x18(%rsp),%rcx
    b709:	48 8b 54 24 20       	mov    0x20(%rsp),%rdx
    b70e:	48 83 ec 08          	sub    $0x8,%rsp
    b712:	48 c1 e0 02          	shl    $0x2,%rax
    b716:	48 8d 35 24 2b 00 00 	lea    0x2b24(%rip),%rsi        # e241 <options.163.0+0x1a1>
    b71d:	48 8d 3d 1a 2b 00 00 	lea    0x2b1a(%rip),%rdi        # e23e <options.163.0+0x19e>
    b724:	f2 0f 11 84 24 98 00 	movsd  %xmm0,0x98(%rsp)
    b72b:	00 00 
    b72d:	6a 06                	push   $0x6
    b72f:	48 01 c1             	add    %rax,%rcx
    b732:	48 01 c2             	add    %rax,%rdx
    b735:	6a 09                	push   $0x9
    b737:	6a 0c                	push   $0xc
    b739:	6a 06                	push   $0x6
    b73b:	6a 06                	push   $0x6
    b73d:	6a 05                	push   $0x5
    b73f:	6a 08                	push   $0x8
    b741:	6a 0b                	push   $0xb
    b743:	6a 05                	push   $0x5
    b745:	6a 18                	push   $0x18
    b747:	6a 01                	push   $0x1
    b749:	6a 02                	push   $0x2
    b74b:	56                   	push   %rsi
    b74c:	48 8d 35 f5 2a 00 00 	lea    0x2af5(%rip),%rsi        # e248 <options.163.0+0x1a8>
    b753:	56                   	push   %rsi
    b754:	48 8d 35 f7 2a 00 00 	lea    0x2af7(%rip),%rsi        # e252 <options.163.0+0x1b2>
    b75b:	56                   	push   %rsi
    b75c:	48 8d 35 fc 2a 00 00 	lea    0x2afc(%rip),%rsi        # e25f <options.163.0+0x1bf>
    b763:	56                   	push   %rsi
    b764:	56                   	push   %rsi
    b765:	48 8d 35 fa 2a 00 00 	lea    0x2afa(%rip),%rsi        # e266 <options.163.0+0x1c6>
    b76c:	56                   	push   %rsi
    b76d:	48 8d 35 f8 2a 00 00 	lea    0x2af8(%rip),%rsi        # e26c <options.163.0+0x1cc>
    b774:	56                   	push   %rsi
    b775:	48 8d 35 f9 2a 00 00 	lea    0x2af9(%rip),%rsi        # e275 <options.163.0+0x1d5>
    b77c:	56                   	push   %rsi
    b77d:	48 8d 35 fd 2a 00 00 	lea    0x2afd(%rip),%rsi        # e281 <options.163.0+0x1e1>
    b784:	56                   	push   %rsi
    b785:	48 8d b4 24 34 01 00 	lea    0x134(%rsp),%rsi
    b78c:	00 
    b78d:	56                   	push   %rsi
    b78e:	48 8d 35 f2 2a 00 00 	lea    0x2af2(%rip),%rsi        # e287 <options.163.0+0x1e7>
    b795:	56                   	push   %rsi
    b796:	48 8d b4 24 50 01 00 	lea    0x150(%rsp),%rsi
    b79d:	00 
    b79e:	56                   	push   %rsi
    b79f:	48 8d ac 24 70 01 00 	lea    0x170(%rsp),%rbp
    b7a6:	00 
    b7a7:	55                   	push   %rbp
    b7a8:	48 8b b4 24 f8 00 00 	mov    0xf8(%rsp),%rsi
    b7af:	00 
    b7b0:	4c 8b 8c 24 20 01 00 	mov    0x120(%rsp),%r9
    b7b7:	00 
    b7b8:	4c 8d 04 06          	lea    (%rsi,%rax,1),%r8
    b7bc:	48 8d 35 9d 7b 00 00 	lea    0x7b9d(%rip),%rsi        # 13360 <__mg_data_MOD_class>
    b7c3:	e8 38 10 00 00       	call   c800 <print_results_>
    b7c8:	8b 05 72 59 00 00    	mov    0x5972(%rip),%eax        # 11140 <__mg_data_MOD_timeron>
    b7ce:	48 81 c4 d0 00 00 00 	add    $0xd0,%rsp
    b7d5:	85 c0                	test   %eax,%eax
    b7d7:	0f 85 d0 01 00 00    	jne    b9ad <MAIN__+0x113d>
    b7dd:	48 8b 7c 24 58       	mov    0x58(%rsp),%rdi
    b7e2:	e8 e9 68 ff ff       	call   20d0 <_gfortran_ieee_procedure_exit@plt>
    b7e7:	48 81 c4 98 03 00 00 	add    $0x398,%rsp
    b7ee:	5b                   	pop    %rbx
    b7ef:	5d                   	pop    %rbp
    b7f0:	41 5c                	pop    %r12
    b7f2:	41 5d                	pop    %r13
    b7f4:	41 5e                	pop    %r14
    b7f6:	41 5f                	pop    %r15
    b7f8:	c3                   	ret    
    b7f9:	0f 1f 80 00 00 00 00 	nopl   0x0(%rax)
    b800:	48 8d 3d 31 28 00 00 	lea    0x2831(%rip),%rdi        # e038 <_IO_stdin_used+0x38>
    b807:	83 c5 01             	add    $0x1,%ebp
    b80a:	e8 91 1a 00 00       	call   d2a0 <timer_stop_>
    b80f:	89 6c 24 6c          	mov    %ebp,0x6c(%rsp)
    b813:	3b 6c 24 10          	cmp    0x10(%rsp),%ebp
    b817:	0f 8e f3 fa ff ff    	jle    b310 <MAIN__+0xaa0>
    b81d:	e9 29 fc ff ff       	jmp    b44b <MAIN__+0xbdb>
    b822:	66 0f 1f 44 00 00    	nopw   0x0(%rax,%rax,1)
    b828:	48 8d 3d 0d 28 00 00 	lea    0x280d(%rip),%rdi        # e03c <_IO_stdin_used+0x3c>
    b82f:	e8 6c 1a 00 00       	call   d2a0 <timer_stop_>
    b834:	8b 3d 06 59 00 00    	mov    0x5906(%rip),%edi        # 11140 <__mg_data_MOD_timeron>
    b83a:	85 ff                	test   %edi,%edi
    b83c:	0f 84 b0 fb ff ff    	je     b3f2 <MAIN__+0xb82>
    b842:	48 8d 3d ef 27 00 00 	lea    0x27ef(%rip),%rdi        # e038 <_IO_stdin_used+0x38>
    b849:	e8 32 1a 00 00       	call   d280 <timer_start_>
    b84e:	e9 9f fb ff ff       	jmp    b3f2 <MAIN__+0xb82>
    b853:	0f 1f 44 00 00       	nopl   0x0(%rax,%rax,1)
    b858:	48 8d 3d dd 27 00 00 	lea    0x27dd(%rip),%rdi        # e03c <_IO_stdin_used+0x3c>
    b85f:	e8 1c 1a 00 00       	call   d280 <timer_start_>
    b864:	e9 35 fb ff ff       	jmp    b39e <MAIN__+0xb2e>
    b869:	66 0f ef c0          	pxor   %xmm0,%xmm0
    b86d:	66 0f ef c9          	pxor   %xmm1,%xmm1
    b871:	f2 0f 2a c9          	cvtsi2sd %ecx,%xmm1
    b875:	f2 0f 2a c6          	cvtsi2sd %esi,%xmm0
    b879:	f2 0f 59 c1          	mulsd  %xmm1,%xmm0
    b87d:	66 0f ef c9          	pxor   %xmm1,%xmm1
    b881:	f2 0f 2a ca          	cvtsi2sd %edx,%xmm1
    b885:	f2 0f 59 c1          	mulsd  %xmm1,%xmm0
    b889:	66 0f ef c9          	pxor   %xmm1,%xmm1
    b88d:	f3 0f 2a 4c 24 10    	cvtsi2ssl 0x10(%rsp),%xmm1
    b893:	f3 0f 59 0d 35 2e 00 	mulss  0x2e35(%rip),%xmm1        # e6d0 <options.163.0+0x630>
    b89a:	00 
    b89b:	f3 0f 5a c9          	cvtss2sd %xmm1,%xmm1
    b89f:	f2 0f 59 c1          	mulsd  %xmm1,%xmm0
    b8a3:	f2 0f 59 05 0d 2d 00 	mulsd  0x2d0d(%rip),%xmm0        # e5b8 <options.163.0+0x518>
    b8aa:	00 
    b8ab:	f2 0f 5e 44 24 08    	divsd  0x8(%rsp),%xmm0
    b8b1:	e9 4e fe ff ff       	jmp    b704 <MAIN__+0xe94>
    b8b6:	48 8b 7c 24 28       	mov    0x28(%rsp),%rdi
    b8bb:	8b b4 24 80 00 00 00 	mov    0x80(%rsp),%esi
    b8c2:	3b 0c 87             	cmp    (%rdi,%rax,4),%ecx
    b8c5:	0f 85 2e f4 ff ff    	jne    acf9 <MAIN__+0x489>
    b8cb:	83 f9 20             	cmp    $0x20,%ecx
    b8ce:	0f 84 f2 05 00 00    	je     bec6 <MAIN__+0x1656>
    b8d4:	81 f9 80 00 00 00    	cmp    $0x80,%ecx
    b8da:	0f 84 0b 06 00 00    	je     beeb <MAIN__+0x167b>
    b8e0:	81 f9 00 01 00 00    	cmp    $0x100,%ecx
    b8e6:	0f 84 24 06 00 00    	je     bf10 <MAIN__+0x16a0>
    b8ec:	81 f9 00 02 00 00    	cmp    $0x200,%ecx
    b8f2:	0f 84 b9 05 00 00    	je     beb1 <MAIN__+0x1641>
    b8f8:	81 f9 00 04 00 00    	cmp    $0x400,%ecx
    b8fe:	0f 84 47 06 00 00    	je     bf4b <MAIN__+0x16db>
    b904:	81 f9 00 08 00 00    	cmp    $0x800,%ecx
    b90a:	0f 85 1a 06 00 00    	jne    bf2a <MAIN__+0x16ba>
    b910:	83 fe 32             	cmp    $0x32,%esi
    b913:	0f 85 e0 f3 ff ff    	jne    acf9 <MAIN__+0x489>
    b919:	c6 05 40 7a 00 00 45 	movb   $0x45,0x7a40(%rip)        # 13360 <__mg_data_MOD_class>
    b920:	e9 db f3 ff ff       	jmp    ad00 <MAIN__+0x490>
    b925:	48 8d 3d 0c 27 00 00 	lea    0x270c(%rip),%rdi        # e038 <_IO_stdin_used+0x38>
    b92c:	e8 6f 19 00 00       	call   d2a0 <timer_stop_>
    b931:	e9 55 f9 ff ff       	jmp    b28b <MAIN__+0xa1b>
    b936:	48 8d 3d fb 26 00 00 	lea    0x26fb(%rip),%rdi        # e038 <_IO_stdin_used+0x38>
    b93d:	e8 3e 19 00 00       	call   d280 <timer_start_>
    b942:	e9 03 f9 ff ff       	jmp    b24a <MAIN__+0x9da>
    b947:	66 0f 6f 05 01 2d 00 	movdqa 0x2d01(%rip),%xmm0        # e650 <options.163.0+0x5b0>
    b94e:	00 
    b94f:	48 8d 35 e7 27 00 00 	lea    0x27e7(%rip),%rsi        # e13d <options.163.0+0x9d>
    b956:	b9 07 00 00 00       	mov    $0x7,%ecx
    b95b:	48 b8 69 6e 69 74 20 	movabs $0x2020202074696e69,%rax
    b962:	20 20 20 
    b965:	48 89 84 24 30 01 00 	mov    %rax,0x130(%rsp)
    b96c:	00 
    b96d:	48 8d 84 24 38 01 00 	lea    0x138(%rsp),%rax
    b974:	00 
    b975:	48 89 c7             	mov    %rax,%rdi
    b978:	f3 a4                	rep movsb %ds:(%rsi),%es:(%rdi)
    b97a:	0f 29 84 24 60 01 00 	movaps %xmm0,0x160(%rsp)
    b981:	00 
    b982:	66 0f 6f 05 d6 2c 00 	movdqa 0x2cd6(%rip),%xmm0        # e660 <options.163.0+0x5c0>
    b989:	00 
    b98a:	48 8d bc 24 3f 01 00 	lea    0x13f(%rsp),%rdi
    b991:	00 
    b992:	48 8d 35 2c 29 00 00 	lea    0x292c(%rip),%rsi        # e2c5 <options.163.0+0x225>
    b999:	b9 19 00 00 00       	mov    $0x19,%ecx
    b99e:	f3 a4                	rep movsb %ds:(%rsi),%es:(%rdi)
    b9a0:	0f 29 84 24 70 01 00 	movaps %xmm0,0x170(%rsp)
    b9a7:	00 
    b9a8:	e9 3e ef ff ff       	jmp    a8eb <MAIN__+0x7b>
    b9ad:	48 8d 3d 80 26 00 00 	lea    0x2680(%rip),%rdi        # e034 <_IO_stdin_used+0x34>
    b9b4:	e8 17 19 00 00       	call   d2d0 <timer_read_>
    b9b9:	66 0f ef ff          	pxor   %xmm7,%xmm7
    b9bd:	66 0f 2e c7          	ucomisd %xmm7,%xmm0
    b9c1:	f2 0f 11 44 24 10    	movsd  %xmm0,0x10(%rsp)
    b9c7:	7a 10                	jp     b9d9 <MAIN__+0x1169>
    b9c9:	75 0e                	jne    b9d9 <MAIN__+0x1169>
    b9cb:	f2 0f 10 3d dd 2c 00 	movsd  0x2cdd(%rip),%xmm7        # e6b0 <options.163.0+0x610>
    b9d2:	00 
    b9d3:	f2 0f 11 7c 24 10    	movsd  %xmm7,0x10(%rsp)
    b9d9:	48 8d 05 dc 26 00 00 	lea    0x26dc(%rip),%rax        # e0bc <options.163.0+0x1c>
    b9e0:	48 89 df             	mov    %rbx,%rdi
    b9e3:	c7 84 24 90 01 00 00 	movl   $0x159,0x190(%rsp)
    b9ea:	59 01 00 00 
    b9ee:	4c 8d a4 24 30 01 00 	lea    0x130(%rsp),%r12
    b9f5:	00 
    b9f6:	48 89 84 24 88 01 00 	mov    %rax,0x188(%rsp)
    b9fd:	00 
    b9fe:	48 8d 05 9b 28 00 00 	lea    0x289b(%rip),%rax        # e2a0 <options.163.0+0x200>
    ba05:	4c 8d 3d b0 28 00 00 	lea    0x28b0(%rip),%r15        # e2bc <options.163.0+0x21c>
    ba0c:	48 89 84 24 d0 01 00 	mov    %rax,0x1d0(%rsp)
    ba13:	00 
    ba14:	48 8b 05 2d 2b 00 00 	mov    0x2b2d(%rip),%rax        # e548 <options.163.0+0x4a8>
    ba1b:	48 c7 84 24 d8 01 00 	movq   $0x1b,0x1d8(%rsp)
    ba22:	00 1b 00 00 00 
    ba27:	48 89 84 24 80 01 00 	mov    %rax,0x180(%rsp)
    ba2e:	00 
    ba2f:	e8 4c 68 ff ff       	call   2280 <_gfortran_st_write@plt>
    ba34:	48 89 df             	mov    %rbx,%rdi
    ba37:	e8 d4 67 ff ff       	call   2210 <_gfortran_st_write_done@plt>
    ba3c:	c7 44 24 68 02 00 00 	movl   $0x2,0x68(%rsp)
    ba43:	00 
    ba44:	0f 1f 40 00          	nopl   0x0(%rax)
    ba48:	4c 89 ef             	mov    %r13,%rdi
    ba4b:	e8 80 18 00 00       	call   d2d0 <timer_read_>
    ba50:	44 8b 74 24 68       	mov    0x68(%rsp),%r14d
    ba55:	f2 0f 11 84 24 a8 00 	movsd  %xmm0,0xa8(%rsp)
    ba5c:	00 00 
    ba5e:	f2 0f 11 44 24 08    	movsd  %xmm0,0x8(%rsp)
    ba64:	41 83 fe 06          	cmp    $0x6,%r14d
    ba68:	0f 84 c2 00 00 00    	je     bb30 <MAIN__+0x12c0>
    ba6e:	48 8d 05 47 26 00 00 	lea    0x2647(%rip),%rax        # e0bc <options.163.0+0x1c>
    ba75:	48 89 df             	mov    %rbx,%rdi
    ba78:	c7 84 24 90 01 00 00 	movl   $0x161,0x190(%rsp)
    ba7f:	61 01 00 00 
    ba83:	48 89 84 24 88 01 00 	mov    %rax,0x188(%rsp)
    ba8a:	00 
    ba8b:	48 8d 05 5e 2a 00 00 	lea    0x2a5e(%rip),%rax        # e4f0 <options.163.0+0x450>
    ba92:	48 89 84 24 d0 01 00 	mov    %rax,0x1d0(%rsp)
    ba99:	00 
    ba9a:	48 8b 05 a7 2a 00 00 	mov    0x2aa7(%rip),%rax        # e548 <options.163.0+0x4a8>
    baa1:	48 c7 84 24 d8 01 00 	movq   $0x20,0x1d8(%rsp)
    baa8:	00 20 00 00 00 
    baad:	48 89 84 24 80 01 00 	mov    %rax,0x180(%rsp)
    bab4:	00 
    bab5:	e8 c6 67 ff ff       	call   2280 <_gfortran_st_write@plt>
    baba:	49 63 d6             	movslq %r14d,%rdx
    babd:	48 89 df             	mov    %rbx,%rdi
    bac0:	49 8d 74 d4 f8       	lea    -0x8(%r12,%rdx,8),%rsi
    bac5:	ba 08 00 00 00       	mov    $0x8,%edx
    baca:	e8 61 66 ff ff       	call   2130 <_gfortran_transfer_character_write@plt>
    bacf:	ba 08 00 00 00       	mov    $0x8,%edx
    bad4:	48 89 ee             	mov    %rbp,%rsi
    bad7:	48 89 df             	mov    %rbx,%rdi
    bada:	e8 61 65 ff ff       	call   2040 <_gfortran_transfer_real_write@plt>
    badf:	48 8b 74 24 40       	mov    0x40(%rsp),%rsi
    bae4:	ba 08 00 00 00       	mov    $0x8,%edx
    bae9:	48 89 df             	mov    %rbx,%rdi
    baec:	f2 0f 10 4c 24 08    	movsd  0x8(%rsp),%xmm1
    baf2:	f2 0f 59 0d c6 2a 00 	mulsd  0x2ac6(%rip),%xmm1        # e5c0 <options.163.0+0x520>
    baf9:	00 
    bafa:	f2 0f 5e 4c 24 10    	divsd  0x10(%rsp),%xmm1
    bb00:	f2 0f 11 8c 24 f0 00 	movsd  %xmm1,0xf0(%rsp)
    bb07:	00 00 
    bb09:	e8 32 65 ff ff       	call   2040 <_gfortran_transfer_real_write@plt>
    bb0e:	48 89 df             	mov    %rbx,%rdi
    bb11:	e8 fa 66 ff ff       	call   2210 <_gfortran_st_write_done@plt>
    bb16:	41 8d 46 01          	lea    0x1(%r14),%eax
    bb1a:	89 44 24 68          	mov    %eax,0x68(%rsp)
    bb1e:	83 f8 0a             	cmp    $0xa,%eax
    bb21:	0f 8e 21 ff ff ff    	jle    ba48 <MAIN__+0x11d8>
    bb27:	e9 b1 fc ff ff       	jmp    b7dd <MAIN__+0xf6d>
    bb2c:	0f 1f 40 00          	nopl   0x0(%rax)
    bb30:	48 8d 3d ed 24 00 00 	lea    0x24ed(%rip),%rdi        # e024 <_IO_stdin_used+0x24>
    bb37:	e8 94 17 00 00       	call   d2d0 <timer_read_>
    bb3c:	f2 0f 10 4c 24 08    	movsd  0x8(%rsp),%xmm1
    bb42:	48 8d 05 73 25 00 00 	lea    0x2573(%rip),%rax        # e0bc <options.163.0+0x1c>
    bb49:	48 89 df             	mov    %rbx,%rdi
    bb4c:	48 89 84 24 88 01 00 	mov    %rax,0x188(%rsp)
    bb53:	00 
    bb54:	48 8d 05 65 29 00 00 	lea    0x2965(%rip),%rax        # e4c0 <options.163.0+0x420>
    bb5b:	f2 0f 5c c1          	subsd  %xmm1,%xmm0
    bb5f:	48 89 84 24 d0 01 00 	mov    %rax,0x1d0(%rsp)
    bb66:	00 
    bb67:	48 8b 05 da 29 00 00 	mov    0x29da(%rip),%rax        # e548 <options.163.0+0x4a8>
    bb6e:	c7 84 24 90 01 00 00 	movl   $0x15f,0x190(%rsp)
    bb75:	5f 01 00 00 
    bb79:	48 89 84 24 80 01 00 	mov    %rax,0x180(%rsp)
    bb80:	00 
    bb81:	f2 0f 11 84 24 a8 00 	movsd  %xmm0,0xa8(%rsp)
    bb88:	00 00 
    bb8a:	f2 0f 11 44 24 08    	movsd  %xmm0,0x8(%rsp)
    bb90:	48 c7 84 24 d8 01 00 	movq   $0x28,0x1d8(%rsp)
    bb97:	00 28 00 00 00 
    bb9c:	e8 df 66 ff ff       	call   2280 <_gfortran_st_write@plt>
    bba1:	ba 08 00 00 00       	mov    $0x8,%edx
    bba6:	4c 89 fe             	mov    %r15,%rsi
    bba9:	48 89 df             	mov    %rbx,%rdi
    bbac:	e8 7f 65 ff ff       	call   2130 <_gfortran_transfer_character_write@plt>
    bbb1:	ba 08 00 00 00       	mov    $0x8,%edx
    bbb6:	48 89 ee             	mov    %rbp,%rsi
    bbb9:	48 89 df             	mov    %rbx,%rdi
    bbbc:	e8 7f 64 ff ff       	call   2040 <_gfortran_transfer_real_write@plt>
    bbc1:	48 8b 74 24 40       	mov    0x40(%rsp),%rsi
    bbc6:	ba 08 00 00 00       	mov    $0x8,%edx
    bbcb:	48 89 df             	mov    %rbx,%rdi
    bbce:	f2 0f 10 44 24 08    	movsd  0x8(%rsp),%xmm0
    bbd4:	f2 0f 59 05 e4 29 00 	mulsd  0x29e4(%rip),%xmm0        # e5c0 <options.163.0+0x520>
    bbdb:	00 
    bbdc:	f2 0f 5e 44 24 10    	divsd  0x10(%rsp),%xmm0
    bbe2:	f2 0f 11 84 24 f0 00 	movsd  %xmm0,0xf0(%rsp)
    bbe9:	00 00 
    bbeb:	e8 50 64 ff ff       	call   2040 <_gfortran_transfer_real_write@plt>
    bbf0:	48 89 df             	mov    %rbx,%rdi
    bbf3:	e8 18 66 ff ff       	call   2210 <_gfortran_st_write_done@plt>
    bbf8:	c7 44 24 68 07 00 00 	movl   $0x7,0x68(%rsp)
    bbff:	00 
    bc00:	e9 43 fe ff ff       	jmp    ba48 <MAIN__+0x11d8>
    bc05:	48 8d 05 90 25 00 00 	lea    0x2590(%rip),%rax        # e19c <options.163.0+0xfc>
    bc0c:	48 89 df             	mov    %rbx,%rdi
    bc0f:	4c 8d 35 a6 24 00 00 	lea    0x24a6(%rip),%r14        # e0bc <options.163.0+0x1c>
    bc16:	c7 84 24 84 00 00 00 	movl   $0x1,0x84(%rsp)
    bc1d:	01 00 00 00 
    bc21:	48 89 84 24 d0 01 00 	mov    %rax,0x1d0(%rsp)
    bc28:	00 
    bc29:	48 8b 05 18 29 00 00 	mov    0x2918(%rip),%rax        # e548 <options.163.0+0x4a8>
    bc30:	4c 89 b4 24 88 01 00 	mov    %r14,0x188(%rsp)
    bc37:	00 
    bc38:	48 89 84 24 80 01 00 	mov    %rax,0x180(%rsp)
    bc3f:	00 
    bc40:	c7 84 24 90 01 00 00 	movl   $0x128,0x190(%rsp)
    bc47:	28 01 00 00 
    bc4b:	48 c7 84 24 d8 01 00 	movq   $0x1d,0x1d8(%rsp)
    bc52:	00 1d 00 00 00 
    bc57:	e8 24 66 ff ff       	call   2280 <_gfortran_st_write@plt>
    bc5c:	48 89 df             	mov    %rbx,%rdi
    bc5f:	e8 ac 65 ff ff       	call   2210 <_gfortran_st_write_done@plt>
    bc64:	48 8d 05 4f 25 00 00 	lea    0x254f(%rip),%rax        # e1ba <options.163.0+0x11a>
    bc6b:	48 89 df             	mov    %rbx,%rdi
    bc6e:	4c 89 b4 24 88 01 00 	mov    %r14,0x188(%rsp)
    bc75:	00 
    bc76:	48 89 84 24 d0 01 00 	mov    %rax,0x1d0(%rsp)
    bc7d:	00 
    bc7e:	48 8b 05 c3 28 00 00 	mov    0x28c3(%rip),%rax        # e548 <options.163.0+0x4a8>
    bc85:	c7 84 24 90 01 00 00 	movl   $0x129,0x190(%rsp)
    bc8c:	29 01 00 00 
    bc90:	48 89 84 24 80 01 00 	mov    %rax,0x180(%rsp)
    bc97:	00 
    bc98:	48 c7 84 24 d8 01 00 	movq   $0x18,0x1d8(%rsp)
    bc9f:	00 18 00 00 00 
    bca4:	e8 d7 65 ff ff       	call   2280 <_gfortran_st_write@plt>
    bca9:	48 8b 74 24 38       	mov    0x38(%rsp),%rsi
    bcae:	ba 08 00 00 00       	mov    $0x8,%edx
    bcb3:	48 89 df             	mov    %rbx,%rdi
    bcb6:	e8 85 63 ff ff       	call   2040 <_gfortran_transfer_real_write@plt>
    bcbb:	48 89 df             	mov    %rbx,%rdi
    bcbe:	e8 4d 65 ff ff       	call   2210 <_gfortran_st_write_done@plt>
    bcc3:	48 8d 05 09 25 00 00 	lea    0x2509(%rip),%rax        # e1d3 <options.163.0+0x133>
    bcca:	48 89 df             	mov    %rbx,%rdi
    bccd:	4c 89 b4 24 88 01 00 	mov    %r14,0x188(%rsp)
    bcd4:	00 
    bcd5:	48 89 84 24 d0 01 00 	mov    %rax,0x1d0(%rsp)
    bcdc:	00 
    bcdd:	48 8b 05 64 28 00 00 	mov    0x2864(%rip),%rax        # e548 <options.163.0+0x4a8>
    bce4:	c7 84 24 90 01 00 00 	movl   $0x12a,0x190(%rsp)
    bceb:	2a 01 00 00 
    bcef:	48 c7 84 24 d8 01 00 	movq   $0x18,0x1d8(%rsp)
    bcf6:	00 18 00 00 00 
    bcfb:	48 89 84 24 80 01 00 	mov    %rax,0x180(%rsp)
    bd02:	00 
    bd03:	e8 78 65 ff ff       	call   2280 <_gfortran_st_write@plt>
    bd08:	48 8d b4 24 88 00 00 	lea    0x88(%rsp),%rsi
    bd0f:	00 
    bd10:	e9 99 f9 ff ff       	jmp    b6ae <MAIN__+0xe3e>
    bd15:	48 8d 05 e9 24 00 00 	lea    0x24e9(%rip),%rax        # e205 <options.163.0+0x165>
    bd1c:	48 89 df             	mov    %rbx,%rdi
    bd1f:	4c 8d 3d 96 23 00 00 	lea    0x2396(%rip),%r15        # e0bc <options.163.0+0x1c>
    bd26:	c7 84 24 84 00 00 00 	movl   $0x0,0x84(%rsp)
    bd2d:	00 00 00 00 
    bd31:	48 89 84 24 d0 01 00 	mov    %rax,0x1d0(%rsp)
    bd38:	00 
    bd39:	48 8b 05 08 28 00 00 	mov    0x2808(%rip),%rax        # e548 <options.163.0+0x4a8>
    bd40:	4c 89 bc 24 88 01 00 	mov    %r15,0x188(%rsp)
    bd47:	00 
    bd48:	48 89 84 24 80 01 00 	mov    %rax,0x180(%rsp)
    bd4f:	00 
    bd50:	c7 84 24 90 01 00 00 	movl   $0x139,0x190(%rsp)
    bd57:	39 01 00 00 
    bd5b:	48 c7 84 24 d8 01 00 	movq   $0x19,0x1d8(%rsp)
    bd62:	00 19 00 00 00 
    bd67:	e8 14 65 ff ff       	call   2280 <_gfortran_st_write@plt>
    bd6c:	48 89 df             	mov    %rbx,%rdi
    bd6f:	e8 9c 64 ff ff       	call   2210 <_gfortran_st_write_done@plt>
    bd74:	48 8d 05 a4 24 00 00 	lea    0x24a4(%rip),%rax        # e21f <options.163.0+0x17f>
    bd7b:	48 89 df             	mov    %rbx,%rdi
    bd7e:	4c 89 bc 24 88 01 00 	mov    %r15,0x188(%rsp)
    bd85:	00 
    bd86:	48 89 84 24 d0 01 00 	mov    %rax,0x1d0(%rsp)
    bd8d:	00 
    bd8e:	48 8b 05 b3 27 00 00 	mov    0x27b3(%rip),%rax        # e548 <options.163.0+0x4a8>
    bd95:	c7 84 24 90 01 00 00 	movl   $0x13a,0x190(%rsp)
    bd9c:	3a 01 00 00 
    bda0:	48 89 84 24 80 01 00 	mov    %rax,0x180(%rsp)
    bda7:	00 
    bda8:	48 c7 84 24 d8 01 00 	movq   $0x1e,0x1d8(%rsp)
    bdaf:	00 1e 00 00 00 
    bdb4:	e8 c7 64 ff ff       	call   2280 <_gfortran_st_write@plt>
    bdb9:	48 89 df             	mov    %rbx,%rdi
    bdbc:	e8 4f 64 ff ff       	call   2210 <_gfortran_st_write_done@plt>
    bdc1:	48 8d 05 f2 23 00 00 	lea    0x23f2(%rip),%rax        # e1ba <options.163.0+0x11a>
    bdc8:	48 89 df             	mov    %rbx,%rdi
    bdcb:	4c 89 bc 24 88 01 00 	mov    %r15,0x188(%rsp)
    bdd2:	00 
    bdd3:	48 89 84 24 d0 01 00 	mov    %rax,0x1d0(%rsp)
    bdda:	00 
    bddb:	48 8b 05 66 27 00 00 	mov    0x2766(%rip),%rax        # e548 <options.163.0+0x4a8>
    bde2:	c7 84 24 90 01 00 00 	movl   $0x13b,0x190(%rsp)
    bde9:	3b 01 00 00 
    bded:	48 89 84 24 80 01 00 	mov    %rax,0x180(%rsp)
    bdf4:	00 
    bdf5:	48 c7 84 24 d8 01 00 	movq   $0x18,0x1d8(%rsp)
    bdfc:	00 18 00 00 00 
    be01:	e8 7a 64 ff ff       	call   2280 <_gfortran_st_write@plt>
    be06:	48 8b 74 24 38       	mov    0x38(%rsp),%rsi
    be0b:	48 89 df             	mov    %rbx,%rdi
    be0e:	ba 08 00 00 00       	mov    $0x8,%edx
    be13:	e8 28 62 ff ff       	call   2040 <_gfortran_transfer_real_write@plt>
    be18:	48 89 df             	mov    %rbx,%rdi
    be1b:	e8 f0 63 ff ff       	call   2210 <_gfortran_st_write_done@plt>
    be20:	e9 9e f8 ff ff       	jmp    b6c3 <MAIN__+0xe53>
    be25:	48 8b 05 54 27 00 00 	mov    0x2754(%rip),%rax        # e580 <options.163.0+0x4e0>
    be2c:	48 89 84 24 b8 00 00 	mov    %rax,0xb8(%rsp)
    be33:	00 
    be34:	e9 27 f7 ff ff       	jmp    b560 <MAIN__+0xcf0>
    be39:	48 8b 05 48 27 00 00 	mov    0x2748(%rip),%rax        # e588 <options.163.0+0x4e8>
    be40:	48 89 84 24 b8 00 00 	mov    %rax,0xb8(%rsp)
    be47:	00 
    be48:	e9 13 f7 ff ff       	jmp    b560 <MAIN__+0xcf0>
    be4d:	48 8b 05 3c 27 00 00 	mov    0x273c(%rip),%rax        # e590 <options.163.0+0x4f0>
    be54:	48 89 84 24 b8 00 00 	mov    %rax,0xb8(%rsp)
    be5b:	00 
    be5c:	e9 ff f6 ff ff       	jmp    b560 <MAIN__+0xcf0>
    be61:	48 8b 05 30 27 00 00 	mov    0x2730(%rip),%rax        # e598 <options.163.0+0x4f8>
    be68:	48 89 84 24 b8 00 00 	mov    %rax,0xb8(%rsp)
    be6f:	00 
    be70:	e9 eb f6 ff ff       	jmp    b560 <MAIN__+0xcf0>
    be75:	48 8b 05 24 27 00 00 	mov    0x2724(%rip),%rax        # e5a0 <options.163.0+0x500>
    be7c:	48 89 84 24 b8 00 00 	mov    %rax,0xb8(%rsp)
    be83:	00 
    be84:	e9 d7 f6 ff ff       	jmp    b560 <MAIN__+0xcf0>
    be89:	48 8b 05 18 27 00 00 	mov    0x2718(%rip),%rax        # e5a8 <options.163.0+0x508>
    be90:	48 89 84 24 b8 00 00 	mov    %rax,0xb8(%rsp)
    be97:	00 
    be98:	e9 c3 f6 ff ff       	jmp    b560 <MAIN__+0xcf0>
    be9d:	48 8b 05 d4 26 00 00 	mov    0x26d4(%rip),%rax        # e578 <options.163.0+0x4d8>
    bea4:	48 89 84 24 b8 00 00 	mov    %rax,0xb8(%rsp)
    beab:	00 
    beac:	e9 af f6 ff ff       	jmp    b560 <MAIN__+0xcf0>
    beb1:	83 fe 14             	cmp    $0x14,%esi
    beb4:	0f 85 3f ee ff ff    	jne    acf9 <MAIN__+0x489>
    beba:	c6 05 9f 74 00 00 43 	movb   $0x43,0x749f(%rip)        # 13360 <__mg_data_MOD_class>
    bec1:	e9 3a ee ff ff       	jmp    ad00 <MAIN__+0x490>
    bec6:	83 fe 04             	cmp    $0x4,%esi
    bec9:	0f 85 2a ee ff ff    	jne    acf9 <MAIN__+0x489>
    becf:	c6 05 8a 74 00 00 53 	movb   $0x53,0x748a(%rip)        # 13360 <__mg_data_MOD_class>
    bed6:	66 0f 28 15 52 27 00 	movapd 0x2752(%rip),%xmm2        # e630 <options.163.0+0x590>
    bedd:	00 
    bede:	f2 0f 10 0d 6a 26 00 	movsd  0x266a(%rip),%xmm1        # e550 <options.163.0+0x4b0>
    bee5:	00 
    bee6:	e9 25 ee ff ff       	jmp    ad10 <MAIN__+0x4a0>
    beeb:	83 fe 04             	cmp    $0x4,%esi
    beee:	0f 85 05 ee ff ff    	jne    acf9 <MAIN__+0x489>
    bef4:	c6 05 65 74 00 00 57 	movb   $0x57,0x7465(%rip)        # 13360 <__mg_data_MOD_class>
    befb:	66 0f 28 15 2d 27 00 	movapd 0x272d(%rip),%xmm2        # e630 <options.163.0+0x590>
    bf02:	00 
    bf03:	f2 0f 10 0d 45 26 00 	movsd  0x2645(%rip),%xmm1        # e550 <options.163.0+0x4b0>
    bf0a:	00 
    bf0b:	e9 00 ee ff ff       	jmp    ad10 <MAIN__+0x4a0>
    bf10:	83 fe 04             	cmp    $0x4,%esi
    bf13:	74 44                	je     bf59 <MAIN__+0x16e9>
    bf15:	83 fe 14             	cmp    $0x14,%esi
    bf18:	0f 85 db ed ff ff    	jne    acf9 <MAIN__+0x489>
    bf1e:	c6 05 3b 74 00 00 42 	movb   $0x42,0x743b(%rip)        # 13360 <__mg_data_MOD_class>
    bf25:	e9 d6 ed ff ff       	jmp    ad00 <MAIN__+0x490>
    bf2a:	81 f9 00 10 00 00    	cmp    $0x1000,%ecx
    bf30:	0f 85 c3 ed ff ff    	jne    acf9 <MAIN__+0x489>
    bf36:	83 fe 32             	cmp    $0x32,%esi
    bf39:	0f 85 ba ed ff ff    	jne    acf9 <MAIN__+0x489>
    bf3f:	c6 05 1a 74 00 00 46 	movb   $0x46,0x741a(%rip)        # 13360 <__mg_data_MOD_class>
    bf46:	e9 b5 ed ff ff       	jmp    ad00 <MAIN__+0x490>
    bf4b:	83 fe 32             	cmp    $0x32,%esi
    bf4e:	0f 85 a5 ed ff ff    	jne    acf9 <MAIN__+0x489>
    bf54:	e9 5d eb ff ff       	jmp    aab6 <MAIN__+0x246>
    bf59:	c6 05 00 74 00 00 41 	movb   $0x41,0x7400(%rip)        # 13360 <__mg_data_MOD_class>
    bf60:	66 0f 28 15 c8 26 00 	movapd 0x26c8(%rip),%xmm2        # e630 <options.163.0+0x590>
    bf67:	00 
    bf68:	f2 0f 10 0d e0 25 00 	movsd  0x25e0(%rip),%xmm1        # e550 <options.163.0+0x4b0>
    bf6f:	00 
    bf70:	e9 9b ed ff ff       	jmp    ad10 <MAIN__+0x4a0>
    bf75:	66 66 2e 0f 1f 84 00 	data16 cs nopw 0x0(%rax,%rax,1)
    bf7c:	00 00 00 00 

000000000000bf80 <bubble_>:
    bf80:	4d 63 00             	movslq (%r8),%r8
    bf83:	31 c0                	xor    %eax,%eax
    bf85:	4d 85 c0             	test   %r8,%r8
    bf88:	4d 89 c2             	mov    %r8,%r10
    bf8b:	4c 0f 48 c0          	cmovs  %rax,%r8
    bf8f:	41 8b 01             	mov    (%r9),%eax
    bf92:	83 f8 01             	cmp    $0x1,%eax
    bf95:	74 69                	je     c000 <bubble_+0x80>
    bf97:	41 83 fa 01          	cmp    $0x1,%r10d
    bf9b:	7e 5b                	jle    bff8 <bubble_+0x78>
    bf9d:	4c 63 c8             	movslq %eax,%r9
    bfa0:	4d 0f af c8          	imul   %r8,%r9
    bfa4:	45 8d 42 ff          	lea    -0x1(%r10),%r8d
    bfa8:	4d 01 c8             	add    %r9,%r8
    bfab:	4a 8d 04 8d 00 00 00 	lea    0x0(,%r9,4),%rax
    bfb2:	00 
    bfb3:	49 c1 e0 02          	shl    $0x2,%r8
    bfb7:	eb 23                	jmp    bfdc <bubble_+0x5c>
    bfb9:	0f 1f 80 00 00 00 00 	nopl   0x0(%rax)
    bfc0:	0f 11 14 47          	movups %xmm2,(%rdi,%rax,2)
    bfc4:	48 c1 04 06 20       	rolq   $0x20,(%rsi,%rax,1)
    bfc9:	48 c1 04 02 20       	rolq   $0x20,(%rdx,%rax,1)
    bfce:	48 c1 04 01 20       	rolq   $0x20,(%rcx,%rax,1)
    bfd3:	48 83 c0 04          	add    $0x4,%rax
    bfd7:	4c 39 c0             	cmp    %r8,%rax
    bfda:	74 1c                	je     bff8 <bubble_+0x78>
    bfdc:	66 0f 10 04 47       	movupd (%rdi,%rax,2),%xmm0
    bfe1:	66 0f 28 d0          	movapd %xmm0,%xmm2
    bfe5:	66 0f 28 c8          	movapd %xmm0,%xmm1
    bfe9:	66 0f c6 d0 01       	shufpd $0x1,%xmm0,%xmm2
    bfee:	66 0f 15 c0          	unpckhpd %xmm0,%xmm0
    bff2:	66 0f 2f c1          	comisd %xmm1,%xmm0
    bff6:	77 c8                	ja     bfc0 <bubble_+0x40>
    bff8:	c3                   	ret    
    bff9:	0f 1f 80 00 00 00 00 	nopl   0x0(%rax)
    c000:	41 83 fa 01          	cmp    $0x1,%r10d
    c004:	7e f2                	jle    bff8 <bubble_+0x78>
    c006:	45 8d 4a fe          	lea    -0x2(%r10),%r9d
    c00a:	4a 8d 04 85 00 00 00 	lea    0x0(,%r8,4),%rax
    c011:	00 
    c012:	4f 8d 44 08 01       	lea    0x1(%r8,%r9,1),%r8
    c017:	49 c1 e0 02          	shl    $0x2,%r8
    c01b:	eb 1f                	jmp    c03c <bubble_+0xbc>
    c01d:	0f 1f 00             	nopl   (%rax)
    c020:	0f 11 14 47          	movups %xmm2,(%rdi,%rax,2)
    c024:	48 c1 04 06 20       	rolq   $0x20,(%rsi,%rax,1)
    c029:	48 c1 04 02 20       	rolq   $0x20,(%rdx,%rax,1)
    c02e:	48 c1 04 01 20       	rolq   $0x20,(%rcx,%rax,1)
    c033:	48 83 c0 04          	add    $0x4,%rax
    c037:	49 39 c0             	cmp    %rax,%r8
    c03a:	74 24                	je     c060 <bubble_+0xe0>
    c03c:	66 0f 10 04 47       	movupd (%rdi,%rax,2),%xmm0
    c041:	66 0f 28 d8          	movapd %xmm0,%xmm3
    c045:	66 0f 28 d0          	movapd %xmm0,%xmm2
    c049:	66 0f 15 db          	unpckhpd %xmm3,%xmm3
    c04d:	66 0f c6 d0 01       	shufpd $0x1,%xmm0,%xmm2
    c052:	66 0f 2f c3          	comisd %xmm3,%xmm0
    c056:	77 c8                	ja     c020 <bubble_+0xa0>
    c058:	eb 9e                	jmp    bff8 <bubble_+0x78>
    c05a:	66 0f 1f 44 00 00    	nopw   0x0(%rax,%rax,1)
    c060:	c3                   	ret    
    c061:	66 66 2e 0f 1f 84 00 	data16 cs nopw 0x0(%rax,%rax,1)
    c068:	00 00 00 00 
    c06c:	0f 1f 40 00          	nopl   0x0(%rax)

000000000000c070 <zran3_._omp_fn.1>:
    c070:	41 57                	push   %r15
    c072:	66 0f ef c0          	pxor   %xmm0,%xmm0
    c076:	49 89 ff             	mov    %rdi,%r15
    c079:	41 56                	push   %r14
    c07b:	41 55                	push   %r13
    c07d:	41 54                	push   %r12
    c07f:	55                   	push   %rbp
    c080:	53                   	push   %rbx
    c081:	48 81 ec e8 01 00 00 	sub    $0x1e8,%rsp
    c088:	48 8b 47 20          	mov    0x20(%rdi),%rax
    c08c:	66 0f 28 0d 1c 26 00 	movapd 0x261c(%rip),%xmm1        # e6b0 <options.163.0+0x610>
    c093:	00 
    c094:	0f 29 84 24 90 01 00 	movaps %xmm0,0x190(%rsp)
    c09b:	00 
    c09c:	48 89 44 24 18       	mov    %rax,0x18(%rsp)
    c0a1:	48 8b 47 18          	mov    0x18(%rdi),%rax
    c0a5:	0f 29 84 24 a0 01 00 	movaps %xmm0,0x1a0(%rsp)
    c0ac:	00 
    c0ad:	48 89 44 24 20       	mov    %rax,0x20(%rsp)
    c0b2:	48 8b 47 10          	mov    0x10(%rdi),%rax
    c0b6:	0f 29 84 24 b0 01 00 	movaps %xmm0,0x1b0(%rsp)
    c0bd:	00 
    c0be:	48 89 44 24 28       	mov    %rax,0x28(%rsp)
    c0c3:	0f 29 84 24 c0 01 00 	movaps %xmm0,0x1c0(%rsp)
    c0ca:	00 
    c0cb:	0f 29 84 24 d0 01 00 	movaps %xmm0,0x1d0(%rsp)
    c0d2:	00 
    c0d3:	0f 11 44 24 78       	movups %xmm0,0x78(%rsp)
    c0d8:	0f 11 84 24 88 00 00 	movups %xmm0,0x88(%rsp)
    c0df:	00 
    c0e0:	0f 11 84 24 c8 00 00 	movups %xmm0,0xc8(%rsp)
    c0e7:	00 
    c0e8:	0f 11 84 24 d8 00 00 	movups %xmm0,0xd8(%rsp)
    c0ef:	00 
    c0f0:	0f 11 84 24 18 01 00 	movups %xmm0,0x118(%rsp)
    c0f7:	00 
    c0f8:	0f 11 84 24 28 01 00 	movups %xmm0,0x128(%rsp)
    c0ff:	00 
    c100:	0f 29 8c 24 40 01 00 	movaps %xmm1,0x140(%rsp)
    c107:	00 
    c108:	0f 29 8c 24 50 01 00 	movaps %xmm1,0x150(%rsp)
    c10f:	00 
    c110:	0f 29 8c 24 60 01 00 	movaps %xmm1,0x160(%rsp)
    c117:	00 
    c118:	0f 29 8c 24 70 01 00 	movaps %xmm1,0x170(%rsp)
    c11f:	00 
    c120:	48 c7 84 24 98 00 00 	movq   $0x0,0x98(%rsp)
    c127:	00 00 00 00 00 
    c12c:	48 c7 84 24 e8 00 00 	movq   $0x0,0xe8(%rsp)
    c133:	00 00 00 00 00 
    c138:	48 c7 84 24 38 01 00 	movq   $0x0,0x138(%rsp)
    c13f:	00 00 00 00 00 
    c144:	0f 29 8c 24 80 01 00 	movaps %xmm1,0x180(%rsp)
    c14b:	00 
    c14c:	48 8b 47 28          	mov    0x28(%rdi),%rax
    c150:	48 c7 44 24 70 00 00 	movq   $0x0,0x70(%rsp)
    c157:	00 00 
    c159:	8b 18                	mov    (%rax),%ebx
    c15b:	48 8b 47 30          	mov    0x30(%rdi),%rax
    c15f:	48 c7 84 24 c0 00 00 	movq   $0x0,0xc0(%rsp)
    c166:	00 00 00 00 00 
    c16b:	48 c7 84 24 10 01 00 	movq   $0x0,0x110(%rsp)
    c172:	00 00 00 00 00 
    c177:	8b 00                	mov    (%rax),%eax
    c179:	0f 29 44 24 50       	movaps %xmm0,0x50(%rsp)
    c17e:	0f 29 44 24 60       	movaps %xmm0,0x60(%rsp)
    c183:	89 44 24 10          	mov    %eax,0x10(%rsp)
    c187:	0f 29 84 24 a0 00 00 	movaps %xmm0,0xa0(%rsp)
    c18e:	00 
    c18f:	0f 29 84 24 b0 00 00 	movaps %xmm0,0xb0(%rsp)
    c196:	00 
    c197:	0f 29 84 24 f0 00 00 	movaps %xmm0,0xf0(%rsp)
    c19e:	00 
    c19f:	0f 29 84 24 00 01 00 	movaps %xmm0,0x100(%rsp)
    c1a6:	00 
    c1a7:	e8 54 5f ff ff       	call   2100 <omp_get_thread_num@plt>
    c1ac:	89 44 24 38          	mov    %eax,0x38(%rsp)
    c1b0:	83 fb 02             	cmp    $0x2,%ebx
    c1b3:	7e 41                	jle    c1f6 <zran3_._omp_fn.1+0x186>
    c1b5:	8b 44 24 10          	mov    0x10(%rsp),%eax
    c1b9:	83 eb 02             	sub    $0x2,%ebx
    c1bc:	83 f8 02             	cmp    $0x2,%eax
    c1bf:	7e 35                	jle    c1f6 <zran3_._omp_fn.1+0x186>
    c1c1:	8d 68 fe             	lea    -0x2(%rax),%ebp
    c1c4:	e8 a7 5e ff ff       	call   2070 <omp_get_num_threads@plt>
    c1c9:	31 d2                	xor    %edx,%edx
    c1cb:	41 89 c0             	mov    %eax,%r8d
    c1ce:	89 d8                	mov    %ebx,%eax
    c1d0:	0f af c5             	imul   %ebp,%eax
    c1d3:	41 f7 f0             	div    %r8d
    c1d6:	89 c1                	mov    %eax,%ecx
    c1d8:	39 54 24 38          	cmp    %edx,0x38(%rsp)
    c1dc:	0f 82 a8 03 00 00    	jb     c58a <zran3_._omp_fn.1+0x51a>
    c1e2:	8b 44 24 38          	mov    0x38(%rsp),%eax
    c1e6:	0f af c1             	imul   %ecx,%eax
    c1e9:	01 d0                	add    %edx,%eax
    c1eb:	8d 14 01             	lea    (%rcx,%rax,1),%edx
    c1ee:	39 d0                	cmp    %edx,%eax
    c1f0:	0f 82 19 02 00 00    	jb     c40f <zran3_._omp_fn.1+0x39f>
    c1f6:	e8 95 5f ff ff       	call   2190 <GOMP_barrier@plt>
    c1fb:	31 c0                	xor    %eax,%eax
    c1fd:	e8 4e 60 ff ff       	call   2250 <omp_get_thread_num_@plt>
    c202:	41 89 c4             	mov    %eax,%r12d
    c205:	31 c0                	xor    %eax,%eax
    c207:	e8 64 5f ff ff       	call   2170 <omp_get_num_threads_@plt>
    c20c:	c7 44 24 3c 0a 00 00 	movl   $0xa,0x3c(%rsp)
    c213:	00 
    c214:	83 c0 01             	add    $0x1,%eax
    c217:	c7 44 24 30 0a 00 00 	movl   $0xa,0x30(%rsp)
    c21e:	00 
    c21f:	48 c7 44 24 08 24 00 	movq   $0x24,0x8(%rsp)
    c226:	00 00 
    c228:	48 98                	cltq   
    c22a:	48 89 44 24 28       	mov    %rax,0x28(%rsp)
    c22f:	48 8d 44 24 48       	lea    0x48(%rsp),%rax
    c234:	48 89 44 24 20       	mov    %rax,0x20(%rsp)
    c239:	48 8d 44 24 40       	lea    0x40(%rsp),%rax
    c23e:	48 89 44 24 18       	mov    %rax,0x18(%rsp)
    c243:	e9 b6 00 00 00       	jmp    c2fe <zran3_._omp_fn.1+0x28e>
    c248:	0f 1f 84 00 00 00 00 	nopl   0x0(%rax,%rax,1)
    c24f:	00 
    c250:	e8 8b 5e ff ff       	call   20e0 <GOMP_loop_end@plt>
    c255:	49 8b 47 08          	mov    0x8(%r15),%rax
    c259:	48 8b 7c 24 10       	mov    0x10(%rsp),%rdi
    c25e:	44 3b 24 b8          	cmp    (%rax,%rdi,4),%r12d
    c262:	75 40                	jne    c2a4 <zran3_._omp_fn.1+0x234>
    c264:	8b 7c 24 30          	mov    0x30(%rsp),%edi
    c268:	48 8b 4c 24 08       	mov    0x8(%rsp),%rcx
    c26d:	8d 57 09             	lea    0x9(%rdi),%edx
    c270:	83 ef 01             	sub    $0x1,%edi
    c273:	48 63 d2             	movslq %edx,%rdx
    c276:	89 7c 24 30          	mov    %edi,0x30(%rsp)
    c27a:	66 0f 6e ac 94 a0 00 	movd   0xa0(%rsp,%rdx,4),%xmm5
    c281:	00 00 
    c283:	66 0f 6e 44 94 50    	movd   0x50(%rsp,%rdx,4),%xmm0
    c289:	8b 94 94 f0 00 00 00 	mov    0xf0(%rsp,%rdx,4),%edx
    c290:	66 0f 62 c5          	punpckldq %xmm5,%xmm0
    c294:	89 94 88 ac 00 00 00 	mov    %edx,0xac(%rax,%rcx,4)
    c29b:	66 0f d6 84 88 a4 00 	movq   %xmm0,0xa4(%rax,%rcx,4)
    c2a2:	00 00 
    c2a4:	48 8b 54 24 08       	mov    0x8(%rsp),%rdx
    c2a9:	44 3b 24 90          	cmp    (%rax,%rdx,4),%r12d
    c2ad:	75 3a                	jne    c2e9 <zran3_._omp_fn.1+0x279>
    c2af:	48 89 d1             	mov    %rdx,%rcx
    c2b2:	48 63 54 24 3c       	movslq 0x3c(%rsp),%rdx
    c2b7:	48 89 d7             	mov    %rdx,%rdi
    c2ba:	48 83 ea 01          	sub    $0x1,%rdx
    c2be:	66 0f 6e 44 94 50    	movd   0x50(%rsp,%rdx,4),%xmm0
    c2c4:	83 ef 01             	sub    $0x1,%edi
    c2c7:	66 0f 6e 9c 94 a0 00 	movd   0xa0(%rsp,%rdx,4),%xmm3
    c2ce:	00 00 
    c2d0:	8b 94 94 f0 00 00 00 	mov    0xf0(%rsp,%rdx,4),%edx
    c2d7:	89 7c 24 3c          	mov    %edi,0x3c(%rsp)
    c2db:	66 0f 62 c3          	punpckldq %xmm3,%xmm0
    c2df:	89 54 88 0c          	mov    %edx,0xc(%rax,%rcx,4)
    c2e3:	66 0f d6 44 88 04    	movq   %xmm0,0x4(%rax,%rcx,4)
    c2e9:	48 83 6c 24 08 04    	subq   $0x4,0x8(%rsp)
    c2ef:	48 8b 44 24 08       	mov    0x8(%rsp),%rax
    c2f4:	48 83 f8 fc          	cmp    $0xfffffffffffffffc,%rax
    c2f8:	0f 84 ff 00 00 00    	je     c3fd <zran3_._omp_fn.1+0x38d>
    c2fe:	8b 44 24 38          	mov    0x38(%rsp),%eax
    c302:	85 c0                	test   %eax,%eax
    c304:	75 0d                	jne    c313 <zran3_._omp_fn.1+0x2a3>
    c306:	66 0f 28 15 b2 23 00 	movapd 0x23b2(%rip),%xmm2        # e6c0 <options.163.0+0x620>
    c30d:	00 
    c30e:	41 0f 11 57 40       	movups %xmm2,0x40(%r15)
    c313:	4c 8b 4c 24 20       	mov    0x20(%rsp),%r9
    c318:	4c 8b 44 24 18       	mov    0x18(%rsp),%r8
    c31d:	bf 01 00 00 00       	mov    $0x1,%edi
    c322:	31 c9                	xor    %ecx,%ecx
    c324:	48 8b 74 24 28       	mov    0x28(%rsp),%rsi
    c329:	ba 01 00 00 00       	mov    $0x1,%edx
    c32e:	e8 4d 5e ff ff       	call   2180 <GOMP_loop_ordered_static_start@plt>
    c333:	48 8b 7c 24 08       	mov    0x8(%rsp),%rdi
    c338:	48 83 c7 28          	add    $0x28,%rdi
    c33c:	48 89 7c 24 10       	mov    %rdi,0x10(%rsp)
    c341:	84 c0                	test   %al,%al
    c343:	0f 84 07 ff ff ff    	je     c250 <zran3_._omp_fn.1+0x1e0>
    c349:	8b 44 24 30          	mov    0x30(%rsp),%eax
    c34d:	4c 63 6c 24 3c       	movslq 0x3c(%rsp),%r13
    c352:	44 8d 70 09          	lea    0x9(%rax),%r14d
    c356:	49 83 ed 01          	sub    $0x1,%r13
    c35a:	4d 63 f6             	movslq %r14d,%r14
    c35d:	0f 1f 00             	nopl   (%rax)
    c360:	8b 5c 24 40          	mov    0x40(%rsp),%ebx
    c364:	8b 6c 24 48          	mov    0x48(%rsp),%ebp
    c368:	0f 1f 84 00 00 00 00 	nopl   0x0(%rax,%rax,1)
    c36f:	00 
    c370:	e8 2b 5e ff ff       	call   21a0 <GOMP_ordered_start@plt>
    c375:	f2 42 0f 10 84 f4 40 	movsd  0x140(%rsp,%r14,8),%xmm0
    c37c:	01 00 00 
    c37f:	66 41 0f 2f 47 40    	comisd 0x40(%r15),%xmm0
    c385:	76 13                	jbe    c39a <zran3_._omp_fn.1+0x32a>
    c387:	49 8b 47 08          	mov    0x8(%r15),%rax
    c38b:	48 8b 74 24 10       	mov    0x10(%rsp),%rsi
    c390:	f2 41 0f 11 47 40    	movsd  %xmm0,0x40(%r15)
    c396:	44 89 24 b0          	mov    %r12d,(%rax,%rsi,4)
    c39a:	f2 42 0f 10 84 ec 40 	movsd  0x140(%rsp,%r13,8),%xmm0
    c3a1:	01 00 00 
    c3a4:	f2 41 0f 10 4f 48    	movsd  0x48(%r15),%xmm1
    c3aa:	66 0f 2f c8          	comisd %xmm0,%xmm1
    c3ae:	77 28                	ja     c3d8 <zran3_._omp_fn.1+0x368>
    c3b0:	e8 8b 5d ff ff       	call   2140 <GOMP_ordered_end@plt>
    c3b5:	83 c3 01             	add    $0x1,%ebx
    c3b8:	39 dd                	cmp    %ebx,%ebp
    c3ba:	7f b4                	jg     c370 <zran3_._omp_fn.1+0x300>
    c3bc:	48 8b 74 24 20       	mov    0x20(%rsp),%rsi
    c3c1:	48 8b 7c 24 18       	mov    0x18(%rsp),%rdi
    c3c6:	e8 65 5c ff ff       	call   2030 <GOMP_loop_ordered_static_next@plt>
    c3cb:	84 c0                	test   %al,%al
    c3cd:	75 91                	jne    c360 <zran3_._omp_fn.1+0x2f0>
    c3cf:	e9 7c fe ff ff       	jmp    c250 <zran3_._omp_fn.1+0x1e0>
    c3d4:	0f 1f 40 00          	nopl   0x0(%rax)
    c3d8:	49 8b 47 08          	mov    0x8(%r15),%rax
    c3dc:	48 8b 4c 24 08       	mov    0x8(%rsp),%rcx
    c3e1:	f2 41 0f 11 47 48    	movsd  %xmm0,0x48(%r15)
    c3e7:	83 c3 01             	add    $0x1,%ebx
    c3ea:	44 89 24 88          	mov    %r12d,(%rax,%rcx,4)
    c3ee:	e8 4d 5d ff ff       	call   2140 <GOMP_ordered_end@plt>
    c3f3:	39 eb                	cmp    %ebp,%ebx
    c3f5:	0f 8c 75 ff ff ff    	jl     c370 <zran3_._omp_fn.1+0x300>
    c3fb:	eb bf                	jmp    c3bc <zran3_._omp_fn.1+0x34c>
    c3fd:	48 81 c4 e8 01 00 00 	add    $0x1e8,%rsp
    c404:	5b                   	pop    %rbx
    c405:	5d                   	pop    %rbp
    c406:	41 5c                	pop    %r12
    c408:	41 5d                	pop    %r13
    c40a:	41 5e                	pop    %r14
    c40c:	41 5f                	pop    %r15
    c40e:	c3                   	ret    
    c40f:	31 d2                	xor    %edx,%edx
    c411:	f7 f5                	div    %ebp
    c413:	44 8d 60 02          	lea    0x2(%rax),%r12d
    c417:	49 8b 47 38          	mov    0x38(%r15),%rax
    c41b:	8d 5a 02             	lea    0x2(%rdx),%ebx
    c41e:	48 63 28             	movslq (%rax),%rbp
    c421:	83 fd 02             	cmp    $0x2,%ebp
    c424:	0f 8e cc fd ff ff    	jle    c1f6 <zran3_._omp_fn.1+0x186>
    c42a:	8d 41 ff             	lea    -0x1(%rcx),%eax
    c42d:	c7 44 24 08 00 00 00 	movl   $0x0,0x8(%rsp)
    c434:	00 
    c435:	48 8d 8c 24 f0 00 00 	lea    0xf0(%rsp),%rcx
    c43c:	00 
    c43d:	89 44 24 3c          	mov    %eax,0x3c(%rsp)
    c441:	49 63 c4             	movslq %r12d,%rax
    c444:	48 89 44 24 30       	mov    %rax,0x30(%rsp)
    c449:	0f 1f 80 00 00 00 00 	nopl   0x0(%rax)
    c450:	48 63 d3             	movslq %ebx,%rdx
    c453:	48 0f af 54 24 28    	imul   0x28(%rsp),%rdx
    c459:	48 8b 44 24 30       	mov    0x30(%rsp),%rax
    c45e:	41 be 02 00 00 00    	mov    $0x2,%r14d
    c464:	48 0f af 44 24 20    	imul   0x20(%rsp),%rax
    c46a:	48 03 44 24 18       	add    0x18(%rsp),%rax
    c46f:	48 01 d0             	add    %rdx,%rax
    c472:	49 8b 17             	mov    (%r15),%rdx
    c475:	4c 8d 1c c2          	lea    (%rdx,%rax,8),%r11
    c479:	eb 21                	jmp    c49c <zran3_._omp_fn.1+0x42c>
    c47b:	0f 1f 44 00 00       	nopl   0x0(%rax,%rax,1)
    c480:	f2 0f 10 84 24 40 01 	movsd  0x140(%rsp),%xmm0
    c487:	00 00 
    c489:	66 0f 2f c4          	comisd %xmm4,%xmm0
    c48d:	77 75                	ja     c504 <zran3_._omp_fn.1+0x494>
    c48f:	49 83 c6 01          	add    $0x1,%r14
    c493:	4c 39 f5             	cmp    %r14,%rbp
    c496:	0f 84 ba 00 00 00    	je     c556 <zran3_._omp_fn.1+0x4e6>
    c49c:	f2 43 0f 10 24 f3    	movsd  (%r11,%r14,8),%xmm4
    c4a2:	45 89 f5             	mov    %r14d,%r13d
    c4a5:	66 0f 2f a4 24 90 01 	comisd 0x190(%rsp),%xmm4
    c4ac:	00 00 
    c4ae:	76 d0                	jbe    c480 <zran3_._omp_fn.1+0x410>
    c4b0:	48 8d 94 24 a0 00 00 	lea    0xa0(%rsp),%rdx
    c4b7:	00 
    c4b8:	48 8d 74 24 50       	lea    0x50(%rsp),%rsi
    c4bd:	44 89 74 24 78       	mov    %r14d,0x78(%rsp)
    c4c2:	48 8d bc 24 40 01 00 	lea    0x140(%rsp),%rdi
    c4c9:	00 
    c4ca:	4c 8d 0d 5f 1b 00 00 	lea    0x1b5f(%rip),%r9        # e030 <_IO_stdin_used+0x30>
    c4d1:	89 9c 24 c8 00 00 00 	mov    %ebx,0xc8(%rsp)
    c4d8:	4c 8d 05 3d 1b 00 00 	lea    0x1b3d(%rip),%r8        # e01c <_IO_stdin_used+0x1c>
    c4df:	44 89 a4 24 18 01 00 	mov    %r12d,0x118(%rsp)
    c4e6:	00 
    c4e7:	f2 0f 11 a4 24 90 01 	movsd  %xmm4,0x190(%rsp)
    c4ee:	00 00 
    c4f0:	e8 8b fa ff ff       	call   bf80 <bubble_>
    c4f5:	f2 0f 10 84 24 40 01 	movsd  0x140(%rsp),%xmm0
    c4fc:	00 00 
    c4fe:	66 0f 2f c4          	comisd %xmm4,%xmm0
    c502:	76 8b                	jbe    c48f <zran3_._omp_fn.1+0x41f>
    c504:	48 8d 74 24 50       	lea    0x50(%rsp),%rsi
    c509:	48 8d 94 24 a0 00 00 	lea    0xa0(%rsp),%rdx
    c510:	00 
    c511:	49 83 c6 01          	add    $0x1,%r14
    c515:	44 89 6c 24 50       	mov    %r13d,0x50(%rsp)
    c51a:	48 8d bc 24 40 01 00 	lea    0x140(%rsp),%rdi
    c521:	00 
    c522:	4c 8d 0d 73 1b 00 00 	lea    0x1b73(%rip),%r9        # e09c <_IO_stdin_used+0x9c>
    c529:	89 9c 24 a0 00 00 00 	mov    %ebx,0xa0(%rsp)
    c530:	4c 8d 05 e5 1a 00 00 	lea    0x1ae5(%rip),%r8        # e01c <_IO_stdin_used+0x1c>
    c537:	44 89 a4 24 f0 00 00 	mov    %r12d,0xf0(%rsp)
    c53e:	00 
    c53f:	f2 0f 11 a4 24 40 01 	movsd  %xmm4,0x140(%rsp)
    c546:	00 00 
    c548:	e8 33 fa ff ff       	call   bf80 <bubble_>
    c54d:	4c 39 f5             	cmp    %r14,%rbp
    c550:	0f 85 46 ff ff ff    	jne    c49c <zran3_._omp_fn.1+0x42c>
    c556:	8b 54 24 3c          	mov    0x3c(%rsp),%edx
    c55a:	39 54 24 08          	cmp    %edx,0x8(%rsp)
    c55e:	0f 84 92 fc ff ff    	je     c1f6 <zran3_._omp_fn.1+0x186>
    c564:	83 c3 01             	add    $0x1,%ebx
    c567:	39 5c 24 10          	cmp    %ebx,0x10(%rsp)
    c56b:	7e 0a                	jle    c577 <zran3_._omp_fn.1+0x507>
    c56d:	83 44 24 08 01       	addl   $0x1,0x8(%rsp)
    c572:	e9 d9 fe ff ff       	jmp    c450 <zran3_._omp_fn.1+0x3e0>
    c577:	41 83 c4 01          	add    $0x1,%r12d
    c57b:	bb 02 00 00 00       	mov    $0x2,%ebx
    c580:	49 63 c4             	movslq %r12d,%rax
    c583:	48 89 44 24 30       	mov    %rax,0x30(%rsp)
    c588:	eb e3                	jmp    c56d <zran3_._omp_fn.1+0x4fd>
    c58a:	83 c1 01             	add    $0x1,%ecx
    c58d:	31 d2                	xor    %edx,%edx
    c58f:	e9 4e fc ff ff       	jmp    c1e2 <zran3_._omp_fn.1+0x172>
    c594:	66 66 2e 0f 1f 84 00 	data16 cs nopw 0x0(%rax,%rax,1)
    c59b:	00 00 00 00 
    c59f:	90                   	nop

000000000000c5a0 <power_>:
    c5a0:	41 54                	push   %r12
    c5a2:	55                   	push   %rbp
    c5a3:	53                   	push   %rbx
    c5a4:	48 83 ec 10          	sub    $0x10,%rsp
    c5a8:	f2 0f 10 05 00 21 00 	movsd  0x2100(%rip),%xmm0        # e6b0 <options.163.0+0x610>
    c5af:	00 
    c5b0:	f2 0f 10 0f          	movsd  (%rdi),%xmm1
    c5b4:	8b 1e                	mov    (%rsi),%ebx
    c5b6:	f2 0f 11 44 24 08    	movsd  %xmm0,0x8(%rsp)
    c5bc:	f2 0f 11 0c 24       	movsd  %xmm1,(%rsp)
    c5c1:	85 db                	test   %ebx,%ebx
    c5c3:	74 49                	je     c60e <power_+0x6e>
    c5c5:	49 89 e4             	mov    %rsp,%r12
    c5c8:	48 8d 6c 24 08       	lea    0x8(%rsp),%rbp
    c5cd:	eb 14                	jmp    c5e3 <power_+0x43>
    c5cf:	90                   	nop
    c5d0:	4c 89 e7             	mov    %r12,%rdi
    c5d3:	e8 d8 0b 00 00       	call   d1b0 <randlc_>
    c5d8:	89 d8                	mov    %ebx,%eax
    c5da:	c1 e8 1f             	shr    $0x1f,%eax
    c5dd:	01 c3                	add    %eax,%ebx
    c5df:	d1 fb                	sar    %ebx
    c5e1:	74 25                	je     c608 <power_+0x68>
    c5e3:	89 da                	mov    %ebx,%edx
    c5e5:	4c 89 e6             	mov    %r12,%rsi
    c5e8:	c1 ea 1f             	shr    $0x1f,%edx
    c5eb:	8d 04 13             	lea    (%rbx,%rdx,1),%eax
    c5ee:	83 e0 01             	and    $0x1,%eax
    c5f1:	29 d0                	sub    %edx,%eax
    c5f3:	83 f8 01             	cmp    $0x1,%eax
    c5f6:	75 d8                	jne    c5d0 <power_+0x30>
    c5f8:	48 89 ef             	mov    %rbp,%rdi
    c5fb:	e8 b0 0b 00 00       	call   d1b0 <randlc_>
    c600:	4c 89 e6             	mov    %r12,%rsi
    c603:	eb cb                	jmp    c5d0 <power_+0x30>
    c605:	0f 1f 00             	nopl   (%rax)
    c608:	f2 0f 10 44 24 08    	movsd  0x8(%rsp),%xmm0
    c60e:	48 83 c4 10          	add    $0x10,%rsp
    c612:	5b                   	pop    %rbx
    c613:	5d                   	pop    %rbp
    c614:	41 5c                	pop    %r12
    c616:	c3                   	ret    
    c617:	66 0f 1f 84 00 00 00 	nopw   0x0(%rax,%rax,1)
    c61e:	00 00 

000000000000c620 <alloc_space_>:
    c620:	55                   	push   %rbp
    c621:	53                   	push   %rbx
    c622:	48 bb 00 00 00 00 01 	movabs $0x30100000000,%rbx
    c629:	03 00 00 
    c62c:	48 81 ec 18 02 00 00 	sub    $0x218,%rsp
    c633:	48 83 3d 45 4a 00 00 	cmpq   $0x0,0x4a45(%rip)        # 11080 <__mg_fields_MOD_u>
    c63a:	00 
    c63b:	48 c7 05 4a 4a 00 00 	movq   $0x8,0x4a4a(%rip)        # 11090 <__mg_fields_MOD_u+0x10>
    c642:	08 00 00 00 
    c646:	48 89 1d 4b 4a 00 00 	mov    %rbx,0x4a4b(%rip)        # 11098 <__mg_fields_MOD_u+0x18>
    c64d:	0f 85 25 01 00 00    	jne    c778 <alloc_space_+0x158>
    c653:	48 bd c0 95 27 4d 02 	movabs $0x24d2795c0,%rbp
    c65a:	00 00 00 
    c65d:	48 89 ef             	mov    %rbp,%rdi
    c660:	e8 5b 5a ff ff       	call   20c0 <malloc@plt>
    c665:	66 0f 6f 05 a3 20 00 	movdqa 0x20a3(%rip),%xmm0        # e710 <options.163.0+0x670>
    c66c:	00 
    c66d:	48 c7 05 10 4a 00 00 	movq   $0xffffffffffffffff,0x4a10(%rip)        # 11088 <__mg_fields_MOD_u+0x8>
    c674:	ff ff ff ff 
    c678:	48 89 05 01 4a 00 00 	mov    %rax,0x4a01(%rip)        # 11080 <__mg_fields_MOD_u>
    c67f:	0f 29 05 1a 4a 00 00 	movaps %xmm0,0x4a1a(%rip)        # 110a0 <__mg_fields_MOD_u+0x20>
    c686:	48 85 c0             	test   %rax,%rax
    c689:	0f 84 da 00 00 00    	je     c769 <alloc_space_+0x149>
    c68f:	66 0f 6f 0d 89 20 00 	movdqa 0x2089(%rip),%xmm1        # e720 <options.163.0+0x680>
    c696:	00 
    c697:	48 83 3d a1 49 00 00 	cmpq   $0x0,0x49a1(%rip)        # 11040 <__mg_fields_MOD_v>
    c69e:	00 
    c69f:	48 c7 05 a6 49 00 00 	movq   $0x8,0x49a6(%rip)        # 11050 <__mg_fields_MOD_v+0x10>
    c6a6:	08 00 00 00 
    c6aa:	48 89 1d a7 49 00 00 	mov    %rbx,0x49a7(%rip)        # 11058 <__mg_fields_MOD_v+0x18>
    c6b1:	0f 29 0d f8 49 00 00 	movaps %xmm1,0x49f8(%rip)        # 110b0 <__mg_fields_MOD_u+0x30>
    c6b8:	0f 85 ba 00 00 00    	jne    c778 <alloc_space_+0x158>
    c6be:	48 bf 40 80 01 03 02 	movabs $0x203018040,%rdi
    c6c5:	00 00 00 
    c6c8:	e8 f3 59 ff ff       	call   20c0 <malloc@plt>
    c6cd:	66 0f 6f 05 3b 20 00 	movdqa 0x203b(%rip),%xmm0        # e710 <options.163.0+0x670>
    c6d4:	00 
    c6d5:	48 c7 05 68 49 00 00 	movq   $0xffffffffffffffff,0x4968(%rip)        # 11048 <__mg_fields_MOD_v+0x8>
    c6dc:	ff ff ff ff 
    c6e0:	48 85 c0             	test   %rax,%rax
    c6e3:	48 89 05 56 49 00 00 	mov    %rax,0x4956(%rip)        # 11040 <__mg_fields_MOD_v>
    c6ea:	0f 29 05 6f 49 00 00 	movaps %xmm0,0x496f(%rip)        # 11060 <__mg_fields_MOD_v+0x20>
    c6f1:	0f 84 d2 00 00 00    	je     c7c9 <alloc_space_+0x1a9>
    c6f7:	66 0f 6f 15 31 20 00 	movdqa 0x2031(%rip),%xmm2        # e730 <options.163.0+0x690>
    c6fe:	00 
    c6ff:	48 83 3d b9 49 00 00 	cmpq   $0x0,0x49b9(%rip)        # 110c0 <__mg_fields_MOD_r>
    c706:	00 
    c707:	48 c7 05 be 49 00 00 	movq   $0x8,0x49be(%rip)        # 110d0 <__mg_fields_MOD_r+0x10>
    c70e:	08 00 00 00 
    c712:	48 89 1d bf 49 00 00 	mov    %rbx,0x49bf(%rip)        # 110d8 <__mg_fields_MOD_r+0x18>
    c719:	0f 29 15 50 49 00 00 	movaps %xmm2,0x4950(%rip)        # 11070 <__mg_fields_MOD_v+0x30>
    c720:	75 56                	jne    c778 <alloc_space_+0x158>
    c722:	48 89 ef             	mov    %rbp,%rdi
    c725:	e8 96 59 ff ff       	call   20c0 <malloc@plt>
    c72a:	66 0f 6f 05 de 1f 00 	movdqa 0x1fde(%rip),%xmm0        # e710 <options.163.0+0x670>
    c731:	00 
    c732:	66 0f 6f 0d e6 1f 00 	movdqa 0x1fe6(%rip),%xmm1        # e720 <options.163.0+0x680>
    c739:	00 
    c73a:	48 c7 05 83 49 00 00 	movq   $0xffffffffffffffff,0x4983(%rip)        # 110c8 <__mg_fields_MOD_r+0x8>
    c741:	ff ff ff ff 
    c745:	48 85 c0             	test   %rax,%rax
    c748:	48 89 05 71 49 00 00 	mov    %rax,0x4971(%rip)        # 110c0 <__mg_fields_MOD_r>
    c74f:	0f 29 05 8a 49 00 00 	movaps %xmm0,0x498a(%rip)        # 110e0 <__mg_fields_MOD_r+0x20>
    c756:	0f 29 0d 93 49 00 00 	movaps %xmm1,0x4993(%rip)        # 110f0 <__mg_fields_MOD_r+0x30>
    c75d:	74 19                	je     c778 <alloc_space_+0x158>
    c75f:	48 81 c4 18 02 00 00 	add    $0x218,%rsp
    c766:	5b                   	pop    %rbx
    c767:	5d                   	pop    %rbp
    c768:	c3                   	ret    
    c769:	66 0f 6f 05 af 1f 00 	movdqa 0x1faf(%rip),%xmm0        # e720 <options.163.0+0x680>
    c770:	00 
    c771:	0f 29 05 38 49 00 00 	movaps %xmm0,0x4938(%rip)        # 110b0 <__mg_fields_MOD_u+0x30>
    c778:	48 8d 05 55 1f 00 00 	lea    0x1f55(%rip),%rax        # e6d4 <options.163.0+0x634>
    c77f:	48 89 e5             	mov    %rsp,%rbp
    c782:	c7 44 24 10 75 00 00 	movl   $0x75,0x10(%rsp)
    c789:	00 
    c78a:	48 89 44 24 08       	mov    %rax,0x8(%rsp)
    c78f:	48 8b 05 aa 1d 00 00 	mov    0x1daa(%rip),%rax        # e540 <options.163.0+0x4a0>
    c796:	48 89 ef             	mov    %rbp,%rdi
    c799:	48 89 04 24          	mov    %rax,(%rsp)
    c79d:	e8 de 5a ff ff       	call   2280 <_gfortran_st_write@plt>
    c7a2:	ba 25 00 00 00       	mov    $0x25,%edx
    c7a7:	48 8d 35 32 1f 00 00 	lea    0x1f32(%rip),%rsi        # e6e0 <options.163.0+0x640>
    c7ae:	48 89 ef             	mov    %rbp,%rdi
    c7b1:	e8 7a 59 ff ff       	call   2130 <_gfortran_transfer_character_write@plt>
    c7b6:	48 89 ef             	mov    %rbp,%rdi
    c7b9:	e8 52 5a ff ff       	call   2210 <_gfortran_st_write_done@plt>
    c7be:	31 d2                	xor    %edx,%edx
    c7c0:	31 f6                	xor    %esi,%esi
    c7c2:	31 ff                	xor    %edi,%edi
    c7c4:	e8 87 58 ff ff       	call   2050 <_gfortran_stop_string@plt>
    c7c9:	66 0f 6f 05 5f 1f 00 	movdqa 0x1f5f(%rip),%xmm0        # e730 <options.163.0+0x690>
    c7d0:	00 
    c7d1:	0f 29 05 98 48 00 00 	movaps %xmm0,0x4898(%rip)        # 11070 <__mg_fields_MOD_v+0x30>
    c7d8:	eb 9e                	jmp    c778 <alloc_space_+0x158>
    c7da:	66 0f 1f 44 00 00    	nopw   0x0(%rax,%rax,1)

000000000000c7e0 <print_results_._omp_fn.0>:
    c7e0:	53                   	push   %rbx
    c7e1:	48 89 fb             	mov    %rdi,%rbx
    c7e4:	e8 17 59 ff ff       	call   2100 <omp_get_thread_num@plt>
    c7e9:	85 c0                	test   %eax,%eax
    c7eb:	74 03                	je     c7f0 <print_results_._omp_fn.0+0x10>
    c7ed:	5b                   	pop    %rbx
    c7ee:	c3                   	ret    
    c7ef:	90                   	nop
    c7f0:	e8 7b 59 ff ff       	call   2170 <omp_get_num_threads_@plt>
    c7f5:	41 89 c0             	mov    %eax,%r8d
    c7f8:	48 8b 03             	mov    (%rbx),%rax
    c7fb:	44 89 00             	mov    %r8d,(%rax)
    c7fe:	5b                   	pop    %rbx
    c7ff:	c3                   	ret    

000000000000c800 <print_results_>:
    c800:	41 57                	push   %r15
    c802:	31 c0                	xor    %eax,%eax
    c804:	49 89 ff             	mov    %rdi,%r15
    c807:	41 56                	push   %r14
    c809:	49 89 ce             	mov    %rcx,%r14
    c80c:	41 55                	push   %r13
    c80e:	41 54                	push   %r12
    c810:	55                   	push   %rbp
    c811:	53                   	push   %rbx
    c812:	48 8d 1d 27 1f 00 00 	lea    0x1f27(%rip),%rbx        # e740 <options.163.0+0x6a0>
    c819:	48 81 ec 68 02 00 00 	sub    $0x268,%rsp
    c820:	4c 89 44 24 08       	mov    %r8,0x8(%rsp)
    c825:	48 8d 6c 24 50       	lea    0x50(%rsp),%rbp
    c82a:	4c 89 4c 24 10       	mov    %r9,0x10(%rsp)
    c82f:	48 89 74 24 18       	mov    %rsi,0x18(%rsp)
    c834:	48 89 54 24 20       	mov    %rdx,0x20(%rsp)
    c839:	e8 02 5a ff ff       	call   2240 <omp_get_max_threads_@plt>
    c83e:	31 d2                	xor    %edx,%edx
    c840:	48 89 ee             	mov    %rbp,%rsi
    c843:	31 c9                	xor    %ecx,%ecx
    c845:	89 44 24 30          	mov    %eax,0x30(%rsp)
    c849:	48 8d 3d 90 ff ff ff 	lea    -0x70(%rip),%rdi        # c7e0 <print_results_._omp_fn.0>
    c850:	41 89 c5             	mov    %eax,%r13d
    c853:	48 8d 44 24 34       	lea    0x34(%rsp),%rax
    c858:	48 89 44 24 28       	mov    %rax,0x28(%rsp)
    c85d:	48 89 44 24 50       	mov    %rax,0x50(%rsp)
    c862:	c7 44 24 34 00 00 00 	movl   $0x0,0x34(%rsp)
    c869:	00 
    c86a:	e8 91 59 ff ff       	call   2200 <GOMP_parallel@plt>
    c86f:	4c 8b 25 d2 1c 00 00 	mov    0x1cd2(%rip),%r12        # e548 <options.163.0+0x4a8>
    c876:	48 89 ef             	mov    %rbp,%rdi
    c879:	48 8d 0d b8 1f 00 00 	lea    0x1fb8(%rip),%rcx        # e838 <options.163.0+0x798>
    c880:	48 89 8c 24 a0 00 00 	mov    %rcx,0xa0(%rsp)
    c887:	00 
    c888:	48 89 5c 24 58       	mov    %rbx,0x58(%rsp)
    c88d:	c7 44 24 60 20 00 00 	movl   $0x20,0x60(%rsp)
    c894:	00 
    c895:	48 c7 84 24 a8 00 00 	movq   $0x25,0xa8(%rsp)
    c89c:	00 25 00 00 00 
    c8a1:	4c 89 64 24 50       	mov    %r12,0x50(%rsp)
    c8a6:	e8 d5 59 ff ff       	call   2280 <_gfortran_st_write@plt>
    c8ab:	48 8b 94 24 08 03 00 	mov    0x308(%rsp),%rdx
    c8b2:	00 
    c8b3:	4c 89 fe             	mov    %r15,%rsi
    c8b6:	48 89 ef             	mov    %rbp,%rdi
    c8b9:	e8 72 58 ff ff       	call   2130 <_gfortran_transfer_character_write@plt>
    c8be:	48 89 ef             	mov    %rbp,%rdi
    c8c1:	e8 4a 59 ff ff       	call   2210 <_gfortran_st_write_done@plt>
    c8c6:	48 8d 0d 93 1f 00 00 	lea    0x1f93(%rip),%rcx        # e860 <options.163.0+0x7c0>
    c8cd:	48 89 ef             	mov    %rbp,%rdi
    c8d0:	48 89 5c 24 58       	mov    %rbx,0x58(%rsp)
    c8d5:	48 89 8c 24 a0 00 00 	mov    %rcx,0xa0(%rsp)
    c8dc:	00 
    c8dd:	c7 44 24 60 23 00 00 	movl   $0x23,0x60(%rsp)
    c8e4:	00 
    c8e5:	48 c7 84 24 a8 00 00 	movq   $0x21,0xa8(%rsp)
    c8ec:	00 21 00 00 00 
    c8f1:	4c 89 64 24 50       	mov    %r12,0x50(%rsp)
    c8f6:	e8 85 59 ff ff       	call   2280 <_gfortran_st_write@plt>
    c8fb:	48 8b 74 24 18       	mov    0x18(%rsp),%rsi
    c900:	ba 01 00 00 00       	mov    $0x1,%edx
    c905:	48 89 ef             	mov    %rbp,%rdi
    c908:	e8 23 58 ff ff       	call   2130 <_gfortran_transfer_character_write@plt>
    c90d:	48 89 ef             	mov    %rbp,%rdi
    c910:	e8 fb 58 ff ff       	call   2210 <_gfortran_st_write_done@plt>
    c915:	41 8b 3e             	mov    (%r14),%edi
    c918:	85 ff                	test   %edi,%edi
    c91a:	75 0f                	jne    c92b <print_results_+0x12b>
    c91c:	48 8b 44 24 08       	mov    0x8(%rsp),%rax
    c921:	8b 30                	mov    (%rax),%esi
    c923:	85 f6                	test   %esi,%esi
    c925:	0f 84 2d 07 00 00    	je     d058 <print_results_+0x858>
    c92b:	48 8d 05 9e 1f 00 00 	lea    0x1f9e(%rip),%rax        # e8d0 <options.163.0+0x830>
    c932:	48 89 ef             	mov    %rbp,%rdi
    c935:	48 89 5c 24 58       	mov    %rbx,0x58(%rsp)
    c93a:	48 89 84 24 a0 00 00 	mov    %rax,0xa0(%rsp)
    c941:	00 
    c942:	c7 44 24 60 37 00 00 	movl   $0x37,0x60(%rsp)
    c949:	00 
    c94a:	48 c7 84 24 a8 00 00 	movq   $0x2d,0xa8(%rsp)
    c951:	00 2d 00 00 00 
    c956:	4c 89 64 24 50       	mov    %r12,0x50(%rsp)
    c95b:	e8 20 59 ff ff       	call   2280 <_gfortran_st_write@plt>
    c960:	48 8b 74 24 20       	mov    0x20(%rsp),%rsi
    c965:	ba 04 00 00 00       	mov    $0x4,%edx
    c96a:	48 89 ef             	mov    %rbp,%rdi
    c96d:	e8 7e 57 ff ff       	call   20f0 <_gfortran_transfer_integer_write@plt>
    c972:	ba 04 00 00 00       	mov    $0x4,%edx
    c977:	4c 89 f6             	mov    %r14,%rsi
    c97a:	48 89 ef             	mov    %rbp,%rdi
    c97d:	e8 6e 57 ff ff       	call   20f0 <_gfortran_transfer_integer_write@plt>
    c982:	48 8b 74 24 08       	mov    0x8(%rsp),%rsi
    c987:	48 89 ef             	mov    %rbp,%rdi
    c98a:	ba 04 00 00 00       	mov    $0x4,%edx
    c98f:	e8 5c 57 ff ff       	call   20f0 <_gfortran_transfer_integer_write@plt>
    c994:	48 89 ef             	mov    %rbp,%rdi
    c997:	e8 74 58 ff ff       	call   2210 <_gfortran_st_write_done@plt>
    c99c:	48 8d 05 5d 1f 00 00 	lea    0x1f5d(%rip),%rax        # e900 <options.163.0+0x860>
    c9a3:	48 89 ef             	mov    %rbp,%rdi
    c9a6:	48 89 5c 24 58       	mov    %rbx,0x58(%rsp)
    c9ab:	48 89 84 24 a0 00 00 	mov    %rax,0xa0(%rsp)
    c9b2:	00 
    c9b3:	c7 44 24 60 3b 00 00 	movl   $0x3b,0x60(%rsp)
    c9ba:	00 
    c9bb:	48 c7 84 24 a8 00 00 	movq   $0x21,0xa8(%rsp)
    c9c2:	00 21 00 00 00 
    c9c7:	4c 89 64 24 50       	mov    %r12,0x50(%rsp)
    c9cc:	e8 af 58 ff ff       	call   2280 <_gfortran_st_write@plt>
    c9d1:	48 8b 74 24 10       	mov    0x10(%rsp),%rsi
    c9d6:	ba 04 00 00 00       	mov    $0x4,%edx
    c9db:	48 89 ef             	mov    %rbp,%rdi
    c9de:	e8 0d 57 ff ff       	call   20f0 <_gfortran_transfer_integer_write@plt>
    c9e3:	48 89 ef             	mov    %rbp,%rdi
    c9e6:	e8 25 58 ff ff       	call   2210 <_gfortran_st_write_done@plt>
    c9eb:	48 8d 05 36 1f 00 00 	lea    0x1f36(%rip),%rax        # e928 <options.163.0+0x888>
    c9f2:	48 89 ef             	mov    %rbp,%rdi
    c9f5:	48 89 5c 24 58       	mov    %rbx,0x58(%rsp)
    c9fa:	48 89 84 24 a0 00 00 	mov    %rax,0xa0(%rsp)
    ca01:	00 
    ca02:	c7 44 24 60 3e 00 00 	movl   $0x3e,0x60(%rsp)
    ca09:	00 
    ca0a:	48 c7 84 24 a8 00 00 	movq   $0x22,0xa8(%rsp)
    ca11:	00 22 00 00 00 
    ca16:	4c 89 64 24 50       	mov    %r12,0x50(%rsp)
    ca1b:	e8 60 58 ff ff       	call   2280 <_gfortran_st_write@plt>
    ca20:	48 8b b4 24 a0 02 00 	mov    0x2a0(%rsp),%rsi
    ca27:	00 
    ca28:	ba 08 00 00 00       	mov    $0x8,%edx
    ca2d:	48 89 ef             	mov    %rbp,%rdi
    ca30:	e8 0b 56 ff ff       	call   2040 <_gfortran_transfer_real_write@plt>
    ca35:	48 89 ef             	mov    %rbp,%rdi
    ca38:	e8 d3 57 ff ff       	call   2210 <_gfortran_st_write_done@plt>
    ca3d:	8b 4c 24 34          	mov    0x34(%rsp),%ecx
    ca41:	85 c9                	test   %ecx,%ecx
    ca43:	7e 4f                	jle    ca94 <print_results_+0x294>
    ca45:	48 8d 05 04 1f 00 00 	lea    0x1f04(%rip),%rax        # e950 <options.163.0+0x8b0>
    ca4c:	48 89 ef             	mov    %rbp,%rdi
    ca4f:	48 89 5c 24 58       	mov    %rbx,0x58(%rsp)
    ca54:	48 89 84 24 a0 00 00 	mov    %rax,0xa0(%rsp)
    ca5b:	00 
    ca5c:	c7 44 24 60 41 00 00 	movl   $0x41,0x60(%rsp)
    ca63:	00 
    ca64:	48 c7 84 24 a8 00 00 	movq   $0x21,0xa8(%rsp)
    ca6b:	00 21 00 00 00 
    ca70:	4c 89 64 24 50       	mov    %r12,0x50(%rsp)
    ca75:	e8 06 58 ff ff       	call   2280 <_gfortran_st_write@plt>
    ca7a:	48 8b 74 24 28       	mov    0x28(%rsp),%rsi
    ca7f:	48 89 ef             	mov    %rbp,%rdi
    ca82:	ba 04 00 00 00       	mov    $0x4,%edx
    ca87:	e8 64 56 ff ff       	call   20f0 <_gfortran_transfer_integer_write@plt>
    ca8c:	48 89 ef             	mov    %rbp,%rdi
    ca8f:	e8 7c 57 ff ff       	call   2210 <_gfortran_st_write_done@plt>
    ca94:	45 85 ed             	test   %r13d,%r13d
    ca97:	7e 4f                	jle    cae8 <print_results_+0x2e8>
    ca99:	48 8d 05 d8 1e 00 00 	lea    0x1ed8(%rip),%rax        # e978 <options.163.0+0x8d8>
    caa0:	48 89 ef             	mov    %rbp,%rdi
    caa3:	48 89 5c 24 58       	mov    %rbx,0x58(%rsp)
    caa8:	48 89 84 24 a0 00 00 	mov    %rax,0xa0(%rsp)
    caaf:	00 
    cab0:	c7 44 24 60 44 00 00 	movl   $0x44,0x60(%rsp)
    cab7:	00 
    cab8:	48 c7 84 24 a8 00 00 	movq   $0x21,0xa8(%rsp)
    cabf:	00 21 00 00 00 
    cac4:	4c 89 64 24 50       	mov    %r12,0x50(%rsp)
    cac9:	e8 b2 57 ff ff       	call   2280 <_gfortran_st_write@plt>
    cace:	48 89 ef             	mov    %rbp,%rdi
    cad1:	48 8d 74 24 30       	lea    0x30(%rsp),%rsi
    cad6:	ba 04 00 00 00       	mov    $0x4,%edx
    cadb:	e8 10 56 ff ff       	call   20f0 <_gfortran_transfer_integer_write@plt>
    cae0:	48 89 ef             	mov    %rbp,%rdi
    cae3:	e8 28 57 ff ff       	call   2210 <_gfortran_st_write_done@plt>
    cae8:	44 3b 6c 24 34       	cmp    0x34(%rsp),%r13d
    caed:	74 3d                	je     cb2c <print_results_+0x32c>
    caef:	48 8d 05 aa 1e 00 00 	lea    0x1eaa(%rip),%rax        # e9a0 <options.163.0+0x900>
    caf6:	48 89 ef             	mov    %rbp,%rdi
    caf9:	48 89 5c 24 58       	mov    %rbx,0x58(%rsp)
    cafe:	c7 44 24 60 47 00 00 	movl   $0x47,0x60(%rsp)
    cb05:	00 
    cb06:	48 89 84 24 a0 00 00 	mov    %rax,0xa0(%rsp)
    cb0d:	00 
    cb0e:	48 c7 84 24 a8 00 00 	movq   $0x38,0xa8(%rsp)
    cb15:	00 38 00 00 00 
    cb1a:	4c 89 64 24 50       	mov    %r12,0x50(%rsp)
    cb1f:	e8 5c 57 ff ff       	call   2280 <_gfortran_st_write@plt>
    cb24:	48 89 ef             	mov    %rbp,%rdi
    cb27:	e8 e4 56 ff ff       	call   2210 <_gfortran_st_write_done@plt>
    cb2c:	48 8d 05 ad 1e 00 00 	lea    0x1ead(%rip),%rax        # e9e0 <options.163.0+0x940>
    cb33:	48 89 ef             	mov    %rbp,%rdi
    cb36:	48 89 5c 24 58       	mov    %rbx,0x58(%rsp)
    cb3b:	48 89 84 24 a0 00 00 	mov    %rax,0xa0(%rsp)
    cb42:	00 
    cb43:	c7 44 24 60 4a 00 00 	movl   $0x4a,0x60(%rsp)
    cb4a:	00 
    cb4b:	48 c7 84 24 a8 00 00 	movq   $0x22,0xa8(%rsp)
    cb52:	00 22 00 00 00 
    cb57:	4c 89 64 24 50       	mov    %r12,0x50(%rsp)
    cb5c:	e8 1f 57 ff ff       	call   2280 <_gfortran_st_write@plt>
    cb61:	48 8b b4 24 a8 02 00 	mov    0x2a8(%rsp),%rsi
    cb68:	00 
    cb69:	ba 08 00 00 00       	mov    $0x8,%edx
    cb6e:	48 89 ef             	mov    %rbp,%rdi
    cb71:	e8 ca 54 ff ff       	call   2040 <_gfortran_transfer_real_write@plt>
    cb76:	48 89 ef             	mov    %rbp,%rdi
    cb79:	e8 92 56 ff ff       	call   2210 <_gfortran_st_write_done@plt>
    cb7e:	8b 54 24 34          	mov    0x34(%rsp),%edx
    cb82:	85 d2                	test   %edx,%edx
    cb84:	7e 73                	jle    cbf9 <print_results_+0x3f9>
    cb86:	48 8d 05 7b 1e 00 00 	lea    0x1e7b(%rip),%rax        # ea08 <options.163.0+0x968>
    cb8d:	48 89 ef             	mov    %rbp,%rdi
    cb90:	48 89 5c 24 58       	mov    %rbx,0x58(%rsp)
    cb95:	48 89 84 24 a0 00 00 	mov    %rax,0xa0(%rsp)
    cb9c:	00 
    cb9d:	c7 44 24 60 4d 00 00 	movl   $0x4d,0x60(%rsp)
    cba4:	00 
    cba5:	48 c7 84 24 a8 00 00 	movq   $0x23,0xa8(%rsp)
    cbac:	00 23 00 00 00 
    cbb1:	4c 89 64 24 50       	mov    %r12,0x50(%rsp)
    cbb6:	e8 c5 56 ff ff       	call   2280 <_gfortran_st_write@plt>
    cbbb:	66 0f ef c9          	pxor   %xmm1,%xmm1
    cbbf:	48 89 ef             	mov    %rbp,%rdi
    cbc2:	48 8b 84 24 a8 02 00 	mov    0x2a8(%rsp),%rax
    cbc9:	00 
    cbca:	f3 0f 2a 4c 24 34    	cvtsi2ssl 0x34(%rsp),%xmm1
    cbd0:	48 8d 74 24 38       	lea    0x38(%rsp),%rsi
    cbd5:	ba 08 00 00 00       	mov    $0x8,%edx
    cbda:	f2 0f 10 00          	movsd  (%rax),%xmm0
    cbde:	f3 0f 5a c9          	cvtss2sd %xmm1,%xmm1
    cbe2:	f2 0f 5e c1          	divsd  %xmm1,%xmm0
    cbe6:	f2 0f 11 44 24 38    	movsd  %xmm0,0x38(%rsp)
    cbec:	e8 4f 54 ff ff       	call   2040 <_gfortran_transfer_real_write@plt>
    cbf1:	48 89 ef             	mov    %rbp,%rdi
    cbf4:	e8 17 56 ff ff       	call   2210 <_gfortran_st_write_done@plt>
    cbf9:	48 8d 05 5a 1b 00 00 	lea    0x1b5a(%rip),%rax        # e75a <options.163.0+0x6ba>
    cc00:	48 89 ef             	mov    %rbp,%rdi
    cc03:	48 89 5c 24 58       	mov    %rbx,0x58(%rsp)
    cc08:	48 89 84 24 a0 00 00 	mov    %rax,0xa0(%rsp)
    cc0f:	00 
    cc10:	c7 44 24 60 50 00 00 	movl   $0x50,0x60(%rsp)
    cc17:	00 
    cc18:	48 c7 84 24 a8 00 00 	movq   $0x1c,0xa8(%rsp)
    cc1f:	00 1c 00 00 00 
    cc24:	4c 89 64 24 50       	mov    %r12,0x50(%rsp)
    cc29:	e8 52 56 ff ff       	call   2280 <_gfortran_st_write@plt>
    cc2e:	48 8b b4 24 b0 02 00 	mov    0x2b0(%rsp),%rsi
    cc35:	00 
    cc36:	ba 18 00 00 00       	mov    $0x18,%edx
    cc3b:	48 89 ef             	mov    %rbp,%rdi
    cc3e:	e8 ed 54 ff ff       	call   2130 <_gfortran_transfer_character_write@plt>
    cc43:	48 89 ef             	mov    %rbp,%rdi
    cc46:	e8 c5 55 ff ff       	call   2210 <_gfortran_st_write_done@plt>
    cc4b:	48 8b 84 24 b8 02 00 	mov    0x2b8(%rsp),%rax
    cc52:	00 
    cc53:	48 89 5c 24 58       	mov    %rbx,0x58(%rsp)
    cc58:	8b 00                	mov    (%rax),%eax
    cc5a:	85 c0                	test   %eax,%eax
    cc5c:	0f 84 9e 03 00 00    	je     d000 <print_results_+0x800>
    cc62:	48 8d 05 c7 1d 00 00 	lea    0x1dc7(%rip),%rax        # ea30 <options.163.0+0x990>
    cc69:	48 89 ef             	mov    %rbp,%rdi
    cc6c:	c7 44 24 60 54 00 00 	movl   $0x54,0x60(%rsp)
    cc73:	00 
    cc74:	48 89 84 24 a0 00 00 	mov    %rax,0xa0(%rsp)
    cc7b:	00 
    cc7c:	48 c7 84 24 a8 00 00 	movq   $0x1f,0xa8(%rsp)
    cc83:	00 1f 00 00 00 
    cc88:	4c 89 64 24 50       	mov    %r12,0x50(%rsp)
    cc8d:	e8 ee 55 ff ff       	call   2280 <_gfortran_st_write@plt>
    cc92:	48 89 ef             	mov    %rbp,%rdi
    cc95:	ba 0c 00 00 00       	mov    $0xc,%edx
    cc9a:	48 8d 35 d6 1a 00 00 	lea    0x1ad6(%rip),%rsi        # e777 <options.163.0+0x6d7>
    cca1:	e8 8a 54 ff ff       	call   2130 <_gfortran_transfer_character_write@plt>
    cca6:	48 89 ef             	mov    %rbp,%rdi
    cca9:	e8 62 55 ff ff       	call   2210 <_gfortran_st_write_done@plt>
    ccae:	48 8d 05 9b 1d 00 00 	lea    0x1d9b(%rip),%rax        # ea50 <options.163.0+0x9b0>
    ccb5:	48 89 ef             	mov    %rbp,%rdi
    ccb8:	48 89 5c 24 58       	mov    %rbx,0x58(%rsp)
    ccbd:	48 89 84 24 a0 00 00 	mov    %rax,0xa0(%rsp)
    ccc4:	00 
    ccc5:	4c 89 64 24 50       	mov    %r12,0x50(%rsp)
    ccca:	c7 44 24 60 5a 00 00 	movl   $0x5a,0x60(%rsp)
    ccd1:	00 
    ccd2:	48 c7 84 24 a8 00 00 	movq   $0x21,0xa8(%rsp)
    ccd9:	00 21 00 00 00 
    ccde:	e8 9d 55 ff ff       	call   2280 <_gfortran_st_write@plt>
    cce3:	48 8b 94 24 20 03 00 	mov    0x320(%rsp),%rdx
    ccea:	00 
    cceb:	48 8b b4 24 c0 02 00 	mov    0x2c0(%rsp),%rsi
    ccf2:	00 
    ccf3:	48 89 ef             	mov    %rbp,%rdi
    ccf6:	e8 35 54 ff ff       	call   2130 <_gfortran_transfer_character_write@plt>
    ccfb:	48 89 ef             	mov    %rbp,%rdi
    ccfe:	e8 0d 55 ff ff       	call   2210 <_gfortran_st_write_done@plt>
    cd03:	48 8d 05 6e 1d 00 00 	lea    0x1d6e(%rip),%rax        # ea78 <options.163.0+0x9d8>
    cd0a:	48 89 ef             	mov    %rbp,%rdi
    cd0d:	48 89 5c 24 58       	mov    %rbx,0x58(%rsp)
    cd12:	48 89 84 24 a0 00 00 	mov    %rax,0xa0(%rsp)
    cd19:	00 
    cd1a:	4c 89 64 24 50       	mov    %r12,0x50(%rsp)
    cd1f:	c7 44 24 60 5d 00 00 	movl   $0x5d,0x60(%rsp)
    cd26:	00 
    cd27:	48 c7 84 24 a8 00 00 	movq   $0x21,0xa8(%rsp)
    cd2e:	00 21 00 00 00 
    cd33:	e8 48 55 ff ff       	call   2280 <_gfortran_st_write@plt>
    cd38:	48 8b 94 24 28 03 00 	mov    0x328(%rsp),%rdx
    cd3f:	00 
    cd40:	48 8b b4 24 c8 02 00 	mov    0x2c8(%rsp),%rsi
    cd47:	00 
    cd48:	48 89 ef             	mov    %rbp,%rdi
    cd4b:	e8 e0 53 ff ff       	call   2130 <_gfortran_transfer_character_write@plt>
    cd50:	48 89 ef             	mov    %rbp,%rdi
    cd53:	e8 b8 54 ff ff       	call   2210 <_gfortran_st_write_done@plt>
    cd58:	48 8d 05 41 1d 00 00 	lea    0x1d41(%rip),%rax        # eaa0 <options.163.0+0xa00>
    cd5f:	48 89 ef             	mov    %rbp,%rdi
    cd62:	48 89 5c 24 58       	mov    %rbx,0x58(%rsp)
    cd67:	48 89 84 24 a0 00 00 	mov    %rax,0xa0(%rsp)
    cd6e:	00 
    cd6f:	4c 89 64 24 50       	mov    %r12,0x50(%rsp)
    cd74:	c7 44 24 60 61 00 00 	movl   $0x61,0x60(%rsp)
    cd7b:	00 
    cd7c:	48 c7 84 24 a8 00 00 	movq   $0x40,0xa8(%rsp)
    cd83:	00 40 00 00 00 
    cd88:	e8 f3 54 ff ff       	call   2280 <_gfortran_st_write@plt>
    cd8d:	48 8b 94 24 30 03 00 	mov    0x330(%rsp),%rdx
    cd94:	00 
    cd95:	48 8b b4 24 d0 02 00 	mov    0x2d0(%rsp),%rsi
    cd9c:	00 
    cd9d:	48 89 ef             	mov    %rbp,%rdi
    cda0:	e8 8b 53 ff ff       	call   2130 <_gfortran_transfer_character_write@plt>
    cda5:	48 89 ef             	mov    %rbp,%rdi
    cda8:	e8 63 54 ff ff       	call   2210 <_gfortran_st_write_done@plt>
    cdad:	48 8d 05 dd 19 00 00 	lea    0x19dd(%rip),%rax        # e791 <options.163.0+0x6f1>
    cdb4:	48 89 ef             	mov    %rbp,%rdi
    cdb7:	48 89 5c 24 58       	mov    %rbx,0x58(%rsp)
    cdbc:	48 89 84 24 a0 00 00 	mov    %rax,0xa0(%rsp)
    cdc3:	00 
    cdc4:	4c 89 64 24 50       	mov    %r12,0x50(%rsp)
    cdc9:	c7 44 24 60 65 00 00 	movl   $0x65,0x60(%rsp)
    cdd0:	00 
    cdd1:	48 c7 84 24 a8 00 00 	movq   $0x1a,0xa8(%rsp)
    cdd8:	00 1a 00 00 00 
    cddd:	e8 9e 54 ff ff       	call   2280 <_gfortran_st_write@plt>
    cde2:	48 8b 94 24 38 03 00 	mov    0x338(%rsp),%rdx
    cde9:	00 
    cdea:	48 8b b4 24 d8 02 00 	mov    0x2d8(%rsp),%rsi
    cdf1:	00 
    cdf2:	48 89 ef             	mov    %rbp,%rdi
    cdf5:	e8 36 53 ff ff       	call   2130 <_gfortran_transfer_character_write@plt>
    cdfa:	48 89 ef             	mov    %rbp,%rdi
    cdfd:	e8 0e 54 ff ff       	call   2210 <_gfortran_st_write_done@plt>
    ce02:	48 8d 05 a3 19 00 00 	lea    0x19a3(%rip),%rax        # e7ac <options.163.0+0x70c>
    ce09:	48 89 ef             	mov    %rbp,%rdi
    ce0c:	48 89 5c 24 58       	mov    %rbx,0x58(%rsp)
    ce11:	48 89 84 24 a0 00 00 	mov    %rax,0xa0(%rsp)
    ce18:	00 
    ce19:	4c 89 64 24 50       	mov    %r12,0x50(%rsp)
    ce1e:	c7 44 24 60 68 00 00 	movl   $0x68,0x60(%rsp)
    ce25:	00 
    ce26:	48 c7 84 24 a8 00 00 	movq   $0x1a,0xa8(%rsp)
    ce2d:	00 1a 00 00 00 
    ce32:	e8 49 54 ff ff       	call   2280 <_gfortran_st_write@plt>
    ce37:	48 8b 94 24 40 03 00 	mov    0x340(%rsp),%rdx
    ce3e:	00 
    ce3f:	48 8b b4 24 e0 02 00 	mov    0x2e0(%rsp),%rsi
    ce46:	00 
    ce47:	48 89 ef             	mov    %rbp,%rdi
    ce4a:	e8 e1 52 ff ff       	call   2130 <_gfortran_transfer_character_write@plt>
    ce4f:	48 89 ef             	mov    %rbp,%rdi
    ce52:	e8 b9 53 ff ff       	call   2210 <_gfortran_st_write_done@plt>
    ce57:	48 8d 05 69 19 00 00 	lea    0x1969(%rip),%rax        # e7c7 <options.163.0+0x727>
    ce5e:	48 89 ef             	mov    %rbp,%rdi
    ce61:	48 89 5c 24 58       	mov    %rbx,0x58(%rsp)
    ce66:	48 89 84 24 a0 00 00 	mov    %rax,0xa0(%rsp)
    ce6d:	00 
    ce6e:	4c 89 64 24 50       	mov    %r12,0x50(%rsp)
    ce73:	c7 44 24 60 6b 00 00 	movl   $0x6b,0x60(%rsp)
    ce7a:	00 
    ce7b:	48 c7 84 24 a8 00 00 	movq   $0x1a,0xa8(%rsp)
    ce82:	00 1a 00 00 00 
    ce87:	e8 f4 53 ff ff       	call   2280 <_gfortran_st_write@plt>
    ce8c:	48 8b 94 24 48 03 00 	mov    0x348(%rsp),%rdx
    ce93:	00 
    ce94:	48 8b b4 24 e8 02 00 	mov    0x2e8(%rsp),%rsi
    ce9b:	00 
    ce9c:	48 89 ef             	mov    %rbp,%rdi
    ce9f:	e8 8c 52 ff ff       	call   2130 <_gfortran_transfer_character_write@plt>
    cea4:	48 89 ef             	mov    %rbp,%rdi
    cea7:	e8 64 53 ff ff       	call   2210 <_gfortran_st_write_done@plt>
    ceac:	48 8d 05 2f 19 00 00 	lea    0x192f(%rip),%rax        # e7e2 <options.163.0+0x742>
    ceb3:	48 89 ef             	mov    %rbp,%rdi
    ceb6:	48 89 5c 24 58       	mov    %rbx,0x58(%rsp)
    cebb:	48 89 84 24 a0 00 00 	mov    %rax,0xa0(%rsp)
    cec2:	00 
    cec3:	4c 89 64 24 50       	mov    %r12,0x50(%rsp)
    cec8:	c7 44 24 60 6e 00 00 	movl   $0x6e,0x60(%rsp)
    cecf:	00 
    ced0:	48 c7 84 24 a8 00 00 	movq   $0x1a,0xa8(%rsp)
    ced7:	00 1a 00 00 00 
    cedc:	e8 9f 53 ff ff       	call   2280 <_gfortran_st_write@plt>
    cee1:	48 8b 94 24 50 03 00 	mov    0x350(%rsp),%rdx
    cee8:	00 
    cee9:	48 8b b4 24 f0 02 00 	mov    0x2f0(%rsp),%rsi
    cef0:	00 
    cef1:	48 89 ef             	mov    %rbp,%rdi
    cef4:	e8 37 52 ff ff       	call   2130 <_gfortran_transfer_character_write@plt>
    cef9:	48 89 ef             	mov    %rbp,%rdi
    cefc:	e8 0f 53 ff ff       	call   2210 <_gfortran_st_write_done@plt>
    cf01:	48 8d 05 f5 18 00 00 	lea    0x18f5(%rip),%rax        # e7fd <options.163.0+0x75d>
    cf08:	48 89 ef             	mov    %rbp,%rdi
    cf0b:	48 89 5c 24 58       	mov    %rbx,0x58(%rsp)
    cf10:	48 89 84 24 a0 00 00 	mov    %rax,0xa0(%rsp)
    cf17:	00 
    cf18:	4c 89 64 24 50       	mov    %r12,0x50(%rsp)
    cf1d:	c7 44 24 60 71 00 00 	movl   $0x71,0x60(%rsp)
    cf24:	00 
    cf25:	48 c7 84 24 a8 00 00 	movq   $0x1a,0xa8(%rsp)
    cf2c:	00 1a 00 00 00 
    cf31:	e8 4a 53 ff ff       	call   2280 <_gfortran_st_write@plt>
    cf36:	48 8b 94 24 58 03 00 	mov    0x358(%rsp),%rdx
    cf3d:	00 
    cf3e:	48 8b b4 24 f8 02 00 	mov    0x2f8(%rsp),%rsi
    cf45:	00 
    cf46:	48 89 ef             	mov    %rbp,%rdi
    cf49:	e8 e2 51 ff ff       	call   2130 <_gfortran_transfer_character_write@plt>
    cf4e:	48 89 ef             	mov    %rbp,%rdi
    cf51:	e8 ba 52 ff ff       	call   2210 <_gfortran_st_write_done@plt>
    cf56:	48 8d 05 bb 18 00 00 	lea    0x18bb(%rip),%rax        # e818 <options.163.0+0x778>
    cf5d:	48 89 ef             	mov    %rbp,%rdi
    cf60:	48 89 5c 24 58       	mov    %rbx,0x58(%rsp)
    cf65:	48 89 84 24 a0 00 00 	mov    %rax,0xa0(%rsp)
    cf6c:	00 
    cf6d:	4c 89 64 24 50       	mov    %r12,0x50(%rsp)
    cf72:	c7 44 24 60 74 00 00 	movl   $0x74,0x60(%rsp)
    cf79:	00 
    cf7a:	48 c7 84 24 a8 00 00 	movq   $0x1a,0xa8(%rsp)
    cf81:	00 1a 00 00 00 
    cf86:	e8 f5 52 ff ff       	call   2280 <_gfortran_st_write@plt>
    cf8b:	48 8b 94 24 60 03 00 	mov    0x360(%rsp),%rdx
    cf92:	00 
    cf93:	48 8b b4 24 00 03 00 	mov    0x300(%rsp),%rsi
    cf9a:	00 
    cf9b:	48 89 ef             	mov    %rbp,%rdi
    cf9e:	e8 8d 51 ff ff       	call   2130 <_gfortran_transfer_character_write@plt>
    cfa3:	48 89 ef             	mov    %rbp,%rdi
    cfa6:	e8 65 52 ff ff       	call   2210 <_gfortran_st_write_done@plt>
    cfab:	48 8d 05 36 1b 00 00 	lea    0x1b36(%rip),%rax        # eae8 <options.163.0+0xa48>
    cfb2:	48 89 ef             	mov    %rbp,%rdi
    cfb5:	48 89 5c 24 58       	mov    %rbx,0x58(%rsp)
    cfba:	48 89 84 24 a0 00 00 	mov    %rax,0xa0(%rsp)
    cfc1:	00 
    cfc2:	4c 89 64 24 50       	mov    %r12,0x50(%rsp)
    cfc7:	c7 44 24 60 77 00 00 	movl   $0x77,0x60(%rsp)
    cfce:	00 
    cfcf:	48 c7 84 24 a8 00 00 	movq   $0x76,0xa8(%rsp)
    cfd6:	00 76 00 00 00 
    cfdb:	e8 a0 52 ff ff       	call   2280 <_gfortran_st_write@plt>
    cfe0:	48 89 ef             	mov    %rbp,%rdi
    cfe3:	e8 28 52 ff ff       	call   2210 <_gfortran_st_write_done@plt>
    cfe8:	48 81 c4 68 02 00 00 	add    $0x268,%rsp
    cfef:	5b                   	pop    %rbx
    cff0:	5d                   	pop    %rbp
    cff1:	41 5c                	pop    %r12
    cff3:	41 5d                	pop    %r13
    cff5:	41 5e                	pop    %r14
    cff7:	41 5f                	pop    %r15
    cff9:	c3                   	ret    
    cffa:	66 0f 1f 44 00 00    	nopw   0x0(%rax,%rax,1)
    d000:	48 8d 05 29 1a 00 00 	lea    0x1a29(%rip),%rax        # ea30 <options.163.0+0x990>
    d007:	48 89 ef             	mov    %rbp,%rdi
    d00a:	c7 44 24 60 56 00 00 	movl   $0x56,0x60(%rsp)
    d011:	00 
    d012:	48 89 84 24 a0 00 00 	mov    %rax,0xa0(%rsp)
    d019:	00 
    d01a:	48 c7 84 24 a8 00 00 	movq   $0x1f,0xa8(%rsp)
    d021:	00 1f 00 00 00 
    d026:	4c 89 64 24 50       	mov    %r12,0x50(%rsp)
    d02b:	e8 50 52 ff ff       	call   2280 <_gfortran_st_write@plt>
    d030:	48 89 ef             	mov    %rbp,%rdi
    d033:	ba 0c 00 00 00       	mov    $0xc,%edx
    d038:	48 8d 35 45 17 00 00 	lea    0x1745(%rip),%rsi        # e784 <options.163.0+0x6e4>
    d03f:	e8 ec 50 ff ff       	call   2130 <_gfortran_transfer_character_write@plt>
    d044:	48 89 ef             	mov    %rbp,%rdi
    d047:	e8 c4 51 ff ff       	call   2210 <_gfortran_st_write_done@plt>
    d04c:	e9 5d fc ff ff       	jmp    ccae <print_results_+0x4ae>
    d051:	0f 1f 80 00 00 00 00 	nopl   0x0(%rax)
    d058:	66 41 81 3f 45 50    	cmpw   $0x5045,(%r15)
    d05e:	48 89 5c 24 58       	mov    %rbx,0x58(%rsp)
    d063:	0f 85 f7 00 00 00    	jne    d160 <print_results_+0x960>
    d069:	48 8b 05 f0 1a 00 00 	mov    0x1af0(%rip),%rax        # eb60 <options.163.0+0xac0>
    d070:	48 8d 0d db 16 00 00 	lea    0x16db(%rip),%rcx        # e752 <options.163.0+0x6b2>
    d077:	48 89 ef             	mov    %rbp,%rdi
    d07a:	45 31 f6             	xor    %r14d,%r14d
    d07d:	4c 8d 7c 24 41       	lea    0x41(%rsp),%r15
    d082:	48 89 8c 24 a0 00 00 	mov    %rcx,0xa0(%rsp)
    d089:	00 
    d08a:	48 89 44 24 50       	mov    %rax,0x50(%rsp)
    d08f:	c7 44 24 60 2d 00 00 	movl   $0x2d,0x60(%rsp)
    d096:	00 
    d097:	4c 89 bc 24 c0 00 00 	mov    %r15,0xc0(%rsp)
    d09e:	00 
    d09f:	48 c7 84 24 c8 00 00 	movq   $0xf,0xc8(%rsp)
    d0a6:	00 0f 00 00 00 
    d0ab:	48 c7 84 24 98 00 00 	movq   $0x0,0x98(%rsp)
    d0b2:	00 00 00 00 00 
    d0b7:	48 c7 84 24 a8 00 00 	movq   $0x7,0xa8(%rsp)
    d0be:	00 07 00 00 00 
    d0c3:	e8 b8 51 ff ff       	call   2280 <_gfortran_st_write@plt>
    d0c8:	48 8b 44 24 20       	mov    0x20(%rsp),%rax
    d0cd:	f2 0f 10 05 93 1a 00 	movsd  0x1a93(%rip),%xmm0        # eb68 <options.163.0+0xac8>
    d0d4:	00 
    d0d5:	8b 38                	mov    (%rax),%edi
    d0d7:	e8 04 51 ff ff       	call   21e0 <__powidf2@plt>
    d0dc:	48 8d 74 24 38       	lea    0x38(%rsp),%rsi
    d0e1:	ba 08 00 00 00       	mov    $0x8,%edx
    d0e6:	48 89 ef             	mov    %rbp,%rdi
    d0e9:	f2 0f 11 44 24 38    	movsd  %xmm0,0x38(%rsp)
    d0ef:	e8 4c 4f ff ff       	call   2040 <_gfortran_transfer_real_write@plt>
    d0f4:	48 89 ef             	mov    %rbp,%rdi
    d0f7:	e8 14 51 ff ff       	call   2210 <_gfortran_st_write_done@plt>
    d0fc:	80 7c 24 4f 2e       	cmpb   $0x2e,0x4f(%rsp)
    d101:	48 89 ef             	mov    %rbp,%rdi
    d104:	48 8d 05 7d 17 00 00 	lea    0x177d(%rip),%rax        # e888 <options.163.0+0x7e8>
    d10b:	41 0f 95 c6          	setne  %r14b
    d10f:	48 89 84 24 a0 00 00 	mov    %rax,0xa0(%rsp)
    d116:	00 
    d117:	49 83 c6 0e          	add    $0xe,%r14
    d11b:	48 89 5c 24 58       	mov    %rbx,0x58(%rsp)
    d120:	c7 44 24 60 30 00 00 	movl   $0x30,0x60(%rsp)
    d127:	00 
    d128:	48 c7 84 24 a8 00 00 	movq   $0x1f,0xa8(%rsp)
    d12f:	00 1f 00 00 00 
    d134:	4c 89 64 24 50       	mov    %r12,0x50(%rsp)
    d139:	e8 42 51 ff ff       	call   2280 <_gfortran_st_write@plt>
    d13e:	48 89 ef             	mov    %rbp,%rdi
    d141:	4c 89 f2             	mov    %r14,%rdx
    d144:	4c 89 fe             	mov    %r15,%rsi
    d147:	e8 e4 4f ff ff       	call   2130 <_gfortran_transfer_character_write@plt>
    d14c:	48 89 ef             	mov    %rbp,%rdi
    d14f:	e8 bc 50 ff ff       	call   2210 <_gfortran_st_write_done@plt>
    d154:	e9 43 f8 ff ff       	jmp    c99c <print_results_+0x19c>
    d159:	0f 1f 80 00 00 00 00 	nopl   0x0(%rax)
    d160:	48 8d 05 41 17 00 00 	lea    0x1741(%rip),%rax        # e8a8 <options.163.0+0x808>
    d167:	48 89 ef             	mov    %rbp,%rdi
    d16a:	c7 44 24 60 33 00 00 	movl   $0x33,0x60(%rsp)
    d171:	00 
    d172:	48 89 84 24 a0 00 00 	mov    %rax,0xa0(%rsp)
    d179:	00 
    d17a:	48 c7 84 24 a8 00 00 	movq   $0x20,0xa8(%rsp)
    d181:	00 20 00 00 00 
    d186:	4c 89 64 24 50       	mov    %r12,0x50(%rsp)
    d18b:	e8 f0 50 ff ff       	call   2280 <_gfortran_st_write@plt>
    d190:	48 8b 74 24 20       	mov    0x20(%rsp),%rsi
    d195:	48 89 ef             	mov    %rbp,%rdi
    d198:	ba 04 00 00 00       	mov    $0x4,%edx
    d19d:	e8 4e 4f ff ff       	call   20f0 <_gfortran_transfer_integer_write@plt>
    d1a2:	48 89 ef             	mov    %rbp,%rdi
    d1a5:	e8 66 50 ff ff       	call   2210 <_gfortran_st_write_done@plt>
    d1aa:	e9 ed f7 ff ff       	jmp    c99c <print_results_+0x19c>
    d1af:	90                   	nop

000000000000d1b0 <randlc_>:
    d1b0:	f2 48 0f 2c 07       	cvttsd2si (%rdi),%rax
    d1b5:	66 0f ef c0          	pxor   %xmm0,%xmm0
    d1b9:	f2 48 0f 2c 16       	cvttsd2si (%rsi),%rdx
    d1be:	48 0f af c2          	imul   %rdx,%rax
    d1c2:	48 ba ff ff ff ff ff 	movabs $0x3fffffffffff,%rdx
    d1c9:	3f 00 00 
    d1cc:	48 21 d0             	and    %rdx,%rax
    d1cf:	f2 48 0f 2a c0       	cvtsi2sd %rax,%xmm0
    d1d4:	f2 0f 11 07          	movsd  %xmm0,(%rdi)
    d1d8:	f2 0f 59 05 90 19 00 	mulsd  0x1990(%rip),%xmm0        # eb70 <options.163.0+0xad0>
    d1df:	00 
    d1e0:	c3                   	ret    
    d1e1:	66 66 2e 0f 1f 84 00 	data16 cs nopw 0x0(%rax,%rax,1)
    d1e8:	00 00 00 00 
    d1ec:	0f 1f 40 00          	nopl   0x0(%rax)

000000000000d1f0 <vranlc_>:
    d1f0:	f2 48 0f 2c 06       	cvttsd2si (%rsi),%rax
    d1f5:	49 89 f0             	mov    %rsi,%r8
    d1f8:	8b 37                	mov    (%rdi),%esi
    d1fa:	f2 48 0f 2c 12       	cvttsd2si (%rdx),%rdx
    d1ff:	85 f6                	test   %esi,%esi
    d201:	7e 4d                	jle    d250 <vranlc_+0x60>
    d203:	83 ee 01             	sub    $0x1,%esi
    d206:	f2 0f 10 15 62 19 00 	movsd  0x1962(%rip),%xmm2        # eb70 <options.163.0+0xad0>
    d20d:	00 
    d20e:	48 8d 7c f1 08       	lea    0x8(%rcx,%rsi,8),%rdi
    d213:	48 be ff ff ff ff ff 	movabs $0x3fffffffffff,%rsi
    d21a:	3f 00 00 
    d21d:	0f 1f 00             	nopl   (%rax)
    d220:	48 0f af c2          	imul   %rdx,%rax
    d224:	66 0f ef c0          	pxor   %xmm0,%xmm0
    d228:	48 83 c1 08          	add    $0x8,%rcx
    d22c:	48 21 f0             	and    %rsi,%rax
    d22f:	f2 48 0f 2a c0       	cvtsi2sd %rax,%xmm0
    d234:	66 0f 28 c8          	movapd %xmm0,%xmm1
    d238:	f2 0f 59 ca          	mulsd  %xmm2,%xmm1
    d23c:	f2 0f 11 49 f8       	movsd  %xmm1,-0x8(%rcx)
    d241:	48 39 cf             	cmp    %rcx,%rdi
    d244:	75 da                	jne    d220 <vranlc_+0x30>
    d246:	f2 41 0f 11 00       	movsd  %xmm0,(%r8)
    d24b:	c3                   	ret    
    d24c:	0f 1f 40 00          	nopl   0x0(%rax)
    d250:	66 0f ef c0          	pxor   %xmm0,%xmm0
    d254:	f2 48 0f 2a c0       	cvtsi2sd %rax,%xmm0
    d259:	f2 41 0f 11 00       	movsd  %xmm0,(%r8)
    d25e:	c3                   	ret    
    d25f:	90                   	nop

000000000000d260 <timer_clear_>:
    d260:	48 63 07             	movslq (%rdi),%rax
    d263:	64 48 c7 04 c5 f8 fd 	movq   $0x0,%fs:-0x208(,%rax,8)
    d26a:	ff ff 00 00 00 00 
    d270:	c3                   	ret    
    d271:	66 66 2e 0f 1f 84 00 	data16 cs nopw 0x0(%rax,%rax,1)
    d278:	00 00 00 00 
    d27c:	0f 1f 40 00          	nopl   0x0(%rax)

000000000000d280 <timer_start_>:
    d280:	53                   	push   %rbx
    d281:	48 63 1f             	movslq (%rdi),%rbx
    d284:	31 c0                	xor    %eax,%eax
    d286:	48 83 eb 01          	sub    $0x1,%rbx
    d28a:	e8 51 00 00 00       	call   d2e0 <elapsed_time_>
    d28f:	64 f2 0f 11 04 dd 00 	movsd  %xmm0,%fs:-0x400(,%rbx,8)
    d296:	fc ff ff 
    d299:	5b                   	pop    %rbx
    d29a:	c3                   	ret    
    d29b:	0f 1f 44 00 00       	nopl   0x0(%rax,%rax,1)

000000000000d2a0 <timer_stop_>:
    d2a0:	53                   	push   %rbx
    d2a1:	31 c0                	xor    %eax,%eax
    d2a3:	48 89 fb             	mov    %rdi,%rbx
    d2a6:	e8 35 00 00 00       	call   d2e0 <elapsed_time_>
    d2ab:	48 63 03             	movslq (%rbx),%rax
    d2ae:	64 f2 0f 5c 04 c5 f8 	subsd  %fs:-0x408(,%rax,8),%xmm0
    d2b5:	fb ff ff 
    d2b8:	64 f2 0f 58 04 c5 f8 	addsd  %fs:-0x208(,%rax,8),%xmm0
    d2bf:	fd ff ff 
    d2c2:	64 f2 0f 11 04 c5 f8 	movsd  %xmm0,%fs:-0x208(,%rax,8)
    d2c9:	fd ff ff 
    d2cc:	5b                   	pop    %rbx
    d2cd:	c3                   	ret    
    d2ce:	66 90                	xchg   %ax,%ax

000000000000d2d0 <timer_read_>:
    d2d0:	48 63 07             	movslq (%rdi),%rax
    d2d3:	64 f2 0f 10 04 c5 f8 	movsd  %fs:-0x208(,%rax,8),%xmm0
    d2da:	fd ff ff 
    d2dd:	c3                   	ret    
    d2de:	66 90                	xchg   %ax,%ax

000000000000d2e0 <elapsed_time_>:
    d2e0:	31 c0                	xor    %eax,%eax
    d2e2:	e9 09 4f ff ff       	jmp    21f0 <omp_get_wtime_@plt>
    d2e7:	66 0f 1f 84 00 00 00 	nopw   0x0(%rax,%rax,1)
    d2ee:	00 00 

000000000000d2f0 <check_timer_flag_>:
    d2f0:	41 55                	push   %r13
    d2f2:	41 b9 0e 00 00 00    	mov    $0xe,%r9d
    d2f8:	45 31 c0             	xor    %r8d,%r8d
    d2fb:	31 c0                	xor    %eax,%eax
    d2fd:	41 54                	push   %r12
    d2ff:	55                   	push   %rbp
    d300:	53                   	push   %rbx
    d301:	48 89 fb             	mov    %rdi,%rbx
    d304:	48 81 ec 98 01 00 00 	sub    $0x198,%rsp
    d30b:	c7 07 00 00 00 00    	movl   $0x0,(%rdi)
    d311:	48 8d 3d 6b 18 00 00 	lea    0x186b(%rip),%rdi        # eb83 <options.163.0+0xae3>
    d318:	4c 8d 64 24 08       	lea    0x8(%rsp),%r12
    d31d:	48 8d 54 24 0c       	lea    0xc(%rsp),%rdx
    d322:	48 8d 6c 24 10       	lea    0x10(%rsp),%rbp
    d327:	48 83 ec 08          	sub    $0x8,%rsp
    d32b:	4c 89 e1             	mov    %r12,%rcx
    d32e:	6a 14                	push   $0x14
    d330:	48 89 ee             	mov    %rbp,%rsi
    d333:	e8 28 4e ff ff       	call   2160 <_gfortran_get_environment_variable_i4@plt>
    d338:	59                   	pop    %rcx
    d339:	5e                   	pop    %rsi
    d33a:	8b 7c 24 08          	mov    0x8(%rsp),%edi
    d33e:	85 ff                	test   %edi,%edi
    d340:	75 2e                	jne    d370 <check_timer_flag_+0x80>
    d342:	8b 54 24 0c          	mov    0xc(%rsp),%edx
    d346:	85 d2                	test   %edx,%edx
    d348:	7e 10                	jle    d35a <check_timer_flag_+0x6a>
    d34a:	0f b6 44 24 10       	movzbl 0x10(%rsp),%eax
    d34f:	83 e8 31             	sub    $0x31,%eax
    d352:	3c 08                	cmp    $0x8,%al
    d354:	0f 87 c6 00 00 00    	ja     d420 <check_timer_flag_+0x130>
    d35a:	c7 03 01 00 00 00    	movl   $0x1,(%rbx)
    d360:	48 81 c4 98 01 00 00 	add    $0x198,%rsp
    d367:	5b                   	pop    %rbx
    d368:	5d                   	pop    %rbp
    d369:	41 5c                	pop    %r12
    d36b:	41 5d                	pop    %r13
    d36d:	c3                   	ret    
    d36e:	66 90                	xchg   %ax,%ax
    d370:	48 8d 05 c2 0d 00 00 	lea    0xdc2(%rip),%rax        # e139 <options.163.0+0x99>
    d377:	48 8d 35 fa 17 00 00 	lea    0x17fa(%rip),%rsi        # eb78 <options.163.0+0xad8>
    d37e:	c7 44 24 40 a2 00 00 	movl   $0xa2,0x40(%rsp)
    d385:	00 
    d386:	66 48 0f 6e c8       	movq   %rax,%xmm1
    d38b:	66 48 0f 6e c6       	movq   %rsi,%xmm0
    d390:	48 8b 05 21 18 00 00 	mov    0x1821(%rip),%rax        # ebb8 <options.163.0+0xb18>
    d397:	48 8d 6c 24 30       	lea    0x30(%rsp),%rbp
    d39c:	66 0f 6c c1          	punpcklqdq %xmm1,%xmm0
    d3a0:	48 89 ef             	mov    %rbp,%rdi
    d3a3:	4c 8d 2d 00 18 00 00 	lea    0x1800(%rip),%r13        # ebaa <options.163.0+0xb0a>
    d3aa:	c7 44 24 08 00 00 00 	movl   $0x0,0x8(%rsp)
    d3b1:	00 
    d3b2:	48 89 44 24 30       	mov    %rax,0x30(%rsp)
    d3b7:	4c 89 6c 24 38       	mov    %r13,0x38(%rsp)
    d3bc:	4c 89 64 24 58       	mov    %r12,0x58(%rsp)
    d3c1:	48 c7 44 24 68 0a 00 	movq   $0xa,0x68(%rsp)
    d3c8:	00 00 
    d3ca:	48 c7 84 24 80 00 00 	movq   $0x3,0x80(%rsp)
    d3d1:	00 03 00 00 00 
    d3d6:	c7 84 24 60 01 00 00 	movl   $0x0,0x160(%rsp)
    d3dd:	00 00 00 00 
    d3e1:	0f 29 44 24 70       	movaps %xmm0,0x70(%rsp)
    d3e6:	e8 35 4d ff ff       	call   2120 <_gfortran_st_open@plt>
    d3eb:	8b 44 24 08          	mov    0x8(%rsp),%eax
    d3ef:	85 c0                	test   %eax,%eax
    d3f1:	0f 85 69 ff ff ff    	jne    d360 <check_timer_flag_+0x70>
    d3f7:	48 8b 05 c2 17 00 00 	mov    0x17c2(%rip),%rax        # ebc0 <options.163.0+0xb20>
    d3fe:	48 89 ef             	mov    %rbp,%rdi
    d401:	4c 89 6c 24 38       	mov    %r13,0x38(%rsp)
    d406:	c7 44 24 40 a4 00 00 	movl   $0xa4,0x40(%rsp)
    d40d:	00 
    d40e:	48 89 44 24 30       	mov    %rax,0x30(%rsp)
    d413:	e8 98 4c ff ff       	call   20b0 <_gfortran_st_close@plt>
    d418:	e9 3d ff ff ff       	jmp    d35a <check_timer_flag_+0x6a>
    d41d:	0f 1f 00             	nopl   (%rax)
    d420:	48 8d 0d 6b 17 00 00 	lea    0x176b(%rip),%rcx        # eb92 <options.163.0+0xaf2>
    d427:	ba 02 00 00 00       	mov    $0x2,%edx
    d42c:	48 89 ee             	mov    %rbp,%rsi
    d42f:	bf 14 00 00 00       	mov    $0x14,%edi
    d434:	e8 77 4d ff ff       	call   21b0 <_gfortran_compare_string@plt>
    d439:	85 c0                	test   %eax,%eax
    d43b:	0f 84 19 ff ff ff    	je     d35a <check_timer_flag_+0x6a>
    d441:	48 8d 0d 4d 17 00 00 	lea    0x174d(%rip),%rcx        # eb95 <options.163.0+0xaf5>
    d448:	ba 02 00 00 00       	mov    $0x2,%edx
    d44d:	48 89 ee             	mov    %rbp,%rsi
    d450:	bf 14 00 00 00       	mov    $0x14,%edi
    d455:	e8 56 4d ff ff       	call   21b0 <_gfortran_compare_string@plt>
    d45a:	85 c0                	test   %eax,%eax
    d45c:	0f 84 f8 fe ff ff    	je     d35a <check_timer_flag_+0x6a>
    d462:	48 8d 0d 2f 17 00 00 	lea    0x172f(%rip),%rcx        # eb98 <options.163.0+0xaf8>
    d469:	ba 03 00 00 00       	mov    $0x3,%edx
    d46e:	48 89 ee             	mov    %rbp,%rsi
    d471:	bf 14 00 00 00       	mov    $0x14,%edi
    d476:	e8 35 4d ff ff       	call   21b0 <_gfortran_compare_string@plt>
    d47b:	85 c0                	test   %eax,%eax
    d47d:	0f 84 d7 fe ff ff    	je     d35a <check_timer_flag_+0x6a>
    d483:	48 8d 0d 12 17 00 00 	lea    0x1712(%rip),%rcx        # eb9c <options.163.0+0xafc>
    d48a:	ba 03 00 00 00       	mov    $0x3,%edx
    d48f:	48 89 ee             	mov    %rbp,%rsi
    d492:	bf 14 00 00 00       	mov    $0x14,%edi
    d497:	e8 14 4d ff ff       	call   21b0 <_gfortran_compare_string@plt>
    d49c:	85 c0                	test   %eax,%eax
    d49e:	0f 84 b6 fe ff ff    	je     d35a <check_timer_flag_+0x6a>
    d4a4:	48 8d 0d f5 16 00 00 	lea    0x16f5(%rip),%rcx        # eba0 <options.163.0+0xb00>
    d4ab:	ba 04 00 00 00       	mov    $0x4,%edx
    d4b0:	48 89 ee             	mov    %rbp,%rsi
    d4b3:	bf 14 00 00 00       	mov    $0x14,%edi
    d4b8:	e8 f3 4c ff ff       	call   21b0 <_gfortran_compare_string@plt>
    d4bd:	85 c0                	test   %eax,%eax
    d4bf:	0f 84 95 fe ff ff    	je     d35a <check_timer_flag_+0x6a>
    d4c5:	48 8d 0d d9 16 00 00 	lea    0x16d9(%rip),%rcx        # eba5 <options.163.0+0xb05>
    d4cc:	ba 04 00 00 00       	mov    $0x4,%edx
    d4d1:	48 89 ee             	mov    %rbp,%rsi
    d4d4:	bf 14 00 00 00       	mov    $0x14,%edi
    d4d9:	e8 d2 4c ff ff       	call   21b0 <_gfortran_compare_string@plt>
    d4de:	85 c0                	test   %eax,%eax
    d4e0:	0f 84 74 fe ff ff    	je     d35a <check_timer_flag_+0x6a>
    d4e6:	e9 75 fe ff ff       	jmp    d360 <check_timer_flag_+0x70>
    d4eb:	0f 1f 44 00 00       	nopl   0x0(%rax,%rax,1)

000000000000d4f0 <wtime_>:
    d4f0:	f3 0f 1e fa          	endbr64 
    d4f4:	53                   	push   %rbx
    d4f5:	31 f6                	xor    %esi,%esi
    d4f7:	48 89 fb             	mov    %rdi,%rbx
    d4fa:	48 83 ec 20          	sub    $0x20,%rsp
    d4fe:	64 48 8b 04 25 28 00 	mov    %fs:0x28,%rax
    d505:	00 00 
    d507:	48 89 44 24 18       	mov    %rax,0x18(%rsp)
    d50c:	31 c0                	xor    %eax,%eax
    d50e:	48 89 e7             	mov    %rsp,%rdi
    d511:	e8 7a 4b ff ff       	call   2090 <gettimeofday@plt>
    d516:	48 63 05 f3 3a 00 00 	movslq 0x3af3(%rip),%rax        # 11010 <sec.0>
    d51d:	48 8b 14 24          	mov    (%rsp),%rdx
    d521:	85 c0                	test   %eax,%eax
    d523:	79 09                	jns    d52e <wtime_+0x3e>
    d525:	89 15 e5 3a 00 00    	mov    %edx,0x3ae5(%rip)        # 11010 <sec.0>
    d52b:	48 63 c2             	movslq %edx,%rax
    d52e:	66 0f ef c0          	pxor   %xmm0,%xmm0
    d532:	48 29 c2             	sub    %rax,%rdx
    d535:	66 0f ef c9          	pxor   %xmm1,%xmm1
    d539:	f2 48 0f 2a 44 24 08 	cvtsi2sdq 0x8(%rsp),%xmm0
    d540:	f2 0f 59 05 70 10 00 	mulsd  0x1070(%rip),%xmm0        # e5b8 <options.163.0+0x518>
    d547:	00 
    d548:	f2 48 0f 2a ca       	cvtsi2sd %rdx,%xmm1
    d54d:	f2 0f 58 c1          	addsd  %xmm1,%xmm0
    d551:	f2 0f 11 03          	movsd  %xmm0,(%rbx)
    d555:	48 8b 44 24 18       	mov    0x18(%rsp),%rax
    d55a:	64 48 2b 04 25 28 00 	sub    %fs:0x28,%rax
    d561:	00 00 
    d563:	75 06                	jne    d56b <wtime_+0x7b>
    d565:	48 83 c4 20          	add    $0x20,%rsp
    d569:	5b                   	pop    %rbx
    d56a:	c3                   	ret    
    d56b:	e8 c0 4c ff ff       	call   2230 <__stack_chk_fail@plt>

Disassembly of section .fini:

000000000000d570 <_fini>:
    d570:	f3 0f 1e fa          	endbr64 
    d574:	48 83 ec 08          	sub    $0x8,%rsp
    d578:	48 83 c4 08          	add    $0x8,%rsp
    d57c:	c3                   	ret    
