
cg.A.x:     file format elf64-x86-64


Disassembly of section .init:

0000000000001000 <_init>:
    1000:	f3 0f 1e fa          	endbr64 
    1004:	48 83 ec 08          	sub    $0x8,%rsp
    1008:	48 8b 05 c1 7f 00 00 	mov    0x7fc1(%rip),%rax        # 8fd0 <__gmon_start__@Base>
    100f:	48 85 c0             	test   %rax,%rax
    1012:	74 02                	je     1016 <_init+0x16>
    1014:	ff d0                	call   *%rax
    1016:	48 83 c4 08          	add    $0x8,%rsp
    101a:	c3                   	ret    

Disassembly of section .plt:

0000000000001020 <_gfortran_transfer_real_write@plt-0x10>:
    1020:	ff 35 a2 7e 00 00    	push   0x7ea2(%rip)        # 8ec8 <_GLOBAL_OFFSET_TABLE_+0x8>
    1026:	ff 25 a4 7e 00 00    	jmp    *0x7ea4(%rip)        # 8ed0 <_GLOBAL_OFFSET_TABLE_+0x10>
    102c:	0f 1f 40 00          	nopl   0x0(%rax)

0000000000001030 <_gfortran_transfer_real_write@plt>:
    1030:	ff 25 a2 7e 00 00    	jmp    *0x7ea2(%rip)        # 8ed8 <_gfortran_transfer_real_write@GFORTRAN_8>
    1036:	68 00 00 00 00       	push   $0x0
    103b:	e9 e0 ff ff ff       	jmp    1020 <_init+0x20>

0000000000001040 <_gfortran_stop_string@plt>:
    1040:	ff 25 9a 7e 00 00    	jmp    *0x7e9a(%rip)        # 8ee0 <_gfortran_stop_string@GFORTRAN_8>
    1046:	68 01 00 00 00       	push   $0x1
    104b:	e9 d0 ff ff ff       	jmp    1020 <_init+0x20>

0000000000001050 <memset@plt>:
    1050:	ff 25 92 7e 00 00    	jmp    *0x7e92(%rip)        # 8ee8 <memset@GLIBC_2.2.5>
    1056:	68 02 00 00 00       	push   $0x2
    105b:	e9 c0 ff ff ff       	jmp    1020 <_init+0x20>

0000000000001060 <omp_get_num_threads@plt>:
    1060:	ff 25 8a 7e 00 00    	jmp    *0x7e8a(%rip)        # 8ef0 <omp_get_num_threads@OMP_1.0>
    1066:	68 03 00 00 00       	push   $0x3
    106b:	e9 b0 ff ff ff       	jmp    1020 <_init+0x20>

0000000000001070 <gettimeofday@plt>:
    1070:	ff 25 82 7e 00 00    	jmp    *0x7e82(%rip)        # 8ef8 <gettimeofday@GLIBC_2.2.5>
    1076:	68 04 00 00 00       	push   $0x4
    107b:	e9 a0 ff ff ff       	jmp    1020 <_init+0x20>

0000000000001080 <_gfortran_ieee_procedure_entry@plt>:
    1080:	ff 25 7a 7e 00 00    	jmp    *0x7e7a(%rip)        # 8f00 <_gfortran_ieee_procedure_entry@GFORTRAN_8>
    1086:	68 05 00 00 00       	push   $0x5
    108b:	e9 90 ff ff ff       	jmp    1020 <_init+0x20>

0000000000001090 <_gfortran_st_close@plt>:
    1090:	ff 25 72 7e 00 00    	jmp    *0x7e72(%rip)        # 8f08 <_gfortran_st_close@GFORTRAN_8>
    1096:	68 06 00 00 00       	push   $0x6
    109b:	e9 80 ff ff ff       	jmp    1020 <_init+0x20>

00000000000010a0 <malloc@plt>:
    10a0:	ff 25 6a 7e 00 00    	jmp    *0x7e6a(%rip)        # 8f10 <malloc@GLIBC_2.2.5>
    10a6:	68 07 00 00 00       	push   $0x7
    10ab:	e9 70 ff ff ff       	jmp    1020 <_init+0x20>

00000000000010b0 <_gfortran_ieee_procedure_exit@plt>:
    10b0:	ff 25 62 7e 00 00    	jmp    *0x7e62(%rip)        # 8f18 <_gfortran_ieee_procedure_exit@GFORTRAN_8>
    10b6:	68 08 00 00 00       	push   $0x8
    10bb:	e9 60 ff ff ff       	jmp    1020 <_init+0x20>

00000000000010c0 <_gfortran_transfer_integer_write@plt>:
    10c0:	ff 25 5a 7e 00 00    	jmp    *0x7e5a(%rip)        # 8f20 <_gfortran_transfer_integer_write@GFORTRAN_8>
    10c6:	68 09 00 00 00       	push   $0x9
    10cb:	e9 50 ff ff ff       	jmp    1020 <_init+0x20>

00000000000010d0 <omp_get_thread_num@plt>:
    10d0:	ff 25 52 7e 00 00    	jmp    *0x7e52(%rip)        # 8f28 <omp_get_thread_num@OMP_1.0>
    10d6:	68 0a 00 00 00       	push   $0xa
    10db:	e9 40 ff ff ff       	jmp    1020 <_init+0x20>

00000000000010e0 <_gfortran_st_open@plt>:
    10e0:	ff 25 4a 7e 00 00    	jmp    *0x7e4a(%rip)        # 8f30 <_gfortran_st_open@GFORTRAN_8>
    10e6:	68 0b 00 00 00       	push   $0xb
    10eb:	e9 30 ff ff ff       	jmp    1020 <_init+0x20>

00000000000010f0 <_gfortran_transfer_character_write@plt>:
    10f0:	ff 25 42 7e 00 00    	jmp    *0x7e42(%rip)        # 8f38 <_gfortran_transfer_character_write@GFORTRAN_8>
    10f6:	68 0c 00 00 00       	push   $0xc
    10fb:	e9 20 ff ff ff       	jmp    1020 <_init+0x20>

0000000000001100 <GOMP_atomic_end@plt>:
    1100:	ff 25 3a 7e 00 00    	jmp    *0x7e3a(%rip)        # 8f40 <GOMP_atomic_end@GOMP_1.0>
    1106:	68 0d 00 00 00       	push   $0xd
    110b:	e9 10 ff ff ff       	jmp    1020 <_init+0x20>

0000000000001110 <_gfortran_get_environment_variable_i4@plt>:
    1110:	ff 25 32 7e 00 00    	jmp    *0x7e32(%rip)        # 8f48 <_gfortran_get_environment_variable_i4@GFORTRAN_8>
    1116:	68 0e 00 00 00       	push   $0xe
    111b:	e9 00 ff ff ff       	jmp    1020 <_init+0x20>

0000000000001120 <omp_get_num_threads_@plt>:
    1120:	ff 25 2a 7e 00 00    	jmp    *0x7e2a(%rip)        # 8f50 <omp_get_num_threads_@OMP_1.0>
    1126:	68 0f 00 00 00       	push   $0xf
    112b:	e9 f0 fe ff ff       	jmp    1020 <_init+0x20>

0000000000001130 <GOMP_barrier@plt>:
    1130:	ff 25 22 7e 00 00    	jmp    *0x7e22(%rip)        # 8f58 <GOMP_barrier@GOMP_1.0>
    1136:	68 10 00 00 00       	push   $0x10
    113b:	e9 e0 fe ff ff       	jmp    1020 <_init+0x20>

0000000000001140 <_gfortran_compare_string@plt>:
    1140:	ff 25 1a 7e 00 00    	jmp    *0x7e1a(%rip)        # 8f60 <_gfortran_compare_string@GFORTRAN_8>
    1146:	68 11 00 00 00       	push   $0x11
    114b:	e9 d0 fe ff ff       	jmp    1020 <_init+0x20>

0000000000001150 <GOMP_atomic_start@plt>:
    1150:	ff 25 12 7e 00 00    	jmp    *0x7e12(%rip)        # 8f68 <GOMP_atomic_start@GOMP_1.0>
    1156:	68 12 00 00 00       	push   $0x12
    115b:	e9 c0 fe ff ff       	jmp    1020 <_init+0x20>

0000000000001160 <__powidf2@plt>:
    1160:	ff 25 0a 7e 00 00    	jmp    *0x7e0a(%rip)        # 8f70 <__powidf2@GCC_4.0.0>
    1166:	68 13 00 00 00       	push   $0x13
    116b:	e9 b0 fe ff ff       	jmp    1020 <_init+0x20>

0000000000001170 <omp_get_wtime_@plt>:
    1170:	ff 25 02 7e 00 00    	jmp    *0x7e02(%rip)        # 8f78 <omp_get_wtime_@OMP_2.0>
    1176:	68 14 00 00 00       	push   $0x14
    117b:	e9 a0 fe ff ff       	jmp    1020 <_init+0x20>

0000000000001180 <GOMP_parallel@plt>:
    1180:	ff 25 fa 7d 00 00    	jmp    *0x7dfa(%rip)        # 8f80 <GOMP_parallel@GOMP_4.0>
    1186:	68 15 00 00 00       	push   $0x15
    118b:	e9 90 fe ff ff       	jmp    1020 <_init+0x20>

0000000000001190 <_gfortran_st_write_done@plt>:
    1190:	ff 25 f2 7d 00 00    	jmp    *0x7df2(%rip)        # 8f88 <_gfortran_st_write_done@GFORTRAN_8>
    1196:	68 16 00 00 00       	push   $0x16
    119b:	e9 80 fe ff ff       	jmp    1020 <_init+0x20>

00000000000011a0 <__stack_chk_fail@plt>:
    11a0:	ff 25 ea 7d 00 00    	jmp    *0x7dea(%rip)        # 8f90 <__stack_chk_fail@GLIBC_2.4>
    11a6:	68 17 00 00 00       	push   $0x17
    11ab:	e9 70 fe ff ff       	jmp    1020 <_init+0x20>

00000000000011b0 <omp_get_max_threads_@plt>:
    11b0:	ff 25 e2 7d 00 00    	jmp    *0x7de2(%rip)        # 8f98 <omp_get_max_threads_@OMP_1.0>
    11b6:	68 18 00 00 00       	push   $0x18
    11bb:	e9 60 fe ff ff       	jmp    1020 <_init+0x20>

00000000000011c0 <omp_get_thread_num_@plt>:
    11c0:	ff 25 da 7d 00 00    	jmp    *0x7dda(%rip)        # 8fa0 <omp_get_thread_num_@OMP_1.0>
    11c6:	68 19 00 00 00       	push   $0x19
    11cb:	e9 50 fe ff ff       	jmp    1020 <_init+0x20>

00000000000011d0 <_gfortran_set_options@plt>:
    11d0:	ff 25 d2 7d 00 00    	jmp    *0x7dd2(%rip)        # 8fa8 <_gfortran_set_options@GFORTRAN_8>
    11d6:	68 1a 00 00 00       	push   $0x1a
    11db:	e9 40 fe ff ff       	jmp    1020 <_init+0x20>

00000000000011e0 <_gfortran_set_args@plt>:
    11e0:	ff 25 ca 7d 00 00    	jmp    *0x7dca(%rip)        # 8fb0 <_gfortran_set_args@GFORTRAN_8>
    11e6:	68 1b 00 00 00       	push   $0x1b
    11eb:	e9 30 fe ff ff       	jmp    1020 <_init+0x20>

00000000000011f0 <_gfortran_st_write@plt>:
    11f0:	ff 25 c2 7d 00 00    	jmp    *0x7dc2(%rip)        # 8fb8 <_gfortran_st_write@GFORTRAN_8>
    11f6:	68 1c 00 00 00       	push   $0x1c
    11fb:	e9 20 fe ff ff       	jmp    1020 <_init+0x20>

0000000000001200 <pow@plt>:
    1200:	ff 25 ba 7d 00 00    	jmp    *0x7dba(%rip)        # 8fc0 <pow@GLIBC_2.29>
    1206:	68 1d 00 00 00       	push   $0x1d
    120b:	e9 10 fe ff ff       	jmp    1020 <_init+0x20>

0000000000001210 <memcpy@plt>:
    1210:	ff 25 b2 7d 00 00    	jmp    *0x7db2(%rip)        # 8fc8 <memcpy@GLIBC_2.14>
    1216:	68 1e 00 00 00       	push   $0x1e
    121b:	e9 00 fe ff ff       	jmp    1020 <_init+0x20>

Disassembly of section .plt.got:

0000000000001220 <__cxa_finalize@plt>:
    1220:	ff 25 c2 7d 00 00    	jmp    *0x7dc2(%rip)        # 8fe8 <__cxa_finalize@GLIBC_2.2.5>
    1226:	66 90                	xchg   %ax,%ax

Disassembly of section .text:

0000000000001230 <main>:
    1230:	48 83 ec 08          	sub    $0x8,%rsp
    1234:	e8 a7 ff ff ff       	call   11e0 <_gfortran_set_args@plt>
    1239:	48 8d 35 a0 51 00 00 	lea    0x51a0(%rip),%rsi        # 63e0 <options.51.0>
    1240:	bf 07 00 00 00       	mov    $0x7,%edi
    1245:	e8 86 ff ff ff       	call   11d0 <_gfortran_set_options@plt>
    124a:	e8 51 11 00 00       	call   23a0 <MAIN__>
    124f:	31 c0                	xor    %eax,%eax
    1251:	48 83 c4 08          	add    $0x8,%rsp
    1255:	c3                   	ret    
    1256:	66 2e 0f 1f 84 00 00 	cs nopw 0x0(%rax,%rax,1)
    125d:	00 00 00 

0000000000001260 <_start>:
    1260:	f3 0f 1e fa          	endbr64 
    1264:	31 ed                	xor    %ebp,%ebp
    1266:	49 89 d1             	mov    %rdx,%r9
    1269:	5e                   	pop    %rsi
    126a:	48 89 e2             	mov    %rsp,%rdx
    126d:	48 83 e4 f0          	and    $0xfffffffffffffff0,%rsp
    1271:	50                   	push   %rax
    1272:	54                   	push   %rsp
    1273:	45 31 c0             	xor    %r8d,%r8d
    1276:	31 c9                	xor    %ecx,%ecx
    1278:	48 8d 3d b1 ff ff ff 	lea    -0x4f(%rip),%rdi        # 1230 <main>
    127f:	ff 15 6b 7d 00 00    	call   *0x7d6b(%rip)        # 8ff0 <__libc_start_main@GLIBC_2.34>
    1285:	f4                   	hlt    
    1286:	66 2e 0f 1f 84 00 00 	cs nopw 0x0(%rax,%rax,1)
    128d:	00 00 00 

0000000000001290 <deregister_tm_clones>:
    1290:	48 8d 3d 81 7d 00 00 	lea    0x7d81(%rip),%rdi        # 9018 <__TMC_END__>
    1297:	48 8d 05 7a 7d 00 00 	lea    0x7d7a(%rip),%rax        # 9018 <__TMC_END__>
    129e:	48 39 f8             	cmp    %rdi,%rax
    12a1:	74 15                	je     12b8 <deregister_tm_clones+0x28>
    12a3:	48 8b 05 2e 7d 00 00 	mov    0x7d2e(%rip),%rax        # 8fd8 <_ITM_deregisterTMCloneTable@Base>
    12aa:	48 85 c0             	test   %rax,%rax
    12ad:	74 09                	je     12b8 <deregister_tm_clones+0x28>
    12af:	ff e0                	jmp    *%rax
    12b1:	0f 1f 80 00 00 00 00 	nopl   0x0(%rax)
    12b8:	c3                   	ret    
    12b9:	0f 1f 80 00 00 00 00 	nopl   0x0(%rax)

00000000000012c0 <register_tm_clones>:
    12c0:	48 8d 3d 51 7d 00 00 	lea    0x7d51(%rip),%rdi        # 9018 <__TMC_END__>
    12c7:	48 8d 35 4a 7d 00 00 	lea    0x7d4a(%rip),%rsi        # 9018 <__TMC_END__>
    12ce:	48 29 fe             	sub    %rdi,%rsi
    12d1:	48 89 f0             	mov    %rsi,%rax
    12d4:	48 c1 ee 3f          	shr    $0x3f,%rsi
    12d8:	48 c1 f8 03          	sar    $0x3,%rax
    12dc:	48 01 c6             	add    %rax,%rsi
    12df:	48 d1 fe             	sar    %rsi
    12e2:	74 14                	je     12f8 <register_tm_clones+0x38>
    12e4:	48 8b 05 f5 7c 00 00 	mov    0x7cf5(%rip),%rax        # 8fe0 <_ITM_registerTMCloneTable@Base>
    12eb:	48 85 c0             	test   %rax,%rax
    12ee:	74 08                	je     12f8 <register_tm_clones+0x38>
    12f0:	ff e0                	jmp    *%rax
    12f2:	66 0f 1f 44 00 00    	nopw   0x0(%rax,%rax,1)
    12f8:	c3                   	ret    
    12f9:	0f 1f 80 00 00 00 00 	nopl   0x0(%rax)

0000000000001300 <__do_global_dtors_aux>:
    1300:	f3 0f 1e fa          	endbr64 
    1304:	80 3d 15 7d 00 00 00 	cmpb   $0x0,0x7d15(%rip)        # 9020 <completed.0>
    130b:	75 2b                	jne    1338 <__do_global_dtors_aux+0x38>
    130d:	55                   	push   %rbp
    130e:	48 83 3d d2 7c 00 00 	cmpq   $0x0,0x7cd2(%rip)        # 8fe8 <__cxa_finalize@GLIBC_2.2.5>
    1315:	00 
    1316:	48 89 e5             	mov    %rsp,%rbp
    1319:	74 0c                	je     1327 <__do_global_dtors_aux+0x27>
    131b:	48 8b 3d e6 7c 00 00 	mov    0x7ce6(%rip),%rdi        # 9008 <__dso_handle>
    1322:	e8 f9 fe ff ff       	call   1220 <__cxa_finalize@plt>
    1327:	e8 64 ff ff ff       	call   1290 <deregister_tm_clones>
    132c:	c6 05 ed 7c 00 00 01 	movb   $0x1,0x7ced(%rip)        # 9020 <completed.0>
    1333:	5d                   	pop    %rbp
    1334:	c3                   	ret    
    1335:	0f 1f 00             	nopl   (%rax)
    1338:	c3                   	ret    
    1339:	0f 1f 80 00 00 00 00 	nopl   0x0(%rax)

0000000000001340 <frame_dummy>:
    1340:	f3 0f 1e fa          	endbr64 
    1344:	e9 77 ff ff ff       	jmp    12c0 <register_tm_clones>
    1349:	0f 1f 80 00 00 00 00 	nopl   0x0(%rax)

0000000000001350 <conj_grad_._omp_fn.0>:
    1350:	41 57                	push   %r15
    1352:	49 89 ff             	mov    %rdi,%r15
    1355:	41 56                	push   %r14
    1357:	41 55                	push   %r13
    1359:	41 54                	push   %r12
    135b:	55                   	push   %rbp
    135c:	53                   	push   %rbx
    135d:	48 83 ec 48          	sub    $0x48,%rsp
    1361:	e8 fa fc ff ff       	call   1060 <omp_get_num_threads@plt>
    1366:	41 89 c4             	mov    %eax,%r12d
    1369:	e8 62 fd ff ff       	call   10d0 <omp_get_thread_num@plt>
    136e:	41 89 c5             	mov    %eax,%r13d
    1371:	8b 05 cd 8e 00 00    	mov    0x8ecd(%rip),%eax        # a244 <__cg_data_MOD_naa>
    1377:	83 c0 01             	add    $0x1,%eax
    137a:	99                   	cltd   
    137b:	41 f7 fc             	idiv   %r12d
    137e:	41 39 d5             	cmp    %edx,%r13d
    1381:	0f 8c 71 09 00 00    	jl     1cf8 <conj_grad_._omp_fn.0+0x9a8>
    1387:	89 c1                	mov    %eax,%ecx
    1389:	41 0f af cd          	imul   %r13d,%ecx
    138d:	01 ca                	add    %ecx,%edx
    138f:	8d 0c 10             	lea    (%rax,%rdx,1),%ecx
    1392:	39 ca                	cmp    %ecx,%edx
    1394:	0f 8d ea 00 00 00    	jge    1484 <conj_grad_._omp_fn.0+0x134>
    139a:	48 8b 1d c7 8c 00 00 	mov    0x8cc7(%rip),%rbx        # a068 <__cg_data_MOD_z+0x8>
    13a1:	83 c2 01             	add    $0x1,%edx
    13a4:	83 e8 01             	sub    $0x1,%eax
    13a7:	48 8b 3d da 8d 00 00 	mov    0x8dda(%rip),%rdi        # a188 <__cg_data_MOD_r+0x8>
    13ae:	4c 8d 34 c5 08 00 00 	lea    0x8(,%rax,8),%r14
    13b5:	00 
    13b6:	48 8b 35 4b 8e 00 00 	mov    0x8e4b(%rip),%rsi        # a208 <__cg_data_MOD_p+0x8>
    13bd:	48 8b 05 fc 8d 00 00 	mov    0x8dfc(%rip),%rax        # a1c0 <__cg_data_MOD_q>
    13c4:	48 89 1c 24          	mov    %rbx,(%rsp)
    13c8:	48 63 da             	movslq %edx,%rbx
    13cb:	48 8b 15 f6 8d 00 00 	mov    0x8df6(%rip),%rdx        # a1c8 <__cg_data_MOD_q+0x8>
    13d2:	4c 8b 15 27 8e 00 00 	mov    0x8e27(%rip),%r10        # a200 <__cg_data_MOD_p>
    13d9:	4c 8b 05 c0 8c 00 00 	mov    0x8cc0(%rip),%r8        # a0a0 <__cg_data_MOD_x>
    13e0:	48 89 7c 24 08       	mov    %rdi,0x8(%rsp)
    13e5:	48 8b 0d 94 8d 00 00 	mov    0x8d94(%rip),%rcx        # a180 <__cg_data_MOD_r>
    13ec:	4c 8b 0d 6d 8c 00 00 	mov    0x8c6d(%rip),%r9        # a060 <__cg_data_MOD_z>
    13f3:	48 01 da             	add    %rbx,%rdx
    13f6:	48 89 74 24 10       	mov    %rsi,0x10(%rsp)
    13fb:	48 8d 3c d0          	lea    (%rax,%rdx,8),%rdi
    13ff:	31 f6                	xor    %esi,%esi
    1401:	4c 89 f2             	mov    %r14,%rdx
    1404:	4c 89 54 24 18       	mov    %r10,0x18(%rsp)
    1409:	4c 89 44 24 28       	mov    %r8,0x28(%rsp)
    140e:	48 8b 2d 93 8c 00 00 	mov    0x8c93(%rip),%rbp        # a0a8 <__cg_data_MOD_x+0x8>
    1415:	48 89 4c 24 20       	mov    %rcx,0x20(%rsp)
    141a:	4c 89 4c 24 30       	mov    %r9,0x30(%rsp)
    141f:	48 01 dd             	add    %rbx,%rbp
    1422:	e8 29 fc ff ff       	call   1050 <memset@plt>
    1427:	48 8b 04 24          	mov    (%rsp),%rax
    142b:	4c 8b 4c 24 30       	mov    0x30(%rsp),%r9
    1430:	31 f6                	xor    %esi,%esi
    1432:	4c 89 f2             	mov    %r14,%rdx
    1435:	48 01 d8             	add    %rbx,%rax
    1438:	49 8d 3c c1          	lea    (%r9,%rax,8),%rdi
    143c:	e8 0f fc ff ff       	call   1050 <memset@plt>
    1441:	48 8b 7c 24 08       	mov    0x8(%rsp),%rdi
    1446:	4c 8b 44 24 28       	mov    0x28(%rsp),%r8
    144b:	4c 89 f2             	mov    %r14,%rdx
    144e:	48 8b 4c 24 20       	mov    0x20(%rsp),%rcx
    1453:	49 8d 2c e8          	lea    (%r8,%rbp,8),%rbp
    1457:	48 8d 04 1f          	lea    (%rdi,%rbx,1),%rax
    145b:	48 8d 3c c1          	lea    (%rcx,%rax,8),%rdi
    145f:	48 89 ee             	mov    %rbp,%rsi
    1462:	e8 a9 fd ff ff       	call   1210 <memcpy@plt>
    1467:	48 8b 74 24 10       	mov    0x10(%rsp),%rsi
    146c:	4c 8b 54 24 18       	mov    0x18(%rsp),%r10
    1471:	4c 89 f2             	mov    %r14,%rdx
    1474:	48 8d 04 1e          	lea    (%rsi,%rbx,1),%rax
    1478:	48 89 ee             	mov    %rbp,%rsi
    147b:	49 8d 3c c2          	lea    (%r10,%rax,8),%rdi
    147f:	e8 8c fd ff ff       	call   1210 <memcpy@plt>
    1484:	e8 a7 fc ff ff       	call   1130 <GOMP_barrier@plt>
    1489:	8b 05 bd 8d 00 00    	mov    0x8dbd(%rip),%eax        # a24c <__cg_data_MOD_lastcol>
    148f:	2b 05 0f 8e 00 00    	sub    0x8e0f(%rip),%eax        # a2a4 <__cg_data_MOD_firstcol>
    1495:	83 c0 01             	add    $0x1,%eax
    1498:	99                   	cltd   
    1499:	41 f7 fc             	idiv   %r12d
    149c:	41 39 d5             	cmp    %edx,%r13d
    149f:	0f 8c 35 08 00 00    	jl     1cda <conj_grad_._omp_fn.0+0x98a>
    14a5:	89 c6                	mov    %eax,%esi
    14a7:	41 0f af f5          	imul   %r13d,%esi
    14ab:	8d 0c 32             	lea    (%rdx,%rsi,1),%ecx
    14ae:	8d 3c 08             	lea    (%rax,%rcx,1),%edi
    14b1:	39 f9                	cmp    %edi,%ecx
    14b3:	0f 8d 98 00 00 00    	jge    1551 <conj_grad_._omp_fn.0+0x201>
    14b9:	4c 8b 05 c0 8c 00 00 	mov    0x8cc0(%rip),%r8        # a180 <__cg_data_MOD_r>
    14c0:	4c 8b 0d c1 8c 00 00 	mov    0x8cc1(%rip),%r9        # a188 <__cg_data_MOD_r+0x8>
    14c7:	83 c1 01             	add    $0x1,%ecx
    14ca:	83 f8 01             	cmp    $0x1,%eax
    14cd:	0f 84 2f 08 00 00    	je     1d02 <conj_grad_._omp_fn.0+0x9b2>
    14d3:	48 63 d2             	movslq %edx,%rdx
    14d6:	48 63 f6             	movslq %esi,%rsi
    14d9:	66 0f ef e4          	pxor   %xmm4,%xmm4
    14dd:	49 8d 54 11 01       	lea    0x1(%r9,%rdx,1),%rdx
    14e2:	f2 0f 11 24 24       	movsd  %xmm4,(%rsp)
    14e7:	66 0f 28 c4          	movapd %xmm4,%xmm0
    14eb:	48 01 f2             	add    %rsi,%rdx
    14ee:	49 8d 34 d0          	lea    (%r8,%rdx,8),%rsi
    14f2:	89 c2                	mov    %eax,%edx
    14f4:	d1 ea                	shr    %edx
    14f6:	8d 7a ff             	lea    -0x1(%rdx),%edi
    14f9:	48 8d 56 10          	lea    0x10(%rsi),%rdx
    14fd:	48 c1 e7 04          	shl    $0x4,%rdi
    1501:	48 01 d7             	add    %rdx,%rdi
    1504:	eb 0e                	jmp    1514 <conj_grad_._omp_fn.0+0x1c4>
    1506:	66 2e 0f 1f 84 00 00 	cs nopw 0x0(%rax,%rax,1)
    150d:	00 00 00 
    1510:	48 83 c2 10          	add    $0x10,%rdx
    1514:	66 0f 10 16          	movupd (%rsi),%xmm2
    1518:	48 89 d6             	mov    %rdx,%rsi
    151b:	66 0f 59 d2          	mulpd  %xmm2,%xmm2
    151f:	f2 0f 58 c2          	addsd  %xmm2,%xmm0
    1523:	66 0f 15 d2          	unpckhpd %xmm2,%xmm2
    1527:	f2 0f 58 c2          	addsd  %xmm2,%xmm0
    152b:	48 39 d7             	cmp    %rdx,%rdi
    152e:	75 e0                	jne    1510 <conj_grad_._omp_fn.0+0x1c0>
    1530:	89 c2                	mov    %eax,%edx
    1532:	83 e2 fe             	and    $0xfffffffe,%edx
    1535:	01 d1                	add    %edx,%ecx
    1537:	39 d0                	cmp    %edx,%eax
    1539:	74 25                	je     1560 <conj_grad_._omp_fn.0+0x210>
    153b:	48 63 c1             	movslq %ecx,%rax
    153e:	4c 01 c8             	add    %r9,%rax
    1541:	f2 41 0f 10 0c c0    	movsd  (%r8,%rax,8),%xmm1
    1547:	f2 0f 59 c9          	mulsd  %xmm1,%xmm1
    154b:	f2 0f 58 c1          	addsd  %xmm1,%xmm0
    154f:	eb 0f                	jmp    1560 <conj_grad_._omp_fn.0+0x210>
    1551:	66 0f ef f6          	pxor   %xmm6,%xmm6
    1555:	f2 0f 11 34 24       	movsd  %xmm6,(%rsp)
    155a:	66 0f 28 c6          	movapd %xmm6,%xmm0
    155e:	66 90                	xchg   %ax,%ax
    1560:	49 8d 47 08          	lea    0x8(%r15),%rax
    1564:	48 89 44 24 10       	mov    %rax,0x10(%rsp)
    1569:	49 8b 57 08          	mov    0x8(%r15),%rdx
    156d:	48 89 c3             	mov    %rax,%rbx
    1570:	66 48 0f 6e f2       	movq   %rdx,%xmm6
    1575:	48 89 d0             	mov    %rdx,%rax
    1578:	f2 0f 58 f0          	addsd  %xmm0,%xmm6
    157c:	66 48 0f 7e f1       	movq   %xmm6,%rcx
    1581:	f0 48 0f b1 0b       	lock cmpxchg %rcx,(%rbx)
    1586:	0f 85 95 07 00 00    	jne    1d21 <conj_grad_._omp_fn.0+0x9d1>
    158c:	e8 9f fb ff ff       	call   1130 <GOMP_barrier@plt>
    1591:	49 8d 47 18          	lea    0x18(%r15),%rax
    1595:	c7 44 24 3c 19 00 00 	movl   $0x19,0x3c(%rsp)
    159c:	00 
    159d:	48 89 44 24 18       	mov    %rax,0x18(%rsp)
    15a2:	e9 19 01 00 00       	jmp    16c0 <conj_grad_._omp_fn.0+0x370>
    15a7:	66 0f 1f 84 00 00 00 	nopw   0x0(%rax,%rax,1)
    15ae:	00 00 
    15b0:	e8 7b fb ff ff       	call   1130 <GOMP_barrier@plt>
    15b5:	8b 05 91 8c 00 00    	mov    0x8c91(%rip),%eax        # a24c <__cg_data_MOD_lastcol>
    15bb:	2b 05 e3 8c 00 00    	sub    0x8ce3(%rip),%eax        # a2a4 <__cg_data_MOD_firstcol>
    15c1:	83 c0 01             	add    $0x1,%eax
    15c4:	99                   	cltd   
    15c5:	41 f7 fc             	idiv   %r12d
    15c8:	41 39 d5             	cmp    %edx,%r13d
    15cb:	0f 8c cf 06 00 00    	jl     1ca0 <conj_grad_._omp_fn.0+0x950>
    15d1:	41 89 c0             	mov    %eax,%r8d
    15d4:	66 0f ef c0          	pxor   %xmm0,%xmm0
    15d8:	45 0f af c5          	imul   %r13d,%r8d
    15dc:	42 8d 0c 02          	lea    (%rdx,%r8,1),%ecx
    15e0:	8d 34 08             	lea    (%rax,%rcx,1),%esi
    15e3:	39 f1                	cmp    %esi,%ecx
    15e5:	0f 8c 0d 06 00 00    	jl     1bf8 <conj_grad_._omp_fn.0+0x8a8>
    15eb:	48 8b 44 24 18       	mov    0x18(%rsp),%rax
    15f0:	48 8b 10             	mov    (%rax),%rdx
    15f3:	48 89 c3             	mov    %rax,%rbx
    15f6:	66 48 0f 6e ea       	movq   %rdx,%xmm5
    15fb:	48 89 d0             	mov    %rdx,%rax
    15fe:	f2 0f 58 e8          	addsd  %xmm0,%xmm5
    1602:	66 48 0f 7e e9       	movq   %xmm5,%rcx
    1607:	f0 48 0f b1 0b       	lock cmpxchg %rcx,(%rbx)
    160c:	0f 85 02 07 00 00    	jne    1d14 <conj_grad_._omp_fn.0+0x9c4>
    1612:	e8 19 fb ff ff       	call   1130 <GOMP_barrier@plt>
    1617:	8b 05 2f 8c 00 00    	mov    0x8c2f(%rip),%eax        # a24c <__cg_data_MOD_lastcol>
    161d:	2b 05 81 8c 00 00    	sub    0x8c81(%rip),%eax        # a2a4 <__cg_data_MOD_firstcol>
    1623:	83 c0 01             	add    $0x1,%eax
    1626:	99                   	cltd   
    1627:	41 f7 fc             	idiv   %r12d
    162a:	41 39 d5             	cmp    %edx,%r13d
    162d:	0f 8c 9d 06 00 00    	jl     1cd0 <conj_grad_._omp_fn.0+0x980>
    1633:	41 89 c1             	mov    %eax,%r9d
    1636:	66 0f ef c9          	pxor   %xmm1,%xmm1
    163a:	45 0f af cd          	imul   %r13d,%r9d
    163e:	42 8d 0c 0a          	lea    (%rdx,%r9,1),%ecx
    1642:	8d 34 08             	lea    (%rax,%rcx,1),%esi
    1645:	39 f1                	cmp    %esi,%ecx
    1647:	0f 8c 43 04 00 00    	jl     1a90 <conj_grad_._omp_fn.0+0x740>
    164d:	48 8b 44 24 10       	mov    0x10(%rsp),%rax
    1652:	48 8b 10             	mov    (%rax),%rdx
    1655:	48 89 c3             	mov    %rax,%rbx
    1658:	66 48 0f 6e f2       	movq   %rdx,%xmm6
    165d:	48 89 d0             	mov    %rdx,%rax
    1660:	f2 0f 58 f1          	addsd  %xmm1,%xmm6
    1664:	66 48 0f 7e f1       	movq   %xmm6,%rcx
    1669:	f0 48 0f b1 0b       	lock cmpxchg %rcx,(%rbx)
    166e:	0f 85 c2 06 00 00    	jne    1d36 <conj_grad_._omp_fn.0+0x9e6>
    1674:	e8 b7 fa ff ff       	call   1130 <GOMP_barrier@plt>
    1679:	8b 05 cd 8b 00 00    	mov    0x8bcd(%rip),%eax        # a24c <__cg_data_MOD_lastcol>
    167f:	2b 05 1f 8c 00 00    	sub    0x8c1f(%rip),%eax        # a2a4 <__cg_data_MOD_firstcol>
    1685:	83 c0 01             	add    $0x1,%eax
    1688:	99                   	cltd   
    1689:	41 f7 fc             	idiv   %r12d
    168c:	41 39 d5             	cmp    %edx,%r13d
    168f:	0f 8c 2b 06 00 00    	jl     1cc0 <conj_grad_._omp_fn.0+0x970>
    1695:	41 89 c1             	mov    %eax,%r9d
    1698:	45 0f af cd          	imul   %r13d,%r9d
    169c:	42 8d 0c 0a          	lea    (%rdx,%r9,1),%ecx
    16a0:	8d 34 08             	lea    (%rax,%rcx,1),%esi
    16a3:	39 f1                	cmp    %esi,%ecx
    16a5:	0f 8c 2d 01 00 00    	jl     17d8 <conj_grad_._omp_fn.0+0x488>
    16ab:	e8 80 fa ff ff       	call   1130 <GOMP_barrier@plt>
    16b0:	83 6c 24 3c 01       	subl   $0x1,0x3c(%rsp)
    16b5:	0f 84 e0 01 00 00    	je     189b <conj_grad_._omp_fn.0+0x54b>
    16bb:	0f 1f 44 00 00       	nopl   0x0(%rax,%rax,1)
    16c0:	45 85 ed             	test   %r13d,%r13d
    16c3:	75 1c                	jne    16e1 <conj_grad_._omp_fn.0+0x391>
    16c5:	f2 41 0f 10 47 08    	movsd  0x8(%r15),%xmm0
    16cb:	49 c7 47 18 00 00 00 	movq   $0x0,0x18(%r15)
    16d2:	00 
    16d3:	49 c7 47 08 00 00 00 	movq   $0x0,0x8(%r15)
    16da:	00 
    16db:	f2 41 0f 11 47 10    	movsd  %xmm0,0x10(%r15)
    16e1:	e8 4a fa ff ff       	call   1130 <GOMP_barrier@plt>
    16e6:	8b 05 5c 8b 00 00    	mov    0x8b5c(%rip),%eax        # a248 <__cg_data_MOD_lastrow>
    16ec:	2b 05 ae 8b 00 00    	sub    0x8bae(%rip),%eax        # a2a0 <__cg_data_MOD_firstrow>
    16f2:	83 c0 01             	add    $0x1,%eax
    16f5:	99                   	cltd   
    16f6:	41 f7 fc             	idiv   %r12d
    16f9:	41 39 d5             	cmp    %edx,%r13d
    16fc:	0f 8c ae 05 00 00    	jl     1cb0 <conj_grad_._omp_fn.0+0x960>
    1702:	89 c1                	mov    %eax,%ecx
    1704:	41 0f af cd          	imul   %r13d,%ecx
    1708:	01 ca                	add    %ecx,%edx
    170a:	8d 0c 10             	lea    (%rax,%rdx,1),%ecx
    170d:	39 ca                	cmp    %ecx,%edx
    170f:	0f 8d 9b fe ff ff    	jge    15b0 <conj_grad_._omp_fn.0+0x260>
    1715:	44 8d 52 01          	lea    0x1(%rdx),%r10d
    1719:	83 e8 01             	sub    $0x1,%eax
    171c:	48 63 d2             	movslq %edx,%rdx
    171f:	4c 8b 0d da 8a 00 00 	mov    0x8ada(%rip),%r9        # a200 <__cg_data_MOD_p>
    1726:	48 8d 6c 02 02       	lea    0x2(%rdx,%rax,1),%rbp
    172b:	48 8b 15 16 8a 00 00 	mov    0x8a16(%rip),%rdx        # a148 <__cg_data_MOD_rowstr+0x8>
    1732:	f2 0f 10 14 24       	movsd  (%rsp),%xmm2
    1737:	4d 63 d2             	movslq %r10d,%r10
    173a:	48 8b 05 ff 89 00 00 	mov    0x89ff(%rip),%rax        # a140 <__cg_data_MOD_rowstr>
    1741:	4c 8b 05 c0 8a 00 00 	mov    0x8ac0(%rip),%r8        # a208 <__cg_data_MOD_p+0x8>
    1748:	4c 8d 1c 90          	lea    (%rax,%rdx,4),%r11
    174c:	48 8b 15 75 8c 00 00 	mov    0x8c75(%rip),%rdx        # a3c8 <__cg_data_MOD_a+0x8>
    1753:	48 8b 05 66 8c 00 00 	mov    0x8c66(%rip),%rax        # a3c0 <__cg_data_MOD_a>
    175a:	48 8d 3c d0          	lea    (%rax,%rdx,8),%rdi
    175e:	48 8b 15 63 8b 00 00 	mov    0x8b63(%rip),%rdx        # a2c8 <__cg_data_MOD_colidx+0x8>
    1765:	48 8b 05 54 8b 00 00 	mov    0x8b54(%rip),%rax        # a2c0 <__cg_data_MOD_colidx>
    176c:	48 8d 34 90          	lea    (%rax,%rdx,4),%rsi
    1770:	48 8b 15 51 8a 00 00 	mov    0x8a51(%rip),%rdx        # a1c8 <__cg_data_MOD_q+0x8>
    1777:	48 8b 05 42 8a 00 00 	mov    0x8a42(%rip),%rax        # a1c0 <__cg_data_MOD_q>
    177e:	48 8d 1c d0          	lea    (%rax,%rdx,8),%rbx
    1782:	66 0f 1f 44 00 00    	nopw   0x0(%rax,%rax,1)
    1788:	4b 63 04 93          	movslq (%r11,%r10,4),%rax
    178c:	43 8b 4c 93 04       	mov    0x4(%r11,%r10,4),%ecx
    1791:	66 0f 28 ca          	movapd %xmm2,%xmm1
    1795:	39 c8                	cmp    %ecx,%eax
    1797:	7d 25                	jge    17be <conj_grad_._omp_fn.0+0x46e>
    1799:	0f 1f 80 00 00 00 00 	nopl   0x0(%rax)
    17a0:	48 63 14 86          	movslq (%rsi,%rax,4),%rdx
    17a4:	4c 01 c2             	add    %r8,%rdx
    17a7:	f2 41 0f 10 04 d1    	movsd  (%r9,%rdx,8),%xmm0
    17ad:	f2 0f 59 04 c7       	mulsd  (%rdi,%rax,8),%xmm0
    17b2:	48 83 c0 01          	add    $0x1,%rax
    17b6:	f2 0f 58 c8          	addsd  %xmm0,%xmm1
    17ba:	39 c1                	cmp    %eax,%ecx
    17bc:	7f e2                	jg     17a0 <conj_grad_._omp_fn.0+0x450>
    17be:	f2 42 0f 11 0c d3    	movsd  %xmm1,(%rbx,%r10,8)
    17c4:	49 83 c2 01          	add    $0x1,%r10
    17c8:	49 39 ea             	cmp    %rbp,%r10
    17cb:	75 bb                	jne    1788 <conj_grad_._omp_fn.0+0x438>
    17cd:	e9 de fd ff ff       	jmp    15b0 <conj_grad_._omp_fn.0+0x260>
    17d2:	66 0f 1f 44 00 00    	nopw   0x0(%rax,%rax,1)
    17d8:	f2 41 0f 10 47 08    	movsd  0x8(%r15),%xmm0
    17de:	4c 8b 1d 9b 89 00 00 	mov    0x899b(%rip),%r11        # a180 <__cg_data_MOD_r>
    17e5:	83 c1 01             	add    $0x1,%ecx
    17e8:	f2 41 0f 5e 47 10    	divsd  0x10(%r15),%xmm0
    17ee:	48 8b 3d 93 89 00 00 	mov    0x8993(%rip),%rdi        # a188 <__cg_data_MOD_r+0x8>
    17f5:	4c 8b 05 04 8a 00 00 	mov    0x8a04(%rip),%r8        # a200 <__cg_data_MOD_p>
    17fc:	48 8b 35 05 8a 00 00 	mov    0x8a05(%rip),%rsi        # a208 <__cg_data_MOD_p+0x8>
    1803:	83 f8 01             	cmp    $0x1,%eax
    1806:	74 68                	je     1870 <conj_grad_._omp_fn.0+0x520>
    1808:	4d 63 c9             	movslq %r9d,%r9
    180b:	48 63 d2             	movslq %edx,%rdx
    180e:	66 0f 28 d0          	movapd %xmm0,%xmm2
    1812:	41 89 c2             	mov    %eax,%r10d
    1815:	4c 01 ca             	add    %r9,%rdx
    1818:	41 d1 ea             	shr    %r10d
    181b:	66 0f 14 d2          	unpcklpd %xmm2,%xmm2
    181f:	4c 8d 4c 17 01       	lea    0x1(%rdi,%rdx,1),%r9
    1824:	48 8d 54 16 01       	lea    0x1(%rsi,%rdx,1),%rdx
    1829:	49 c1 e2 04          	shl    $0x4,%r10
    182d:	4b 8d 1c cb          	lea    (%r11,%r9,8),%rbx
    1831:	4d 8d 0c d0          	lea    (%r8,%rdx,8),%r9
    1835:	31 d2                	xor    %edx,%edx
    1837:	66 0f 1f 84 00 00 00 	nopw   0x0(%rax,%rax,1)
    183e:	00 00 
    1840:	66 41 0f 10 0c 11    	movupd (%r9,%rdx,1),%xmm1
    1846:	66 0f 10 2c 13       	movupd (%rbx,%rdx,1),%xmm5
    184b:	66 0f 59 ca          	mulpd  %xmm2,%xmm1
    184f:	66 0f 58 cd          	addpd  %xmm5,%xmm1
    1853:	41 0f 11 0c 11       	movups %xmm1,(%r9,%rdx,1)
    1858:	48 83 c2 10          	add    $0x10,%rdx
    185c:	4c 39 d2             	cmp    %r10,%rdx
    185f:	75 df                	jne    1840 <conj_grad_._omp_fn.0+0x4f0>
    1861:	89 c2                	mov    %eax,%edx
    1863:	83 e2 fe             	and    $0xfffffffe,%edx
    1866:	01 d1                	add    %edx,%ecx
    1868:	39 c2                	cmp    %eax,%edx
    186a:	0f 84 3b fe ff ff    	je     16ab <conj_grad_._omp_fn.0+0x35b>
    1870:	48 63 c9             	movslq %ecx,%rcx
    1873:	48 01 ce             	add    %rcx,%rsi
    1876:	48 01 cf             	add    %rcx,%rdi
    1879:	f2 41 0f 59 04 f0    	mulsd  (%r8,%rsi,8),%xmm0
    187f:	f2 41 0f 58 04 fb    	addsd  (%r11,%rdi,8),%xmm0
    1885:	f2 41 0f 11 04 f0    	movsd  %xmm0,(%r8,%rsi,8)
    188b:	e8 a0 f8 ff ff       	call   1130 <GOMP_barrier@plt>
    1890:	83 6c 24 3c 01       	subl   $0x1,0x3c(%rsp)
    1895:	0f 85 25 fe ff ff    	jne    16c0 <conj_grad_._omp_fn.0+0x370>
    189b:	8b 05 a7 89 00 00    	mov    0x89a7(%rip),%eax        # a248 <__cg_data_MOD_lastrow>
    18a1:	2b 05 f9 89 00 00    	sub    0x89f9(%rip),%eax        # a2a0 <__cg_data_MOD_firstrow>
    18a7:	83 c0 01             	add    $0x1,%eax
    18aa:	99                   	cltd   
    18ab:	41 f7 fc             	idiv   %r12d
    18ae:	41 39 d5             	cmp    %edx,%r13d
    18b1:	0f 8c 37 04 00 00    	jl     1cee <conj_grad_._omp_fn.0+0x99e>
    18b7:	89 c1                	mov    %eax,%ecx
    18b9:	41 0f af cd          	imul   %r13d,%ecx
    18bd:	01 ca                	add    %ecx,%edx
    18bf:	8d 0c 10             	lea    (%rax,%rdx,1),%ecx
    18c2:	39 ca                	cmp    %ecx,%edx
    18c4:	0f 8d bb 00 00 00    	jge    1985 <conj_grad_._omp_fn.0+0x635>
    18ca:	44 8d 4a 01          	lea    0x1(%rdx),%r9d
    18ce:	83 e8 01             	sub    $0x1,%eax
    18d1:	48 63 d2             	movslq %edx,%rdx
    18d4:	4c 8b 05 85 87 00 00 	mov    0x8785(%rip),%r8        # a060 <__cg_data_MOD_z>
    18db:	48 8d 5c 02 02       	lea    0x2(%rdx,%rax,1),%rbx
    18e0:	48 8b 15 61 88 00 00 	mov    0x8861(%rip),%rdx        # a148 <__cg_data_MOD_rowstr+0x8>
    18e7:	f2 0f 10 14 24       	movsd  (%rsp),%xmm2
    18ec:	4d 63 c9             	movslq %r9d,%r9
    18ef:	48 8b 05 4a 88 00 00 	mov    0x884a(%rip),%rax        # a140 <__cg_data_MOD_rowstr>
    18f6:	48 8b 3d 6b 87 00 00 	mov    0x876b(%rip),%rdi        # a068 <__cg_data_MOD_z+0x8>
    18fd:	4c 8d 14 90          	lea    (%rax,%rdx,4),%r10
    1901:	48 8b 15 c0 8a 00 00 	mov    0x8ac0(%rip),%rdx        # a3c8 <__cg_data_MOD_a+0x8>
    1908:	48 8b 05 b1 8a 00 00 	mov    0x8ab1(%rip),%rax        # a3c0 <__cg_data_MOD_a>
    190f:	48 8d 34 d0          	lea    (%rax,%rdx,8),%rsi
    1913:	48 8b 15 ae 89 00 00 	mov    0x89ae(%rip),%rdx        # a2c8 <__cg_data_MOD_colidx+0x8>
    191a:	48 8b 05 9f 89 00 00 	mov    0x899f(%rip),%rax        # a2c0 <__cg_data_MOD_colidx>
    1921:	48 8d 0c 90          	lea    (%rax,%rdx,4),%rcx
    1925:	48 8b 15 5c 88 00 00 	mov    0x885c(%rip),%rdx        # a188 <__cg_data_MOD_r+0x8>
    192c:	48 8b 05 4d 88 00 00 	mov    0x884d(%rip),%rax        # a180 <__cg_data_MOD_r>
    1933:	4c 8d 1c d0          	lea    (%rax,%rdx,8),%r11
    1937:	66 0f 1f 84 00 00 00 	nopw   0x0(%rax,%rax,1)
    193e:	00 00 
    1940:	4b 63 04 8a          	movslq (%r10,%r9,4),%rax
    1944:	43 8b 6c 8a 04       	mov    0x4(%r10,%r9,4),%ebp
    1949:	66 0f 28 ca          	movapd %xmm2,%xmm1
    194d:	39 e8                	cmp    %ebp,%eax
    194f:	7d 25                	jge    1976 <conj_grad_._omp_fn.0+0x626>
    1951:	0f 1f 80 00 00 00 00 	nopl   0x0(%rax)
    1958:	48 63 14 81          	movslq (%rcx,%rax,4),%rdx
    195c:	48 01 fa             	add    %rdi,%rdx
    195f:	f2 41 0f 10 04 d0    	movsd  (%r8,%rdx,8),%xmm0
    1965:	f2 0f 59 04 c6       	mulsd  (%rsi,%rax,8),%xmm0
    196a:	48 83 c0 01          	add    $0x1,%rax
    196e:	f2 0f 58 c8          	addsd  %xmm0,%xmm1
    1972:	39 c5                	cmp    %eax,%ebp
    1974:	7f e2                	jg     1958 <conj_grad_._omp_fn.0+0x608>
    1976:	f2 43 0f 11 0c cb    	movsd  %xmm1,(%r11,%r9,8)
    197c:	49 83 c1 01          	add    $0x1,%r9
    1980:	4c 39 cb             	cmp    %r9,%rbx
    1983:	75 bb                	jne    1940 <conj_grad_._omp_fn.0+0x5f0>
    1985:	e8 a6 f7 ff ff       	call   1130 <GOMP_barrier@plt>
    198a:	8b 05 bc 88 00 00    	mov    0x88bc(%rip),%eax        # a24c <__cg_data_MOD_lastcol>
    1990:	2b 05 0e 89 00 00    	sub    0x890e(%rip),%eax        # a2a4 <__cg_data_MOD_firstcol>
    1996:	83 c0 01             	add    $0x1,%eax
    1999:	99                   	cltd   
    199a:	41 f7 fc             	idiv   %r12d
    199d:	41 39 d5             	cmp    %edx,%r13d
    19a0:	0f 8c 3e 03 00 00    	jl     1ce4 <conj_grad_._omp_fn.0+0x994>
    19a6:	44 89 ef             	mov    %r13d,%edi
    19a9:	66 0f ef c9          	pxor   %xmm1,%xmm1
    19ad:	0f af f8             	imul   %eax,%edi
    19b0:	8d 0c 3a             	lea    (%rdx,%rdi,1),%ecx
    19b3:	8d 34 08             	lea    (%rax,%rcx,1),%esi
    19b6:	39 f1                	cmp    %esi,%ecx
    19b8:	0f 8d a3 00 00 00    	jge    1a61 <conj_grad_._omp_fn.0+0x711>
    19be:	4c 8b 0d db 86 00 00 	mov    0x86db(%rip),%r9        # a0a0 <__cg_data_MOD_x>
    19c5:	48 8b 35 dc 86 00 00 	mov    0x86dc(%rip),%rsi        # a0a8 <__cg_data_MOD_x+0x8>
    19cc:	83 c1 01             	add    $0x1,%ecx
    19cf:	4c 8b 05 aa 87 00 00 	mov    0x87aa(%rip),%r8        # a180 <__cg_data_MOD_r>
    19d6:	4c 8b 15 ab 87 00 00 	mov    0x87ab(%rip),%r10        # a188 <__cg_data_MOD_r+0x8>
    19dd:	83 f8 01             	cmp    $0x1,%eax
    19e0:	74 61                	je     1a43 <conj_grad_._omp_fn.0+0x6f3>
    19e2:	48 63 ff             	movslq %edi,%rdi
    19e5:	48 63 d2             	movslq %edx,%rdx
    19e8:	48 01 fa             	add    %rdi,%rdx
    19eb:	48 8d 7c 16 01       	lea    0x1(%rsi,%rdx,1),%rdi
    19f0:	49 8d 54 12 01       	lea    0x1(%r10,%rdx,1),%rdx
    19f5:	49 8d 1c f9          	lea    (%r9,%rdi,8),%rbx
    19f9:	89 c7                	mov    %eax,%edi
    19fb:	4d 8d 1c d0          	lea    (%r8,%rdx,8),%r11
    19ff:	31 d2                	xor    %edx,%edx
    1a01:	d1 ef                	shr    %edi
    1a03:	48 c1 e7 04          	shl    $0x4,%rdi
    1a07:	66 0f 1f 84 00 00 00 	nopw   0x0(%rax,%rax,1)
    1a0e:	00 00 
    1a10:	66 0f 10 04 13       	movupd (%rbx,%rdx,1),%xmm0
    1a15:	66 41 0f 10 34 13    	movupd (%r11,%rdx,1),%xmm6
    1a1b:	48 83 c2 10          	add    $0x10,%rdx
    1a1f:	66 0f 5c c6          	subpd  %xmm6,%xmm0
    1a23:	66 0f 59 c0          	mulpd  %xmm0,%xmm0
    1a27:	f2 0f 58 c8          	addsd  %xmm0,%xmm1
    1a2b:	66 0f 15 c0          	unpckhpd %xmm0,%xmm0
    1a2f:	f2 0f 58 c8          	addsd  %xmm0,%xmm1
    1a33:	48 39 fa             	cmp    %rdi,%rdx
    1a36:	75 d8                	jne    1a10 <conj_grad_._omp_fn.0+0x6c0>
    1a38:	89 c2                	mov    %eax,%edx
    1a3a:	83 e2 fe             	and    $0xfffffffe,%edx
    1a3d:	01 d1                	add    %edx,%ecx
    1a3f:	39 d0                	cmp    %edx,%eax
    1a41:	74 1e                	je     1a61 <conj_grad_._omp_fn.0+0x711>
    1a43:	48 63 c1             	movslq %ecx,%rax
    1a46:	48 8d 14 30          	lea    (%rax,%rsi,1),%rdx
    1a4a:	4c 01 d0             	add    %r10,%rax
    1a4d:	f2 41 0f 10 04 d1    	movsd  (%r9,%rdx,8),%xmm0
    1a53:	f2 41 0f 5c 04 c0    	subsd  (%r8,%rax,8),%xmm0
    1a59:	f2 0f 59 c0          	mulsd  %xmm0,%xmm0
    1a5d:	f2 0f 58 c8          	addsd  %xmm0,%xmm1
    1a61:	49 8b 17             	mov    (%r15),%rdx
    1a64:	66 48 0f 6e f2       	movq   %rdx,%xmm6
    1a69:	48 89 d0             	mov    %rdx,%rax
    1a6c:	f2 0f 58 f1          	addsd  %xmm1,%xmm6
    1a70:	66 48 0f 7e f1       	movq   %xmm6,%rcx
    1a75:	f0 49 0f b1 0f       	lock cmpxchg %rcx,(%r15)
    1a7a:	0f 85 ae 02 00 00    	jne    1d2e <conj_grad_._omp_fn.0+0x9de>
    1a80:	48 83 c4 48          	add    $0x48,%rsp
    1a84:	5b                   	pop    %rbx
    1a85:	5d                   	pop    %rbp
    1a86:	41 5c                	pop    %r12
    1a88:	41 5d                	pop    %r13
    1a8a:	41 5e                	pop    %r14
    1a8c:	41 5f                	pop    %r15
    1a8e:	c3                   	ret    
    1a8f:	90                   	nop
    1a90:	48 8b 35 d1 85 00 00 	mov    0x85d1(%rip),%rsi        # a068 <__cg_data_MOD_z+0x8>
    1a97:	f2 41 0f 10 57 10    	movsd  0x10(%r15),%xmm2
    1a9d:	83 c1 01             	add    $0x1,%ecx
    1aa0:	f2 41 0f 5e 57 18    	divsd  0x18(%r15),%xmm2
    1aa6:	4c 8b 35 5b 87 00 00 	mov    0x875b(%rip),%r14        # a208 <__cg_data_MOD_p+0x8>
    1aad:	4c 8b 1d d4 86 00 00 	mov    0x86d4(%rip),%r11        # a188 <__cg_data_MOD_r+0x8>
    1ab4:	4c 8b 15 0d 87 00 00 	mov    0x870d(%rip),%r10        # a1c8 <__cg_data_MOD_q+0x8>
    1abb:	48 89 74 24 20       	mov    %rsi,0x20(%rsp)
    1ac0:	4c 89 74 24 28       	mov    %r14,0x28(%rsp)
    1ac5:	4c 8b 05 94 85 00 00 	mov    0x8594(%rip),%r8        # a060 <__cg_data_MOD_z>
    1acc:	4c 89 5c 24 30       	mov    %r11,0x30(%rsp)
    1ad1:	48 8b 2d 28 87 00 00 	mov    0x8728(%rip),%rbp        # a200 <__cg_data_MOD_p>
    1ad8:	4c 89 54 24 08       	mov    %r10,0x8(%rsp)
    1add:	48 8b 3d 9c 86 00 00 	mov    0x869c(%rip),%rdi        # a180 <__cg_data_MOD_r>
    1ae4:	48 8b 1d d5 86 00 00 	mov    0x86d5(%rip),%rbx        # a1c0 <__cg_data_MOD_q>
    1aeb:	83 f8 01             	cmp    $0x1,%eax
    1aee:	0f 84 a5 00 00 00    	je     1b99 <conj_grad_._omp_fn.0+0x849>
    1af4:	4d 63 c9             	movslq %r9d,%r9
    1af7:	48 63 d2             	movslq %edx,%rdx
    1afa:	66 0f 28 e2          	movapd %xmm2,%xmm4
    1afe:	4c 01 ca             	add    %r9,%rdx
    1b01:	66 0f 14 e4          	unpcklpd %xmm4,%xmm4
    1b05:	4c 8d 4c 16 01       	lea    0x1(%rsi,%rdx,1),%r9
    1b0a:	48 8b 74 24 08       	mov    0x8(%rsp),%rsi
    1b0f:	4f 8d 14 c8          	lea    (%r8,%r9,8),%r10
    1b13:	4d 8d 4c 16 01       	lea    0x1(%r14,%rdx,1),%r9
    1b18:	4e 8d 74 cd 00       	lea    0x0(%rbp,%r9,8),%r14
    1b1d:	4d 8d 4c 13 01       	lea    0x1(%r11,%rdx,1),%r9
    1b22:	41 89 c3             	mov    %eax,%r11d
    1b25:	48 8d 54 16 01       	lea    0x1(%rsi,%rdx,1),%rdx
    1b2a:	41 d1 eb             	shr    %r11d
    1b2d:	4e 8d 0c cf          	lea    (%rdi,%r9,8),%r9
    1b31:	48 8d 34 d3          	lea    (%rbx,%rdx,8),%rsi
    1b35:	49 c1 e3 04          	shl    $0x4,%r11
    1b39:	31 d2                	xor    %edx,%edx
    1b3b:	0f 1f 44 00 00       	nopl   0x0(%rax,%rax,1)
    1b40:	66 41 0f 10 04 16    	movupd (%r14,%rdx,1),%xmm0
    1b46:	66 41 0f 10 3c 12    	movupd (%r10,%rdx,1),%xmm7
    1b4c:	66 0f 10 1c 16       	movupd (%rsi,%rdx,1),%xmm3
    1b51:	66 0f 59 c4          	mulpd  %xmm4,%xmm0
    1b55:	66 0f 59 dc          	mulpd  %xmm4,%xmm3
    1b59:	66 0f 58 c7          	addpd  %xmm7,%xmm0
    1b5d:	41 0f 11 04 12       	movups %xmm0,(%r10,%rdx,1)
    1b62:	66 41 0f 10 04 11    	movupd (%r9,%rdx,1),%xmm0
    1b68:	66 0f 5c c3          	subpd  %xmm3,%xmm0
    1b6c:	41 0f 11 04 11       	movups %xmm0,(%r9,%rdx,1)
    1b71:	66 0f 59 c0          	mulpd  %xmm0,%xmm0
    1b75:	48 83 c2 10          	add    $0x10,%rdx
    1b79:	f2 0f 58 c8          	addsd  %xmm0,%xmm1
    1b7d:	66 0f 15 c0          	unpckhpd %xmm0,%xmm0
    1b81:	f2 0f 58 c8          	addsd  %xmm0,%xmm1
    1b85:	49 39 d3             	cmp    %rdx,%r11
    1b88:	75 b6                	jne    1b40 <conj_grad_._omp_fn.0+0x7f0>
    1b8a:	89 c2                	mov    %eax,%edx
    1b8c:	83 e2 fe             	and    $0xfffffffe,%edx
    1b8f:	01 d1                	add    %edx,%ecx
    1b91:	39 c2                	cmp    %eax,%edx
    1b93:	0f 84 b4 fa ff ff    	je     164d <conj_grad_._omp_fn.0+0x2fd>
    1b99:	48 8b 44 24 28       	mov    0x28(%rsp),%rax
    1b9e:	48 63 c9             	movslq %ecx,%rcx
    1ba1:	48 8b 74 24 20       	mov    0x20(%rsp),%rsi
    1ba6:	48 8b 54 24 08       	mov    0x8(%rsp),%rdx
    1bab:	48 01 c8             	add    %rcx,%rax
    1bae:	48 01 ce             	add    %rcx,%rsi
    1bb1:	f2 0f 10 44 c5 00    	movsd  0x0(%rbp,%rax,8),%xmm0
    1bb7:	48 01 ca             	add    %rcx,%rdx
    1bba:	48 8b 44 24 30       	mov    0x30(%rsp),%rax
    1bbf:	f2 0f 59 c2          	mulsd  %xmm2,%xmm0
    1bc3:	48 01 c8             	add    %rcx,%rax
    1bc6:	f2 41 0f 58 04 f0    	addsd  (%r8,%rsi,8),%xmm0
    1bcc:	f2 0f 59 14 d3       	mulsd  (%rbx,%rdx,8),%xmm2
    1bd1:	f2 41 0f 11 04 f0    	movsd  %xmm0,(%r8,%rsi,8)
    1bd7:	f2 0f 10 04 c7       	movsd  (%rdi,%rax,8),%xmm0
    1bdc:	f2 0f 5c c2          	subsd  %xmm2,%xmm0
    1be0:	f2 0f 11 04 c7       	movsd  %xmm0,(%rdi,%rax,8)
    1be5:	f2 0f 59 c0          	mulsd  %xmm0,%xmm0
    1be9:	f2 0f 58 c8          	addsd  %xmm0,%xmm1
    1bed:	e9 5b fa ff ff       	jmp    164d <conj_grad_._omp_fn.0+0x2fd>
    1bf2:	66 0f 1f 44 00 00    	nopw   0x0(%rax,%rax,1)
    1bf8:	4c 8b 0d 01 86 00 00 	mov    0x8601(%rip),%r9        # a200 <__cg_data_MOD_p>
    1bff:	48 8b 35 02 86 00 00 	mov    0x8602(%rip),%rsi        # a208 <__cg_data_MOD_p+0x8>
    1c06:	83 c1 01             	add    $0x1,%ecx
    1c09:	4c 8b 15 b0 85 00 00 	mov    0x85b0(%rip),%r10        # a1c0 <__cg_data_MOD_q>
    1c10:	48 8b 3d b1 85 00 00 	mov    0x85b1(%rip),%rdi        # a1c8 <__cg_data_MOD_q+0x8>
    1c17:	83 f8 01             	cmp    $0x1,%eax
    1c1a:	74 5f                	je     1c7b <conj_grad_._omp_fn.0+0x92b>
    1c1c:	4d 63 c0             	movslq %r8d,%r8
    1c1f:	48 63 d2             	movslq %edx,%rdx
    1c22:	4c 01 c2             	add    %r8,%rdx
    1c25:	4c 8d 44 16 01       	lea    0x1(%rsi,%rdx,1),%r8
    1c2a:	48 8d 54 17 01       	lea    0x1(%rdi,%rdx,1),%rdx
    1c2f:	4b 8d 1c c1          	lea    (%r9,%r8,8),%rbx
    1c33:	41 89 c0             	mov    %eax,%r8d
    1c36:	4d 8d 1c d2          	lea    (%r10,%rdx,8),%r11
    1c3a:	31 d2                	xor    %edx,%edx
    1c3c:	41 d1 e8             	shr    %r8d
    1c3f:	49 c1 e0 04          	shl    $0x4,%r8
    1c43:	0f 1f 44 00 00       	nopl   0x0(%rax,%rax,1)
    1c48:	66 0f 10 14 13       	movupd (%rbx,%rdx,1),%xmm2
    1c4d:	66 41 0f 10 3c 13    	movupd (%r11,%rdx,1),%xmm7
    1c53:	48 83 c2 10          	add    $0x10,%rdx
    1c57:	66 0f 59 d7          	mulpd  %xmm7,%xmm2
    1c5b:	f2 0f 58 c2          	addsd  %xmm2,%xmm0
    1c5f:	66 0f 15 d2          	unpckhpd %xmm2,%xmm2
    1c63:	f2 0f 58 c2          	addsd  %xmm2,%xmm0
    1c67:	49 39 d0             	cmp    %rdx,%r8
    1c6a:	75 dc                	jne    1c48 <conj_grad_._omp_fn.0+0x8f8>
    1c6c:	89 c2                	mov    %eax,%edx
    1c6e:	83 e2 fe             	and    $0xfffffffe,%edx
    1c71:	01 d1                	add    %edx,%ecx
    1c73:	39 c2                	cmp    %eax,%edx
    1c75:	0f 84 70 f9 ff ff    	je     15eb <conj_grad_._omp_fn.0+0x29b>
    1c7b:	48 63 c9             	movslq %ecx,%rcx
    1c7e:	48 01 cf             	add    %rcx,%rdi
    1c81:	48 01 ce             	add    %rcx,%rsi
    1c84:	f2 41 0f 10 0c fa    	movsd  (%r10,%rdi,8),%xmm1
    1c8a:	f2 41 0f 59 0c f1    	mulsd  (%r9,%rsi,8),%xmm1
    1c90:	f2 0f 58 c1          	addsd  %xmm1,%xmm0
    1c94:	e9 52 f9 ff ff       	jmp    15eb <conj_grad_._omp_fn.0+0x29b>
    1c99:	0f 1f 80 00 00 00 00 	nopl   0x0(%rax)
    1ca0:	83 c0 01             	add    $0x1,%eax
    1ca3:	31 d2                	xor    %edx,%edx
    1ca5:	e9 27 f9 ff ff       	jmp    15d1 <conj_grad_._omp_fn.0+0x281>
    1caa:	66 0f 1f 44 00 00    	nopw   0x0(%rax,%rax,1)
    1cb0:	83 c0 01             	add    $0x1,%eax
    1cb3:	31 d2                	xor    %edx,%edx
    1cb5:	e9 48 fa ff ff       	jmp    1702 <conj_grad_._omp_fn.0+0x3b2>
    1cba:	66 0f 1f 44 00 00    	nopw   0x0(%rax,%rax,1)
    1cc0:	83 c0 01             	add    $0x1,%eax
    1cc3:	31 d2                	xor    %edx,%edx
    1cc5:	e9 cb f9 ff ff       	jmp    1695 <conj_grad_._omp_fn.0+0x345>
    1cca:	66 0f 1f 44 00 00    	nopw   0x0(%rax,%rax,1)
    1cd0:	83 c0 01             	add    $0x1,%eax
    1cd3:	31 d2                	xor    %edx,%edx
    1cd5:	e9 59 f9 ff ff       	jmp    1633 <conj_grad_._omp_fn.0+0x2e3>
    1cda:	83 c0 01             	add    $0x1,%eax
    1cdd:	31 d2                	xor    %edx,%edx
    1cdf:	e9 c1 f7 ff ff       	jmp    14a5 <conj_grad_._omp_fn.0+0x155>
    1ce4:	83 c0 01             	add    $0x1,%eax
    1ce7:	31 d2                	xor    %edx,%edx
    1ce9:	e9 b8 fc ff ff       	jmp    19a6 <conj_grad_._omp_fn.0+0x656>
    1cee:	83 c0 01             	add    $0x1,%eax
    1cf1:	31 d2                	xor    %edx,%edx
    1cf3:	e9 bf fb ff ff       	jmp    18b7 <conj_grad_._omp_fn.0+0x567>
    1cf8:	83 c0 01             	add    $0x1,%eax
    1cfb:	31 d2                	xor    %edx,%edx
    1cfd:	e9 85 f6 ff ff       	jmp    1387 <conj_grad_._omp_fn.0+0x37>
    1d02:	66 0f ef e4          	pxor   %xmm4,%xmm4
    1d06:	f2 0f 11 24 24       	movsd  %xmm4,(%rsp)
    1d0b:	66 0f 28 c4          	movapd %xmm4,%xmm0
    1d0f:	e9 27 f8 ff ff       	jmp    153b <conj_grad_._omp_fn.0+0x1eb>
    1d14:	48 8b 5c 24 18       	mov    0x18(%rsp),%rbx
    1d19:	48 89 c2             	mov    %rax,%rdx
    1d1c:	e9 d5 f8 ff ff       	jmp    15f6 <conj_grad_._omp_fn.0+0x2a6>
    1d21:	48 8b 5c 24 10       	mov    0x10(%rsp),%rbx
    1d26:	48 89 c2             	mov    %rax,%rdx
    1d29:	e9 42 f8 ff ff       	jmp    1570 <conj_grad_._omp_fn.0+0x220>
    1d2e:	48 89 c2             	mov    %rax,%rdx
    1d31:	e9 2e fd ff ff       	jmp    1a64 <conj_grad_._omp_fn.0+0x714>
    1d36:	48 8b 5c 24 10       	mov    0x10(%rsp),%rbx
    1d3b:	48 89 c2             	mov    %rax,%rdx
    1d3e:	e9 15 f9 ff ff       	jmp    1658 <conj_grad_._omp_fn.0+0x308>
    1d43:	66 66 2e 0f 1f 84 00 	data16 cs nopw 0x0(%rax,%rax,1)
    1d4a:	00 00 00 00 
    1d4e:	66 90                	xchg   %ax,%ax

0000000000001d50 <MAIN__._omp_fn.2>:
    1d50:	53                   	push   %rbx
    1d51:	e8 0a f3 ff ff       	call   1060 <omp_get_num_threads@plt>
    1d56:	89 c3                	mov    %eax,%ebx
    1d58:	e8 73 f3 ff ff       	call   10d0 <omp_get_thread_num@plt>
    1d5d:	89 c1                	mov    %eax,%ecx
    1d5f:	b8 b1 36 00 00       	mov    $0x36b1,%eax
    1d64:	99                   	cltd   
    1d65:	f7 fb                	idiv   %ebx
    1d67:	39 d1                	cmp    %edx,%ecx
    1d69:	0f 8c 89 00 00 00    	jl     1df8 <MAIN__._omp_fn.2+0xa8>
    1d6f:	89 ce                	mov    %ecx,%esi
    1d71:	0f af f0             	imul   %eax,%esi
    1d74:	8d 0c 32             	lea    (%rdx,%rsi,1),%ecx
    1d77:	8d 3c 08             	lea    (%rax,%rcx,1),%edi
    1d7a:	39 f9                	cmp    %edi,%ecx
    1d7c:	7d 75                	jge    1df3 <MAIN__._omp_fn.2+0xa3>
    1d7e:	4c 8b 05 1b 83 00 00 	mov    0x831b(%rip),%r8        # a0a0 <__cg_data_MOD_x>
    1d85:	4c 8b 0d 1c 83 00 00 	mov    0x831c(%rip),%r9        # a0a8 <__cg_data_MOD_x+0x8>
    1d8c:	83 c1 01             	add    $0x1,%ecx
    1d8f:	83 f8 01             	cmp    $0x1,%eax
    1d92:	74 4e                	je     1de2 <MAIN__._omp_fn.2+0x92>
    1d94:	48 63 d2             	movslq %edx,%rdx
    1d97:	48 63 f6             	movslq %esi,%rsi
    1d9a:	66 0f 28 05 5e 46 00 	movapd 0x465e(%rip),%xmm0        # 6400 <options.51.0+0x20>
    1da1:	00 
    1da2:	49 8d 54 11 01       	lea    0x1(%r9,%rdx,1),%rdx
    1da7:	48 01 f2             	add    %rsi,%rdx
    1daa:	49 8d 34 d0          	lea    (%r8,%rdx,8),%rsi
    1dae:	89 c2                	mov    %eax,%edx
    1db0:	d1 ea                	shr    %edx
    1db2:	8d 7a ff             	lea    -0x1(%rdx),%edi
    1db5:	48 8d 56 10          	lea    0x10(%rsi),%rdx
    1db9:	48 c1 e7 04          	shl    $0x4,%rdi
    1dbd:	48 01 d7             	add    %rdx,%rdi
    1dc0:	eb 0a                	jmp    1dcc <MAIN__._omp_fn.2+0x7c>
    1dc2:	66 0f 1f 44 00 00    	nopw   0x0(%rax,%rax,1)
    1dc8:	48 83 c2 10          	add    $0x10,%rdx
    1dcc:	0f 11 06             	movups %xmm0,(%rsi)
    1dcf:	48 89 d6             	mov    %rdx,%rsi
    1dd2:	48 39 d7             	cmp    %rdx,%rdi
    1dd5:	75 f1                	jne    1dc8 <MAIN__._omp_fn.2+0x78>
    1dd7:	89 c2                	mov    %eax,%edx
    1dd9:	83 e2 fe             	and    $0xfffffffe,%edx
    1ddc:	01 d1                	add    %edx,%ecx
    1dde:	39 d0                	cmp    %edx,%eax
    1de0:	74 11                	je     1df3 <MAIN__._omp_fn.2+0xa3>
    1de2:	48 8b 1d 17 46 00 00 	mov    0x4617(%rip),%rbx        # 6400 <options.51.0+0x20>
    1de9:	48 63 c1             	movslq %ecx,%rax
    1dec:	4c 01 c8             	add    %r9,%rax
    1def:	49 89 1c c0          	mov    %rbx,(%r8,%rax,8)
    1df3:	5b                   	pop    %rbx
    1df4:	c3                   	ret    
    1df5:	0f 1f 00             	nopl   (%rax)
    1df8:	83 c0 01             	add    $0x1,%eax
    1dfb:	31 d2                	xor    %edx,%edx
    1dfd:	e9 6d ff ff ff       	jmp    1d6f <MAIN__._omp_fn.2+0x1f>
    1e02:	66 66 2e 0f 1f 84 00 	data16 cs nopw 0x0(%rax,%rax,1)
    1e09:	00 00 00 00 
    1e0d:	0f 1f 00             	nopl   (%rax)

0000000000001e10 <MAIN__._omp_fn.1>:
    1e10:	41 55                	push   %r13
    1e12:	41 54                	push   %r12
    1e14:	55                   	push   %rbp
    1e15:	48 89 fd             	mov    %rdi,%rbp
    1e18:	53                   	push   %rbx
    1e19:	48 83 ec 18          	sub    $0x18,%rsp
    1e1d:	e8 3e f2 ff ff       	call   1060 <omp_get_num_threads@plt>
    1e22:	89 c3                	mov    %eax,%ebx
    1e24:	e8 a7 f2 ff ff       	call   10d0 <omp_get_thread_num@plt>
    1e29:	41 89 c4             	mov    %eax,%r12d
    1e2c:	8b 05 1a 84 00 00    	mov    0x841a(%rip),%eax        # a24c <__cg_data_MOD_lastcol>
    1e32:	2b 05 6c 84 00 00    	sub    0x846c(%rip),%eax        # a2a4 <__cg_data_MOD_firstcol>
    1e38:	83 c0 01             	add    $0x1,%eax
    1e3b:	99                   	cltd   
    1e3c:	f7 fb                	idiv   %ebx
    1e3e:	41 39 d4             	cmp    %edx,%r12d
    1e41:	0f 8c e1 01 00 00    	jl     2028 <MAIN__._omp_fn.1+0x218>
    1e47:	41 89 c2             	mov    %eax,%r10d
    1e4a:	66 0f ef c0          	pxor   %xmm0,%xmm0
    1e4e:	45 0f af d4          	imul   %r12d,%r10d
    1e52:	42 8d 0c 12          	lea    (%rdx,%r10,1),%ecx
    1e56:	8d 34 08             	lea    (%rax,%rcx,1),%esi
    1e59:	39 f1                	cmp    %esi,%ecx
    1e5b:	0f 8d b2 00 00 00    	jge    1f13 <MAIN__._omp_fn.1+0x103>
    1e61:	4c 8b 05 38 82 00 00 	mov    0x8238(%rip),%r8        # a0a0 <__cg_data_MOD_x>
    1e68:	48 8b 3d 39 82 00 00 	mov    0x8239(%rip),%rdi        # a0a8 <__cg_data_MOD_x+0x8>
    1e6f:	83 c1 01             	add    $0x1,%ecx
    1e72:	4c 8b 0d e7 81 00 00 	mov    0x81e7(%rip),%r9        # a060 <__cg_data_MOD_z>
    1e79:	48 8b 35 e8 81 00 00 	mov    0x81e8(%rip),%rsi        # a068 <__cg_data_MOD_z+0x8>
    1e80:	83 f8 01             	cmp    $0x1,%eax
    1e83:	74 68                	je     1eed <MAIN__._omp_fn.1+0xdd>
    1e85:	4d 63 d2             	movslq %r10d,%r10
    1e88:	48 63 d2             	movslq %edx,%rdx
    1e8b:	4c 01 d2             	add    %r10,%rdx
    1e8e:	4c 8d 54 17 01       	lea    0x1(%rdi,%rdx,1),%r10
    1e93:	48 8d 54 16 01       	lea    0x1(%rsi,%rdx,1),%rdx
    1e98:	4f 8d 1c d0          	lea    (%r8,%r10,8),%r11
    1e9c:	41 89 c2             	mov    %eax,%r10d
    1e9f:	4d 8d 2c d1          	lea    (%r9,%rdx,8),%r13
    1ea3:	31 d2                	xor    %edx,%edx
    1ea5:	41 d1 ea             	shr    %r10d
    1ea8:	49 c1 e2 04          	shl    $0x4,%r10
    1eac:	0f 1f 40 00          	nopl   0x0(%rax)
    1eb0:	66 41 0f 10 54 15 00 	movupd 0x0(%r13,%rdx,1),%xmm2
    1eb7:	66 41 0f 10 0c 13    	movupd (%r11,%rdx,1),%xmm1
    1ebd:	48 83 c2 10          	add    $0x10,%rdx
    1ec1:	66 0f 59 ca          	mulpd  %xmm2,%xmm1
    1ec5:	66 0f 59 d2          	mulpd  %xmm2,%xmm2
    1ec9:	66 0f 28 d9          	movapd %xmm1,%xmm3
    1ecd:	66 0f 14 da          	unpcklpd %xmm2,%xmm3
    1ed1:	66 0f 15 ca          	unpckhpd %xmm2,%xmm1
    1ed5:	66 0f 58 c3          	addpd  %xmm3,%xmm0
    1ed9:	66 0f 58 c1          	addpd  %xmm1,%xmm0
    1edd:	49 39 d2             	cmp    %rdx,%r10
    1ee0:	75 ce                	jne    1eb0 <MAIN__._omp_fn.1+0xa0>
    1ee2:	89 c2                	mov    %eax,%edx
    1ee4:	83 e2 fe             	and    $0xfffffffe,%edx
    1ee7:	01 d1                	add    %edx,%ecx
    1ee9:	39 d0                	cmp    %edx,%eax
    1eeb:	74 26                	je     1f13 <MAIN__._omp_fn.1+0x103>
    1eed:	48 63 c1             	movslq %ecx,%rax
    1ef0:	48 8d 14 06          	lea    (%rsi,%rax,1),%rdx
    1ef4:	48 01 f8             	add    %rdi,%rax
    1ef7:	f2 41 0f 10 0c d1    	movsd  (%r9,%rdx,8),%xmm1
    1efd:	f2 41 0f 10 14 c0    	movsd  (%r8,%rax,8),%xmm2
    1f03:	66 0f 14 d1          	unpcklpd %xmm1,%xmm2
    1f07:	66 0f 14 c9          	unpcklpd %xmm1,%xmm1
    1f0b:	66 0f 59 ca          	mulpd  %xmm2,%xmm1
    1f0f:	66 0f 58 c1          	addpd  %xmm1,%xmm0
    1f13:	0f 29 04 24          	movaps %xmm0,(%rsp)
    1f17:	e8 34 f2 ff ff       	call   1150 <GOMP_atomic_start@plt>
    1f1c:	66 0f 10 65 00       	movupd 0x0(%rbp),%xmm4
    1f21:	66 0f 28 04 24       	movapd (%rsp),%xmm0
    1f26:	66 0f 58 c4          	addpd  %xmm4,%xmm0
    1f2a:	0f 11 45 00          	movups %xmm0,0x0(%rbp)
    1f2e:	e8 cd f1 ff ff       	call   1100 <GOMP_atomic_end@plt>
    1f33:	e8 f8 f1 ff ff       	call   1130 <GOMP_barrier@plt>
    1f38:	8b 05 0e 83 00 00    	mov    0x830e(%rip),%eax        # a24c <__cg_data_MOD_lastcol>
    1f3e:	2b 05 60 83 00 00    	sub    0x8360(%rip),%eax        # a2a4 <__cg_data_MOD_firstcol>
    1f44:	83 c0 01             	add    $0x1,%eax
    1f47:	99                   	cltd   
    1f48:	f7 fb                	idiv   %ebx
    1f4a:	41 39 d4             	cmp    %edx,%r12d
    1f4d:	0f 8c c5 00 00 00    	jl     2018 <MAIN__._omp_fn.1+0x208>
    1f53:	44 0f af e0          	imul   %eax,%r12d
    1f57:	42 8d 0c 22          	lea    (%rdx,%r12,1),%ecx
    1f5b:	8d 34 08             	lea    (%rax,%rcx,1),%esi
    1f5e:	39 f1                	cmp    %esi,%ecx
    1f60:	0f 8d a2 00 00 00    	jge    2008 <MAIN__._omp_fn.1+0x1f8>
    1f66:	f2 0f 10 4d 08       	movsd  0x8(%rbp),%xmm1
    1f6b:	f2 0f 10 05 8d 44 00 	movsd  0x448d(%rip),%xmm0        # 6400 <options.51.0+0x20>
    1f72:	00 
    1f73:	83 c1 01             	add    $0x1,%ecx
    1f76:	4c 8b 15 e3 80 00 00 	mov    0x80e3(%rip),%r10        # a060 <__cg_data_MOD_z>
    1f7d:	48 8b 3d e4 80 00 00 	mov    0x80e4(%rip),%rdi        # a068 <__cg_data_MOD_z+0x8>
    1f84:	f2 0f 51 c9          	sqrtsd %xmm1,%xmm1
    1f88:	4c 8b 0d 11 81 00 00 	mov    0x8111(%rip),%r9        # a0a0 <__cg_data_MOD_x>
    1f8f:	48 8b 35 12 81 00 00 	mov    0x8112(%rip),%rsi        # a0a8 <__cg_data_MOD_x+0x8>
    1f96:	f2 0f 5e c1          	divsd  %xmm1,%xmm0
    1f9a:	83 f8 01             	cmp    $0x1,%eax
    1f9d:	74 53                	je     1ff2 <MAIN__._omp_fn.1+0x1e2>
    1f9f:	48 63 d2             	movslq %edx,%rdx
    1fa2:	4d 63 e4             	movslq %r12d,%r12
    1fa5:	66 0f 28 d0          	movapd %xmm0,%xmm2
    1fa9:	41 89 c0             	mov    %eax,%r8d
    1fac:	49 01 d4             	add    %rdx,%r12
    1faf:	41 d1 e8             	shr    %r8d
    1fb2:	66 0f 14 d2          	unpcklpd %xmm2,%xmm2
    1fb6:	4a 8d 54 27 01       	lea    0x1(%rdi,%r12,1),%rdx
    1fbb:	49 c1 e0 04          	shl    $0x4,%r8
    1fbf:	49 8d 1c d2          	lea    (%r10,%rdx,8),%rbx
    1fc3:	4a 8d 54 26 01       	lea    0x1(%rsi,%r12,1),%rdx
    1fc8:	4d 8d 1c d1          	lea    (%r9,%rdx,8),%r11
    1fcc:	31 d2                	xor    %edx,%edx
    1fce:	66 90                	xchg   %ax,%ax
    1fd0:	66 0f 10 0c 13       	movupd (%rbx,%rdx,1),%xmm1
    1fd5:	66 0f 59 ca          	mulpd  %xmm2,%xmm1
    1fd9:	41 0f 11 0c 13       	movups %xmm1,(%r11,%rdx,1)
    1fde:	48 83 c2 10          	add    $0x10,%rdx
    1fe2:	4c 39 c2             	cmp    %r8,%rdx
    1fe5:	75 e9                	jne    1fd0 <MAIN__._omp_fn.1+0x1c0>
    1fe7:	89 c2                	mov    %eax,%edx
    1fe9:	83 e2 fe             	and    $0xfffffffe,%edx
    1fec:	01 d1                	add    %edx,%ecx
    1fee:	39 c2                	cmp    %eax,%edx
    1ff0:	74 16                	je     2008 <MAIN__._omp_fn.1+0x1f8>
    1ff2:	48 63 c1             	movslq %ecx,%rax
    1ff5:	48 8d 14 06          	lea    (%rsi,%rax,1),%rdx
    1ff9:	48 01 f8             	add    %rdi,%rax
    1ffc:	f2 41 0f 59 04 c2    	mulsd  (%r10,%rax,8),%xmm0
    2002:	f2 41 0f 11 04 d1    	movsd  %xmm0,(%r9,%rdx,8)
    2008:	48 83 c4 18          	add    $0x18,%rsp
    200c:	5b                   	pop    %rbx
    200d:	5d                   	pop    %rbp
    200e:	41 5c                	pop    %r12
    2010:	41 5d                	pop    %r13
    2012:	c3                   	ret    
    2013:	0f 1f 44 00 00       	nopl   0x0(%rax,%rax,1)
    2018:	83 c0 01             	add    $0x1,%eax
    201b:	31 d2                	xor    %edx,%edx
    201d:	e9 31 ff ff ff       	jmp    1f53 <MAIN__._omp_fn.1+0x143>
    2022:	66 0f 1f 44 00 00    	nopw   0x0(%rax,%rax,1)
    2028:	83 c0 01             	add    $0x1,%eax
    202b:	31 d2                	xor    %edx,%edx
    202d:	e9 15 fe ff ff       	jmp    1e47 <MAIN__._omp_fn.1+0x37>
    2032:	66 66 2e 0f 1f 84 00 	data16 cs nopw 0x0(%rax,%rax,1)
    2039:	00 00 00 00 
    203d:	0f 1f 00             	nopl   (%rax)

0000000000002040 <MAIN__._omp_fn.3>:
    2040:	41 57                	push   %r15
    2042:	41 56                	push   %r14
    2044:	41 55                	push   %r13
    2046:	41 54                	push   %r12
    2048:	49 89 fc             	mov    %rdi,%r12
    204b:	55                   	push   %rbp
    204c:	53                   	push   %rbx
    204d:	48 81 ec 28 02 00 00 	sub    $0x228,%rsp
    2054:	e8 07 f0 ff ff       	call   1060 <omp_get_num_threads@plt>
    2059:	89 c5                	mov    %eax,%ebp
    205b:	e8 70 f0 ff ff       	call   10d0 <omp_get_thread_num@plt>
    2060:	89 c3                	mov    %eax,%ebx
    2062:	8b 05 e4 81 00 00    	mov    0x81e4(%rip),%eax        # a24c <__cg_data_MOD_lastcol>
    2068:	2b 05 36 82 00 00    	sub    0x8236(%rip),%eax        # a2a4 <__cg_data_MOD_firstcol>
    206e:	83 c0 01             	add    $0x1,%eax
    2071:	99                   	cltd   
    2072:	f7 fd                	idiv   %ebp
    2074:	39 d3                	cmp    %edx,%ebx
    2076:	0f 8c b4 02 00 00    	jl     2330 <MAIN__._omp_fn.3+0x2f0>
    207c:	41 89 c2             	mov    %eax,%r10d
    207f:	66 0f ef c0          	pxor   %xmm0,%xmm0
    2083:	44 0f af d3          	imul   %ebx,%r10d
    2087:	42 8d 0c 12          	lea    (%rdx,%r10,1),%ecx
    208b:	8d 34 08             	lea    (%rax,%rcx,1),%esi
    208e:	39 f1                	cmp    %esi,%ecx
    2090:	0f 8d b5 00 00 00    	jge    214b <MAIN__._omp_fn.3+0x10b>
    2096:	4c 8b 05 03 80 00 00 	mov    0x8003(%rip),%r8        # a0a0 <__cg_data_MOD_x>
    209d:	48 8b 3d 04 80 00 00 	mov    0x8004(%rip),%rdi        # a0a8 <__cg_data_MOD_x+0x8>
    20a4:	83 c1 01             	add    $0x1,%ecx
    20a7:	4c 8b 0d b2 7f 00 00 	mov    0x7fb2(%rip),%r9        # a060 <__cg_data_MOD_z>
    20ae:	48 8b 35 b3 7f 00 00 	mov    0x7fb3(%rip),%rsi        # a068 <__cg_data_MOD_z+0x8>
    20b5:	83 f8 01             	cmp    $0x1,%eax
    20b8:	74 6b                	je     2125 <MAIN__._omp_fn.3+0xe5>
    20ba:	4d 63 d2             	movslq %r10d,%r10
    20bd:	48 63 d2             	movslq %edx,%rdx
    20c0:	4c 01 d2             	add    %r10,%rdx
    20c3:	4c 8d 54 17 01       	lea    0x1(%rdi,%rdx,1),%r10
    20c8:	48 8d 54 16 01       	lea    0x1(%rsi,%rdx,1),%rdx
    20cd:	4f 8d 1c d0          	lea    (%r8,%r10,8),%r11
    20d1:	41 89 c2             	mov    %eax,%r10d
    20d4:	4d 8d 2c d1          	lea    (%r9,%rdx,8),%r13
    20d8:	31 d2                	xor    %edx,%edx
    20da:	41 d1 ea             	shr    %r10d
    20dd:	49 c1 e2 04          	shl    $0x4,%r10
    20e1:	0f 1f 80 00 00 00 00 	nopl   0x0(%rax)
    20e8:	66 41 0f 10 54 15 00 	movupd 0x0(%r13,%rdx,1),%xmm2
    20ef:	66 41 0f 10 0c 13    	movupd (%r11,%rdx,1),%xmm1
    20f5:	48 83 c2 10          	add    $0x10,%rdx
    20f9:	66 0f 59 ca          	mulpd  %xmm2,%xmm1
    20fd:	66 0f 59 d2          	mulpd  %xmm2,%xmm2
    2101:	66 0f 28 d9          	movapd %xmm1,%xmm3
    2105:	66 0f 14 da          	unpcklpd %xmm2,%xmm3
    2109:	66 0f 15 ca          	unpckhpd %xmm2,%xmm1
    210d:	66 0f 58 c3          	addpd  %xmm3,%xmm0
    2111:	66 0f 58 c1          	addpd  %xmm1,%xmm0
    2115:	49 39 d2             	cmp    %rdx,%r10
    2118:	75 ce                	jne    20e8 <MAIN__._omp_fn.3+0xa8>
    211a:	89 c2                	mov    %eax,%edx
    211c:	83 e2 fe             	and    $0xfffffffe,%edx
    211f:	01 d1                	add    %edx,%ecx
    2121:	39 d0                	cmp    %edx,%eax
    2123:	74 26                	je     214b <MAIN__._omp_fn.3+0x10b>
    2125:	48 63 c1             	movslq %ecx,%rax
    2128:	48 8d 14 06          	lea    (%rsi,%rax,1),%rdx
    212c:	48 01 f8             	add    %rdi,%rax
    212f:	f2 41 0f 10 0c d1    	movsd  (%r9,%rdx,8),%xmm1
    2135:	f2 41 0f 10 14 c0    	movsd  (%r8,%rax,8),%xmm2
    213b:	66 0f 14 d1          	unpcklpd %xmm1,%xmm2
    213f:	66 0f 14 c9          	unpcklpd %xmm1,%xmm1
    2143:	66 0f 59 ca          	mulpd  %xmm2,%xmm1
    2147:	66 0f 58 c1          	addpd  %xmm1,%xmm0
    214b:	0f 29 04 24          	movaps %xmm0,(%rsp)
    214f:	e8 fc ef ff ff       	call   1150 <GOMP_atomic_start@plt>
    2154:	66 41 0f 10 64 24 08 	movupd 0x8(%r12),%xmm4
    215b:	66 0f 28 04 24       	movapd (%rsp),%xmm0
    2160:	66 0f 58 c4          	addpd  %xmm4,%xmm0
    2164:	41 0f 11 44 24 08    	movups %xmm0,0x8(%r12)
    216a:	e8 91 ef ff ff       	call   1100 <GOMP_atomic_end@plt>
    216f:	e8 bc ef ff ff       	call   1130 <GOMP_barrier@plt>
    2174:	f2 41 0f 10 4c 24 10 	movsd  0x10(%r12),%xmm1
    217b:	85 db                	test   %ebx,%ebx
    217d:	0f 85 b6 00 00 00    	jne    2239 <MAIN__._omp_fn.3+0x1f9>
    2183:	f2 0f 10 05 75 42 00 	movsd  0x4275(%rip),%xmm0        # 6400 <options.51.0+0x20>
    218a:	00 
    218b:	f2 41 0f 5e 44 24 08 	divsd  0x8(%r12),%xmm0
    2192:	f2 0f 58 05 96 42 00 	addsd  0x4296(%rip),%xmm0        # 6430 <options.51.0+0x50>
    2199:	00 
    219a:	49 8b 44 24 20       	mov    0x20(%r12),%rax
    219f:	f2 0f 11 00          	movsd  %xmm0,(%rax)
    21a3:	49 8b 04 24          	mov    (%r12),%rax
    21a7:	83 38 01             	cmpl   $0x1,(%rax)
    21aa:	0f 84 90 01 00 00    	je     2340 <MAIN__._omp_fn.3+0x300>
    21b0:	4c 8b 35 81 42 00 00 	mov    0x4281(%rip),%r14        # 6438 <options.51.0+0x58>
    21b7:	4c 8d 3d 46 3e 00 00 	lea    0x3e46(%rip),%r15        # 6004 <_IO_stdin_used+0x4>
    21be:	4c 8d 6c 24 10       	lea    0x10(%rsp),%r13
    21c3:	48 8d 05 41 3e 00 00 	lea    0x3e41(%rip),%rax        # 600b <_IO_stdin_used+0xb>
    21ca:	4c 89 ef             	mov    %r13,%rdi
    21cd:	f2 0f 11 0c 24       	movsd  %xmm1,(%rsp)
    21d2:	48 89 44 24 60       	mov    %rax,0x60(%rsp)
    21d7:	4c 89 7c 24 18       	mov    %r15,0x18(%rsp)
    21dc:	c7 44 24 20 42 01 00 	movl   $0x142,0x20(%rsp)
    21e3:	00 
    21e4:	48 c7 44 24 68 1e 00 	movq   $0x1e,0x68(%rsp)
    21eb:	00 00 
    21ed:	4c 89 74 24 10       	mov    %r14,0x10(%rsp)
    21f2:	e8 f9 ef ff ff       	call   11f0 <_gfortran_st_write@plt>
    21f7:	49 8b 34 24          	mov    (%r12),%rsi
    21fb:	ba 04 00 00 00       	mov    $0x4,%edx
    2200:	4c 89 ef             	mov    %r13,%rdi
    2203:	e8 b8 ee ff ff       	call   10c0 <_gfortran_transfer_integer_write@plt>
    2208:	49 8b 74 24 18       	mov    0x18(%r12),%rsi
    220d:	ba 08 00 00 00       	mov    $0x8,%edx
    2212:	4c 89 ef             	mov    %r13,%rdi
    2215:	e8 16 ee ff ff       	call   1030 <_gfortran_transfer_real_write@plt>
    221a:	49 8b 74 24 20       	mov    0x20(%r12),%rsi
    221f:	ba 08 00 00 00       	mov    $0x8,%edx
    2224:	4c 89 ef             	mov    %r13,%rdi
    2227:	e8 04 ee ff ff       	call   1030 <_gfortran_transfer_real_write@plt>
    222c:	4c 89 ef             	mov    %r13,%rdi
    222f:	e8 5c ef ff ff       	call   1190 <_gfortran_st_write_done@plt>
    2234:	f2 0f 10 0c 24       	movsd  (%rsp),%xmm1
    2239:	8b 05 0d 80 00 00    	mov    0x800d(%rip),%eax        # a24c <__cg_data_MOD_lastcol>
    223f:	2b 05 5f 80 00 00    	sub    0x805f(%rip),%eax        # a2a4 <__cg_data_MOD_firstcol>
    2245:	83 c0 01             	add    $0x1,%eax
    2248:	99                   	cltd   
    2249:	f7 fd                	idiv   %ebp
    224b:	39 d3                	cmp    %edx,%ebx
    224d:	0f 8c cd 00 00 00    	jl     2320 <MAIN__._omp_fn.3+0x2e0>
    2253:	0f af d8             	imul   %eax,%ebx
    2256:	8d 0c 1a             	lea    (%rdx,%rbx,1),%ecx
    2259:	8d 34 08             	lea    (%rax,%rcx,1),%esi
    225c:	39 f1                	cmp    %esi,%ecx
    225e:	0f 8d a5 00 00 00    	jge    2309 <MAIN__._omp_fn.3+0x2c9>
    2264:	f2 0f 51 c9          	sqrtsd %xmm1,%xmm1
    2268:	f2 0f 10 05 90 41 00 	movsd  0x4190(%rip),%xmm0        # 6400 <options.51.0+0x20>
    226f:	00 
    2270:	4c 8b 15 e9 7d 00 00 	mov    0x7de9(%rip),%r10        # a060 <__cg_data_MOD_z>
    2277:	83 c1 01             	add    $0x1,%ecx
    227a:	48 8b 3d e7 7d 00 00 	mov    0x7de7(%rip),%rdi        # a068 <__cg_data_MOD_z+0x8>
    2281:	4c 8b 0d 18 7e 00 00 	mov    0x7e18(%rip),%r9        # a0a0 <__cg_data_MOD_x>
    2288:	48 8b 35 19 7e 00 00 	mov    0x7e19(%rip),%rsi        # a0a8 <__cg_data_MOD_x+0x8>
    228f:	f2 0f 5e c1          	divsd  %xmm1,%xmm0
    2293:	83 f8 01             	cmp    $0x1,%eax
    2296:	74 5b                	je     22f3 <MAIN__._omp_fn.3+0x2b3>
    2298:	48 63 d2             	movslq %edx,%rdx
    229b:	48 63 db             	movslq %ebx,%rbx
    229e:	66 0f 28 d0          	movapd %xmm0,%xmm2
    22a2:	41 89 c0             	mov    %eax,%r8d
    22a5:	48 01 d3             	add    %rdx,%rbx
    22a8:	41 d1 e8             	shr    %r8d
    22ab:	66 0f 14 d2          	unpcklpd %xmm2,%xmm2
    22af:	48 8d 54 1f 01       	lea    0x1(%rdi,%rbx,1),%rdx
    22b4:	49 c1 e0 04          	shl    $0x4,%r8
    22b8:	49 8d 2c d2          	lea    (%r10,%rdx,8),%rbp
    22bc:	48 8d 54 1e 01       	lea    0x1(%rsi,%rbx,1),%rdx
    22c1:	4d 8d 1c d1          	lea    (%r9,%rdx,8),%r11
    22c5:	31 d2                	xor    %edx,%edx
    22c7:	66 0f 1f 84 00 00 00 	nopw   0x0(%rax,%rax,1)
    22ce:	00 00 
    22d0:	66 0f 10 4c 15 00    	movupd 0x0(%rbp,%rdx,1),%xmm1
    22d6:	66 0f 59 ca          	mulpd  %xmm2,%xmm1
    22da:	41 0f 11 0c 13       	movups %xmm1,(%r11,%rdx,1)
    22df:	48 83 c2 10          	add    $0x10,%rdx
    22e3:	4c 39 c2             	cmp    %r8,%rdx
    22e6:	75 e8                	jne    22d0 <MAIN__._omp_fn.3+0x290>
    22e8:	89 c2                	mov    %eax,%edx
    22ea:	83 e2 fe             	and    $0xfffffffe,%edx
    22ed:	01 d1                	add    %edx,%ecx
    22ef:	39 c2                	cmp    %eax,%edx
    22f1:	74 16                	je     2309 <MAIN__._omp_fn.3+0x2c9>
    22f3:	48 63 c1             	movslq %ecx,%rax
    22f6:	48 8d 14 06          	lea    (%rsi,%rax,1),%rdx
    22fa:	48 01 f8             	add    %rdi,%rax
    22fd:	f2 41 0f 59 04 c2    	mulsd  (%r10,%rax,8),%xmm0
    2303:	f2 41 0f 11 04 d1    	movsd  %xmm0,(%r9,%rdx,8)
    2309:	48 81 c4 28 02 00 00 	add    $0x228,%rsp
    2310:	5b                   	pop    %rbx
    2311:	5d                   	pop    %rbp
    2312:	41 5c                	pop    %r12
    2314:	41 5d                	pop    %r13
    2316:	41 5e                	pop    %r14
    2318:	41 5f                	pop    %r15
    231a:	c3                   	ret    
    231b:	0f 1f 44 00 00       	nopl   0x0(%rax,%rax,1)
    2320:	83 c0 01             	add    $0x1,%eax
    2323:	31 d2                	xor    %edx,%edx
    2325:	e9 29 ff ff ff       	jmp    2253 <MAIN__._omp_fn.3+0x213>
    232a:	66 0f 1f 44 00 00    	nopw   0x0(%rax,%rax,1)
    2330:	83 c0 01             	add    $0x1,%eax
    2333:	31 d2                	xor    %edx,%edx
    2335:	e9 42 fd ff ff       	jmp    207c <MAIN__._omp_fn.3+0x3c>
    233a:	66 0f 1f 44 00 00    	nopw   0x0(%rax,%rax,1)
    2340:	4c 8b 35 f1 40 00 00 	mov    0x40f1(%rip),%r14        # 6438 <options.51.0+0x58>
    2347:	4c 8d 6c 24 10       	lea    0x10(%rsp),%r13
    234c:	48 8d 05 25 3e 00 00 	lea    0x3e25(%rip),%rax        # 6178 <_IO_stdin_used+0x178>
    2353:	f2 0f 11 0c 24       	movsd  %xmm1,(%rsp)
    2358:	4c 89 ef             	mov    %r13,%rdi
    235b:	4c 8d 3d a2 3c 00 00 	lea    0x3ca2(%rip),%r15        # 6004 <_IO_stdin_used+0x4>
    2362:	48 89 44 24 60       	mov    %rax,0x60(%rsp)
    2367:	4c 89 7c 24 18       	mov    %r15,0x18(%rsp)
    236c:	c7 44 24 20 41 01 00 	movl   $0x141,0x20(%rsp)
    2373:	00 
    2374:	48 c7 44 24 68 39 00 	movq   $0x39,0x68(%rsp)
    237b:	00 00 
    237d:	4c 89 74 24 10       	mov    %r14,0x10(%rsp)
    2382:	e8 69 ee ff ff       	call   11f0 <_gfortran_st_write@plt>
    2387:	4c 89 ef             	mov    %r13,%rdi
    238a:	e8 01 ee ff ff       	call   1190 <_gfortran_st_write_done@plt>
    238f:	f2 0f 10 0c 24       	movsd  (%rsp),%xmm1
    2394:	e9 2a fe ff ff       	jmp    21c3 <MAIN__._omp_fn.3+0x183>
    2399:	0f 1f 80 00 00 00 00 	nopl   0x0(%rax)

00000000000023a0 <MAIN__>:
    23a0:	41 57                	push   %r15
    23a2:	41 56                	push   %r14
    23a4:	41 55                	push   %r13
    23a6:	41 54                	push   %r12
    23a8:	55                   	push   %rbp
    23a9:	53                   	push   %rbx
    23aa:	48 81 ec e8 02 00 00 	sub    $0x2e8,%rsp
    23b1:	48 8d 5c 24 68       	lea    0x68(%rsp),%rbx
    23b6:	48 8d 44 24 58       	lea    0x58(%rsp),%rax
    23bb:	48 89 5c 24 20       	mov    %rbx,0x20(%rsp)
    23c0:	66 48 0f 6e f0       	movq   %rax,%xmm6
    23c5:	4c 8d 6c 24 3c       	lea    0x3c(%rsp),%r13
    23ca:	48 8d 84 24 a0 00 00 	lea    0xa0(%rsp),%rax
    23d1:	00 
    23d2:	48 89 c7             	mov    %rax,%rdi
    23d5:	48 89 44 24 28       	mov    %rax,0x28(%rsp)
    23da:	0f 16 74 24 20       	movhps 0x20(%rsp),%xmm6
    23df:	0f 29 34 24          	movaps %xmm6,(%rsp)
    23e3:	e8 98 ec ff ff       	call   1080 <_gfortran_ieee_procedure_entry@plt>
    23e8:	c7 44 24 3c 01 00 00 	movl   $0x1,0x3c(%rsp)
    23ef:	00 
    23f0:	4c 89 ef             	mov    %r13,%rdi
    23f3:	e8 78 34 00 00       	call   5870 <timer_clear_>
    23f8:	8b 44 24 3c          	mov    0x3c(%rsp),%eax
    23fc:	83 c0 01             	add    $0x1,%eax
    23ff:	89 44 24 3c          	mov    %eax,0x3c(%rsp)
    2403:	83 f8 03             	cmp    $0x3,%eax
    2406:	7e e8                	jle    23f0 <MAIN__+0x50>
    2408:	48 8d 3d 11 7d 00 00 	lea    0x7d11(%rip),%rdi        # a120 <__cg_data_MOD_timeron>
    240f:	e8 ec 34 00 00       	call   5900 <check_timer_flag_>
    2414:	8b 35 06 7d 00 00    	mov    0x7d06(%rip),%esi        # a120 <__cg_data_MOD_timeron>
    241a:	85 f6                	test   %esi,%esi
    241c:	0f 85 29 07 00 00    	jne    2b4b <MAIN__+0x7ab>
    2422:	4c 8d 3d 87 3f 00 00 	lea    0x3f87(%rip),%r15        # 63b0 <_IO_stdin_used+0x3b0>
    2429:	48 8d ac 24 d0 00 00 	lea    0xd0(%rsp),%rbp
    2430:	00 
    2431:	4c 89 ff             	mov    %r15,%rdi
    2434:	4c 8d 25 c9 3b 00 00 	lea    0x3bc9(%rip),%r12        # 6004 <_IO_stdin_used+0x4>
    243b:	48 8d 1d 0e ef ff ff 	lea    -0x10f2(%rip),%rbx        # 1350 <conj_grad_._omp_fn.0>
    2442:	e8 49 34 00 00       	call   5890 <timer_start_>
    2447:	48 8b 05 f2 3f 00 00 	mov    0x3ff2(%rip),%rax        # 6440 <options.51.0+0x60>
    244e:	48 89 ef             	mov    %rbp,%rdi
    2451:	c7 05 45 7e 00 00 01 	movl   $0x1,0x7e45(%rip)        # a2a0 <__cg_data_MOD_firstrow>
    2458:	00 00 00 
    245b:	c6 44 24 3b 41       	movb   $0x41,0x3b(%rsp)
    2460:	4c 8d 35 a9 f9 ff ff 	lea    -0x657(%rip),%r14        # 1e10 <MAIN__._omp_fn.1>
    2467:	48 89 44 24 70       	mov    %rax,0x70(%rsp)
    246c:	48 8d 05 45 3d 00 00 	lea    0x3d45(%rip),%rax        # 61b8 <_IO_stdin_used+0x1b8>
    2473:	48 89 84 24 20 01 00 	mov    %rax,0x120(%rsp)
    247a:	00 
    247b:	48 8b 05 b6 3f 00 00 	mov    0x3fb6(%rip),%rax        # 6438 <options.51.0+0x58>
    2482:	c7 05 bc 7d 00 00 b0 	movl   $0x36b0,0x7dbc(%rip)        # a248 <__cg_data_MOD_lastrow>
    2489:	36 00 00 
    248c:	48 89 84 24 d0 00 00 	mov    %rax,0xd0(%rsp)
    2493:	00 
    2494:	c7 05 06 7e 00 00 01 	movl   $0x1,0x7e06(%rip)        # a2a4 <__cg_data_MOD_firstcol>
    249b:	00 00 00 
    249e:	c7 05 a4 7d 00 00 b0 	movl   $0x36b0,0x7da4(%rip)        # a24c <__cg_data_MOD_lastcol>
    24a5:	36 00 00 
    24a8:	4c 89 a4 24 d8 00 00 	mov    %r12,0xd8(%rsp)
    24af:	00 
    24b0:	c7 84 24 e0 00 00 00 	movl   $0x95,0xe0(%rsp)
    24b7:	95 00 00 00 
    24bb:	48 c7 84 24 28 01 00 	movq   $0x4d,0x128(%rsp)
    24c2:	00 4d 00 00 00 
    24c7:	e8 24 ed ff ff       	call   11f0 <_gfortran_st_write@plt>
    24cc:	48 89 ef             	mov    %rbp,%rdi
    24cf:	e8 bc ec ff ff       	call   1190 <_gfortran_st_write_done@plt>
    24d4:	48 8d 05 57 3b 00 00 	lea    0x3b57(%rip),%rax        # 6032 <_IO_stdin_used+0x32>
    24db:	48 89 ef             	mov    %rbp,%rdi
    24de:	4c 89 a4 24 d8 00 00 	mov    %r12,0xd8(%rsp)
    24e5:	00 
    24e6:	48 89 84 24 20 01 00 	mov    %rax,0x120(%rsp)
    24ed:	00 
    24ee:	48 8b 05 43 3f 00 00 	mov    0x3f43(%rip),%rax        # 6438 <options.51.0+0x58>
    24f5:	c7 84 24 e0 00 00 00 	movl   $0x96,0xe0(%rsp)
    24fc:	96 00 00 00 
    2500:	48 89 84 24 d0 00 00 	mov    %rax,0xd0(%rsp)
    2507:	00 
    2508:	48 c7 84 24 28 01 00 	movq   $0x11,0x128(%rsp)
    250f:	00 11 00 00 00 
    2514:	e8 d7 ec ff ff       	call   11f0 <_gfortran_st_write@plt>
    2519:	ba 04 00 00 00       	mov    $0x4,%edx
    251e:	48 8d 35 8f 3e 00 00 	lea    0x3e8f(%rip),%rsi        # 63b4 <_IO_stdin_used+0x3b4>
    2525:	48 89 ef             	mov    %rbp,%rdi
    2528:	e8 93 eb ff ff       	call   10c0 <_gfortran_transfer_integer_write@plt>
    252d:	48 89 ef             	mov    %rbp,%rdi
    2530:	e8 5b ec ff ff       	call   1190 <_gfortran_st_write_done@plt>
    2535:	48 8d 05 cc 3c 00 00 	lea    0x3ccc(%rip),%rax        # 6208 <_IO_stdin_used+0x208>
    253c:	48 89 ef             	mov    %rbp,%rdi
    253f:	4c 89 a4 24 d8 00 00 	mov    %r12,0xd8(%rsp)
    2546:	00 
    2547:	48 89 84 24 20 01 00 	mov    %rax,0x120(%rsp)
    254e:	00 
    254f:	48 8b 05 e2 3e 00 00 	mov    0x3ee2(%rip),%rax        # 6438 <options.51.0+0x58>
    2556:	c7 84 24 e0 00 00 00 	movl   $0x97,0xe0(%rsp)
    255d:	97 00 00 00 
    2561:	48 89 84 24 d0 00 00 	mov    %rax,0xd0(%rsp)
    2568:	00 
    2569:	48 c7 84 24 28 01 00 	movq   $0x27,0x128(%rsp)
    2570:	00 27 00 00 00 
    2575:	e8 76 ec ff ff       	call   11f0 <_gfortran_st_write@plt>
    257a:	ba 04 00 00 00       	mov    $0x4,%edx
    257f:	48 8d 35 32 3e 00 00 	lea    0x3e32(%rip),%rsi        # 63b8 <_IO_stdin_used+0x3b8>
    2586:	48 89 ef             	mov    %rbp,%rdi
    2589:	e8 32 eb ff ff       	call   10c0 <_gfortran_transfer_integer_write@plt>
    258e:	48 89 ef             	mov    %rbp,%rdi
    2591:	e8 fa eb ff ff       	call   1190 <_gfortran_st_write_done@plt>
    2596:	48 8d 05 93 3c 00 00 	lea    0x3c93(%rip),%rax        # 6230 <_IO_stdin_used+0x230>
    259d:	48 89 ef             	mov    %rbp,%rdi
    25a0:	4c 89 a4 24 d8 00 00 	mov    %r12,0xd8(%rsp)
    25a7:	00 
    25a8:	48 89 84 24 20 01 00 	mov    %rax,0x120(%rsp)
    25af:	00 
    25b0:	48 8b 05 81 3e 00 00 	mov    0x3e81(%rip),%rax        # 6438 <options.51.0+0x58>
    25b7:	c7 84 24 e0 00 00 00 	movl   $0x98,0xe0(%rsp)
    25be:	98 00 00 00 
    25c2:	48 89 84 24 d0 00 00 	mov    %rax,0xd0(%rsp)
    25c9:	00 
    25ca:	48 c7 84 24 28 01 00 	movq   $0x26,0x128(%rsp)
    25d1:	00 26 00 00 00 
    25d6:	e8 15 ec ff ff       	call   11f0 <_gfortran_st_write@plt>
    25db:	31 c0                	xor    %eax,%eax
    25dd:	e8 ce eb ff ff       	call   11b0 <omp_get_max_threads_@plt>
    25e2:	ba 04 00 00 00       	mov    $0x4,%edx
    25e7:	48 89 ef             	mov    %rbp,%rdi
    25ea:	89 44 24 78          	mov    %eax,0x78(%rsp)
    25ee:	48 8d 44 24 78       	lea    0x78(%rsp),%rax
    25f3:	48 89 c6             	mov    %rax,%rsi
    25f6:	48 89 44 24 18       	mov    %rax,0x18(%rsp)
    25fb:	e8 c0 ea ff ff       	call   10c0 <_gfortran_transfer_integer_write@plt>
    2600:	48 89 ef             	mov    %rbp,%rdi
    2603:	e8 88 eb ff ff       	call   1190 <_gfortran_st_write_done@plt>
    2608:	48 8b 05 39 3e 00 00 	mov    0x3e39(%rip),%rax        # 6448 <options.51.0+0x68>
    260f:	48 89 ef             	mov    %rbp,%rdi
    2612:	4c 89 a4 24 d8 00 00 	mov    %r12,0xd8(%rsp)
    2619:	00 
    261a:	c7 84 24 e0 00 00 00 	movl   $0x99,0xe0(%rsp)
    2621:	99 00 00 00 
    2625:	48 89 84 24 d0 00 00 	mov    %rax,0xd0(%rsp)
    262c:	00 
    262d:	e8 be eb ff ff       	call   11f0 <_gfortran_st_write@plt>
    2632:	48 89 ef             	mov    %rbp,%rdi
    2635:	e8 56 eb ff ff       	call   1190 <_gfortran_st_write_done@plt>
    263a:	31 c0                	xor    %eax,%eax
    263c:	c7 05 fe 7b 00 00 b0 	movl   $0x36b0,0x7bfe(%rip)        # a244 <__cg_data_MOD_naa>
    2643:	36 00 00 
    2646:	c7 05 f0 7b 00 00 00 	movl   $0x1ec300,0x7bf0(%rip)        # a240 <__cg_data_MOD_nzz>
    264d:	c3 1e 00 
    2650:	e8 fb 20 00 00       	call   4750 <alloc_space_>
    2655:	31 c9                	xor    %ecx,%ecx
    2657:	31 d2                	xor    %edx,%edx
    2659:	31 f6                	xor    %esi,%esi
    265b:	48 8d 3d ce 1b 00 00 	lea    0x1bce(%rip),%rdi        # 4230 <MAIN__._omp_fn.0>
    2662:	e8 19 eb ff ff       	call   1180 <GOMP_parallel@plt>
    2667:	c7 44 24 40 01 00 00 	movl   $0x1,0x40(%rsp)
    266e:	00 
    266f:	48 c7 44 24 68 00 00 	movq   $0x0,0x68(%rsp)
    2676:	00 00 
    2678:	0f 1f 84 00 00 00 00 	nopl   0x0(%rax,%rax,1)
    267f:	00 
    2680:	66 0f ef d2          	pxor   %xmm2,%xmm2
    2684:	31 c9                	xor    %ecx,%ecx
    2686:	31 d2                	xor    %edx,%edx
    2688:	48 89 ee             	mov    %rbp,%rsi
    268b:	48 89 df             	mov    %rbx,%rdi
    268e:	0f 29 94 24 d0 00 00 	movaps %xmm2,0xd0(%rsp)
    2695:	00 
    2696:	0f 29 94 24 e0 00 00 	movaps %xmm2,0xe0(%rsp)
    269d:	00 
    269e:	e8 dd ea ff ff       	call   1180 <GOMP_parallel@plt>
    26a3:	66 0f ef d2          	pxor   %xmm2,%xmm2
    26a7:	31 c9                	xor    %ecx,%ecx
    26a9:	31 d2                	xor    %edx,%edx
    26ab:	f2 0f 10 84 24 d0 00 	movsd  0xd0(%rsp),%xmm0
    26b2:	00 00 
    26b4:	48 89 ee             	mov    %rbp,%rsi
    26b7:	4c 89 f7             	mov    %r14,%rdi
    26ba:	0f 29 94 24 d0 00 00 	movaps %xmm2,0xd0(%rsp)
    26c1:	00 
    26c2:	f2 0f 51 c0          	sqrtsd %xmm0,%xmm0
    26c6:	f2 0f 11 44 24 58    	movsd  %xmm0,0x58(%rsp)
    26cc:	e8 af ea ff ff       	call   1180 <GOMP_parallel@plt>
    26d1:	8b 44 24 40          	mov    0x40(%rsp),%eax
    26d5:	83 c0 01             	add    $0x1,%eax
    26d8:	89 44 24 40          	mov    %eax,0x40(%rsp)
    26dc:	83 f8 01             	cmp    $0x1,%eax
    26df:	7e 9f                	jle    2680 <MAIN__+0x2e0>
    26e1:	31 c9                	xor    %ecx,%ecx
    26e3:	31 d2                	xor    %edx,%edx
    26e5:	48 8d 3d 64 f6 ff ff 	lea    -0x99c(%rip),%rdi        # 1d50 <MAIN__._omp_fn.2>
    26ec:	31 f6                	xor    %esi,%esi
    26ee:	e8 8d ea ff ff       	call   1180 <GOMP_parallel@plt>
    26f3:	4c 89 ff             	mov    %r15,%rdi
    26f6:	4c 8d 35 43 f9 ff ff 	lea    -0x6bd(%rip),%r14        # 2040 <MAIN__._omp_fn.3>
    26fd:	48 c7 44 24 68 00 00 	movq   $0x0,0x68(%rsp)
    2704:	00 00 
    2706:	e8 a5 31 00 00       	call   58b0 <timer_stop_>
    270b:	48 8d 05 46 3b 00 00 	lea    0x3b46(%rip),%rax        # 6258 <_IO_stdin_used+0x258>
    2712:	48 89 ef             	mov    %rbp,%rdi
    2715:	4c 89 a4 24 d8 00 00 	mov    %r12,0xd8(%rsp)
    271c:	00 
    271d:	48 89 84 24 20 01 00 	mov    %rax,0x120(%rsp)
    2724:	00 
    2725:	48 8b 05 0c 3d 00 00 	mov    0x3d0c(%rip),%rax        # 6438 <options.51.0+0x58>
    272c:	c7 84 24 e0 00 00 00 	movl   $0x117,0xe0(%rsp)
    2733:	17 01 00 00 
    2737:	48 89 84 24 d0 00 00 	mov    %rax,0xd0(%rsp)
    273e:	00 
    273f:	48 c7 84 24 28 01 00 	movq   $0x2c,0x128(%rsp)
    2746:	00 2c 00 00 00 
    274b:	e8 a0 ea ff ff       	call   11f0 <_gfortran_st_write@plt>
    2750:	4c 89 ff             	mov    %r15,%rdi
    2753:	4c 8d 3d 66 3c 00 00 	lea    0x3c66(%rip),%r15        # 63c0 <_IO_stdin_used+0x3c0>
    275a:	e8 81 31 00 00       	call   58e0 <timer_read_>
    275f:	48 8b 74 24 18       	mov    0x18(%rsp),%rsi
    2764:	ba 08 00 00 00       	mov    $0x8,%edx
    2769:	48 89 ef             	mov    %rbp,%rdi
    276c:	f2 0f 11 44 24 78    	movsd  %xmm0,0x78(%rsp)
    2772:	e8 b9 e8 ff ff       	call   1030 <_gfortran_transfer_real_write@plt>
    2777:	48 89 ef             	mov    %rbp,%rdi
    277a:	e8 11 ea ff ff       	call   1190 <_gfortran_st_write_done@plt>
    277f:	48 8d 3d 36 3c 00 00 	lea    0x3c36(%rip),%rdi        # 63bc <_IO_stdin_used+0x3bc>
    2786:	e8 05 31 00 00       	call   5890 <timer_start_>
    278b:	48 8d 44 24 40       	lea    0x40(%rsp),%rax
    2790:	c7 44 24 40 01 00 00 	movl   $0x1,0x40(%rsp)
    2797:	00 
    2798:	48 89 44 24 10       	mov    %rax,0x10(%rsp)
    279d:	e9 8b 00 00 00       	jmp    282d <MAIN__+0x48d>
    27a2:	66 0f 1f 44 00 00    	nopw   0x0(%rax,%rax,1)
    27a8:	66 0f ef c0          	pxor   %xmm0,%xmm0
    27ac:	31 d2                	xor    %edx,%edx
    27ae:	31 c9                	xor    %ecx,%ecx
    27b0:	48 89 ee             	mov    %rbp,%rsi
    27b3:	48 89 df             	mov    %rbx,%rdi
    27b6:	0f 29 84 24 d0 00 00 	movaps %xmm0,0xd0(%rsp)
    27bd:	00 
    27be:	0f 29 84 24 e0 00 00 	movaps %xmm0,0xe0(%rsp)
    27c5:	00 
    27c6:	e8 b5 e9 ff ff       	call   1180 <GOMP_parallel@plt>
    27cb:	8b 15 4f 79 00 00    	mov    0x794f(%rip),%edx        # a120 <__cg_data_MOD_timeron>
    27d1:	66 0f ef c0          	pxor   %xmm0,%xmm0
    27d5:	f2 0f 10 8c 24 d0 00 	movsd  0xd0(%rsp),%xmm1
    27dc:	00 00 
    27de:	f2 0f 51 c9          	sqrtsd %xmm1,%xmm1
    27e2:	85 d2                	test   %edx,%edx
    27e4:	f2 0f 11 4c 24 58    	movsd  %xmm1,0x58(%rsp)
    27ea:	75 64                	jne    2850 <MAIN__+0x4b0>
    27ec:	48 8b 44 24 10       	mov    0x10(%rsp),%rax
    27f1:	66 0f 6f 24 24       	movdqa (%rsp),%xmm4
    27f6:	0f 11 84 24 d8 00 00 	movups %xmm0,0xd8(%rsp)
    27fd:	00 
    27fe:	48 89 84 24 d0 00 00 	mov    %rax,0xd0(%rsp)
    2805:	00 
    2806:	0f 11 a4 24 e8 00 00 	movups %xmm4,0xe8(%rsp)
    280d:	00 
    280e:	31 c9                	xor    %ecx,%ecx
    2810:	31 d2                	xor    %edx,%edx
    2812:	48 89 ee             	mov    %rbp,%rsi
    2815:	4c 89 f7             	mov    %r14,%rdi
    2818:	e8 63 e9 ff ff       	call   1180 <GOMP_parallel@plt>
    281d:	8b 44 24 40          	mov    0x40(%rsp),%eax
    2821:	83 c0 01             	add    $0x1,%eax
    2824:	89 44 24 40          	mov    %eax,0x40(%rsp)
    2828:	83 f8 0f             	cmp    $0xf,%eax
    282b:	7f 53                	jg     2880 <MAIN__+0x4e0>
    282d:	8b 0d ed 78 00 00    	mov    0x78ed(%rip),%ecx        # a120 <__cg_data_MOD_timeron>
    2833:	85 c9                	test   %ecx,%ecx
    2835:	0f 84 6d ff ff ff    	je     27a8 <MAIN__+0x408>
    283b:	4c 89 ff             	mov    %r15,%rdi
    283e:	e8 4d 30 00 00       	call   5890 <timer_start_>
    2843:	e9 60 ff ff ff       	jmp    27a8 <MAIN__+0x408>
    2848:	0f 1f 84 00 00 00 00 	nopl   0x0(%rax,%rax,1)
    284f:	00 
    2850:	4c 89 ff             	mov    %r15,%rdi
    2853:	e8 58 30 00 00       	call   58b0 <timer_stop_>
    2858:	48 8b 44 24 10       	mov    0x10(%rsp),%rax
    285d:	66 0f 6f 2c 24       	movdqa (%rsp),%xmm5
    2862:	66 0f ef c0          	pxor   %xmm0,%xmm0
    2866:	0f 11 84 24 d8 00 00 	movups %xmm0,0xd8(%rsp)
    286d:	00 
    286e:	48 89 84 24 d0 00 00 	mov    %rax,0xd0(%rsp)
    2875:	00 
    2876:	0f 11 ac 24 e8 00 00 	movups %xmm5,0xe8(%rsp)
    287d:	00 
    287e:	eb 8e                	jmp    280e <MAIN__+0x46e>
    2880:	48 8d 3d 35 3b 00 00 	lea    0x3b35(%rip),%rdi        # 63bc <_IO_stdin_used+0x3bc>
    2887:	e8 24 30 00 00       	call   58b0 <timer_stop_>
    288c:	48 8d 3d 29 3b 00 00 	lea    0x3b29(%rip),%rdi        # 63bc <_IO_stdin_used+0x3bc>
    2893:	e8 48 30 00 00       	call   58e0 <timer_read_>
    2898:	48 8d 05 a5 37 00 00 	lea    0x37a5(%rip),%rax        # 6044 <_IO_stdin_used+0x44>
    289f:	48 89 ef             	mov    %rbp,%rdi
    28a2:	4c 89 a4 24 d8 00 00 	mov    %r12,0xd8(%rsp)
    28a9:	00 
    28aa:	48 89 84 24 20 01 00 	mov    %rax,0x120(%rsp)
    28b1:	00 
    28b2:	48 8b 05 7f 3b 00 00 	mov    0x3b7f(%rip),%rax        # 6438 <options.51.0+0x58>
    28b9:	f2 0f 11 04 24       	movsd  %xmm0,(%rsp)
    28be:	f2 0f 11 44 24 60    	movsd  %xmm0,0x60(%rsp)
    28c4:	48 89 84 24 d0 00 00 	mov    %rax,0xd0(%rsp)
    28cb:	00 
    28cc:	c7 84 24 e0 00 00 00 	movl   $0x15e,0xe0(%rsp)
    28d3:	5e 01 00 00 
    28d7:	48 c7 84 24 28 01 00 	movq   $0x19,0x128(%rsp)
    28de:	00 19 00 00 00 
    28e3:	e8 08 e9 ff ff       	call   11f0 <_gfortran_st_write@plt>
    28e8:	48 89 ef             	mov    %rbp,%rdi
    28eb:	e8 a0 e8 ff ff       	call   1190 <_gfortran_st_write_done@plt>
    28f0:	f2 0f 10 44 24 68    	movsd  0x68(%rsp),%xmm0
    28f6:	f2 0f 5c 05 42 3b 00 	subsd  0x3b42(%rip),%xmm0        # 6440 <options.51.0+0x60>
    28fd:	00 
    28fe:	66 0f 54 05 0a 3b 00 	andpd  0x3b0a(%rip),%xmm0        # 6410 <options.51.0+0x30>
    2905:	00 
    2906:	f2 0f 5e 05 32 3b 00 	divsd  0x3b32(%rip),%xmm0        # 6440 <options.51.0+0x60>
    290d:	00 
    290e:	66 0f 2e c0          	ucomisd %xmm0,%xmm0
    2912:	f2 0f 11 44 24 48    	movsd  %xmm0,0x48(%rsp)
    2918:	7a 12                	jp     292c <MAIN__+0x58c>
    291a:	f2 0f 10 0d 2e 3b 00 	movsd  0x3b2e(%rip),%xmm1        # 6450 <options.51.0+0x70>
    2921:	00 
    2922:	66 0f 2f c8          	comisd %xmm0,%xmm1
    2926:	0f 83 14 05 00 00    	jae    2e40 <MAIN__+0xaa0>
    292c:	48 8d 05 7b 37 00 00 	lea    0x377b(%rip),%rax        # 60ae <_IO_stdin_used+0xae>
    2933:	48 89 ef             	mov    %rbp,%rdi
    2936:	c7 44 24 44 00 00 00 	movl   $0x0,0x44(%rsp)
    293d:	00 
    293e:	48 89 84 24 20 01 00 	mov    %rax,0x120(%rsp)
    2945:	00 
    2946:	48 8b 05 eb 3a 00 00 	mov    0x3aeb(%rip),%rax        # 6438 <options.51.0+0x58>
    294d:	4c 89 a4 24 d8 00 00 	mov    %r12,0xd8(%rsp)
    2954:	00 
    2955:	48 89 84 24 d0 00 00 	mov    %rax,0xd0(%rsp)
    295c:	00 
    295d:	c7 84 24 e0 00 00 00 	movl   $0x170,0xe0(%rsp)
    2964:	70 01 00 00 
    2968:	48 c7 84 24 28 01 00 	movq   $0x18,0x128(%rsp)
    296f:	00 18 00 00 00 
    2974:	e8 77 e8 ff ff       	call   11f0 <_gfortran_st_write@plt>
    2979:	48 89 ef             	mov    %rbp,%rdi
    297c:	e8 0f e8 ff ff       	call   1190 <_gfortran_st_write_done@plt>
    2981:	48 8d 05 00 39 00 00 	lea    0x3900(%rip),%rax        # 6288 <_IO_stdin_used+0x288>
    2988:	48 89 ef             	mov    %rbp,%rdi
    298b:	4c 89 a4 24 d8 00 00 	mov    %r12,0xd8(%rsp)
    2992:	00 
    2993:	48 89 84 24 20 01 00 	mov    %rax,0x120(%rsp)
    299a:	00 
    299b:	48 8b 05 96 3a 00 00 	mov    0x3a96(%rip),%rax        # 6438 <options.51.0+0x58>
    29a2:	c7 84 24 e0 00 00 00 	movl   $0x171,0xe0(%rsp)
    29a9:	71 01 00 00 
    29ad:	48 89 84 24 d0 00 00 	mov    %rax,0xd0(%rsp)
    29b4:	00 
    29b5:	48 c7 84 24 28 01 00 	movq   $0x21,0x128(%rsp)
    29bc:	00 21 00 00 00 
    29c1:	e8 2a e8 ff ff       	call   11f0 <_gfortran_st_write@plt>
    29c6:	48 8b 74 24 20       	mov    0x20(%rsp),%rsi
    29cb:	ba 08 00 00 00       	mov    $0x8,%edx
    29d0:	48 89 ef             	mov    %rbp,%rdi
    29d3:	e8 58 e6 ff ff       	call   1030 <_gfortran_transfer_real_write@plt>
    29d8:	48 89 ef             	mov    %rbp,%rdi
    29db:	e8 b0 e7 ff ff       	call   1190 <_gfortran_st_write_done@plt>
    29e0:	48 8d 05 c9 38 00 00 	lea    0x38c9(%rip),%rax        # 62b0 <_IO_stdin_used+0x2b0>
    29e7:	48 89 ef             	mov    %rbp,%rdi
    29ea:	4c 89 a4 24 d8 00 00 	mov    %r12,0xd8(%rsp)
    29f1:	00 
    29f2:	48 89 84 24 20 01 00 	mov    %rax,0x120(%rsp)
    29f9:	00 
    29fa:	48 8b 05 37 3a 00 00 	mov    0x3a37(%rip),%rax        # 6438 <options.51.0+0x58>
    2a01:	c7 84 24 e0 00 00 00 	movl   $0x172,0xe0(%rsp)
    2a08:	72 01 00 00 
    2a0c:	48 c7 84 24 28 01 00 	movq   $0x21,0x128(%rsp)
    2a13:	00 21 00 00 00 
    2a18:	48 89 84 24 d0 00 00 	mov    %rax,0xd0(%rsp)
    2a1f:	00 
    2a20:	e8 cb e7 ff ff       	call   11f0 <_gfortran_st_write@plt>
    2a25:	48 8d 74 24 70       	lea    0x70(%rsp),%rsi
    2a2a:	ba 08 00 00 00       	mov    $0x8,%edx
    2a2f:	48 89 ef             	mov    %rbp,%rdi
    2a32:	e8 f9 e5 ff ff       	call   1030 <_gfortran_transfer_real_write@plt>
    2a37:	48 89 ef             	mov    %rbp,%rdi
    2a3a:	e8 51 e7 ff ff       	call   1190 <_gfortran_st_write_done@plt>
    2a3f:	f2 0f 10 34 24       	movsd  (%rsp),%xmm6
    2a44:	66 0f ef ed          	pxor   %xmm5,%xmm5
    2a48:	66 0f 2e f5          	ucomisd %xmm5,%xmm6
    2a4c:	0f 8a e7 00 00 00    	jp     2b39 <MAIN__+0x799>
    2a52:	66 0f ef c0          	pxor   %xmm0,%xmm0
    2a56:	0f 85 dd 00 00 00    	jne    2b39 <MAIN__+0x799>
    2a5c:	f2 0f 11 44 24 50    	movsd  %xmm0,0x50(%rsp)
    2a62:	48 8d 74 24 3b       	lea    0x3b(%rsp),%rsi
    2a67:	48 8d 05 5c 36 00 00 	lea    0x365c(%rip),%rax        # 60ca <_IO_stdin_used+0xca>
    2a6e:	48 83 ec 08          	sub    $0x8,%rsp
    2a72:	6a 06                	push   $0x6
    2a74:	4c 8d 05 49 39 00 00 	lea    0x3949(%rip),%r8        # 63c4 <_IO_stdin_used+0x3c4>
    2a7b:	4c 8d 0d 36 39 00 00 	lea    0x3936(%rip),%r9        # 63b8 <_IO_stdin_used+0x3b8>
    2a82:	6a 09                	push   $0x9
    2a84:	4c 89 c1             	mov    %r8,%rcx
    2a87:	48 8d 15 26 39 00 00 	lea    0x3926(%rip),%rdx        # 63b4 <_IO_stdin_used+0x3b4>
    2a8e:	48 8d 3d 32 36 00 00 	lea    0x3632(%rip),%rdi        # 60c7 <_IO_stdin_used+0xc7>
    2a95:	6a 0c                	push   $0xc
    2a97:	6a 06                	push   $0x6
    2a99:	6a 06                	push   $0x6
    2a9b:	6a 05                	push   $0x5
    2a9d:	6a 08                	push   $0x8
    2a9f:	6a 0b                	push   $0xb
    2aa1:	6a 05                	push   $0x5
    2aa3:	6a 18                	push   $0x18
    2aa5:	6a 01                	push   $0x1
    2aa7:	6a 02                	push   $0x2
    2aa9:	50                   	push   %rax
    2aaa:	48 8d 05 20 36 00 00 	lea    0x3620(%rip),%rax        # 60d1 <_IO_stdin_used+0xd1>
    2ab1:	50                   	push   %rax
    2ab2:	48 8d 05 22 36 00 00 	lea    0x3622(%rip),%rax        # 60db <_IO_stdin_used+0xdb>
    2ab9:	50                   	push   %rax
    2aba:	48 8d 05 27 36 00 00 	lea    0x3627(%rip),%rax        # 60e8 <_IO_stdin_used+0xe8>
    2ac1:	50                   	push   %rax
    2ac2:	50                   	push   %rax
    2ac3:	48 8d 05 25 36 00 00 	lea    0x3625(%rip),%rax        # 60ef <_IO_stdin_used+0xef>
    2aca:	50                   	push   %rax
    2acb:	48 8d 05 23 36 00 00 	lea    0x3623(%rip),%rax        # 60f5 <_IO_stdin_used+0xf5>
    2ad2:	50                   	push   %rax
    2ad3:	48 8d 05 24 36 00 00 	lea    0x3624(%rip),%rax        # 60fe <_IO_stdin_used+0xfe>
    2ada:	50                   	push   %rax
    2adb:	48 8d 05 28 36 00 00 	lea    0x3628(%rip),%rax        # 610a <_IO_stdin_used+0x10a>
    2ae2:	50                   	push   %rax
    2ae3:	48 8d 84 24 f4 00 00 	lea    0xf4(%rsp),%rax
    2aea:	00 
    2aeb:	50                   	push   %rax
    2aec:	48 8d 05 1d 36 00 00 	lea    0x361d(%rip),%rax        # 6110 <_IO_stdin_used+0x110>
    2af3:	50                   	push   %rax
    2af4:	48 8d 84 24 10 01 00 	lea    0x110(%rsp),%rax
    2afb:	00 
    2afc:	50                   	push   %rax
    2afd:	4c 8d b4 24 28 01 00 	lea    0x128(%rsp),%r14
    2b04:	00 
    2b05:	41 56                	push   %r14
    2b07:	e8 04 23 00 00       	call   4e10 <print_results_>
    2b0c:	8b 05 0e 76 00 00    	mov    0x760e(%rip),%eax        # a120 <__cg_data_MOD_timeron>
    2b12:	48 81 c4 d0 00 00 00 	add    $0xd0,%rsp
    2b19:	85 c0                	test   %eax,%eax
    2b1b:	75 78                	jne    2b95 <MAIN__+0x7f5>
    2b1d:	48 8b 7c 24 28       	mov    0x28(%rsp),%rdi
    2b22:	e8 89 e5 ff ff       	call   10b0 <_gfortran_ieee_procedure_exit@plt>
    2b27:	48 81 c4 e8 02 00 00 	add    $0x2e8,%rsp
    2b2e:	5b                   	pop    %rbx
    2b2f:	5d                   	pop    %rbp
    2b30:	41 5c                	pop    %r12
    2b32:	41 5d                	pop    %r13
    2b34:	41 5e                	pop    %r14
    2b36:	41 5f                	pop    %r15
    2b38:	c3                   	ret    
    2b39:	f2 0f 10 05 17 39 00 	movsd  0x3917(%rip),%xmm0        # 6458 <options.51.0+0x78>
    2b40:	00 
    2b41:	f2 0f 5e 04 24       	divsd  (%rsp),%xmm0
    2b46:	e9 11 ff ff ff       	jmp    2a5c <MAIN__+0x6bc>
    2b4b:	48 b8 69 6e 69 74 20 	movabs $0x2020202074696e69,%rax
    2b52:	20 20 20 
    2b55:	48 8d 35 ce 34 00 00 	lea    0x34ce(%rip),%rsi        # 602a <_IO_stdin_used+0x2a>
    2b5c:	b9 07 00 00 00       	mov    $0x7,%ecx
    2b61:	48 89 84 24 80 00 00 	mov    %rax,0x80(%rsp)
    2b68:	00 
    2b69:	48 8d 84 24 88 00 00 	lea    0x88(%rsp),%rax
    2b70:	00 
    2b71:	48 89 c7             	mov    %rax,%rdi
    2b74:	48 b8 63 6f 6e 6a 67 	movabs $0x202064676a6e6f63,%rax
    2b7b:	64 20 20 
    2b7e:	f3 a4                	rep movsb %ds:(%rsi),%es:(%rdi)
    2b80:	c6 84 24 8f 00 00 00 	movb   $0x20,0x8f(%rsp)
    2b87:	20 
    2b88:	48 89 84 24 90 00 00 	mov    %rax,0x90(%rsp)
    2b8f:	00 
    2b90:	e9 8d f8 ff ff       	jmp    2422 <MAIN__+0x82>
    2b95:	48 8d 3d 20 38 00 00 	lea    0x3820(%rip),%rdi        # 63bc <_IO_stdin_used+0x3bc>
    2b9c:	e8 3f 2d 00 00       	call   58e0 <timer_read_>
    2ba1:	66 0f ef ed          	pxor   %xmm5,%xmm5
    2ba5:	66 0f 2e c5          	ucomisd %xmm5,%xmm0
    2ba9:	f2 0f 11 44 24 10    	movsd  %xmm0,0x10(%rsp)
    2baf:	7a 10                	jp     2bc1 <MAIN__+0x821>
    2bb1:	75 0e                	jne    2bc1 <MAIN__+0x821>
    2bb3:	f2 0f 10 3d 45 38 00 	movsd  0x3845(%rip),%xmm7        # 6400 <options.51.0+0x20>
    2bba:	00 
    2bbb:	f2 0f 11 7c 24 10    	movsd  %xmm7,0x10(%rsp)
    2bc1:	48 8d 05 61 35 00 00 	lea    0x3561(%rip),%rax        # 6129 <_IO_stdin_used+0x129>
    2bc8:	48 89 ef             	mov    %rbp,%rdi
    2bcb:	4c 89 a4 24 d8 00 00 	mov    %r12,0xd8(%rsp)
    2bd2:	00 
    2bd3:	48 8d 9c 24 80 00 00 	lea    0x80(%rsp),%rbx
    2bda:	00 
    2bdb:	48 89 84 24 20 01 00 	mov    %rax,0x120(%rsp)
    2be2:	00 
    2be3:	48 8b 05 4e 38 00 00 	mov    0x384e(%rip),%rax        # 6438 <options.51.0+0x58>
    2bea:	c7 84 24 e0 00 00 00 	movl   $0x19e,0xe0(%rsp)
    2bf1:	9e 01 00 00 
    2bf5:	48 89 84 24 d0 00 00 	mov    %rax,0xd0(%rsp)
    2bfc:	00 
    2bfd:	48 c7 84 24 28 01 00 	movq   $0x1b,0x128(%rsp)
    2c04:	00 1b 00 00 00 
    2c09:	e8 e2 e5 ff ff       	call   11f0 <_gfortran_st_write@plt>
    2c0e:	48 89 ef             	mov    %rbp,%rdi
    2c11:	e8 7a e5 ff ff       	call   1190 <_gfortran_st_write_done@plt>
    2c16:	c7 44 24 3c 01 00 00 	movl   $0x1,0x3c(%rsp)
    2c1d:	00 
    2c1e:	66 90                	xchg   %ax,%ax
    2c20:	4c 89 ef             	mov    %r13,%rdi
    2c23:	e8 b8 2c 00 00       	call   58e0 <timer_read_>
    2c28:	44 8b 7c 24 3c       	mov    0x3c(%rsp),%r15d
    2c2d:	f2 0f 11 44 24 60    	movsd  %xmm0,0x60(%rsp)
    2c33:	41 83 ff 01          	cmp    $0x1,%r15d
    2c37:	0f 84 d3 00 00 00    	je     2d10 <MAIN__+0x970>
    2c3d:	48 8d 05 94 36 00 00 	lea    0x3694(%rip),%rax        # 62d8 <_IO_stdin_used+0x2d8>
    2c44:	48 89 ef             	mov    %rbp,%rdi
    2c47:	f2 0f 11 04 24       	movsd  %xmm0,(%rsp)
    2c4c:	48 89 84 24 20 01 00 	mov    %rax,0x120(%rsp)
    2c53:	00 
    2c54:	48 8b 05 dd 37 00 00 	mov    0x37dd(%rip),%rax        # 6438 <options.51.0+0x58>
    2c5b:	4c 89 a4 24 d8 00 00 	mov    %r12,0xd8(%rsp)
    2c62:	00 
    2c63:	48 89 84 24 d0 00 00 	mov    %rax,0xd0(%rsp)
    2c6a:	00 
    2c6b:	c7 84 24 e0 00 00 00 	movl   $0x1a5,0xe0(%rsp)
    2c72:	a5 01 00 00 
    2c76:	48 c7 84 24 28 01 00 	movq   $0x20,0x128(%rsp)
    2c7d:	00 20 00 00 00 
    2c82:	e8 69 e5 ff ff       	call   11f0 <_gfortran_st_write@plt>
    2c87:	49 63 c7             	movslq %r15d,%rax
    2c8a:	ba 08 00 00 00       	mov    $0x8,%edx
    2c8f:	48 89 ef             	mov    %rbp,%rdi
    2c92:	48 8d 74 c3 f8       	lea    -0x8(%rbx,%rax,8),%rsi
    2c97:	e8 54 e4 ff ff       	call   10f0 <_gfortran_transfer_character_write@plt>
    2c9c:	ba 08 00 00 00       	mov    $0x8,%edx
    2ca1:	4c 89 f6             	mov    %r14,%rsi
    2ca4:	48 89 ef             	mov    %rbp,%rdi
    2ca7:	e8 84 e3 ff ff       	call   1030 <_gfortran_transfer_real_write@plt>
    2cac:	f2 0f 10 04 24       	movsd  (%rsp),%xmm0
    2cb1:	48 8b 74 24 18       	mov    0x18(%rsp),%rsi
    2cb6:	48 89 ef             	mov    %rbp,%rdi
    2cb9:	f2 0f 10 0d 9f 37 00 	movsd  0x379f(%rip),%xmm1        # 6460 <options.51.0+0x80>
    2cc0:	00 
    2cc1:	ba 08 00 00 00       	mov    $0x8,%edx
    2cc6:	f2 0f 59 c8          	mulsd  %xmm0,%xmm1
    2cca:	f2 0f 5e 4c 24 10    	divsd  0x10(%rsp),%xmm1
    2cd0:	f2 0f 11 4c 24 78    	movsd  %xmm1,0x78(%rsp)
    2cd6:	e8 55 e3 ff ff       	call   1030 <_gfortran_transfer_real_write@plt>
    2cdb:	48 89 ef             	mov    %rbp,%rdi
    2cde:	e8 ad e4 ff ff       	call   1190 <_gfortran_st_write_done@plt>
    2ce3:	41 83 ff 03          	cmp    $0x3,%r15d
    2ce7:	f2 0f 10 04 24       	movsd  (%rsp),%xmm0
    2cec:	0f 84 98 00 00 00    	je     2d8a <MAIN__+0x9ea>
    2cf2:	41 83 c7 01          	add    $0x1,%r15d
    2cf6:	44 89 7c 24 3c       	mov    %r15d,0x3c(%rsp)
    2cfb:	41 83 ff 03          	cmp    $0x3,%r15d
    2cff:	0f 8e 1b ff ff ff    	jle    2c20 <MAIN__+0x880>
    2d05:	e9 13 fe ff ff       	jmp    2b1d <MAIN__+0x77d>
    2d0a:	66 0f 1f 44 00 00    	nopw   0x0(%rax,%rax,1)
    2d10:	48 8d 05 c1 35 00 00 	lea    0x35c1(%rip),%rax        # 62d8 <_IO_stdin_used+0x2d8>
    2d17:	48 89 ef             	mov    %rbp,%rdi
    2d1a:	4c 89 a4 24 d8 00 00 	mov    %r12,0xd8(%rsp)
    2d21:	00 
    2d22:	48 89 84 24 20 01 00 	mov    %rax,0x120(%rsp)
    2d29:	00 
    2d2a:	48 8b 05 07 37 00 00 	mov    0x3707(%rip),%rax        # 6438 <options.51.0+0x58>
    2d31:	c7 84 24 e0 00 00 00 	movl   $0x1a3,0xe0(%rsp)
    2d38:	a3 01 00 00 
    2d3c:	48 89 84 24 d0 00 00 	mov    %rax,0xd0(%rsp)
    2d43:	00 
    2d44:	48 c7 84 24 28 01 00 	movq   $0x20,0x128(%rsp)
    2d4b:	00 20 00 00 00 
    2d50:	e8 9b e4 ff ff       	call   11f0 <_gfortran_st_write@plt>
    2d55:	ba 08 00 00 00       	mov    $0x8,%edx
    2d5a:	48 89 de             	mov    %rbx,%rsi
    2d5d:	48 89 ef             	mov    %rbp,%rdi
    2d60:	e8 8b e3 ff ff       	call   10f0 <_gfortran_transfer_character_write@plt>
    2d65:	ba 08 00 00 00       	mov    $0x8,%edx
    2d6a:	4c 89 f6             	mov    %r14,%rsi
    2d6d:	48 89 ef             	mov    %rbp,%rdi
    2d70:	e8 bb e2 ff ff       	call   1030 <_gfortran_transfer_real_write@plt>
    2d75:	48 89 ef             	mov    %rbp,%rdi
    2d78:	e8 13 e4 ff ff       	call   1190 <_gfortran_st_write_done@plt>
    2d7d:	c7 44 24 3c 02 00 00 	movl   $0x2,0x3c(%rsp)
    2d84:	00 
    2d85:	e9 96 fe ff ff       	jmp    2c20 <MAIN__+0x880>
    2d8a:	f2 0f 10 4c 24 10    	movsd  0x10(%rsp),%xmm1
    2d90:	48 8d 05 69 35 00 00 	lea    0x3569(%rip),%rax        # 6300 <_IO_stdin_used+0x300>
    2d97:	48 89 ef             	mov    %rbp,%rdi
    2d9a:	4c 89 a4 24 d8 00 00 	mov    %r12,0xd8(%rsp)
    2da1:	00 
    2da2:	48 89 84 24 20 01 00 	mov    %rax,0x120(%rsp)
    2da9:	00 
    2daa:	48 8b 05 87 36 00 00 	mov    0x3687(%rip),%rax        # 6438 <options.51.0+0x58>
    2db1:	c7 84 24 e0 00 00 00 	movl   $0x1a8,0xe0(%rsp)
    2db8:	a8 01 00 00 
    2dbc:	f2 0f 5c c8          	subsd  %xmm0,%xmm1
    2dc0:	48 89 84 24 d0 00 00 	mov    %rax,0xd0(%rsp)
    2dc7:	00 
    2dc8:	48 c7 84 24 28 01 00 	movq   $0x28,0x128(%rsp)
    2dcf:	00 28 00 00 00 
    2dd4:	f2 0f 11 4c 24 60    	movsd  %xmm1,0x60(%rsp)
    2dda:	f2 0f 11 0c 24       	movsd  %xmm1,(%rsp)
    2ddf:	e8 0c e4 ff ff       	call   11f0 <_gfortran_st_write@plt>
    2de4:	48 89 ef             	mov    %rbp,%rdi
    2de7:	ba 04 00 00 00       	mov    $0x4,%edx
    2dec:	48 8d 35 52 33 00 00 	lea    0x3352(%rip),%rsi        # 6145 <_IO_stdin_used+0x145>
    2df3:	e8 f8 e2 ff ff       	call   10f0 <_gfortran_transfer_character_write@plt>
    2df8:	4c 89 f6             	mov    %r14,%rsi
    2dfb:	48 89 ef             	mov    %rbp,%rdi
    2dfe:	ba 08 00 00 00       	mov    $0x8,%edx
    2e03:	e8 28 e2 ff ff       	call   1030 <_gfortran_transfer_real_write@plt>
    2e08:	48 8b 74 24 18       	mov    0x18(%rsp),%rsi
    2e0d:	f2 0f 10 0c 24       	movsd  (%rsp),%xmm1
    2e12:	48 89 ef             	mov    %rbp,%rdi
    2e15:	f2 0f 59 0d 43 36 00 	mulsd  0x3643(%rip),%xmm1        # 6460 <options.51.0+0x80>
    2e1c:	00 
    2e1d:	ba 08 00 00 00       	mov    $0x8,%edx
    2e22:	f2 0f 5e 4c 24 10    	divsd  0x10(%rsp),%xmm1
    2e28:	f2 0f 11 4c 24 78    	movsd  %xmm1,0x78(%rsp)
    2e2e:	e8 fd e1 ff ff       	call   1030 <_gfortran_transfer_real_write@plt>
    2e33:	48 89 ef             	mov    %rbp,%rdi
    2e36:	e8 55 e3 ff ff       	call   1190 <_gfortran_st_write_done@plt>
    2e3b:	e9 dd fc ff ff       	jmp    2b1d <MAIN__+0x77d>
    2e40:	48 8d 05 17 32 00 00 	lea    0x3217(%rip),%rax        # 605e <_IO_stdin_used+0x5e>
    2e47:	48 89 ef             	mov    %rbp,%rdi
    2e4a:	c7 44 24 44 01 00 00 	movl   $0x1,0x44(%rsp)
    2e51:	00 
    2e52:	48 89 84 24 20 01 00 	mov    %rax,0x120(%rsp)
    2e59:	00 
    2e5a:	48 8b 05 d7 35 00 00 	mov    0x35d7(%rip),%rax        # 6438 <options.51.0+0x58>
    2e61:	4c 89 a4 24 d8 00 00 	mov    %r12,0xd8(%rsp)
    2e68:	00 
    2e69:	48 89 84 24 d0 00 00 	mov    %rax,0xd0(%rsp)
    2e70:	00 
    2e71:	c7 84 24 e0 00 00 00 	movl   $0x168,0xe0(%rsp)
    2e78:	68 01 00 00 
    2e7c:	48 c7 84 24 28 01 00 	movq   $0x1d,0x128(%rsp)
    2e83:	00 1d 00 00 00 
    2e88:	e8 63 e3 ff ff       	call   11f0 <_gfortran_st_write@plt>
    2e8d:	48 89 ef             	mov    %rbp,%rdi
    2e90:	e8 fb e2 ff ff       	call   1190 <_gfortran_st_write_done@plt>
    2e95:	48 8d 05 e0 31 00 00 	lea    0x31e0(%rip),%rax        # 607c <_IO_stdin_used+0x7c>
    2e9c:	48 89 ef             	mov    %rbp,%rdi
    2e9f:	4c 89 a4 24 d8 00 00 	mov    %r12,0xd8(%rsp)
    2ea6:	00 
    2ea7:	48 89 84 24 20 01 00 	mov    %rax,0x120(%rsp)
    2eae:	00 
    2eaf:	48 8b 05 82 35 00 00 	mov    0x3582(%rip),%rax        # 6438 <options.51.0+0x58>
    2eb6:	c7 84 24 e0 00 00 00 	movl   $0x169,0xe0(%rsp)
    2ebd:	69 01 00 00 
    2ec1:	48 89 84 24 d0 00 00 	mov    %rax,0xd0(%rsp)
    2ec8:	00 
    2ec9:	48 c7 84 24 28 01 00 	movq   $0x18,0x128(%rsp)
    2ed0:	00 18 00 00 00 
    2ed5:	e8 16 e3 ff ff       	call   11f0 <_gfortran_st_write@plt>
    2eda:	48 8b 74 24 20       	mov    0x20(%rsp),%rsi
    2edf:	ba 08 00 00 00       	mov    $0x8,%edx
    2ee4:	48 89 ef             	mov    %rbp,%rdi
    2ee7:	e8 44 e1 ff ff       	call   1030 <_gfortran_transfer_real_write@plt>
    2eec:	48 89 ef             	mov    %rbp,%rdi
    2eef:	e8 9c e2 ff ff       	call   1190 <_gfortran_st_write_done@plt>
    2ef4:	48 8d 05 9a 31 00 00 	lea    0x319a(%rip),%rax        # 6095 <_IO_stdin_used+0x95>
    2efb:	48 89 ef             	mov    %rbp,%rdi
    2efe:	4c 89 a4 24 d8 00 00 	mov    %r12,0xd8(%rsp)
    2f05:	00 
    2f06:	48 89 84 24 20 01 00 	mov    %rax,0x120(%rsp)
    2f0d:	00 
    2f0e:	48 8b 05 23 35 00 00 	mov    0x3523(%rip),%rax        # 6438 <options.51.0+0x58>
    2f15:	c7 84 24 e0 00 00 00 	movl   $0x16a,0xe0(%rsp)
    2f1c:	6a 01 00 00 
    2f20:	48 c7 84 24 28 01 00 	movq   $0x18,0x128(%rsp)
    2f27:	00 18 00 00 00 
    2f2c:	48 89 84 24 d0 00 00 	mov    %rax,0xd0(%rsp)
    2f33:	00 
    2f34:	e8 b7 e2 ff ff       	call   11f0 <_gfortran_st_write@plt>
    2f39:	48 8d 74 24 48       	lea    0x48(%rsp),%rsi
    2f3e:	e9 e7 fa ff ff       	jmp    2a2a <MAIN__+0x68a>
    2f43:	66 66 2e 0f 1f 84 00 	data16 cs nopw 0x0(%rax,%rax,1)
    2f4a:	00 00 00 00 
    2f4e:	66 90                	xchg   %ax,%ax

0000000000002f50 <conj_grad_>:
    2f50:	53                   	push   %rbx
    2f51:	66 0f ef c0          	pxor   %xmm0,%xmm0
    2f55:	48 89 fb             	mov    %rdi,%rbx
    2f58:	31 c9                	xor    %ecx,%ecx
    2f5a:	31 d2                	xor    %edx,%edx
    2f5c:	48 8d 3d ed e3 ff ff 	lea    -0x1c13(%rip),%rdi        # 1350 <conj_grad_._omp_fn.0>
    2f63:	48 83 ec 20          	sub    $0x20,%rsp
    2f67:	48 89 e6             	mov    %rsp,%rsi
    2f6a:	0f 29 04 24          	movaps %xmm0,(%rsp)
    2f6e:	0f 29 44 24 10       	movaps %xmm0,0x10(%rsp)
    2f73:	e8 08 e2 ff ff       	call   1180 <GOMP_parallel@plt>
    2f78:	f2 0f 10 04 24       	movsd  (%rsp),%xmm0
    2f7d:	f2 0f 51 c0          	sqrtsd %xmm0,%xmm0
    2f81:	f2 0f 11 03          	movsd  %xmm0,(%rbx)
    2f85:	48 83 c4 20          	add    $0x20,%rsp
    2f89:	5b                   	pop    %rbx
    2f8a:	c3                   	ret    
    2f8b:	0f 1f 44 00 00       	nopl   0x0(%rax,%rax,1)

0000000000002f90 <sparse_>:
    2f90:	41 57                	push   %r15
    2f92:	41 56                	push   %r14
    2f94:	41 55                	push   %r13
    2f96:	41 54                	push   %r12
    2f98:	55                   	push   %rbp
    2f99:	53                   	push   %rbx
    2f9a:	48 81 ec a8 02 00 00 	sub    $0x2a8,%rsp
    2fa1:	41 8b 01             	mov    (%r9),%eax
    2fa4:	44 8b 29             	mov    (%rcx),%r13d
    2fa7:	48 89 54 24 20       	mov    %rdx,0x20(%rsp)
    2fac:	48 8b 94 24 f8 02 00 	mov    0x2f8(%rsp),%rdx
    2fb3:	00 
    2fb4:	83 c0 01             	add    $0x1,%eax
    2fb7:	48 89 7c 24 70       	mov    %rdi,0x70(%rsp)
    2fbc:	4c 8b bc 24 08 03 00 	mov    0x308(%rsp),%r15
    2fc3:	00 
    2fc4:	48 63 d8             	movslq %eax,%rbx
    2fc7:	31 c0                	xor    %eax,%eax
    2fc9:	48 89 74 24 78       	mov    %rsi,0x78(%rsp)
    2fce:	4c 8b b4 24 10 03 00 	mov    0x310(%rsp),%r14
    2fd5:	00 
    2fd6:	48 85 db             	test   %rbx,%rbx
    2fd9:	48 89 4c 24 10       	mov    %rcx,0x10(%rsp)
    2fde:	48 0f 49 c3          	cmovns %rbx,%rax
    2fe2:	4c 89 44 24 08       	mov    %r8,0x8(%rsp)
    2fe7:	48 89 44 24 40       	mov    %rax,0x40(%rsp)
    2fec:	48 8b 84 24 00 03 00 	mov    0x300(%rsp),%rax
    2ff3:	00 
    2ff4:	8b 00                	mov    (%rax),%eax
    2ff6:	2b 02                	sub    (%rdx),%eax
    2ff8:	83 c0 01             	add    $0x1,%eax
    2ffb:	89 44 24 6c          	mov    %eax,0x6c(%rsp)
    2fff:	48 c7 c0 e8 fb ff ff 	mov    $0xfffffffffffffbe8,%rax
    3006:	64 8b 18             	mov    %fs:(%rax),%ebx
    3009:	48 c7 c0 ec fb ff ff 	mov    $0xfffffffffffffbec,%rax
    3010:	64 8b 28             	mov    %fs:(%rax),%ebp
    3013:	44 8d 63 01          	lea    0x1(%rbx),%r12d
    3017:	39 eb                	cmp    %ebp,%ebx
    3019:	7f 1f                	jg     303a <sparse_+0xaa>
    301b:	89 e8                	mov    %ebp,%eax
    301d:	48 8b 7c 24 20       	mov    0x20(%rsp),%rdi
    3022:	31 f6                	xor    %esi,%esi
    3024:	29 d8                	sub    %ebx,%eax
    3026:	48 8d 14 85 04 00 00 	lea    0x4(,%rax,4),%rdx
    302d:	00 
    302e:	48 63 c3             	movslq %ebx,%rax
    3031:	48 8d 3c 87          	lea    (%rdi,%rax,4),%rdi
    3035:	e8 16 e0 ff ff       	call   1050 <memset@plt>
    303a:	c7 84 24 88 00 00 00 	movl   $0x1,0x88(%rsp)
    3041:	01 00 00 00 
    3045:	45 85 ed             	test   %r13d,%r13d
    3048:	0f 8e 99 00 00 00    	jle    30e7 <sparse_+0x157>
    304e:	41 8d 45 ff          	lea    -0x1(%r13),%eax
    3052:	4c 8b 84 24 e0 02 00 	mov    0x2e0(%rsp),%r8
    3059:	00 
    305a:	44 89 6c 24 28       	mov    %r13d,0x28(%rsp)
    305f:	48 c7 c7 ff ff ff ff 	mov    $0xffffffffffffffff,%rdi
    3066:	4c 8b 6c 24 20       	mov    0x20(%rsp),%r13
    306b:	4d 8d 5c 80 04       	lea    0x4(%r8,%rax,4),%r11
    3070:	48 8b 84 24 e8 02 00 	mov    0x2e8(%rsp),%rax
    3077:	00 
    3078:	4c 8d 48 04          	lea    0x4(%rax),%r9
    307c:	4c 8d 50 08          	lea    0x8(%rax),%r10
    3080:	41 8b 30             	mov    (%r8),%esi
    3083:	85 f6                	test   %esi,%esi
    3085:	0f 8e 01 0a 00 00    	jle    3a8c <sparse_+0xafc>
    308b:	8d 56 ff             	lea    -0x1(%rsi),%edx
    308e:	49 8d 04 b9          	lea    (%r9,%rdi,4),%rax
    3092:	48 01 fa             	add    %rdi,%rdx
    3095:	49 8d 0c 92          	lea    (%r10,%rdx,4),%rcx
    3099:	0f 1f 80 00 00 00 00 	nopl   0x0(%rax)
    30a0:	8b 10                	mov    (%rax),%edx
    30a2:	39 d5                	cmp    %edx,%ebp
    30a4:	7c 0f                	jl     30b5 <sparse_+0x125>
    30a6:	39 d3                	cmp    %edx,%ebx
    30a8:	7f 0b                	jg     30b5 <sparse_+0x125>
    30aa:	83 c2 01             	add    $0x1,%edx
    30ad:	48 63 d2             	movslq %edx,%rdx
    30b0:	41 01 74 95 fc       	add    %esi,-0x4(%r13,%rdx,4)
    30b5:	48 83 c0 04          	add    $0x4,%rax
    30b9:	48 39 c8             	cmp    %rcx,%rax
    30bc:	75 e2                	jne    30a0 <sparse_+0x110>
    30be:	83 c6 01             	add    $0x1,%esi
    30c1:	49 83 c0 04          	add    $0x4,%r8
    30c5:	48 03 7c 24 40       	add    0x40(%rsp),%rdi
    30ca:	4d 39 d8             	cmp    %r11,%r8
    30cd:	75 b1                	jne    3080 <sparse_+0xf0>
    30cf:	44 8b 6c 24 28       	mov    0x28(%rsp),%r13d
    30d4:	89 b4 24 8c 00 00 00 	mov    %esi,0x8c(%rsp)
    30db:	41 83 c5 01          	add    $0x1,%r13d
    30df:	44 89 ac 24 88 00 00 	mov    %r13d,0x88(%rsp)
    30e6:	00 
    30e7:	48 c7 c0 e4 fb ff ff 	mov    $0xfffffffffffffbe4,%rax
    30ee:	83 c3 02             	add    $0x2,%ebx
    30f1:	64 48 63 08          	movslq %fs:(%rax),%rcx
    30f5:	85 c9                	test   %ecx,%ecx
    30f7:	75 16                	jne    310f <sparse_+0x17f>
    30f9:	48 8b 44 24 20       	mov    0x20(%rsp),%rax
    30fe:	bb 02 00 00 00       	mov    $0x2,%ebx
    3103:	41 bc 01 00 00 00    	mov    $0x1,%r12d
    3109:	c7 00 01 00 00 00    	movl   $0x1,(%rax)
    310f:	44 39 e5             	cmp    %r12d,%ebp
    3112:	7c 25                	jl     3139 <sparse_+0x1a9>
    3114:	48 8b 74 24 20       	mov    0x20(%rsp),%rsi
    3119:	48 63 c3             	movslq %ebx,%rax
    311c:	83 c3 01             	add    $0x1,%ebx
    311f:	8b 54 86 f8          	mov    -0x8(%rsi,%rax,4),%edx
    3123:	48 63 c3             	movslq %ebx,%rax
    3126:	03 54 86 f8          	add    -0x8(%rsi,%rax,4),%edx
    312a:	89 54 86 f8          	mov    %edx,-0x8(%rsi,%rax,4)
    312e:	48 83 c0 01          	add    $0x1,%rax
    3132:	8d 78 fe             	lea    -0x2(%rax),%edi
    3135:	39 fd                	cmp    %edi,%ebp
    3137:	7d ed                	jge    3126 <sparse_+0x196>
    3139:	48 c7 c0 e0 fb ff ff 	mov    $0xfffffffffffffbe0,%rax
    3140:	64 3b 08             	cmp    %fs:(%rax),%ecx
    3143:	7d 15                	jge    315a <sparse_+0x1ca>
    3145:	48 8b 5c 24 20       	mov    0x20(%rsp),%rbx
    314a:	48 63 c5             	movslq %ebp,%rax
    314d:	48 8d 15 ec 5e 00 00 	lea    0x5eec(%rip),%rdx        # 9040 <__tinfo_MOD_last_n>
    3154:	8b 04 83             	mov    (%rbx,%rax,4),%eax
    3157:	89 04 8a             	mov    %eax,(%rdx,%rcx,4)
    315a:	e8 d1 df ff ff       	call   1130 <GOMP_barrier@plt>
    315f:	48 c7 c0 e4 fb ff ff 	mov    $0xfffffffffffffbe4,%rax
    3166:	64 8b 08             	mov    %fs:(%rax),%ecx
    3169:	48 c7 c0 e0 fb ff ff 	mov    $0xfffffffffffffbe0,%rax
    3170:	64 3b 08             	cmp    %fs:(%rax),%ecx
    3173:	0f 8d 2c 01 00 00    	jge    32a5 <sparse_+0x315>
    3179:	c7 84 24 88 00 00 00 	movl   $0x0,0x88(%rsp)
    3180:	00 00 00 00 
    3184:	85 c9                	test   %ecx,%ecx
    3186:	0f 8e 19 01 00 00    	jle    32a5 <sparse_+0x315>
    318c:	8d 41 ff             	lea    -0x1(%rcx),%eax
    318f:	83 f8 02             	cmp    $0x2,%eax
    3192:	0f 86 88 0a 00 00    	jbe    3c20 <sparse_+0xc90>
    3198:	89 c8                	mov    %ecx,%eax
    319a:	48 8d 15 9f 5e 00 00 	lea    0x5e9f(%rip),%rdx        # 9040 <__tinfo_MOD_last_n>
    31a1:	66 0f ef c0          	pxor   %xmm0,%xmm0
    31a5:	c1 e8 02             	shr    $0x2,%eax
    31a8:	48 8d 7a 10          	lea    0x10(%rdx),%rdi
    31ac:	48 89 d6             	mov    %rdx,%rsi
    31af:	83 e8 01             	sub    $0x1,%eax
    31b2:	48 c1 e0 04          	shl    $0x4,%rax
    31b6:	48 01 f8             	add    %rdi,%rax
    31b9:	f3 0f 6f 3e          	movdqu (%rsi),%xmm7
    31bd:	48 83 c6 10          	add    $0x10,%rsi
    31c1:	66 0f fe c7          	paddd  %xmm7,%xmm0
    31c5:	48 39 c6             	cmp    %rax,%rsi
    31c8:	75 ef                	jne    31b9 <sparse_+0x229>
    31ca:	66 0f 6f c8          	movdqa %xmm0,%xmm1
    31ce:	89 ce                	mov    %ecx,%esi
    31d0:	66 0f 73 d9 08       	psrldq $0x8,%xmm1
    31d5:	83 e6 fc             	and    $0xfffffffc,%esi
    31d8:	66 0f fe c1          	paddd  %xmm1,%xmm0
    31dc:	66 0f 6f c8          	movdqa %xmm0,%xmm1
    31e0:	66 0f 73 d9 04       	psrldq $0x4,%xmm1
    31e5:	66 0f fe c1          	paddd  %xmm1,%xmm0
    31e9:	66 0f 7e c0          	movd   %xmm0,%eax
    31ed:	f6 c1 03             	test   $0x3,%cl
    31f0:	74 20                	je     3212 <sparse_+0x282>
    31f2:	48 63 fe             	movslq %esi,%rdi
    31f5:	03 04 ba             	add    (%rdx,%rdi,4),%eax
    31f8:	8d 7e 01             	lea    0x1(%rsi),%edi
    31fb:	39 f9                	cmp    %edi,%ecx
    31fd:	7e 13                	jle    3212 <sparse_+0x282>
    31ff:	48 63 ff             	movslq %edi,%rdi
    3202:	83 c6 02             	add    $0x2,%esi
    3205:	03 04 ba             	add    (%rdx,%rdi,4),%eax
    3208:	39 f1                	cmp    %esi,%ecx
    320a:	7e 06                	jle    3212 <sparse_+0x282>
    320c:	48 63 f6             	movslq %esi,%rsi
    320f:	03 04 b2             	add    (%rdx,%rsi,4),%eax
    3212:	89 8c 24 88 00 00 00 	mov    %ecx,0x88(%rsp)
    3219:	85 c0                	test   %eax,%eax
    321b:	0f 8e 84 00 00 00    	jle    32a5 <sparse_+0x315>
    3221:	8d 55 01             	lea    0x1(%rbp),%edx
    3224:	41 39 d4             	cmp    %edx,%r12d
    3227:	7f 7c                	jg     32a5 <sparse_+0x315>
    3229:	89 ea                	mov    %ebp,%edx
    322b:	44 29 e2             	sub    %r12d,%edx
    322e:	8d 7a 02             	lea    0x2(%rdx),%edi
    3231:	83 c2 01             	add    $0x1,%edx
    3234:	83 fa 02             	cmp    $0x2,%edx
    3237:	76 4e                	jbe    3287 <sparse_+0x2f7>
    3239:	48 8b 5c 24 20       	mov    0x20(%rsp),%rbx
    323e:	49 63 d4             	movslq %r12d,%rdx
    3241:	66 0f 6e f8          	movd   %eax,%xmm7
    3245:	66 0f 70 cf 00       	pshufd $0x0,%xmm7,%xmm1
    324a:	48 8d 4c 93 fc       	lea    -0x4(%rbx,%rdx,4),%rcx
    324f:	89 fa                	mov    %edi,%edx
    3251:	c1 ea 02             	shr    $0x2,%edx
    3254:	8d 72 ff             	lea    -0x1(%rdx),%esi
    3257:	48 8d 51 10          	lea    0x10(%rcx),%rdx
    325b:	48 c1 e6 04          	shl    $0x4,%rsi
    325f:	48 01 d6             	add    %rdx,%rsi
    3262:	eb 04                	jmp    3268 <sparse_+0x2d8>
    3264:	48 83 c2 10          	add    $0x10,%rdx
    3268:	f3 0f 6f 01          	movdqu (%rcx),%xmm0
    326c:	66 0f fe c1          	paddd  %xmm1,%xmm0
    3270:	0f 11 01             	movups %xmm0,(%rcx)
    3273:	48 89 d1             	mov    %rdx,%rcx
    3276:	48 39 f2             	cmp    %rsi,%rdx
    3279:	75 e9                	jne    3264 <sparse_+0x2d4>
    327b:	89 fa                	mov    %edi,%edx
    327d:	83 e2 fc             	and    $0xfffffffc,%edx
    3280:	41 01 d4             	add    %edx,%r12d
    3283:	39 d7                	cmp    %edx,%edi
    3285:	74 1e                	je     32a5 <sparse_+0x315>
    3287:	48 8b 5c 24 20       	mov    0x20(%rsp),%rbx
    328c:	49 63 d4             	movslq %r12d,%rdx
    328f:	48 8d 14 93          	lea    (%rbx,%rdx,4),%rdx
    3293:	01 42 fc             	add    %eax,-0x4(%rdx)
    3296:	44 39 e5             	cmp    %r12d,%ebp
    3299:	7c 0a                	jl     32a5 <sparse_+0x315>
    329b:	01 02                	add    %eax,(%rdx)
    329d:	44 39 e5             	cmp    %r12d,%ebp
    32a0:	7e 03                	jle    32a5 <sparse_+0x315>
    32a2:	01 42 04             	add    %eax,0x4(%rdx)
    32a5:	e8 86 de ff ff       	call   1130 <GOMP_barrier@plt>
    32aa:	48 8b 5c 24 20       	mov    0x20(%rsp),%rbx
    32af:	48 63 44 24 6c       	movslq 0x6c(%rsp),%rax
    32b4:	8b 04 83             	mov    (%rbx,%rax,4),%eax
    32b7:	48 8b 5c 24 08       	mov    0x8(%rsp),%rbx
    32bc:	83 e8 01             	sub    $0x1,%eax
    32bf:	89 84 24 8c 00 00 00 	mov    %eax,0x8c(%rsp)
    32c6:	3b 03                	cmp    (%rbx),%eax
    32c8:	0f 8f 97 08 00 00    	jg     3b65 <sparse_+0xbd5>
    32ce:	48 c7 c0 e8 fb ff ff 	mov    $0xfffffffffffffbe8,%rax
    32d5:	48 c7 c3 ec fb ff ff 	mov    $0xfffffffffffffbec,%rbx
    32dc:	4c 8b ac 24 18 03 00 	mov    0x318(%rsp),%r13
    32e3:	00 
    32e4:	64 48 63 28          	movslq %fs:(%rax),%rbp
    32e8:	89 6c 24 2c          	mov    %ebp,0x2c(%rsp)
    32ec:	64 8b 1b             	mov    %fs:(%rbx),%ebx
    32ef:	89 5c 24 08          	mov    %ebx,0x8(%rsp)
    32f3:	39 dd                	cmp    %ebx,%ebp
    32f5:	7f 57                	jg     334e <sparse_+0x3be>
    32f7:	48 8b 44 24 20       	mov    0x20(%rsp),%rax
    32fc:	48 63 54 a8 fc       	movslq -0x4(%rax,%rbp,4),%rdx
    3301:	8b 04 a8             	mov    (%rax,%rbp,4),%eax
    3304:	39 d0                	cmp    %edx,%eax
    3306:	7e 33                	jle    333b <sparse_+0x3ab>
    3308:	83 e8 01             	sub    $0x1,%eax
    330b:	4c 8d 62 ff          	lea    -0x1(%rdx),%r12
    330f:	31 f6                	xor    %esi,%esi
    3311:	29 d0                	sub    %edx,%eax
    3313:	4b 8d 3c e7          	lea    (%r15,%r12,8),%rdi
    3317:	48 8d 58 01          	lea    0x1(%rax),%rbx
    331b:	48 8d 14 dd 00 00 00 	lea    0x0(,%rbx,8),%rdx
    3322:	00 
    3323:	e8 28 dd ff ff       	call   1050 <memset@plt>
    3328:	48 8d 14 9d 00 00 00 	lea    0x0(,%rbx,4),%rdx
    332f:	00 
    3330:	4b 8d 3c a6          	lea    (%r14,%r12,4),%rdi
    3334:	31 f6                	xor    %esi,%esi
    3336:	e8 15 dd ff ff       	call   1050 <memset@plt>
    333b:	41 c7 44 ad fc 00 00 	movl   $0x0,-0x4(%r13,%rbp,4)
    3342:	00 00 
    3344:	48 83 c5 01          	add    $0x1,%rbp
    3348:	39 6c 24 08          	cmp    %ebp,0x8(%rsp)
    334c:	7d a9                	jge    32f7 <sparse_+0x367>
    334e:	48 8b 84 24 20 03 00 	mov    0x320(%rsp),%rax
    3355:	00 
    3356:	66 0f ef c0          	pxor   %xmm0,%xmm0
    335a:	f2 0f 10 0d 9e 30 00 	movsd  0x309e(%rip),%xmm1        # 6400 <options.51.0+0x20>
    3361:	00 
    3362:	f2 0f 10 18          	movsd  (%rax),%xmm3
    3366:	48 8b 44 24 10       	mov    0x10(%rsp),%rax
    336b:	8b 18                	mov    (%rax),%ebx
    336d:	f2 0f 11 5c 24 10    	movsd  %xmm3,0x10(%rsp)
    3373:	f2 0f 2a c3          	cvtsi2sd %ebx,%xmm0
    3377:	89 5c 24 68          	mov    %ebx,0x68(%rsp)
    337b:	f2 0f 5e c8          	divsd  %xmm0,%xmm1
    337f:	66 0f 28 c3          	movapd %xmm3,%xmm0
    3383:	e8 78 de ff ff       	call   1200 <pow@plt>
    3388:	85 db                	test   %ebx,%ebx
    338a:	f2 0f 10 5c 24 10    	movsd  0x10(%rsp),%xmm3
    3390:	c7 84 24 88 00 00 00 	movl   $0x1,0x88(%rsp)
    3397:	01 00 00 00 
    339b:	66 0f 28 f0          	movapd %xmm0,%xmm6
    339f:	0f 8e 0f 02 00 00    	jle    35b4 <sparse_+0x624>
    33a5:	48 8b 05 54 30 00 00 	mov    0x3054(%rip),%rax        # 6400 <options.51.0+0x20>
    33ac:	c6 44 24 67 00       	movb   $0x0,0x67(%rsp)
    33b1:	66 0f ef e4          	pxor   %xmm4,%xmm4
    33b5:	48 c7 44 24 58 ff ff 	movq   $0xffffffffffffffff,0x58(%rsp)
    33bc:	ff ff 
    33be:	48 c7 44 24 38 02 00 	movq   $0x2,0x38(%rsp)
    33c5:	00 00 
    33c7:	66 48 0f 6e e8       	movq   %rax,%xmm5
    33cc:	48 8b 9c 24 e0 02 00 	mov    0x2e0(%rsp),%rbx
    33d3:	00 
    33d4:	48 8b 44 24 38       	mov    0x38(%rsp),%rax
    33d9:	44 8b 64 83 f8       	mov    -0x8(%rbx,%rax,4),%r12d
    33de:	45 85 e4             	test   %r12d,%r12d
    33e1:	0f 8e 41 07 00 00    	jle    3b28 <sparse_+0xb98>
    33e7:	48 8b b4 24 e8 02 00 	mov    0x2e8(%rsp),%rsi
    33ee:	00 
    33ef:	48 8b 5c 24 58       	mov    0x58(%rsp),%rbx
    33f4:	83 e8 01             	sub    $0x1,%eax
    33f7:	41 bd 01 00 00 00    	mov    $0x1,%r13d
    33fd:	89 44 24 54          	mov    %eax,0x54(%rsp)
    3401:	48 8d 2c 9e          	lea    (%rsi,%rbx,4),%rbp
    3405:	48 8b b4 24 f0 02 00 	mov    0x2f0(%rsp),%rsi
    340c:	00 
    340d:	48 8d 1c de          	lea    (%rsi,%rbx,8),%rbx
    3411:	48 89 5c 24 48       	mov    %rbx,0x48(%rsp)
    3416:	eb 18                	jmp    3430 <sparse_+0x4a0>
    3418:	0f 1f 84 00 00 00 00 	nopl   0x0(%rax,%rax,1)
    341f:	00 
    3420:	49 83 c5 01          	add    $0x1,%r13
    3424:	83 c3 01             	add    $0x1,%ebx
    3427:	45 39 ec             	cmp    %r13d,%r12d
    342a:	0f 8c 42 01 00 00    	jl     3572 <sparse_+0x5e2>
    3430:	44 89 6c 24 10       	mov    %r13d,0x10(%rsp)
    3435:	46 8b 54 ad 00       	mov    0x0(%rbp,%r13,4),%r10d
    343a:	44 89 eb             	mov    %r13d,%ebx
    343d:	44 39 54 24 08       	cmp    %r10d,0x8(%rsp)
    3442:	7c dc                	jl     3420 <sparse_+0x490>
    3444:	44 39 54 24 2c       	cmp    %r10d,0x2c(%rsp)
    3449:	7f d5                	jg     3420 <sparse_+0x490>
    344b:	48 8b 7c 24 20       	mov    0x20(%rsp),%rdi
    3450:	49 63 c2             	movslq %r10d,%rax
    3453:	48 8b 74 24 48       	mov    0x48(%rsp),%rsi
    3458:	44 89 6c 24 50       	mov    %r13d,0x50(%rsp)
    345d:	48 83 e8 01          	sub    $0x1,%rax
    3461:	4c 89 6c 24 30       	mov    %r13,0x30(%rsp)
    3466:	41 b9 01 00 00 00    	mov    $0x1,%r9d
    346c:	48 89 44 24 18       	mov    %rax,0x18(%rsp)
    3471:	44 8b 1c 87          	mov    (%rdi,%rax,4),%r11d
    3475:	41 8d 42 01          	lea    0x1(%r10),%eax
    3479:	48 89 f3             	mov    %rsi,%rbx
    347c:	f2 42 0f 10 14 ee    	movsd  (%rsi,%r13,8),%xmm2
    3482:	48 98                	cltq   
    3484:	44 8b 44 87 fc       	mov    -0x4(%rdi,%rax,4),%r8d
    3489:	f2 0f 59 d5          	mulsd  %xmm5,%xmm2
    348d:	41 8d 40 fe          	lea    -0x2(%r8),%eax
    3491:	89 44 24 28          	mov    %eax,0x28(%rsp)
    3495:	31 c0                	xor    %eax,%eax
    3497:	44 39 54 24 54       	cmp    %r10d,0x54(%rsp)
    349c:	0f 94 c0             	sete   %al
    349f:	41 89 c5             	mov    %eax,%r13d
    34a2:	66 0f 1f 44 00 00    	nopw   0x0(%rax,%rax,1)
    34a8:	f2 42 0f 10 04 cb    	movsd  (%rbx,%r9,8),%xmm0
    34ae:	42 8b 4c 8d 00       	mov    0x0(%rbp,%r9,4),%ecx
    34b3:	f2 0f 59 c2          	mulsd  %xmm2,%xmm0
    34b7:	41 39 ca             	cmp    %ecx,%r10d
    34ba:	75 15                	jne    34d1 <sparse_+0x541>
    34bc:	45 85 ed             	test   %r13d,%r13d
    34bf:	74 10                	je     34d1 <sparse_+0x541>
    34c1:	48 8b 84 24 28 03 00 	mov    0x328(%rsp),%rax
    34c8:	00 
    34c9:	f2 0f 58 c3          	addsd  %xmm3,%xmm0
    34cd:	f2 0f 5c 00          	subsd  (%rax),%xmm0
    34d1:	45 39 d8             	cmp    %r11d,%r8d
    34d4:	0f 8e bc 05 00 00    	jle    3a96 <sparse_+0xb06>
    34da:	49 63 c3             	movslq %r11d,%rax
    34dd:	eb 1e                	jmp    34fd <sparse_+0x56d>
    34df:	90                   	nop
    34e0:	85 d2                	test   %edx,%edx
    34e2:	0f 84 78 05 00 00    	je     3a60 <sparse_+0xad0>
    34e8:	39 ca                	cmp    %ecx,%edx
    34ea:	0f 84 80 05 00 00    	je     3a70 <sparse_+0xae0>
    34f0:	48 83 c0 01          	add    $0x1,%rax
    34f4:	41 39 c0             	cmp    %eax,%r8d
    34f7:	0f 8e 99 05 00 00    	jle    3a96 <sparse_+0xb06>
    34fd:	41 8b 54 86 fc       	mov    -0x4(%r14,%rax,4),%edx
    3502:	89 c6                	mov    %eax,%esi
    3504:	48 8d 78 ff          	lea    -0x1(%rax),%rdi
    3508:	39 ca                	cmp    %ecx,%edx
    350a:	7e d4                	jle    34e0 <sparse_+0x550>
    350c:	48 63 44 24 28       	movslq 0x28(%rsp),%rax
    3511:	39 f0                	cmp    %esi,%eax
    3513:	7c 25                	jl     353a <sparse_+0x5aa>
    3515:	0f 1f 00             	nopl   (%rax)
    3518:	41 8b 54 86 fc       	mov    -0x4(%r14,%rax,4),%edx
    351d:	85 d2                	test   %edx,%edx
    351f:	7e 11                	jle    3532 <sparse_+0x5a2>
    3521:	f2 41 0f 10 4c c7 f8 	movsd  -0x8(%r15,%rax,8),%xmm1
    3528:	41 89 14 86          	mov    %edx,(%r14,%rax,4)
    352c:	f2 41 0f 11 0c c7    	movsd  %xmm1,(%r15,%rax,8)
    3532:	48 83 e8 01          	sub    $0x1,%rax
    3536:	39 c6                	cmp    %eax,%esi
    3538:	7e de                	jle    3518 <sparse_+0x588>
    353a:	41 89 0c be          	mov    %ecx,(%r14,%rdi,4)
    353e:	66 0f 28 cc          	movapd %xmm4,%xmm1
    3542:	f2 0f 58 c1          	addsd  %xmm1,%xmm0
    3546:	49 83 c1 01          	add    $0x1,%r9
    354a:	f2 41 0f 11 04 ff    	movsd  %xmm0,(%r15,%rdi,8)
    3550:	45 39 cc             	cmp    %r9d,%r12d
    3553:	0f 8d 4f ff ff ff    	jge    34a8 <sparse_+0x518>
    3559:	4c 8b 6c 24 30       	mov    0x30(%rsp),%r13
    355e:	8b 5c 24 50          	mov    0x50(%rsp),%ebx
    3562:	49 83 c5 01          	add    $0x1,%r13
    3566:	83 c3 01             	add    $0x1,%ebx
    3569:	45 39 ec             	cmp    %r13d,%r12d
    356c:	0f 8d be fe ff ff    	jge    3430 <sparse_+0x4a0>
    3572:	48 8b 44 24 38       	mov    0x38(%rsp),%rax
    3577:	48 8b 7c 24 40       	mov    0x40(%rsp),%rdi
    357c:	f2 0f 59 ee          	mulsd  %xmm6,%xmm5
    3580:	c6 44 24 67 01       	movb   $0x1,0x67(%rsp)
    3585:	48 01 7c 24 58       	add    %rdi,0x58(%rsp)
    358a:	89 44 24 60          	mov    %eax,0x60(%rsp)
    358e:	89 c6                	mov    %eax,%esi
    3590:	48 83 c0 01          	add    $0x1,%rax
    3594:	48 89 44 24 38       	mov    %rax,0x38(%rsp)
    3599:	83 e8 01             	sub    $0x1,%eax
    359c:	39 44 24 68          	cmp    %eax,0x68(%rsp)
    35a0:	0f 8d 26 fe ff ff    	jge    33cc <sparse_+0x43c>
    35a6:	89 9c 24 8c 00 00 00 	mov    %ebx,0x8c(%rsp)
    35ad:	89 b4 24 88 00 00 00 	mov    %esi,0x88(%rsp)
    35b4:	e8 77 db ff ff       	call   1130 <GOMP_barrier@plt>
    35b9:	48 c7 c0 e8 fb ff ff 	mov    $0xfffffffffffffbe8,%rax
    35c0:	64 8b 30             	mov    %fs:(%rax),%esi
    35c3:	48 c7 c0 ec fb ff ff 	mov    $0xfffffffffffffbec,%rax
    35ca:	64 48 63 08          	movslq %fs:(%rax),%rcx
    35ce:	39 ce                	cmp    %ecx,%esi
    35d0:	7d 36                	jge    3608 <sparse_+0x678>
    35d2:	8d 51 ff             	lea    -0x1(%rcx),%edx
    35d5:	48 8b 9c 24 18 03 00 	mov    0x318(%rsp),%rbx
    35dc:	00 
    35dd:	4c 63 c6             	movslq %esi,%r8
    35e0:	29 f2                	sub    %esi,%edx
    35e2:	4a 8d 04 85 00 00 00 	lea    0x0(,%r8,4),%rax
    35e9:	00 
    35ea:	49 8d 54 10 01       	lea    0x1(%r8,%rdx,1),%rdx
    35ef:	8b 7c 03 fc          	mov    -0x4(%rbx,%rax,1),%edi
    35f3:	48 01 d8             	add    %rbx,%rax
    35f6:	48 8d 14 93          	lea    (%rbx,%rdx,4),%rdx
    35fa:	03 38                	add    (%rax),%edi
    35fc:	48 83 c0 04          	add    $0x4,%rax
    3600:	89 78 fc             	mov    %edi,-0x4(%rax)
    3603:	48 39 c2             	cmp    %rax,%rdx
    3606:	75 f2                	jne    35fa <sparse_+0x66a>
    3608:	48 c7 c0 e4 fb ff ff 	mov    $0xfffffffffffffbe4,%rax
    360f:	48 c7 c3 e0 fb ff ff 	mov    $0xfffffffffffffbe0,%rbx
    3616:	64 48 63 00          	movslq %fs:(%rax),%rax
    361a:	64 3b 03             	cmp    %fs:(%rbx),%eax
    361d:	7d 16                	jge    3635 <sparse_+0x6a5>
    361f:	48 8b 9c 24 18 03 00 	mov    0x318(%rsp),%rbx
    3626:	00 
    3627:	48 8d 15 12 5a 00 00 	lea    0x5a12(%rip),%rdx        # 9040 <__tinfo_MOD_last_n>
    362e:	8b 4c 8b fc          	mov    -0x4(%rbx,%rcx,4),%ecx
    3632:	89 0c 82             	mov    %ecx,(%rdx,%rax,4)
    3635:	e8 f6 da ff ff       	call   1130 <GOMP_barrier@plt>
    363a:	48 c7 c0 e4 fb ff ff 	mov    $0xfffffffffffffbe4,%rax
    3641:	64 8b 08             	mov    %fs:(%rax),%ecx
    3644:	48 c7 c0 e0 fb ff ff 	mov    $0xfffffffffffffbe0,%rax
    364b:	64 3b 08             	cmp    %fs:(%rax),%ecx
    364e:	0f 8d 3a 01 00 00    	jge    378e <sparse_+0x7fe>
    3654:	c7 84 24 88 00 00 00 	movl   $0x0,0x88(%rsp)
    365b:	00 00 00 00 
    365f:	85 c9                	test   %ecx,%ecx
    3661:	0f 8e 27 01 00 00    	jle    378e <sparse_+0x7fe>
    3667:	8d 41 ff             	lea    -0x1(%rcx),%eax
    366a:	83 f8 02             	cmp    $0x2,%eax
    366d:	0f 86 bd 05 00 00    	jbe    3c30 <sparse_+0xca0>
    3673:	89 c8                	mov    %ecx,%eax
    3675:	48 8d 15 c4 59 00 00 	lea    0x59c4(%rip),%rdx        # 9040 <__tinfo_MOD_last_n>
    367c:	66 0f ef c0          	pxor   %xmm0,%xmm0
    3680:	c1 e8 02             	shr    $0x2,%eax
    3683:	48 8d 7a 10          	lea    0x10(%rdx),%rdi
    3687:	48 89 d6             	mov    %rdx,%rsi
    368a:	83 e8 01             	sub    $0x1,%eax
    368d:	48 c1 e0 04          	shl    $0x4,%rax
    3691:	48 01 f8             	add    %rdi,%rax
    3694:	f3 0f 6f 36          	movdqu (%rsi),%xmm6
    3698:	48 83 c6 10          	add    $0x10,%rsi
    369c:	66 0f fe c6          	paddd  %xmm6,%xmm0
    36a0:	48 39 c6             	cmp    %rax,%rsi
    36a3:	75 ef                	jne    3694 <sparse_+0x704>
    36a5:	66 0f 6f c8          	movdqa %xmm0,%xmm1
    36a9:	89 ce                	mov    %ecx,%esi
    36ab:	66 0f 73 d9 08       	psrldq $0x8,%xmm1
    36b0:	83 e6 fc             	and    $0xfffffffc,%esi
    36b3:	66 0f fe c1          	paddd  %xmm1,%xmm0
    36b7:	66 0f 6f c8          	movdqa %xmm0,%xmm1
    36bb:	66 0f 73 d9 04       	psrldq $0x4,%xmm1
    36c0:	66 0f fe c1          	paddd  %xmm1,%xmm0
    36c4:	66 0f 7e c0          	movd   %xmm0,%eax
    36c8:	f6 c1 03             	test   $0x3,%cl
    36cb:	74 20                	je     36ed <sparse_+0x75d>
    36cd:	48 63 fe             	movslq %esi,%rdi
    36d0:	03 04 ba             	add    (%rdx,%rdi,4),%eax
    36d3:	8d 7e 01             	lea    0x1(%rsi),%edi
    36d6:	39 f9                	cmp    %edi,%ecx
    36d8:	7e 13                	jle    36ed <sparse_+0x75d>
    36da:	48 63 ff             	movslq %edi,%rdi
    36dd:	83 c6 02             	add    $0x2,%esi
    36e0:	03 04 ba             	add    (%rdx,%rdi,4),%eax
    36e3:	39 f1                	cmp    %esi,%ecx
    36e5:	7e 06                	jle    36ed <sparse_+0x75d>
    36e7:	48 63 f6             	movslq %esi,%rsi
    36ea:	03 04 b2             	add    (%rdx,%rsi,4),%eax
    36ed:	89 8c 24 88 00 00 00 	mov    %ecx,0x88(%rsp)
    36f4:	85 c0                	test   %eax,%eax
    36f6:	0f 8e 92 00 00 00    	jle    378e <sparse_+0x7fe>
    36fc:	48 c7 c3 e8 fb ff ff 	mov    $0xfffffffffffffbe8,%rbx
    3703:	64 8b 13             	mov    %fs:(%rbx),%edx
    3706:	48 c7 c3 ec fb ff ff 	mov    $0xfffffffffffffbec,%rbx
    370d:	64 8b 3b             	mov    %fs:(%rbx),%edi
    3710:	39 fa                	cmp    %edi,%edx
    3712:	7f 7a                	jg     378e <sparse_+0x7fe>
    3714:	89 f9                	mov    %edi,%ecx
    3716:	29 d1                	sub    %edx,%ecx
    3718:	44 8d 41 01          	lea    0x1(%rcx),%r8d
    371c:	83 f9 02             	cmp    $0x2,%ecx
    371f:	76 48                	jbe    3769 <sparse_+0x7d9>
    3721:	48 8b 9c 24 18 03 00 	mov    0x318(%rsp),%rbx
    3728:	00 
    3729:	48 63 ca             	movslq %edx,%rcx
    372c:	66 0f 6e f8          	movd   %eax,%xmm7
    3730:	66 0f 70 cf 00       	pshufd $0x0,%xmm7,%xmm1
    3735:	48 8d 74 8b fc       	lea    -0x4(%rbx,%rcx,4),%rsi
    373a:	44 89 c1             	mov    %r8d,%ecx
    373d:	c1 e9 02             	shr    $0x2,%ecx
    3740:	48 c1 e1 04          	shl    $0x4,%rcx
    3744:	48 01 f1             	add    %rsi,%rcx
    3747:	f3 0f 6f 06          	movdqu (%rsi),%xmm0
    374b:	48 83 c6 10          	add    $0x10,%rsi
    374f:	66 0f fe c1          	paddd  %xmm1,%xmm0
    3753:	0f 11 46 f0          	movups %xmm0,-0x10(%rsi)
    3757:	48 39 f1             	cmp    %rsi,%rcx
    375a:	75 eb                	jne    3747 <sparse_+0x7b7>
    375c:	44 89 c1             	mov    %r8d,%ecx
    375f:	83 e1 fc             	and    $0xfffffffc,%ecx
    3762:	01 ca                	add    %ecx,%edx
    3764:	41 39 c8             	cmp    %ecx,%r8d
    3767:	74 25                	je     378e <sparse_+0x7fe>
    3769:	48 8b 9c 24 18 03 00 	mov    0x318(%rsp),%rbx
    3770:	00 
    3771:	48 63 ca             	movslq %edx,%rcx
    3774:	8d 72 01             	lea    0x1(%rdx),%esi
    3777:	48 8d 0c 8b          	lea    (%rbx,%rcx,4),%rcx
    377b:	01 41 fc             	add    %eax,-0x4(%rcx)
    377e:	39 fe                	cmp    %edi,%esi
    3780:	7f 0c                	jg     378e <sparse_+0x7fe>
    3782:	83 c2 02             	add    $0x2,%edx
    3785:	01 01                	add    %eax,(%rcx)
    3787:	39 fa                	cmp    %edi,%edx
    3789:	7f 03                	jg     378e <sparse_+0x7fe>
    378b:	01 41 04             	add    %eax,0x4(%rcx)
    378e:	e8 9d d9 ff ff       	call   1130 <GOMP_barrier@plt>
    3793:	e8 c8 d8 ff ff       	call   1060 <omp_get_num_threads@plt>
    3798:	89 c3                	mov    %eax,%ebx
    379a:	e8 31 d9 ff ff       	call   10d0 <omp_get_thread_num@plt>
    379f:	89 c1                	mov    %eax,%ecx
    37a1:	8b 44 24 6c          	mov    0x6c(%rsp),%eax
    37a5:	99                   	cltd   
    37a6:	f7 fb                	idiv   %ebx
    37a8:	89 54 24 08          	mov    %edx,0x8(%rsp)
    37ac:	89 c3                	mov    %eax,%ebx
    37ae:	39 d1                	cmp    %edx,%ecx
    37b0:	0f 8c 98 03 00 00    	jl     3b4e <sparse_+0xbbe>
    37b6:	0f af cb             	imul   %ebx,%ecx
    37b9:	8b 44 24 08          	mov    0x8(%rsp),%eax
    37bd:	01 c8                	add    %ecx,%eax
    37bf:	89 4c 24 10          	mov    %ecx,0x10(%rsp)
    37c3:	8d 3c 03             	lea    (%rbx,%rax,1),%edi
    37c6:	89 44 24 2c          	mov    %eax,0x2c(%rsp)
    37ca:	89 7c 24 28          	mov    %edi,0x28(%rsp)
    37ce:	39 f8                	cmp    %edi,%eax
    37d0:	0f 8d 5c 03 00 00    	jge    3b32 <sparse_+0xba2>
    37d6:	8d 68 01             	lea    0x1(%rax),%ebp
    37d9:	83 fd 01             	cmp    $0x1,%ebp
    37dc:	0f 8f d6 00 00 00    	jg     38b8 <sparse_+0x928>
    37e2:	44 8d 44 2b ff       	lea    -0x1(%rbx,%rbp,1),%r8d
    37e7:	b8 01 00 00 00       	mov    $0x1,%eax
    37ec:	4d 89 f9             	mov    %r15,%r9
    37ef:	4c 63 ed             	movslq %ebp,%r13
    37f2:	45 85 c0             	test   %r8d,%r8d
    37f5:	4d 89 f7             	mov    %r14,%r15
    37f8:	41 89 de             	mov    %ebx,%r14d
    37fb:	44 0f 4f c0          	cmovg  %eax,%r8d
    37ff:	48 8b 44 24 20       	mov    0x20(%rsp),%rax
    3804:	44 89 6c 24 18       	mov    %r13d,0x18(%rsp)
    3809:	45 8d 55 01          	lea    0x1(%r13),%r10d
    380d:	42 8b 1c a8          	mov    (%rax,%r13,4),%ebx
    3811:	42 8b 4c a8 fc       	mov    -0x4(%rax,%r13,4),%ecx
    3816:	48 8b 84 24 18 03 00 	mov    0x318(%rsp),%rax
    381d:	00 
    381e:	42 2b 5c a8 fc       	sub    -0x4(%rax,%r13,4),%ebx
    3823:	83 fb 01             	cmp    $0x1,%ebx
    3826:	7e 66                	jle    388e <sparse_+0x8fe>
    3828:	4c 63 e1             	movslq %ecx,%r12
    382b:	48 8b 7c 24 70       	mov    0x70(%rsp),%rdi
    3830:	8d 6b ff             	lea    -0x1(%rbx),%ebp
    3833:	44 89 54 24 38       	mov    %r10d,0x38(%rsp)
    3838:	49 83 ec 01          	sub    $0x1,%r12
    383c:	48 8d 14 ed 00 00 00 	lea    0x0(,%rbp,8),%rdx
    3843:	00 
    3844:	89 4c 24 50          	mov    %ecx,0x50(%rsp)
    3848:	4b 8d 34 e1          	lea    (%r9,%r12,8),%rsi
    384c:	44 89 44 24 30       	mov    %r8d,0x30(%rsp)
    3851:	4c 89 8c 24 08 03 00 	mov    %r9,0x308(%rsp)
    3858:	00 
    3859:	e8 b2 d9 ff ff       	call   1210 <memcpy@plt>
    385e:	48 8b 7c 24 78       	mov    0x78(%rsp),%rdi
    3863:	4b 8d 34 a7          	lea    (%r15,%r12,4),%rsi
    3867:	48 8d 14 ad 00 00 00 	lea    0x0(,%rbp,4),%rdx
    386e:	00 
    386f:	e8 9c d9 ff ff       	call   1210 <memcpy@plt>
    3874:	8b 4c 24 50          	mov    0x50(%rsp),%ecx
    3878:	44 8b 54 24 38       	mov    0x38(%rsp),%r10d
    387d:	44 8b 44 24 30       	mov    0x30(%rsp),%r8d
    3882:	4c 8b 8c 24 08 03 00 	mov    0x308(%rsp),%r9
    3889:	00 
    388a:	8d 4c 0b ff          	lea    -0x1(%rbx,%rcx,1),%ecx
    388e:	49 83 c5 01          	add    $0x1,%r13
    3892:	45 39 e8             	cmp    %r13d,%r8d
    3895:	0f 8d 64 ff ff ff    	jge    37ff <sparse_+0x86f>
    389b:	44 89 f3             	mov    %r14d,%ebx
    389e:	8b 7c 24 28          	mov    0x28(%rsp),%edi
    38a2:	4d 89 fe             	mov    %r15,%r14
    38a5:	44 89 d5             	mov    %r10d,%ebp
    38a8:	41 89 cc             	mov    %ecx,%r12d
    38ab:	4d 89 cf             	mov    %r9,%r15
    38ae:	39 7c 24 18          	cmp    %edi,0x18(%rsp)
    38b2:	0f 8d b8 00 00 00    	jge    3970 <sparse_+0x9e0>
    38b8:	48 63 ed             	movslq %ebp,%rbp
    38bb:	4d 89 f8             	mov    %r15,%r8
    38be:	49 89 ec             	mov    %rbp,%r12
    38c1:	89 dd                	mov    %ebx,%ebp
    38c3:	48 8b 5c 24 20       	mov    0x20(%rsp),%rbx
    38c8:	48 8b bc 24 18 03 00 	mov    0x318(%rsp),%rdi
    38cf:	00 
    38d0:	42 8b 4c a3 fc       	mov    -0x4(%rbx,%r12,4),%ecx
    38d5:	42 8b 1c a3          	mov    (%rbx,%r12,4),%ebx
    38d9:	42 2b 5c a7 fc       	sub    -0x4(%rdi,%r12,4),%ebx
    38de:	89 c8                	mov    %ecx,%eax
    38e0:	42 2b 44 a7 f8       	sub    -0x8(%rdi,%r12,4),%eax
    38e5:	39 c3                	cmp    %eax,%ebx
    38e7:	7e 6f                	jle    3958 <sparse_+0x9c8>
    38e9:	29 c3                	sub    %eax,%ebx
    38eb:	48 98                	cltq   
    38ed:	4c 63 d1             	movslq %ecx,%r10
    38f0:	89 4c 24 50          	mov    %ecx,0x50(%rsp)
    38f4:	4c 8d 68 ff          	lea    -0x1(%rax),%r13
    38f8:	44 8d 7b ff          	lea    -0x1(%rbx),%r15d
    38fc:	48 8b 44 24 70       	mov    0x70(%rsp),%rax
    3901:	49 83 ea 01          	sub    $0x1,%r10
    3905:	49 83 c7 01          	add    $0x1,%r15
    3909:	4b 8d 34 d0          	lea    (%r8,%r10,8),%rsi
    390d:	4c 89 54 24 18       	mov    %r10,0x18(%rsp)
    3912:	4a 8d 3c e8          	lea    (%rax,%r13,8),%rdi
    3916:	4a 8d 14 fd 00 00 00 	lea    0x0(,%r15,8),%rdx
    391d:	00 
    391e:	4c 89 84 24 08 03 00 	mov    %r8,0x308(%rsp)
    3925:	00 
    3926:	e8 e5 d8 ff ff       	call   1210 <memcpy@plt>
    392b:	48 8b 44 24 78       	mov    0x78(%rsp),%rax
    3930:	4c 8b 54 24 18       	mov    0x18(%rsp),%r10
    3935:	4a 8d 14 bd 00 00 00 	lea    0x0(,%r15,4),%rdx
    393c:	00 
    393d:	4a 8d 3c a8          	lea    (%rax,%r13,4),%rdi
    3941:	4b 8d 34 96          	lea    (%r14,%r10,4),%rsi
    3945:	e8 c6 d8 ff ff       	call   1210 <memcpy@plt>
    394a:	8b 4c 24 50          	mov    0x50(%rsp),%ecx
    394e:	4c 8b 84 24 08 03 00 	mov    0x308(%rsp),%r8
    3955:	00 
    3956:	01 d9                	add    %ebx,%ecx
    3958:	49 83 c4 01          	add    $0x1,%r12
    395c:	41 8d 44 24 ff       	lea    -0x1(%r12),%eax
    3961:	39 44 24 28          	cmp    %eax,0x28(%rsp)
    3965:	0f 8f 58 ff ff ff    	jg     38c3 <sparse_+0x933>
    396b:	89 eb                	mov    %ebp,%ebx
    396d:	41 89 cc             	mov    %ecx,%r12d
    3970:	44 89 a4 24 8c 00 00 	mov    %r12d,0x8c(%rsp)
    3977:	00 
    3978:	e8 b3 d7 ff ff       	call   1130 <GOMP_barrier@plt>
    397d:	8b 44 24 2c          	mov    0x2c(%rsp),%eax
    3981:	8d 53 ff             	lea    -0x1(%rbx),%edx
    3984:	83 c0 02             	add    $0x2,%eax
    3987:	83 fa 02             	cmp    $0x2,%edx
    398a:	0f 86 ce 01 00 00    	jbe    3b5e <sparse_+0xbce>
    3990:	48 63 4c 24 10       	movslq 0x10(%rsp),%rcx
    3995:	48 63 54 24 08       	movslq 0x8(%rsp),%rdx
    399a:	48 8b 74 24 20       	mov    0x20(%rsp),%rsi
    399f:	48 8b bc 24 18 03 00 	mov    0x318(%rsp),%rdi
    39a6:	00 
    39a7:	48 8d 54 0a 01       	lea    0x1(%rdx,%rcx,1),%rdx
    39ac:	89 d9                	mov    %ebx,%ecx
    39ae:	48 c1 e2 02          	shl    $0x2,%rdx
    39b2:	c1 e9 02             	shr    $0x2,%ecx
    39b5:	48 01 d6             	add    %rdx,%rsi
    39b8:	48 8d 7c 17 fc       	lea    -0x4(%rdi,%rdx,1),%rdi
    39bd:	48 c1 e1 04          	shl    $0x4,%rcx
    39c1:	31 d2                	xor    %edx,%edx
    39c3:	f3 0f 6f 04 16       	movdqu (%rsi,%rdx,1),%xmm0
    39c8:	f3 0f 6f 34 17       	movdqu (%rdi,%rdx,1),%xmm6
    39cd:	66 0f fa c6          	psubd  %xmm6,%xmm0
    39d1:	0f 11 04 16          	movups %xmm0,(%rsi,%rdx,1)
    39d5:	48 83 c2 10          	add    $0x10,%rdx
    39d9:	48 39 d1             	cmp    %rdx,%rcx
    39dc:	75 e5                	jne    39c3 <sparse_+0xa33>
    39de:	89 da                	mov    %ebx,%edx
    39e0:	83 e2 fc             	and    $0xfffffffc,%edx
    39e3:	01 d0                	add    %edx,%eax
    39e5:	39 da                	cmp    %ebx,%edx
    39e7:	0f 84 4a 01 00 00    	je     3b37 <sparse_+0xba7>
    39ed:	29 d3                	sub    %edx,%ebx
    39ef:	83 fb 01             	cmp    $0x1,%ebx
    39f2:	74 48                	je     3a3c <sparse_+0xaac>
    39f4:	48 63 74 24 08       	movslq 0x8(%rsp),%rsi
    39f9:	48 63 4c 24 10       	movslq 0x10(%rsp),%rcx
    39fe:	48 8b 7c 24 20       	mov    0x20(%rsp),%rdi
    3a03:	48 01 f1             	add    %rsi,%rcx
    3a06:	48 8b b4 24 18 03 00 	mov    0x318(%rsp),%rsi
    3a0d:	00 
    3a0e:	48 8d 54 11 01       	lea    0x1(%rcx,%rdx,1),%rdx
    3a13:	48 c1 e2 02          	shl    $0x2,%rdx
    3a17:	48 8d 0c 17          	lea    (%rdi,%rdx,1),%rcx
    3a1b:	f3 0f 7e 4c 16 fc    	movq   -0x4(%rsi,%rdx,1),%xmm1
    3a21:	89 da                	mov    %ebx,%edx
    3a23:	f3 0f 7e 01          	movq   (%rcx),%xmm0
    3a27:	83 e2 fe             	and    $0xfffffffe,%edx
    3a2a:	01 d0                	add    %edx,%eax
    3a2c:	66 0f fa c1          	psubd  %xmm1,%xmm0
    3a30:	66 0f d6 01          	movq   %xmm0,(%rcx)
    3a34:	39 da                	cmp    %ebx,%edx
    3a36:	0f 84 fb 00 00 00    	je     3b37 <sparse_+0xba7>
    3a3c:	48 8b 9c 24 18 03 00 	mov    0x318(%rsp),%rbx
    3a43:	00 
    3a44:	48 98                	cltq   
    3a46:	8b 54 83 f8          	mov    -0x8(%rbx,%rax,4),%edx
    3a4a:	48 8b 5c 24 20       	mov    0x20(%rsp),%rbx
    3a4f:	29 54 83 fc          	sub    %edx,-0x4(%rbx,%rax,4)
    3a53:	e9 df 00 00 00       	jmp    3b37 <sparse_+0xba7>
    3a58:	0f 1f 84 00 00 00 00 	nopl   0x0(%rax,%rax,1)
    3a5f:	00 
    3a60:	41 89 0c be          	mov    %ecx,(%r14,%rdi,4)
    3a64:	f2 41 0f 10 0c ff    	movsd  (%r15,%rdi,8),%xmm1
    3a6a:	e9 d3 fa ff ff       	jmp    3542 <sparse_+0x5b2>
    3a6f:	90                   	nop
    3a70:	48 8b 84 24 18 03 00 	mov    0x318(%rsp),%rax
    3a77:	00 
    3a78:	48 8b 74 24 18       	mov    0x18(%rsp),%rsi
    3a7d:	f2 41 0f 10 0c ff    	movsd  (%r15,%rdi,8),%xmm1
    3a83:	83 04 b0 01          	addl   $0x1,(%rax,%rsi,4)
    3a87:	e9 b6 fa ff ff       	jmp    3542 <sparse_+0x5b2>
    3a8c:	be 01 00 00 00       	mov    $0x1,%esi
    3a91:	e9 2b f6 ff ff       	jmp    30c1 <sparse_+0x131>
    3a96:	8b 44 24 10          	mov    0x10(%rsp),%eax
    3a9a:	80 7c 24 67 00       	cmpb   $0x0,0x67(%rsp)
    3a9f:	89 84 24 8c 00 00 00 	mov    %eax,0x8c(%rsp)
    3aa6:	74 0b                	je     3ab3 <sparse_+0xb23>
    3aa8:	8b 44 24 60          	mov    0x60(%rsp),%eax
    3aac:	89 84 24 88 00 00 00 	mov    %eax,0x88(%rsp)
    3ab3:	48 8d 05 4a 25 00 00 	lea    0x254a(%rip),%rax        # 6004 <_IO_stdin_used+0x4>
    3aba:	48 8d ac 24 90 00 00 	lea    0x90(%rsp),%rbp
    3ac1:	00 
    3ac2:	c7 84 24 a0 00 00 00 	movl   $0x39b,0xa0(%rsp)
    3ac9:	9b 03 00 00 
    3acd:	48 89 84 24 98 00 00 	mov    %rax,0x98(%rsp)
    3ad4:	00 
    3ad5:	48 8b 05 6c 29 00 00 	mov    0x296c(%rip),%rax        # 6448 <options.51.0+0x68>
    3adc:	48 89 ef             	mov    %rbp,%rdi
    3adf:	48 89 84 24 90 00 00 	mov    %rax,0x90(%rsp)
    3ae6:	00 
    3ae7:	e8 04 d7 ff ff       	call   11f0 <_gfortran_st_write@plt>
    3aec:	ba 1c 00 00 00       	mov    $0x1c,%edx
    3af1:	48 8d 35 60 26 00 00 	lea    0x2660(%rip),%rsi        # 6158 <_IO_stdin_used+0x158>
    3af8:	48 89 ef             	mov    %rbp,%rdi
    3afb:	e8 f0 d5 ff ff       	call   10f0 <_gfortran_transfer_character_write@plt>
    3b00:	48 8d b4 24 88 00 00 	lea    0x88(%rsp),%rsi
    3b07:	00 
    3b08:	ba 04 00 00 00       	mov    $0x4,%edx
    3b0d:	48 89 ef             	mov    %rbp,%rdi
    3b10:	e8 ab d5 ff ff       	call   10c0 <_gfortran_transfer_integer_write@plt>
    3b15:	48 89 ef             	mov    %rbp,%rdi
    3b18:	e8 73 d6 ff ff       	call   1190 <_gfortran_st_write_done@plt>
    3b1d:	31 d2                	xor    %edx,%edx
    3b1f:	31 f6                	xor    %esi,%esi
    3b21:	31 ff                	xor    %edi,%edi
    3b23:	e8 18 d5 ff ff       	call   1040 <_gfortran_stop_string@plt>
    3b28:	bb 01 00 00 00       	mov    $0x1,%ebx
    3b2d:	e9 40 fa ff ff       	jmp    3572 <sparse_+0x5e2>
    3b32:	e8 f9 d5 ff ff       	call   1130 <GOMP_barrier@plt>
    3b37:	e8 f4 d5 ff ff       	call   1130 <GOMP_barrier@plt>
    3b3c:	48 81 c4 a8 02 00 00 	add    $0x2a8,%rsp
    3b43:	5b                   	pop    %rbx
    3b44:	5d                   	pop    %rbp
    3b45:	41 5c                	pop    %r12
    3b47:	41 5d                	pop    %r13
    3b49:	41 5e                	pop    %r14
    3b4b:	41 5f                	pop    %r15
    3b4d:	c3                   	ret    
    3b4e:	c7 44 24 08 00 00 00 	movl   $0x0,0x8(%rsp)
    3b55:	00 
    3b56:	83 c3 01             	add    $0x1,%ebx
    3b59:	e9 58 fc ff ff       	jmp    37b6 <sparse_+0x826>
    3b5e:	31 d2                	xor    %edx,%edx
    3b60:	e9 88 fe ff ff       	jmp    39ed <sparse_+0xa5d>
    3b65:	e8 66 d5 ff ff       	call   10d0 <omp_get_thread_num@plt>
    3b6a:	85 c0                	test   %eax,%eax
    3b6c:	75 af                	jne    3b1d <sparse_+0xb8d>
    3b6e:	48 8d ac 24 90 00 00 	lea    0x90(%rsp),%rbp
    3b75:	00 
    3b76:	48 8b 1d cb 28 00 00 	mov    0x28cb(%rip),%rbx        # 6448 <options.51.0+0x68>
    3b7d:	4c 8d 25 80 24 00 00 	lea    0x2480(%rip),%r12        # 6004 <_IO_stdin_used+0x4>
    3b84:	c7 84 24 a0 00 00 00 	movl   $0x356,0xa0(%rsp)
    3b8b:	56 03 00 00 
    3b8f:	48 89 ef             	mov    %rbp,%rdi
    3b92:	4c 89 a4 24 98 00 00 	mov    %r12,0x98(%rsp)
    3b99:	00 
    3b9a:	48 89 9c 24 90 00 00 	mov    %rbx,0x90(%rsp)
    3ba1:	00 
    3ba2:	e8 49 d6 ff ff       	call   11f0 <_gfortran_st_write@plt>
    3ba7:	ba 2c 00 00 00       	mov    $0x2c,%edx
    3bac:	48 8d 35 7d 27 00 00 	lea    0x277d(%rip),%rsi        # 6330 <_IO_stdin_used+0x330>
    3bb3:	48 89 ef             	mov    %rbp,%rdi
    3bb6:	e8 35 d5 ff ff       	call   10f0 <_gfortran_transfer_character_write@plt>
    3bbb:	48 89 ef             	mov    %rbp,%rdi
    3bbe:	e8 cd d5 ff ff       	call   1190 <_gfortran_st_write_done@plt>
    3bc3:	48 89 ef             	mov    %rbp,%rdi
    3bc6:	4c 89 a4 24 98 00 00 	mov    %r12,0x98(%rsp)
    3bcd:	00 
    3bce:	c7 84 24 a0 00 00 00 	movl   $0x357,0xa0(%rsp)
    3bd5:	57 03 00 00 
    3bd9:	48 89 9c 24 90 00 00 	mov    %rbx,0x90(%rsp)
    3be0:	00 
    3be1:	e8 0a d6 ff ff       	call   11f0 <_gfortran_st_write@plt>
    3be6:	ba 0d 00 00 00       	mov    $0xd,%edx
    3beb:	48 8d 35 58 25 00 00 	lea    0x2558(%rip),%rsi        # 614a <_IO_stdin_used+0x14a>
    3bf2:	48 89 ef             	mov    %rbp,%rdi
    3bf5:	e8 f6 d4 ff ff       	call   10f0 <_gfortran_transfer_character_write@plt>
    3bfa:	48 8d b4 24 8c 00 00 	lea    0x8c(%rsp),%rsi
    3c01:	00 
    3c02:	ba 04 00 00 00       	mov    $0x4,%edx
    3c07:	48 89 ef             	mov    %rbp,%rdi
    3c0a:	e8 b1 d4 ff ff       	call   10c0 <_gfortran_transfer_integer_write@plt>
    3c0f:	48 8b 74 24 08       	mov    0x8(%rsp),%rsi
    3c14:	ba 04 00 00 00       	mov    $0x4,%edx
    3c19:	e9 ef fe ff ff       	jmp    3b0d <sparse_+0xb7d>
    3c1e:	66 90                	xchg   %ax,%ax
    3c20:	31 c0                	xor    %eax,%eax
    3c22:	31 f6                	xor    %esi,%esi
    3c24:	48 8d 15 15 54 00 00 	lea    0x5415(%rip),%rdx        # 9040 <__tinfo_MOD_last_n>
    3c2b:	e9 c2 f5 ff ff       	jmp    31f2 <sparse_+0x262>
    3c30:	31 c0                	xor    %eax,%eax
    3c32:	31 f6                	xor    %esi,%esi
    3c34:	48 8d 15 05 54 00 00 	lea    0x5405(%rip),%rdx        # 9040 <__tinfo_MOD_last_n>
    3c3b:	e9 8d fa ff ff       	jmp    36cd <sparse_+0x73d>

0000000000003c40 <makea_>:
    3c40:	41 57                	push   %r15
    3c42:	41 bf 01 00 00 00    	mov    $0x1,%r15d
    3c48:	41 56                	push   %r14
    3c4a:	41 55                	push   %r13
    3c4c:	41 54                	push   %r12
    3c4e:	49 89 fc             	mov    %rdi,%r12
    3c51:	55                   	push   %rbp
    3c52:	53                   	push   %rbx
    3c53:	48 81 ec a8 02 00 00 	sub    $0x2a8,%rsp
    3c5a:	8b 07                	mov    (%rdi),%eax
    3c5c:	48 89 74 24 38       	mov    %rsi,0x38(%rsp)
    3c61:	48 89 54 24 40       	mov    %rdx,0x40(%rsp)
    3c66:	48 89 4c 24 48       	mov    %rcx,0x48(%rsp)
    3c6b:	4c 89 44 24 50       	mov    %r8,0x50(%rsp)
    3c70:	4c 89 4c 24 58       	mov    %r9,0x58(%rsp)
    3c75:	0f 1f 00             	nopl   (%rax)
    3c78:	45 01 ff             	add    %r15d,%r15d
    3c7b:	44 39 f8             	cmp    %r15d,%eax
    3c7e:	7f f8                	jg     3c78 <makea_+0x38>
    3c80:	48 c7 c3 e0 fb ff ff 	mov    $0xfffffffffffffbe0,%rbx
    3c87:	31 c0                	xor    %eax,%eax
    3c89:	64 c7 03 01 00 00 00 	movl   $0x1,%fs:(%rbx)
    3c90:	e8 8b d4 ff ff       	call   1120 <omp_get_num_threads_@plt>
    3c95:	48 c7 c5 e4 fb ff ff 	mov    $0xfffffffffffffbe4,%rbp
    3c9c:	64 89 03             	mov    %eax,%fs:(%rbx)
    3c9f:	31 c0                	xor    %eax,%eax
    3ca1:	64 c7 45 00 00 00 00 	movl   $0x0,%fs:0x0(%rbp)
    3ca8:	00 
    3ca9:	e8 12 d5 ff ff       	call   11c0 <omp_get_thread_num_@plt>
    3cae:	64 8b 3b             	mov    %fs:(%rbx),%edi
    3cb1:	64 89 45 00          	mov    %eax,%fs:0x0(%rbp)
    3cb5:	89 c1                	mov    %eax,%ecx
    3cb7:	81 ff 00 04 00 00    	cmp    $0x400,%edi
    3cbd:	7e 14                	jle    3cd3 <makea_+0x93>
    3cbf:	85 c0                	test   %eax,%eax
    3cc1:	0f 84 ce 04 00 00    	je     4195 <makea_+0x555>
    3cc7:	64 c7 03 00 04 00 00 	movl   $0x400,%fs:(%rbx)
    3cce:	bf 00 04 00 00       	mov    $0x400,%edi
    3cd3:	41 8b 34 24          	mov    (%r12),%esi
    3cd7:	8d 44 37 ff          	lea    -0x1(%rdi,%rsi,1),%eax
    3cdb:	99                   	cltd   
    3cdc:	f7 ff                	idiv   %edi
    3cde:	0f af c8             	imul   %eax,%ecx
    3ce1:	8d 51 01             	lea    0x1(%rcx),%edx
    3ce4:	48 c7 c1 e8 fb ff ff 	mov    $0xfffffffffffffbe8,%rcx
    3ceb:	64 89 11             	mov    %edx,%fs:(%rcx)
    3cee:	8d 54 02 ff          	lea    -0x1(%rdx,%rax,1),%edx
    3cf2:	48 c7 c0 ec fb ff ff 	mov    $0xfffffffffffffbec,%rax
    3cf9:	89 54 24 30          	mov    %edx,0x30(%rsp)
    3cfd:	39 d6                	cmp    %edx,%esi
    3cff:	0f 8c 54 04 00 00    	jl     4159 <makea_+0x519>
    3d05:	64 89 10             	mov    %edx,%fs:(%rax)
    3d08:	8b 44 24 30          	mov    0x30(%rsp),%eax
    3d0c:	85 c0                	test   %eax,%eax
    3d0e:	0f 8e a4 01 00 00    	jle    3eb8 <makea_+0x278>
    3d14:	48 8b 84 24 00 03 00 	mov    0x300(%rsp),%rax
    3d1b:	00 
    3d1c:	66 0f ef db          	pxor   %xmm3,%xmm3
    3d20:	48 c7 44 24 18 01 00 	movq   $0x1,0x18(%rsp)
    3d27:	00 00 
    3d29:	f2 41 0f 2a df       	cvtsi2sd %r15d,%xmm3
    3d2e:	49 c7 c5 f0 fb ff ff 	mov    $0xfffffffffffffbf0,%r13
    3d35:	64 48 8b 2c 25 00 00 	mov    %fs:0x0,%rbp
    3d3c:	00 00 
    3d3e:	48 89 44 24 28       	mov    %rax,0x28(%rsp)
    3d43:	48 8b 84 24 08 03 00 	mov    0x308(%rsp),%rax
    3d4a:	00 
    3d4b:	48 89 44 24 20       	mov    %rax,0x20(%rsp)
    3d50:	f2 0f 11 5c 24 10    	movsd  %xmm3,0x10(%rsp)
    3d56:	66 2e 0f 1f 84 00 00 	cs nopw 0x0(%rax,%rax,1)
    3d5d:	00 00 00 
    3d60:	8b 44 24 18          	mov    0x18(%rsp),%eax
    3d64:	48 c7 c3 f8 fb ff ff 	mov    $0xfffffffffffffbf8,%rbx
    3d6b:	45 31 ff             	xor    %r15d,%r15d
    3d6e:	89 44 24 34          	mov    %eax,0x34(%rsp)
    3d72:	48 01 eb             	add    %rbp,%rbx
    3d75:	eb 13                	jmp    3d8a <makea_+0x14a>
    3d77:	66 0f 1f 84 00 00 00 	nopw   0x0(%rax,%rax,1)
    3d7e:	00 00 
    3d80:	41 83 ff 0b          	cmp    $0xb,%r15d
    3d84:	0f 84 f6 00 00 00    	je     3e80 <makea_+0x240>
    3d8a:	4e 8d 74 2d 00       	lea    0x0(%rbp,%r13,1),%r14
    3d8f:	48 89 de             	mov    %rbx,%rsi
    3d92:	4c 89 f7             	mov    %r14,%rdi
    3d95:	e8 26 1a 00 00       	call   57c0 <randlc_>
    3d9a:	48 89 de             	mov    %rbx,%rsi
    3d9d:	4c 89 f7             	mov    %r14,%rdi
    3da0:	f2 0f 11 44 24 08    	movsd  %xmm0,0x8(%rsp)
    3da6:	e8 15 1a 00 00       	call   57c0 <randlc_>
    3dab:	f2 0f 59 44 24 10    	mulsd  0x10(%rsp),%xmm0
    3db1:	f2 0f 2c c0          	cvttsd2si %xmm0,%eax
    3db5:	83 c0 01             	add    $0x1,%eax
    3db8:	41 3b 04 24          	cmp    (%r12),%eax
    3dbc:	7f c2                	jg     3d80 <makea_+0x140>
    3dbe:	45 85 ff             	test   %r15d,%r15d
    3dc1:	0f 84 94 00 00 00    	je     3e5b <makea_+0x21b>
    3dc7:	39 44 24 60          	cmp    %eax,0x60(%rsp)
    3dcb:	74 b3                	je     3d80 <makea_+0x140>
    3dcd:	41 83 ff 01          	cmp    $0x1,%r15d
    3dd1:	0f 84 84 00 00 00    	je     3e5b <makea_+0x21b>
    3dd7:	39 44 24 64          	cmp    %eax,0x64(%rsp)
    3ddb:	74 a3                	je     3d80 <makea_+0x140>
    3ddd:	41 83 ff 02          	cmp    $0x2,%r15d
    3de1:	74 78                	je     3e5b <makea_+0x21b>
    3de3:	3b 44 24 68          	cmp    0x68(%rsp),%eax
    3de7:	74 97                	je     3d80 <makea_+0x140>
    3de9:	41 83 ff 03          	cmp    $0x3,%r15d
    3ded:	74 6c                	je     3e5b <makea_+0x21b>
    3def:	3b 44 24 6c          	cmp    0x6c(%rsp),%eax
    3df3:	74 8b                	je     3d80 <makea_+0x140>
    3df5:	41 83 ff 04          	cmp    $0x4,%r15d
    3df9:	74 60                	je     3e5b <makea_+0x21b>
    3dfb:	3b 44 24 70          	cmp    0x70(%rsp),%eax
    3dff:	0f 84 7b ff ff ff    	je     3d80 <makea_+0x140>
    3e05:	41 83 ff 05          	cmp    $0x5,%r15d
    3e09:	74 50                	je     3e5b <makea_+0x21b>
    3e0b:	39 44 24 74          	cmp    %eax,0x74(%rsp)
    3e0f:	0f 84 6b ff ff ff    	je     3d80 <makea_+0x140>
    3e15:	41 83 ff 06          	cmp    $0x6,%r15d
    3e19:	74 40                	je     3e5b <makea_+0x21b>
    3e1b:	39 44 24 78          	cmp    %eax,0x78(%rsp)
    3e1f:	0f 84 5b ff ff ff    	je     3d80 <makea_+0x140>
    3e25:	41 83 ff 07          	cmp    $0x7,%r15d
    3e29:	74 30                	je     3e5b <makea_+0x21b>
    3e2b:	39 44 24 7c          	cmp    %eax,0x7c(%rsp)
    3e2f:	0f 84 4b ff ff ff    	je     3d80 <makea_+0x140>
    3e35:	41 83 ff 08          	cmp    $0x8,%r15d
    3e39:	74 20                	je     3e5b <makea_+0x21b>
    3e3b:	3b 84 24 80 00 00 00 	cmp    0x80(%rsp),%eax
    3e42:	0f 84 38 ff ff ff    	je     3d80 <makea_+0x140>
    3e48:	41 83 ff 09          	cmp    $0x9,%r15d
    3e4c:	74 0d                	je     3e5b <makea_+0x21b>
    3e4e:	3b 84 24 84 00 00 00 	cmp    0x84(%rsp),%eax
    3e55:	0f 84 25 ff ff ff    	je     3d80 <makea_+0x140>
    3e5b:	f2 0f 10 54 24 08    	movsd  0x8(%rsp),%xmm2
    3e61:	49 63 d7             	movslq %r15d,%rdx
    3e64:	41 83 c7 01          	add    $0x1,%r15d
    3e68:	89 44 94 60          	mov    %eax,0x60(%rsp,%rdx,4)
    3e6c:	f2 0f 11 94 d4 90 00 	movsd  %xmm2,0x90(%rsp,%rdx,8)
    3e73:	00 00 
    3e75:	41 83 ff 0b          	cmp    $0xb,%r15d
    3e79:	0f 85 0b ff ff ff    	jne    3d8a <makea_+0x14a>
    3e7f:	90                   	nop
    3e80:	48 8b 4c 24 18       	mov    0x18(%rsp),%rcx
    3e85:	48 c7 c2 e8 fb ff ff 	mov    $0xfffffffffffffbe8,%rdx
    3e8c:	89 c8                	mov    %ecx,%eax
    3e8e:	64 39 0a             	cmp    %ecx,%fs:(%rdx)
    3e91:	0f 8e b9 00 00 00    	jle    3f50 <makea_+0x310>
    3e97:	48 83 44 24 18 01    	addq   $0x1,0x18(%rsp)
    3e9d:	48 8b 44 24 18       	mov    0x18(%rsp),%rax
    3ea2:	48 83 44 24 28 30    	addq   $0x30,0x28(%rsp)
    3ea8:	48 83 44 24 20 60    	addq   $0x60,0x20(%rsp)
    3eae:	39 44 24 30          	cmp    %eax,0x30(%rsp)
    3eb2:	0f 8d a8 fe ff ff    	jge    3d60 <makea_+0x120>
    3eb8:	e8 73 d2 ff ff       	call   1130 <GOMP_barrier@plt>
    3ebd:	48 8d 05 0c 25 00 00 	lea    0x250c(%rip),%rax        # 63d0 <_IO_stdin_used+0x3d0>
    3ec4:	4c 8d 0d 01 25 00 00 	lea    0x2501(%rip),%r9        # 63cc <_IO_stdin_used+0x3cc>
    3ecb:	50                   	push   %rax
    3ecc:	48 8d 05 05 25 00 00 	lea    0x2505(%rip),%rax        # 63d8 <_IO_stdin_used+0x3d8>
    3ed3:	50                   	push   %rax
    3ed4:	4c 8b 44 24 48       	mov    0x48(%rsp),%r8
    3ed9:	48 8b 8c 24 28 03 00 	mov    0x328(%rsp),%rcx
    3ee0:	00 
    3ee1:	49 63 00             	movslq (%r8),%rax
    3ee4:	48 8d 04 81          	lea    (%rcx,%rax,4),%rax
    3ee8:	4c 89 e1             	mov    %r12,%rcx
    3eeb:	50                   	push   %rax
    3eec:	ff b4 24 30 03 00 00 	push   0x330(%rsp)
    3ef3:	ff b4 24 30 03 00 00 	push   0x330(%rsp)
    3efa:	ff b4 24 08 03 00 00 	push   0x308(%rsp)
    3f01:	ff b4 24 88 00 00 00 	push   0x88(%rsp)
    3f08:	ff b4 24 40 03 00 00 	push   0x340(%rsp)
    3f0f:	ff b4 24 40 03 00 00 	push   0x340(%rsp)
    3f16:	ff b4 24 40 03 00 00 	push   0x340(%rsp)
    3f1d:	48 8b 94 24 a0 00 00 	mov    0xa0(%rsp),%rdx
    3f24:	00 
    3f25:	48 8b b4 24 98 00 00 	mov    0x98(%rsp),%rsi
    3f2c:	00 
    3f2d:	48 8b bc 24 90 00 00 	mov    0x90(%rsp),%rdi
    3f34:	00 
    3f35:	e8 56 f0 ff ff       	call   2f90 <sparse_>
    3f3a:	48 81 c4 f8 02 00 00 	add    $0x2f8,%rsp
    3f41:	5b                   	pop    %rbx
    3f42:	5d                   	pop    %rbp
    3f43:	41 5c                	pop    %r12
    3f45:	41 5d                	pop    %r13
    3f47:	41 5e                	pop    %r14
    3f49:	41 5f                	pop    %r15
    3f4b:	c3                   	ret    
    3f4c:	0f 1f 40 00          	nopl   0x0(%rax)
    3f50:	8b 54 24 18          	mov    0x18(%rsp),%edx
    3f54:	31 c9                	xor    %ecx,%ecx
    3f56:	3b 54 24 60          	cmp    0x60(%rsp),%edx
    3f5a:	75 14                	jne    3f70 <makea_+0x330>
    3f5c:	48 8b 15 05 25 00 00 	mov    0x2505(%rip),%rdx        # 6468 <options.51.0+0x88>
    3f63:	b9 01 00 00 00       	mov    $0x1,%ecx
    3f68:	48 89 94 24 90 00 00 	mov    %rdx,0x90(%rsp)
    3f6f:	00 
    3f70:	3b 44 24 64          	cmp    0x64(%rsp),%eax
    3f74:	75 14                	jne    3f8a <makea_+0x34a>
    3f76:	48 8b 0d eb 24 00 00 	mov    0x24eb(%rip),%rcx        # 6468 <options.51.0+0x88>
    3f7d:	48 89 8c 24 98 00 00 	mov    %rcx,0x98(%rsp)
    3f84:	00 
    3f85:	b9 01 00 00 00       	mov    $0x1,%ecx
    3f8a:	3b 44 24 68          	cmp    0x68(%rsp),%eax
    3f8e:	75 14                	jne    3fa4 <makea_+0x364>
    3f90:	48 8b 15 d1 24 00 00 	mov    0x24d1(%rip),%rdx        # 6468 <options.51.0+0x88>
    3f97:	b9 01 00 00 00       	mov    $0x1,%ecx
    3f9c:	48 89 94 24 a0 00 00 	mov    %rdx,0xa0(%rsp)
    3fa3:	00 
    3fa4:	3b 44 24 6c          	cmp    0x6c(%rsp),%eax
    3fa8:	75 14                	jne    3fbe <makea_+0x37e>
    3faa:	48 8b 0d b7 24 00 00 	mov    0x24b7(%rip),%rcx        # 6468 <options.51.0+0x88>
    3fb1:	48 89 8c 24 a8 00 00 	mov    %rcx,0xa8(%rsp)
    3fb8:	00 
    3fb9:	b9 01 00 00 00       	mov    $0x1,%ecx
    3fbe:	3b 44 24 70          	cmp    0x70(%rsp),%eax
    3fc2:	75 14                	jne    3fd8 <makea_+0x398>
    3fc4:	48 8b 15 9d 24 00 00 	mov    0x249d(%rip),%rdx        # 6468 <options.51.0+0x88>
    3fcb:	b9 01 00 00 00       	mov    $0x1,%ecx
    3fd0:	48 89 94 24 b0 00 00 	mov    %rdx,0xb0(%rsp)
    3fd7:	00 
    3fd8:	3b 44 24 74          	cmp    0x74(%rsp),%eax
    3fdc:	75 14                	jne    3ff2 <makea_+0x3b2>
    3fde:	48 8b 0d 83 24 00 00 	mov    0x2483(%rip),%rcx        # 6468 <options.51.0+0x88>
    3fe5:	48 89 8c 24 b8 00 00 	mov    %rcx,0xb8(%rsp)
    3fec:	00 
    3fed:	b9 01 00 00 00       	mov    $0x1,%ecx
    3ff2:	3b 44 24 78          	cmp    0x78(%rsp),%eax
    3ff6:	75 14                	jne    400c <makea_+0x3cc>
    3ff8:	48 8b 15 69 24 00 00 	mov    0x2469(%rip),%rdx        # 6468 <options.51.0+0x88>
    3fff:	b9 01 00 00 00       	mov    $0x1,%ecx
    4004:	48 89 94 24 c0 00 00 	mov    %rdx,0xc0(%rsp)
    400b:	00 
    400c:	3b 44 24 7c          	cmp    0x7c(%rsp),%eax
    4010:	75 14                	jne    4026 <makea_+0x3e6>
    4012:	48 8b 0d 4f 24 00 00 	mov    0x244f(%rip),%rcx        # 6468 <options.51.0+0x88>
    4019:	48 89 8c 24 c8 00 00 	mov    %rcx,0xc8(%rsp)
    4020:	00 
    4021:	b9 01 00 00 00       	mov    $0x1,%ecx
    4026:	8b bc 24 84 00 00 00 	mov    0x84(%rsp),%edi
    402d:	8b b4 24 88 00 00 00 	mov    0x88(%rsp),%esi
    4034:	3b 84 24 80 00 00 00 	cmp    0x80(%rsp),%eax
    403b:	0f 84 e1 00 00 00    	je     4122 <makea_+0x4e2>
    4041:	48 8b 15 20 24 00 00 	mov    0x2420(%rip),%rdx        # 6468 <options.51.0+0x88>
    4048:	66 48 0f 6e c2       	movq   %rdx,%xmm0
    404d:	39 f8                	cmp    %edi,%eax
    404f:	0f 84 e5 00 00 00    	je     413a <makea_+0x4fa>
    4055:	39 f0                	cmp    %esi,%eax
    4057:	0f 84 1e 01 00 00    	je     417b <makea_+0x53b>
    405d:	85 c9                	test   %ecx,%ecx
    405f:	75 20                	jne    4081 <makea_+0x441>
    4061:	48 8b 05 00 24 00 00 	mov    0x2400(%rip),%rax        # 6468 <options.51.0+0x88>
    4068:	41 bf 0c 00 00 00    	mov    $0xc,%r15d
    406e:	48 89 84 24 e8 00 00 	mov    %rax,0xe8(%rsp)
    4075:	00 
    4076:	8b 44 24 34          	mov    0x34(%rsp),%eax
    407a:	89 84 24 8c 00 00 00 	mov    %eax,0x8c(%rsp)
    4081:	48 8b 84 24 f8 02 00 	mov    0x2f8(%rsp),%rax
    4088:	00 
    4089:	48 8b 54 24 18       	mov    0x18(%rsp),%rdx
    408e:	48 8b 7c 24 28       	mov    0x28(%rsp),%rdi
    4093:	44 89 7c 90 fc       	mov    %r15d,-0x4(%rax,%rdx,4)
    4098:	49 63 d7             	movslq %r15d,%rdx
    409b:	48 8b 4c 24 60       	mov    0x60(%rsp),%rcx
    40a0:	48 8d 04 95 00 00 00 	lea    0x0(,%rdx,4),%rax
    40a7:	00 
    40a8:	48 c1 e2 03          	shl    $0x3,%rdx
    40ac:	48 89 0f             	mov    %rcx,(%rdi)
    40af:	89 c1                	mov    %eax,%ecx
    40b1:	48 8b 74 0c 58       	mov    0x58(%rsp,%rcx,1),%rsi
    40b6:	48 89 74 0f f8       	mov    %rsi,-0x8(%rdi,%rcx,1)
    40bb:	48 89 f9             	mov    %rdi,%rcx
    40be:	48 8d 7f 08          	lea    0x8(%rdi),%rdi
    40c2:	48 8d 74 24 60       	lea    0x60(%rsp),%rsi
    40c7:	48 83 e7 f8          	and    $0xfffffffffffffff8,%rdi
    40cb:	48 29 f9             	sub    %rdi,%rcx
    40ce:	01 c8                	add    %ecx,%eax
    40d0:	48 29 ce             	sub    %rcx,%rsi
    40d3:	c1 e8 03             	shr    $0x3,%eax
    40d6:	89 c1                	mov    %eax,%ecx
    40d8:	f3 48 a5             	rep movsq %ds:(%rsi),%es:(%rdi)
    40db:	48 8b 74 24 20       	mov    0x20(%rsp),%rsi
    40e0:	48 8b 84 24 90 00 00 	mov    0x90(%rsp),%rax
    40e7:	00 
    40e8:	48 89 06             	mov    %rax,(%rsi)
    40eb:	89 d0                	mov    %edx,%eax
    40ed:	48 8d 7e 08          	lea    0x8(%rsi),%rdi
    40f1:	48 8b 8c 04 88 00 00 	mov    0x88(%rsp,%rax,1),%rcx
    40f8:	00 
    40f9:	48 83 e7 f8          	and    $0xfffffffffffffff8,%rdi
    40fd:	48 89 4c 06 f8       	mov    %rcx,-0x8(%rsi,%rax,1)
    4102:	48 89 f0             	mov    %rsi,%rax
    4105:	48 8d b4 24 90 00 00 	lea    0x90(%rsp),%rsi
    410c:	00 
    410d:	48 29 f8             	sub    %rdi,%rax
    4110:	01 c2                	add    %eax,%edx
    4112:	48 29 c6             	sub    %rax,%rsi
    4115:	c1 ea 03             	shr    $0x3,%edx
    4118:	89 d1                	mov    %edx,%ecx
    411a:	f3 48 a5             	rep movsq %ds:(%rsi),%es:(%rdi)
    411d:	e9 75 fd ff ff       	jmp    3e97 <makea_+0x257>
    4122:	48 8b 15 3f 23 00 00 	mov    0x233f(%rip),%rdx        # 6468 <options.51.0+0x88>
    4129:	48 89 94 24 d0 00 00 	mov    %rdx,0xd0(%rsp)
    4130:	00 
    4131:	66 48 0f 6e c2       	movq   %rdx,%xmm0
    4136:	39 f8                	cmp    %edi,%eax
    4138:	75 2b                	jne    4165 <makea_+0x525>
    413a:	f2 0f 11 84 24 d8 00 	movsd  %xmm0,0xd8(%rsp)
    4141:	00 00 
    4143:	39 f0                	cmp    %esi,%eax
    4145:	0f 85 36 ff ff ff    	jne    4081 <makea_+0x441>
    414b:	f2 0f 11 84 24 e0 00 	movsd  %xmm0,0xe0(%rsp)
    4152:	00 00 
    4154:	e9 28 ff ff ff       	jmp    4081 <makea_+0x441>
    4159:	64 89 30             	mov    %esi,%fs:(%rax)
    415c:	89 74 24 30          	mov    %esi,0x30(%rsp)
    4160:	e9 a3 fb ff ff       	jmp    3d08 <makea_+0xc8>
    4165:	39 f0                	cmp    %esi,%eax
    4167:	0f 85 14 ff ff ff    	jne    4081 <makea_+0x441>
    416d:	f2 0f 11 84 24 e0 00 	movsd  %xmm0,0xe0(%rsp)
    4174:	00 00 
    4176:	e9 06 ff ff ff       	jmp    4081 <makea_+0x441>
    417b:	48 8b 05 e6 22 00 00 	mov    0x22e6(%rip),%rax        # 6468 <options.51.0+0x88>
    4182:	66 48 0f 6e c0       	movq   %rax,%xmm0
    4187:	f2 0f 11 84 24 e0 00 	movsd  %xmm0,0xe0(%rsp)
    418e:	00 00 
    4190:	e9 ec fe ff ff       	jmp    4081 <makea_+0x441>
    4195:	48 8d 05 68 1e 00 00 	lea    0x1e68(%rip),%rax        # 6004 <_IO_stdin_used+0x4>
    419c:	4c 8d ac 24 90 00 00 	lea    0x90(%rsp),%r13
    41a3:	00 
    41a4:	c7 84 24 a0 00 00 00 	movl   $0x2da,0xa0(%rsp)
    41ab:	da 02 00 00 
    41af:	48 89 84 24 98 00 00 	mov    %rax,0x98(%rsp)
    41b6:	00 
    41b7:	4c 89 ef             	mov    %r13,%rdi
    41ba:	48 8d 05 9f 21 00 00 	lea    0x219f(%rip),%rax        # 6360 <_IO_stdin_used+0x360>
    41c1:	48 89 84 24 e0 00 00 	mov    %rax,0xe0(%rsp)
    41c8:	00 
    41c9:	48 8b 05 68 22 00 00 	mov    0x2268(%rip),%rax        # 6438 <options.51.0+0x58>
    41d0:	48 c7 84 24 e8 00 00 	movq   $0x49,0xe8(%rsp)
    41d7:	00 49 00 00 00 
    41dc:	48 89 84 24 90 00 00 	mov    %rax,0x90(%rsp)
    41e3:	00 
    41e4:	e8 07 d0 ff ff       	call   11f0 <_gfortran_st_write@plt>
    41e9:	ba 04 00 00 00       	mov    $0x4,%edx
    41ee:	4c 89 ef             	mov    %r13,%rdi
    41f1:	64 48 8b 34 25 00 00 	mov    %fs:0x0,%rsi
    41f8:	00 00 
    41fa:	48 01 de             	add    %rbx,%rsi
    41fd:	e8 be ce ff ff       	call   10c0 <_gfortran_transfer_integer_write@plt>
    4202:	ba 04 00 00 00       	mov    $0x4,%edx
    4207:	48 8d 35 ba 21 00 00 	lea    0x21ba(%rip),%rsi        # 63c8 <_IO_stdin_used+0x3c8>
    420e:	4c 89 ef             	mov    %r13,%rdi
    4211:	e8 aa ce ff ff       	call   10c0 <_gfortran_transfer_integer_write@plt>
    4216:	4c 89 ef             	mov    %r13,%rdi
    4219:	e8 72 cf ff ff       	call   1190 <_gfortran_st_write_done@plt>
    421e:	64 8b 4d 00          	mov    %fs:0x0(%rbp),%ecx
    4222:	e9 a0 fa ff ff       	jmp    3cc7 <makea_+0x87>
    4227:	66 0f 1f 84 00 00 00 	nopw   0x0(%rax,%rax,1)
    422e:	00 00 

0000000000004230 <MAIN__._omp_fn.0>:
    4230:	41 57                	push   %r15
    4232:	41 56                	push   %r14
    4234:	41 55                	push   %r13
    4236:	41 54                	push   %r12
    4238:	55                   	push   %rbp
    4239:	53                   	push   %rbx
    423a:	48 83 ec 18          	sub    $0x18,%rsp
    423e:	48 c7 c7 f0 fb ff ff 	mov    $0xfffffffffffffbf0,%rdi
    4245:	48 8b 05 24 22 00 00 	mov    0x2224(%rip),%rax        # 6470 <options.51.0+0x90>
    424c:	48 c7 c6 f8 fb ff ff 	mov    $0xfffffffffffffbf8,%rsi
    4253:	64 48 89 07          	mov    %rax,%fs:(%rdi)
    4257:	48 8b 05 1a 22 00 00 	mov    0x221a(%rip),%rax        # 6478 <options.51.0+0x98>
    425e:	64 48 03 3c 25 00 00 	add    %fs:0x0,%rdi
    4265:	00 00 
    4267:	64 48 89 06          	mov    %rax,%fs:(%rsi)
    426b:	64 48 03 34 25 00 00 	add    %fs:0x0,%rsi
    4272:	00 00 
    4274:	e8 47 15 00 00       	call   57c0 <randlc_>
    4279:	48 8d 05 cc 5f 00 00 	lea    0x5fcc(%rip),%rax        # a24c <__cg_data_MOD_lastcol>
    4280:	ff 35 da 5f 00 00    	push   0x5fda(%rip)        # a260 <__cg_data_MOD_iv>
    4286:	48 8b 15 33 61 00 00 	mov    0x6133(%rip),%rdx        # a3c0 <__cg_data_MOD_a>
    428d:	ff 35 4d 5e 00 00    	push   0x5e4d(%rip)        # a0e0 <__cg_data_MOD_v>
    4293:	4c 8d 0d 06 60 00 00 	lea    0x6006(%rip),%r9        # a2a0 <__cg_data_MOD_firstrow>
    429a:	48 8d 35 9f 5f 00 00 	lea    0x5f9f(%rip),%rsi        # a240 <__cg_data_MOD_nzz>
    42a1:	ff 35 99 60 00 00    	push   0x6099(%rip)        # a340 <__cg_data_MOD_aelt>
    42a7:	48 8d 3d 96 5f 00 00 	lea    0x5f96(%rip),%rdi        # a244 <__cg_data_MOD_naa>
    42ae:	4c 8b 05 8b 5e 00 00 	mov    0x5e8b(%rip),%r8        # a140 <__cg_data_MOD_rowstr>
    42b5:	ff 35 c5 60 00 00    	push   0x60c5(%rip)        # a380 <__cg_data_MOD_acol>
    42bb:	48 8b 0d fe 5f 00 00 	mov    0x5ffe(%rip),%rcx        # a2c0 <__cg_data_MOD_colidx>
    42c2:	ff 35 38 60 00 00    	push   0x6038(%rip)        # a300 <__cg_data_MOD_arow>
    42c8:	50                   	push   %rax
    42c9:	48 8d 05 d4 5f 00 00 	lea    0x5fd4(%rip),%rax        # a2a4 <__cg_data_MOD_firstcol>
    42d0:	50                   	push   %rax
    42d1:	48 8d 05 70 5f 00 00 	lea    0x5f70(%rip),%rax        # a248 <__cg_data_MOD_lastrow>
    42d8:	50                   	push   %rax
    42d9:	e8 62 f9 ff ff       	call   3c40 <makea_>
    42de:	48 83 c4 40          	add    $0x40,%rsp
    42e2:	e8 49 ce ff ff       	call   1130 <GOMP_barrier@plt>
    42e7:	e8 74 cd ff ff       	call   1060 <omp_get_num_threads@plt>
    42ec:	89 c3                	mov    %eax,%ebx
    42ee:	e8 dd cd ff ff       	call   10d0 <omp_get_thread_num@plt>
    42f3:	41 89 c1             	mov    %eax,%r9d
    42f6:	8b 05 4c 5f 00 00    	mov    0x5f4c(%rip),%eax        # a248 <__cg_data_MOD_lastrow>
    42fc:	2b 05 9e 5f 00 00    	sub    0x5f9e(%rip),%eax        # a2a0 <__cg_data_MOD_firstrow>
    4302:	83 c0 01             	add    $0x1,%eax
    4305:	99                   	cltd   
    4306:	f7 fb                	idiv   %ebx
    4308:	41 39 d1             	cmp    %edx,%r9d
    430b:	0f 8c b8 02 00 00    	jl     45c9 <MAIN__._omp_fn.0+0x399>
    4311:	89 c1                	mov    %eax,%ecx
    4313:	44 8b 15 8a 5f 00 00 	mov    0x5f8a(%rip),%r10d        # a2a4 <__cg_data_MOD_firstcol>
    431a:	41 0f af c9          	imul   %r9d,%ecx
    431e:	01 ca                	add    %ecx,%edx
    4320:	8d 0c 10             	lea    (%rax,%rdx,1),%ecx
    4323:	39 ca                	cmp    %ecx,%edx
    4325:	0f 8d 15 01 00 00    	jge    4440 <MAIN__._omp_fn.0+0x210>
    432b:	48 8b 35 16 5e 00 00 	mov    0x5e16(%rip),%rsi        # a148 <__cg_data_MOD_rowstr+0x8>
    4332:	48 63 d2             	movslq %edx,%rdx
    4335:	48 8b 0d 04 5e 00 00 	mov    0x5e04(%rip),%rcx        # a140 <__cg_data_MOD_rowstr>
    433c:	83 e8 01             	sub    $0x1,%eax
    433f:	66 41 0f 6e da       	movd   %r10d,%xmm3
    4344:	4c 8b 05 75 5f 00 00 	mov    0x5f75(%rip),%r8        # a2c0 <__cg_data_MOD_colidx>
    434b:	4c 8b 1d 76 5f 00 00 	mov    0x5f76(%rip),%r11        # a2c8 <__cg_data_MOD_colidx+0x8>
    4352:	48 8d 7c 32 01       	lea    0x1(%rdx,%rsi,1),%rdi
    4357:	48 01 f2             	add    %rsi,%rdx
    435a:	66 0f 70 d3 00       	pshufd $0x0,%xmm3,%xmm2
    435f:	66 0f 6f 0d b9 20 00 	movdqa 0x20b9(%rip),%xmm1        # 6420 <options.51.0+0x40>
    4366:	00 
    4367:	48 01 c2             	add    %rax,%rdx
    436a:	48 8d 3c b9          	lea    (%rcx,%rdi,4),%rdi
    436e:	48 8d 6c 91 08       	lea    0x8(%rcx,%rdx,4),%rbp
    4373:	0f 1f 44 00 00       	nopl   0x0(%rax,%rax,1)
    4378:	8b 0f                	mov    (%rdi),%ecx
    437a:	44 8b 67 04          	mov    0x4(%rdi),%r12d
    437e:	44 39 e1             	cmp    %r12d,%ecx
    4381:	0f 8d ac 00 00 00    	jge    4433 <MAIN__._omp_fn.0+0x203>
    4387:	45 89 e5             	mov    %r12d,%r13d
    438a:	41 29 cd             	sub    %ecx,%r13d
    438d:	41 8d 45 ff          	lea    -0x1(%r13),%eax
    4391:	83 f8 02             	cmp    $0x2,%eax
    4394:	76 52                	jbe    43e8 <MAIN__._omp_fn.0+0x1b8>
    4396:	48 63 c1             	movslq %ecx,%rax
    4399:	4c 01 d8             	add    %r11,%rax
    439c:	49 8d 14 80          	lea    (%r8,%rax,4),%rdx
    43a0:	44 89 e8             	mov    %r13d,%eax
    43a3:	c1 e8 02             	shr    $0x2,%eax
    43a6:	8d 70 ff             	lea    -0x1(%rax),%esi
    43a9:	48 8d 42 10          	lea    0x10(%rdx),%rax
    43ad:	48 c1 e6 04          	shl    $0x4,%rsi
    43b1:	48 01 c6             	add    %rax,%rsi
    43b4:	eb 0e                	jmp    43c4 <MAIN__._omp_fn.0+0x194>
    43b6:	66 2e 0f 1f 84 00 00 	cs nopw 0x0(%rax,%rax,1)
    43bd:	00 00 00 
    43c0:	48 83 c0 10          	add    $0x10,%rax
    43c4:	f3 0f 6f 02          	movdqu (%rdx),%xmm0
    43c8:	66 0f fa c2          	psubd  %xmm2,%xmm0
    43cc:	66 0f fe c1          	paddd  %xmm1,%xmm0
    43d0:	0f 11 02             	movups %xmm0,(%rdx)
    43d3:	48 89 c2             	mov    %rax,%rdx
    43d6:	48 39 c6             	cmp    %rax,%rsi
    43d9:	75 e5                	jne    43c0 <MAIN__._omp_fn.0+0x190>
    43db:	44 89 e8             	mov    %r13d,%eax
    43de:	83 e0 fc             	and    $0xfffffffc,%eax
    43e1:	01 c1                	add    %eax,%ecx
    43e3:	41 39 c5             	cmp    %eax,%r13d
    43e6:	74 4b                	je     4433 <MAIN__._omp_fn.0+0x203>
    43e8:	48 63 d1             	movslq %ecx,%rdx
    43eb:	4c 01 da             	add    %r11,%rdx
    43ee:	41 8b 04 90          	mov    (%r8,%rdx,4),%eax
    43f2:	44 29 d0             	sub    %r10d,%eax
    43f5:	83 c0 01             	add    $0x1,%eax
    43f8:	41 89 04 90          	mov    %eax,(%r8,%rdx,4)
    43fc:	8d 41 01             	lea    0x1(%rcx),%eax
    43ff:	41 39 c4             	cmp    %eax,%r12d
    4402:	7e 2f                	jle    4433 <MAIN__._omp_fn.0+0x203>
    4404:	48 98                	cltq   
    4406:	83 c1 02             	add    $0x2,%ecx
    4409:	4c 01 d8             	add    %r11,%rax
    440c:	41 8b 14 80          	mov    (%r8,%rax,4),%edx
    4410:	44 29 d2             	sub    %r10d,%edx
    4413:	83 c2 01             	add    $0x1,%edx
    4416:	41 89 14 80          	mov    %edx,(%r8,%rax,4)
    441a:	41 39 cc             	cmp    %ecx,%r12d
    441d:	7e 14                	jle    4433 <MAIN__._omp_fn.0+0x203>
    441f:	48 63 c9             	movslq %ecx,%rcx
    4422:	4c 01 d9             	add    %r11,%rcx
    4425:	41 8b 04 88          	mov    (%r8,%rcx,4),%eax
    4429:	44 29 d0             	sub    %r10d,%eax
    442c:	83 c0 01             	add    $0x1,%eax
    442f:	41 89 04 88          	mov    %eax,(%r8,%rcx,4)
    4433:	48 83 c7 04          	add    $0x4,%rdi
    4437:	48 39 ef             	cmp    %rbp,%rdi
    443a:	0f 85 38 ff ff ff    	jne    4378 <MAIN__._omp_fn.0+0x148>
    4440:	b8 b1 36 00 00       	mov    $0x36b1,%eax
    4445:	99                   	cltd   
    4446:	f7 fb                	idiv   %ebx
    4448:	41 39 d1             	cmp    %edx,%r9d
    444b:	0f 8c 6e 01 00 00    	jl     45bf <MAIN__._omp_fn.0+0x38f>
    4451:	89 c6                	mov    %eax,%esi
    4453:	41 0f af f1          	imul   %r9d,%esi
    4457:	8d 0c 32             	lea    (%rdx,%rsi,1),%ecx
    445a:	8d 3c 08             	lea    (%rax,%rcx,1),%edi
    445d:	39 f9                	cmp    %edi,%ecx
    445f:	7d 72                	jge    44d3 <MAIN__._omp_fn.0+0x2a3>
    4461:	4c 8b 05 38 5c 00 00 	mov    0x5c38(%rip),%r8        # a0a0 <__cg_data_MOD_x>
    4468:	4c 8b 1d 39 5c 00 00 	mov    0x5c39(%rip),%r11        # a0a8 <__cg_data_MOD_x+0x8>
    446f:	83 c1 01             	add    $0x1,%ecx
    4472:	83 f8 01             	cmp    $0x1,%eax
    4475:	74 4b                	je     44c2 <MAIN__._omp_fn.0+0x292>
    4477:	48 63 d2             	movslq %edx,%rdx
    447a:	48 63 f6             	movslq %esi,%rsi
    447d:	66 0f 28 05 7b 1f 00 	movapd 0x1f7b(%rip),%xmm0        # 6400 <options.51.0+0x20>
    4484:	00 
    4485:	49 8d 54 13 01       	lea    0x1(%r11,%rdx,1),%rdx
    448a:	48 01 f2             	add    %rsi,%rdx
    448d:	49 8d 34 d0          	lea    (%r8,%rdx,8),%rsi
    4491:	89 c2                	mov    %eax,%edx
    4493:	d1 ea                	shr    %edx
    4495:	8d 7a ff             	lea    -0x1(%rdx),%edi
    4498:	48 8d 56 10          	lea    0x10(%rsi),%rdx
    449c:	48 c1 e7 04          	shl    $0x4,%rdi
    44a0:	48 01 d7             	add    %rdx,%rdi
    44a3:	eb 07                	jmp    44ac <MAIN__._omp_fn.0+0x27c>
    44a5:	0f 1f 00             	nopl   (%rax)
    44a8:	48 83 c2 10          	add    $0x10,%rdx
    44ac:	0f 11 06             	movups %xmm0,(%rsi)
    44af:	48 89 d6             	mov    %rdx,%rsi
    44b2:	48 39 fa             	cmp    %rdi,%rdx
    44b5:	75 f1                	jne    44a8 <MAIN__._omp_fn.0+0x278>
    44b7:	89 c2                	mov    %eax,%edx
    44b9:	83 e2 fe             	and    $0xfffffffe,%edx
    44bc:	01 d1                	add    %edx,%ecx
    44be:	39 d0                	cmp    %edx,%eax
    44c0:	74 11                	je     44d3 <MAIN__._omp_fn.0+0x2a3>
    44c2:	48 8b 3d 37 1f 00 00 	mov    0x1f37(%rip),%rdi        # 6400 <options.51.0+0x20>
    44c9:	48 63 c1             	movslq %ecx,%rax
    44cc:	4c 01 d8             	add    %r11,%rax
    44cf:	49 89 3c c0          	mov    %rdi,(%r8,%rax,8)
    44d3:	8b 05 73 5d 00 00    	mov    0x5d73(%rip),%eax        # a24c <__cg_data_MOD_lastcol>
    44d9:	44 29 d0             	sub    %r10d,%eax
    44dc:	83 c0 01             	add    $0x1,%eax
    44df:	99                   	cltd   
    44e0:	f7 fb                	idiv   %ebx
    44e2:	41 39 d1             	cmp    %edx,%r9d
    44e5:	0f 8c e8 00 00 00    	jl     45d3 <MAIN__._omp_fn.0+0x3a3>
    44eb:	44 0f af c8          	imul   %eax,%r9d
    44ef:	41 01 d1             	add    %edx,%r9d
    44f2:	42 8d 14 08          	lea    (%rax,%r9,1),%edx
    44f6:	41 39 d1             	cmp    %edx,%r9d
    44f9:	0f 8d b1 00 00 00    	jge    45b0 <MAIN__._omp_fn.0+0x380>
    44ff:	48 8b 1d 82 5c 00 00 	mov    0x5c82(%rip),%rbx        # a188 <__cg_data_MOD_r+0x8>
    4506:	41 83 c1 01          	add    $0x1,%r9d
    450a:	83 e8 01             	sub    $0x1,%eax
    450d:	31 f6                	xor    %esi,%esi
    450f:	48 8b 15 b2 5c 00 00 	mov    0x5cb2(%rip),%rdx        # a1c8 <__cg_data_MOD_q+0x8>
    4516:	4c 8d 34 c5 08 00 00 	lea    0x8(,%rax,8),%r14
    451d:	00 
    451e:	48 8b 3d e3 5c 00 00 	mov    0x5ce3(%rip),%rdi        # a208 <__cg_data_MOD_p+0x8>
    4525:	48 89 1c 24          	mov    %rbx,(%rsp)
    4529:	4c 8b 2d 38 5b 00 00 	mov    0x5b38(%rip),%r13        # a068 <__cg_data_MOD_z+0x8>
    4530:	49 63 d9             	movslq %r9d,%rbx
    4533:	48 8b 05 86 5c 00 00 	mov    0x5c86(%rip),%rax        # a1c0 <__cg_data_MOD_q>
    453a:	4c 8b 25 1f 5b 00 00 	mov    0x5b1f(%rip),%r12        # a060 <__cg_data_MOD_z>
    4541:	48 01 da             	add    %rbx,%rdx
    4544:	48 89 7c 24 08       	mov    %rdi,0x8(%rsp)
    4549:	49 01 dd             	add    %rbx,%r13
    454c:	48 8b 2d 2d 5c 00 00 	mov    0x5c2d(%rip),%rbp        # a180 <__cg_data_MOD_r>
    4553:	4c 8b 3d a6 5c 00 00 	mov    0x5ca6(%rip),%r15        # a200 <__cg_data_MOD_p>
    455a:	48 8d 3c d0          	lea    (%rax,%rdx,8),%rdi
    455e:	4c 89 f2             	mov    %r14,%rdx
    4561:	e8 ea ca ff ff       	call   1050 <memset@plt>
    4566:	4b 8d 3c ec          	lea    (%r12,%r13,8),%rdi
    456a:	4c 89 f2             	mov    %r14,%rdx
    456d:	31 f6                	xor    %esi,%esi
    456f:	e8 dc ca ff ff       	call   1050 <memset@plt>
    4574:	48 8b 04 24          	mov    (%rsp),%rax
    4578:	4c 89 f2             	mov    %r14,%rdx
    457b:	31 f6                	xor    %esi,%esi
    457d:	4c 8d 24 18          	lea    (%rax,%rbx,1),%r12
    4581:	4a 8d 7c e5 00       	lea    0x0(%rbp,%r12,8),%rdi
    4586:	e8 c5 ca ff ff       	call   1050 <memset@plt>
    458b:	48 8b 7c 24 08       	mov    0x8(%rsp),%rdi
    4590:	48 83 c4 18          	add    $0x18,%rsp
    4594:	31 f6                	xor    %esi,%esi
    4596:	4c 89 f2             	mov    %r14,%rdx
    4599:	48 8d 2c 1f          	lea    (%rdi,%rbx,1),%rbp
    459d:	5b                   	pop    %rbx
    459e:	49 8d 3c ef          	lea    (%r15,%rbp,8),%rdi
    45a2:	5d                   	pop    %rbp
    45a3:	41 5c                	pop    %r12
    45a5:	41 5d                	pop    %r13
    45a7:	41 5e                	pop    %r14
    45a9:	41 5f                	pop    %r15
    45ab:	e9 a0 ca ff ff       	jmp    1050 <memset@plt>
    45b0:	48 83 c4 18          	add    $0x18,%rsp
    45b4:	5b                   	pop    %rbx
    45b5:	5d                   	pop    %rbp
    45b6:	41 5c                	pop    %r12
    45b8:	41 5d                	pop    %r13
    45ba:	41 5e                	pop    %r14
    45bc:	41 5f                	pop    %r15
    45be:	c3                   	ret    
    45bf:	83 c0 01             	add    $0x1,%eax
    45c2:	31 d2                	xor    %edx,%edx
    45c4:	e9 88 fe ff ff       	jmp    4451 <MAIN__._omp_fn.0+0x221>
    45c9:	83 c0 01             	add    $0x1,%eax
    45cc:	31 d2                	xor    %edx,%edx
    45ce:	e9 3e fd ff ff       	jmp    4311 <MAIN__._omp_fn.0+0xe1>
    45d3:	83 c0 01             	add    $0x1,%eax
    45d6:	31 d2                	xor    %edx,%edx
    45d8:	e9 0e ff ff ff       	jmp    44eb <MAIN__._omp_fn.0+0x2bb>
    45dd:	0f 1f 00             	nopl   (%rax)

00000000000045e0 <vecset_>:
    45e0:	49 89 f2             	mov    %rsi,%r10
    45e3:	48 63 31             	movslq (%rcx),%rsi
    45e6:	41 8b 38             	mov    (%r8),%edi
    45e9:	31 c0                	xor    %eax,%eax
    45eb:	45 31 c0             	xor    %r8d,%r8d
    45ee:	49 89 f3             	mov    %rsi,%r11
    45f1:	85 f6                	test   %esi,%esi
    45f3:	7e 2b                	jle    4620 <vecset_+0x40>
    45f5:	0f 1f 00             	nopl   (%rax)
    45f8:	39 3c 82             	cmp    %edi,(%rdx,%rax,4)
    45fb:	75 11                	jne    460e <vecset_+0x2e>
    45fd:	f2 41 0f 10 01       	movsd  (%r9),%xmm0
    4602:	41 b8 01 00 00 00    	mov    $0x1,%r8d
    4608:	f2 41 0f 11 04 c2    	movsd  %xmm0,(%r10,%rax,8)
    460e:	48 83 c0 01          	add    $0x1,%rax
    4612:	48 39 c6             	cmp    %rax,%rsi
    4615:	75 e1                	jne    45f8 <vecset_+0x18>
    4617:	45 85 c0             	test   %r8d,%r8d
    461a:	74 04                	je     4620 <vecset_+0x40>
    461c:	c3                   	ret    
    461d:	0f 1f 00             	nopl   (%rax)
    4620:	f2 41 0f 10 01       	movsd  (%r9),%xmm0
    4625:	41 83 c3 01          	add    $0x1,%r11d
    4629:	89 3c b2             	mov    %edi,(%rdx,%rsi,4)
    462c:	44 89 19             	mov    %r11d,(%rcx)
    462f:	f2 41 0f 11 04 f2    	movsd  %xmm0,(%r10,%rsi,8)
    4635:	c3                   	ret    
    4636:	66 2e 0f 1f 84 00 00 	cs nopw 0x0(%rax,%rax,1)
    463d:	00 00 00 

0000000000004640 <sprnvc_>:
    4640:	41 57                	push   %r15
    4642:	41 56                	push   %r14
    4644:	41 55                	push   %r13
    4646:	41 54                	push   %r12
    4648:	55                   	push   %rbp
    4649:	53                   	push   %rbx
    464a:	48 83 ec 28          	sub    $0x28,%rsp
    464e:	8b 06                	mov    (%rsi),%eax
    4650:	48 89 7c 24 10       	mov    %rdi,0x10(%rsp)
    4655:	48 89 4c 24 18       	mov    %rcx,0x18(%rsp)
    465a:	85 c0                	test   %eax,%eax
    465c:	0f 8e bb 00 00 00    	jle    471d <sprnvc_+0xdd>
    4662:	48 c7 c3 f8 fb ff ff 	mov    $0xfffffffffffffbf8,%rbx
    4669:	48 89 f5             	mov    %rsi,%rbp
    466c:	49 89 d5             	mov    %rdx,%r13
    466f:	4d 89 c7             	mov    %r8,%r15
    4672:	64 48 03 1c 25 00 00 	add    %fs:0x0,%rbx
    4679:	00 00 
    467b:	45 31 f6             	xor    %r14d,%r14d
    467e:	eb 0a                	jmp    468a <sprnvc_+0x4a>
    4680:	44 39 75 00          	cmp    %r14d,0x0(%rbp)
    4684:	0f 8e 93 00 00 00    	jle    471d <sprnvc_+0xdd>
    468a:	64 4c 8b 24 25 00 00 	mov    %fs:0x0,%r12
    4691:	00 00 
    4693:	49 81 c4 f0 fb ff ff 	add    $0xfffffffffffffbf0,%r12
    469a:	48 89 de             	mov    %rbx,%rsi
    469d:	4c 89 e7             	mov    %r12,%rdi
    46a0:	e8 1b 11 00 00       	call   57c0 <randlc_>
    46a5:	48 89 de             	mov    %rbx,%rsi
    46a8:	4c 89 e7             	mov    %r12,%rdi
    46ab:	f2 0f 11 44 24 08    	movsd  %xmm0,0x8(%rsp)
    46b1:	e8 0a 11 00 00       	call   57c0 <randlc_>
    46b6:	48 8b 44 24 10       	mov    0x10(%rsp),%rax
    46bb:	66 0f 28 c8          	movapd %xmm0,%xmm1
    46bf:	66 0f ef c0          	pxor   %xmm0,%xmm0
    46c3:	f2 41 0f 2a 45 00    	cvtsi2sdl 0x0(%r13),%xmm0
    46c9:	f2 0f 59 c1          	mulsd  %xmm1,%xmm0
    46cd:	f2 0f 2c d0          	cvttsd2si %xmm0,%edx
    46d1:	83 c2 01             	add    $0x1,%edx
    46d4:	39 10                	cmp    %edx,(%rax)
    46d6:	7c a8                	jl     4680 <sprnvc_+0x40>
    46d8:	45 85 f6             	test   %r14d,%r14d
    46db:	7e 1b                	jle    46f8 <sprnvc_+0xb8>
    46dd:	b8 01 00 00 00       	mov    $0x1,%eax
    46e2:	66 0f 1f 44 00 00    	nopw   0x0(%rax,%rax,1)
    46e8:	41 39 54 87 fc       	cmp    %edx,-0x4(%r15,%rax,4)
    46ed:	74 91                	je     4680 <sprnvc_+0x40>
    46ef:	48 83 c0 01          	add    $0x1,%rax
    46f3:	41 39 c6             	cmp    %eax,%r14d
    46f6:	7d f0                	jge    46e8 <sprnvc_+0xa8>
    46f8:	48 8b 4c 24 18       	mov    0x18(%rsp),%rcx
    46fd:	f2 0f 10 54 24 08    	movsd  0x8(%rsp),%xmm2
    4703:	49 63 c6             	movslq %r14d,%rax
    4706:	41 83 c6 01          	add    $0x1,%r14d
    470a:	41 89 14 87          	mov    %edx,(%r15,%rax,4)
    470e:	f2 0f 11 14 c1       	movsd  %xmm2,(%rcx,%rax,8)
    4713:	44 39 75 00          	cmp    %r14d,0x0(%rbp)
    4717:	0f 8f 6d ff ff ff    	jg     468a <sprnvc_+0x4a>
    471d:	48 83 c4 28          	add    $0x28,%rsp
    4721:	5b                   	pop    %rbx
    4722:	5d                   	pop    %rbp
    4723:	41 5c                	pop    %r12
    4725:	41 5d                	pop    %r13
    4727:	41 5e                	pop    %r14
    4729:	41 5f                	pop    %r15
    472b:	c3                   	ret    
    472c:	0f 1f 40 00          	nopl   0x0(%rax)

0000000000004730 <icnvrt_>:
    4730:	66 0f ef c0          	pxor   %xmm0,%xmm0
    4734:	f2 0f 2a 06          	cvtsi2sdl (%rsi),%xmm0
    4738:	f2 0f 59 07          	mulsd  (%rdi),%xmm0
    473c:	f2 0f 2c c0          	cvttsd2si %xmm0,%eax
    4740:	c3                   	ret    
    4741:	66 2e 0f 1f 84 00 00 	cs nopw 0x0(%rax,%rax,1)
    4748:	00 00 00 
    474b:	0f 1f 44 00 00       	nopl   0x0(%rax,%rax,1)

0000000000004750 <alloc_space_>:
    4750:	55                   	push   %rbp
    4751:	53                   	push   %rbx
    4752:	48 bb 00 00 00 00 01 	movabs $0x10100000000,%rbx
    4759:	01 00 00 
    475c:	48 81 ec 18 02 00 00 	sub    $0x218,%rsp
    4763:	48 83 3d 55 5b 00 00 	cmpq   $0x0,0x5b55(%rip)        # a2c0 <__cg_data_MOD_colidx>
    476a:	00 
    476b:	48 c7 05 5a 5b 00 00 	movq   $0x4,0x5b5a(%rip)        # a2d0 <__cg_data_MOD_colidx+0x10>
    4772:	04 00 00 00 
    4776:	48 89 1d 5b 5b 00 00 	mov    %rbx,0x5b5b(%rip)        # a2d8 <__cg_data_MOD_colidx+0x18>
    477d:	0f 85 02 05 00 00    	jne    4c85 <alloc_space_+0x535>
    4783:	bf 00 0c 7b 00       	mov    $0x7b0c00,%edi
    4788:	e8 13 c9 ff ff       	call   10a0 <malloc@plt>
    478d:	66 0f 6f 05 2b 1d 00 	movdqa 0x1d2b(%rip),%xmm0        # 64c0 <options.51.0+0xe0>
    4794:	00 
    4795:	48 c7 05 28 5b 00 00 	movq   $0xffffffffffffffff,0x5b28(%rip)        # a2c8 <__cg_data_MOD_colidx+0x8>
    479c:	ff ff ff ff 
    47a0:	48 89 05 19 5b 00 00 	mov    %rax,0x5b19(%rip)        # a2c0 <__cg_data_MOD_colidx>
    47a7:	0f 29 05 32 5b 00 00 	movaps %xmm0,0x5b32(%rip)        # a2e0 <__cg_data_MOD_colidx+0x20>
    47ae:	48 85 c0             	test   %rax,%rax
    47b1:	0f 84 bf 04 00 00    	je     4c76 <alloc_space_+0x526>
    47b7:	66 0f 6f 15 11 1d 00 	movdqa 0x1d11(%rip),%xmm2        # 64d0 <options.51.0+0xf0>
    47be:	00 
    47bf:	48 83 3d 79 59 00 00 	cmpq   $0x0,0x5979(%rip)        # a140 <__cg_data_MOD_rowstr>
    47c6:	00 
    47c7:	48 c7 05 7e 59 00 00 	movq   $0x4,0x597e(%rip)        # a150 <__cg_data_MOD_rowstr+0x10>
    47ce:	04 00 00 00 
    47d2:	48 89 1d 7f 59 00 00 	mov    %rbx,0x597f(%rip)        # a158 <__cg_data_MOD_rowstr+0x18>
    47d9:	0f 29 15 10 5b 00 00 	movaps %xmm2,0x5b10(%rip)        # a2f0 <__cg_data_MOD_colidx+0x30>
    47e0:	0f 85 9f 04 00 00    	jne    4c85 <alloc_space_+0x535>
    47e6:	bf c4 da 00 00       	mov    $0xdac4,%edi
    47eb:	e8 b0 c8 ff ff       	call   10a0 <malloc@plt>
    47f0:	66 0f 6f 05 c8 1c 00 	movdqa 0x1cc8(%rip),%xmm0        # 64c0 <options.51.0+0xe0>
    47f7:	00 
    47f8:	48 c7 05 45 59 00 00 	movq   $0xffffffffffffffff,0x5945(%rip)        # a148 <__cg_data_MOD_rowstr+0x8>
    47ff:	ff ff ff ff 
    4803:	48 85 c0             	test   %rax,%rax
    4806:	48 89 05 33 59 00 00 	mov    %rax,0x5933(%rip)        # a140 <__cg_data_MOD_rowstr>
    480d:	0f 29 05 4c 59 00 00 	movaps %xmm0,0x594c(%rip)        # a160 <__cg_data_MOD_rowstr+0x20>
    4814:	0f 84 b6 05 00 00    	je     4dd0 <alloc_space_+0x680>
    481a:	66 0f 6f 0d be 1c 00 	movdqa 0x1cbe(%rip),%xmm1        # 64e0 <options.51.0+0x100>
    4821:	00 
    4822:	48 83 3d 36 5a 00 00 	cmpq   $0x0,0x5a36(%rip)        # a260 <__cg_data_MOD_iv>
    4829:	00 
    482a:	48 c7 05 3b 5a 00 00 	movq   $0x4,0x5a3b(%rip)        # a270 <__cg_data_MOD_iv+0x10>
    4831:	04 00 00 00 
    4835:	48 89 1d 3c 5a 00 00 	mov    %rbx,0x5a3c(%rip)        # a278 <__cg_data_MOD_iv+0x18>
    483c:	0f 29 0d 2d 59 00 00 	movaps %xmm1,0x592d(%rip)        # a170 <__cg_data_MOD_rowstr+0x30>
    4843:	0f 85 3c 04 00 00    	jne    4c85 <alloc_space_+0x535>
    4849:	bf c0 e6 7b 00       	mov    $0x7be6c0,%edi
    484e:	e8 4d c8 ff ff       	call   10a0 <malloc@plt>
    4853:	66 0f 6f 05 65 1c 00 	movdqa 0x1c65(%rip),%xmm0        # 64c0 <options.51.0+0xe0>
    485a:	00 
    485b:	48 c7 05 02 5a 00 00 	movq   $0xffffffffffffffff,0x5a02(%rip)        # a268 <__cg_data_MOD_iv+0x8>
    4862:	ff ff ff ff 
    4866:	48 85 c0             	test   %rax,%rax
    4869:	48 89 05 f0 59 00 00 	mov    %rax,0x59f0(%rip)        # a260 <__cg_data_MOD_iv>
    4870:	0f 29 05 09 5a 00 00 	movaps %xmm0,0x5a09(%rip)        # a280 <__cg_data_MOD_iv+0x20>
    4877:	0f 84 3f 05 00 00    	je     4dbc <alloc_space_+0x66c>
    487d:	66 0f 6f 0d 6b 1c 00 	movdqa 0x1c6b(%rip),%xmm1        # 64f0 <options.51.0+0x110>
    4884:	00 
    4885:	48 83 3d 73 5a 00 00 	cmpq   $0x0,0x5a73(%rip)        # a300 <__cg_data_MOD_arow>
    488c:	00 
    488d:	48 c7 05 78 5a 00 00 	movq   $0x4,0x5a78(%rip)        # a310 <__cg_data_MOD_arow+0x10>
    4894:	04 00 00 00 
    4898:	48 89 1d 79 5a 00 00 	mov    %rbx,0x5a79(%rip)        # a318 <__cg_data_MOD_arow+0x18>
    489f:	0f 29 0d ea 59 00 00 	movaps %xmm1,0x59ea(%rip)        # a290 <__cg_data_MOD_iv+0x30>
    48a6:	0f 85 d9 03 00 00    	jne    4c85 <alloc_space_+0x535>
    48ac:	bf c0 da 00 00       	mov    $0xdac0,%edi
    48b1:	e8 ea c7 ff ff       	call   10a0 <malloc@plt>
    48b6:	66 0f 6f 05 02 1c 00 	movdqa 0x1c02(%rip),%xmm0        # 64c0 <options.51.0+0xe0>
    48bd:	00 
    48be:	48 c7 05 3f 5a 00 00 	movq   $0xffffffffffffffff,0x5a3f(%rip)        # a308 <__cg_data_MOD_arow+0x8>
    48c5:	ff ff ff ff 
    48c9:	48 85 c0             	test   %rax,%rax
    48cc:	48 89 05 2d 5a 00 00 	mov    %rax,0x5a2d(%rip)        # a300 <__cg_data_MOD_arow>
    48d3:	0f 29 05 46 5a 00 00 	movaps %xmm0,0x5a46(%rip)        # a320 <__cg_data_MOD_arow+0x20>
    48da:	0f 84 c8 04 00 00    	je     4da8 <alloc_space_+0x658>
    48e0:	66 0f 6f 0d 18 1c 00 	movdqa 0x1c18(%rip),%xmm1        # 6500 <options.51.0+0x120>
    48e7:	00 
    48e8:	48 83 3d 90 5a 00 00 	cmpq   $0x0,0x5a90(%rip)        # a380 <__cg_data_MOD_acol>
    48ef:	00 
    48f0:	48 c7 05 95 5a 00 00 	movq   $0x4,0x5a95(%rip)        # a390 <__cg_data_MOD_acol+0x10>
    48f7:	04 00 00 00 
    48fb:	48 89 1d 96 5a 00 00 	mov    %rbx,0x5a96(%rip)        # a398 <__cg_data_MOD_acol+0x18>
    4902:	0f 29 0d 27 5a 00 00 	movaps %xmm1,0x5a27(%rip)        # a330 <__cg_data_MOD_arow+0x30>
    4909:	0f 85 76 03 00 00    	jne    4c85 <alloc_space_+0x535>
    490f:	bf 00 41 0a 00       	mov    $0xa4100,%edi
    4914:	e8 87 c7 ff ff       	call   10a0 <malloc@plt>
    4919:	66 0f 6f 05 9f 1b 00 	movdqa 0x1b9f(%rip),%xmm0        # 64c0 <options.51.0+0xe0>
    4920:	00 
    4921:	48 c7 05 5c 5a 00 00 	movq   $0xffffffffffffffff,0x5a5c(%rip)        # a388 <__cg_data_MOD_acol+0x8>
    4928:	ff ff ff ff 
    492c:	48 85 c0             	test   %rax,%rax
    492f:	48 89 05 4a 5a 00 00 	mov    %rax,0x5a4a(%rip)        # a380 <__cg_data_MOD_acol>
    4936:	0f 29 05 63 5a 00 00 	movaps %xmm0,0x5a63(%rip)        # a3a0 <__cg_data_MOD_acol+0x20>
    493d:	66 0f 6f 05 cb 1b 00 	movdqa 0x1bcb(%rip),%xmm0        # 6510 <options.51.0+0x130>
    4944:	00 
    4945:	0f 29 05 64 5a 00 00 	movaps %xmm0,0x5a64(%rip)        # a3b0 <__cg_data_MOD_acol+0x30>
    494c:	0f 84 33 03 00 00    	je     4c85 <alloc_space_+0x535>
    4952:	48 bb 00 00 00 00 01 	movabs $0x30100000000,%rbx
    4959:	03 00 00 
    495c:	48 83 3d 7c 57 00 00 	cmpq   $0x0,0x577c(%rip)        # a0e0 <__cg_data_MOD_v>
    4963:	00 
    4964:	48 c7 05 81 57 00 00 	movq   $0x8,0x5781(%rip)        # a0f0 <__cg_data_MOD_v+0x10>
    496b:	08 00 00 00 
    496f:	48 89 1d 82 57 00 00 	mov    %rbx,0x5782(%rip)        # a0f8 <__cg_data_MOD_v+0x18>
    4976:	0f 85 09 03 00 00    	jne    4c85 <alloc_space_+0x535>
    497c:	bf 00 18 f6 00       	mov    $0xf61800,%edi
    4981:	e8 1a c7 ff ff       	call   10a0 <malloc@plt>
    4986:	48 c7 05 57 57 00 00 	movq   $0xffffffffffffffff,0x5757(%rip)        # a0e8 <__cg_data_MOD_v+0x8>
    498d:	ff ff ff ff 
    4991:	48 89 05 48 57 00 00 	mov    %rax,0x5748(%rip)        # a0e0 <__cg_data_MOD_v>
    4998:	48 85 c0             	test   %rax,%rax
    499b:	0f 84 e4 03 00 00    	je     4d85 <alloc_space_+0x635>
    49a1:	66 0f 6f 25 77 1b 00 	movdqa 0x1b77(%rip),%xmm4        # 6520 <options.51.0+0x140>
    49a8:	00 
    49a9:	66 0f 6f 2d 1f 1b 00 	movdqa 0x1b1f(%rip),%xmm5        # 64d0 <options.51.0+0xf0>
    49b0:	00 
    49b1:	48 c7 05 94 59 00 00 	movq   $0x8,0x5994(%rip)        # a350 <__cg_data_MOD_aelt+0x10>
    49b8:	08 00 00 00 
    49bc:	48 83 3d 7c 59 00 00 	cmpq   $0x0,0x597c(%rip)        # a340 <__cg_data_MOD_aelt>
    49c3:	00 
    49c4:	48 89 1d 8d 59 00 00 	mov    %rbx,0x598d(%rip)        # a358 <__cg_data_MOD_aelt+0x18>
    49cb:	0f 29 25 2e 57 00 00 	movaps %xmm4,0x572e(%rip)        # a100 <__cg_data_MOD_v+0x20>
    49d2:	0f 29 2d 37 57 00 00 	movaps %xmm5,0x5737(%rip)        # a110 <__cg_data_MOD_v+0x30>
    49d9:	0f 85 a6 02 00 00    	jne    4c85 <alloc_space_+0x535>
    49df:	bf 00 82 14 00       	mov    $0x148200,%edi
    49e4:	e8 b7 c6 ff ff       	call   10a0 <malloc@plt>
    49e9:	66 0f 6f 05 1f 1b 00 	movdqa 0x1b1f(%rip),%xmm0        # 6510 <options.51.0+0x130>
    49f0:	00 
    49f1:	48 c7 05 4c 59 00 00 	movq   $0xffffffffffffffff,0x594c(%rip)        # a348 <__cg_data_MOD_aelt+0x8>
    49f8:	ff ff ff ff 
    49fc:	48 85 c0             	test   %rax,%rax
    49ff:	48 89 05 3a 59 00 00 	mov    %rax,0x593a(%rip)        # a340 <__cg_data_MOD_aelt>
    4a06:	0f 84 5e 03 00 00    	je     4d6a <alloc_space_+0x61a>
    4a0c:	66 0f 6f 35 0c 1b 00 	movdqa 0x1b0c(%rip),%xmm6        # 6520 <options.51.0+0x140>
    4a13:	00 
    4a14:	48 83 3d a4 59 00 00 	cmpq   $0x0,0x59a4(%rip)        # a3c0 <__cg_data_MOD_a>
    4a1b:	00 
    4a1c:	48 c7 05 a9 59 00 00 	movq   $0x8,0x59a9(%rip)        # a3d0 <__cg_data_MOD_a+0x10>
    4a23:	08 00 00 00 
    4a27:	48 89 1d aa 59 00 00 	mov    %rbx,0x59aa(%rip)        # a3d8 <__cg_data_MOD_a+0x18>
    4a2e:	0f 29 35 2b 59 00 00 	movaps %xmm6,0x592b(%rip)        # a360 <__cg_data_MOD_aelt+0x20>
    4a35:	0f 29 05 34 59 00 00 	movaps %xmm0,0x5934(%rip)        # a370 <__cg_data_MOD_aelt+0x30>
    4a3c:	0f 85 43 02 00 00    	jne    4c85 <alloc_space_+0x535>
    4a42:	bf 00 18 f6 00       	mov    $0xf61800,%edi
    4a47:	e8 54 c6 ff ff       	call   10a0 <malloc@plt>
    4a4c:	48 c7 05 71 59 00 00 	movq   $0xffffffffffffffff,0x5971(%rip)        # a3c8 <__cg_data_MOD_a+0x8>
    4a53:	ff ff ff ff 
    4a57:	48 89 05 62 59 00 00 	mov    %rax,0x5962(%rip)        # a3c0 <__cg_data_MOD_a>
    4a5e:	48 85 c0             	test   %rax,%rax
    4a61:	0f 84 e0 02 00 00    	je     4d47 <alloc_space_+0x5f7>
    4a67:	66 0f 6f 3d b1 1a 00 	movdqa 0x1ab1(%rip),%xmm7        # 6520 <options.51.0+0x140>
    4a6e:	00 
    4a6f:	48 83 3d 29 56 00 00 	cmpq   $0x0,0x5629(%rip)        # a0a0 <__cg_data_MOD_x>
    4a76:	00 
    4a77:	48 c7 05 2e 56 00 00 	movq   $0x8,0x562e(%rip)        # a0b0 <__cg_data_MOD_x+0x10>
    4a7e:	08 00 00 00 
    4a82:	48 89 1d 2f 56 00 00 	mov    %rbx,0x562f(%rip)        # a0b8 <__cg_data_MOD_x+0x18>
    4a89:	0f 29 3d 50 59 00 00 	movaps %xmm7,0x5950(%rip)        # a3e0 <__cg_data_MOD_a+0x20>
    4a90:	66 0f 6f 3d 38 1a 00 	movdqa 0x1a38(%rip),%xmm7        # 64d0 <options.51.0+0xf0>
    4a97:	00 
    4a98:	0f 29 3d 51 59 00 00 	movaps %xmm7,0x5951(%rip)        # a3f0 <__cg_data_MOD_a+0x30>
    4a9f:	0f 85 e0 01 00 00    	jne    4c85 <alloc_space_+0x535>
    4aa5:	bf 90 b5 01 00       	mov    $0x1b590,%edi
    4aaa:	e8 f1 c5 ff ff       	call   10a0 <malloc@plt>
    4aaf:	48 c7 05 ee 55 00 00 	movq   $0xffffffffffffffff,0x55ee(%rip)        # a0a8 <__cg_data_MOD_x+0x8>
    4ab6:	ff ff ff ff 
    4aba:	48 89 05 df 55 00 00 	mov    %rax,0x55df(%rip)        # a0a0 <__cg_data_MOD_x>
    4ac1:	48 85 c0             	test   %rax,%rax
    4ac4:	0f 84 5a 02 00 00    	je     4d24 <alloc_space_+0x5d4>
    4aca:	66 0f 6f 25 4e 1a 00 	movdqa 0x1a4e(%rip),%xmm4        # 6520 <options.51.0+0x140>
    4ad1:	00 
    4ad2:	66 0f 6f 05 56 1a 00 	movdqa 0x1a56(%rip),%xmm0        # 6530 <options.51.0+0x150>
    4ad9:	00 
    4ada:	48 c7 05 8b 55 00 00 	movq   $0x8,0x558b(%rip)        # a070 <__cg_data_MOD_z+0x10>
    4ae1:	08 00 00 00 
    4ae5:	48 83 3d 73 55 00 00 	cmpq   $0x0,0x5573(%rip)        # a060 <__cg_data_MOD_z>
    4aec:	00 
    4aed:	48 89 1d 84 55 00 00 	mov    %rbx,0x5584(%rip)        # a078 <__cg_data_MOD_z+0x18>
    4af4:	0f 29 25 c5 55 00 00 	movaps %xmm4,0x55c5(%rip)        # a0c0 <__cg_data_MOD_x+0x20>
    4afb:	0f 29 05 ce 55 00 00 	movaps %xmm0,0x55ce(%rip)        # a0d0 <__cg_data_MOD_x+0x30>
    4b02:	0f 85 7d 01 00 00    	jne    4c85 <alloc_space_+0x535>
    4b08:	bf 90 b5 01 00       	mov    $0x1b590,%edi
    4b0d:	e8 8e c5 ff ff       	call   10a0 <malloc@plt>
    4b12:	66 0f 6f 05 16 1a 00 	movdqa 0x1a16(%rip),%xmm0        # 6530 <options.51.0+0x150>
    4b19:	00 
    4b1a:	48 c7 05 43 55 00 00 	movq   $0xffffffffffffffff,0x5543(%rip)        # a068 <__cg_data_MOD_z+0x8>
    4b21:	ff ff ff ff 
    4b25:	48 85 c0             	test   %rax,%rax
    4b28:	48 89 05 31 55 00 00 	mov    %rax,0x5531(%rip)        # a060 <__cg_data_MOD_z>
    4b2f:	0f 84 d4 01 00 00    	je     4d09 <alloc_space_+0x5b9>
    4b35:	66 0f 6f 2d e3 19 00 	movdqa 0x19e3(%rip),%xmm5        # 6520 <options.51.0+0x140>
    4b3c:	00 
    4b3d:	48 83 3d bb 56 00 00 	cmpq   $0x0,0x56bb(%rip)        # a200 <__cg_data_MOD_p>
    4b44:	00 
    4b45:	48 c7 05 c0 56 00 00 	movq   $0x8,0x56c0(%rip)        # a210 <__cg_data_MOD_p+0x10>
    4b4c:	08 00 00 00 
    4b50:	48 89 1d c1 56 00 00 	mov    %rbx,0x56c1(%rip)        # a218 <__cg_data_MOD_p+0x18>
    4b57:	0f 29 2d 22 55 00 00 	movaps %xmm5,0x5522(%rip)        # a080 <__cg_data_MOD_z+0x20>
    4b5e:	0f 29 05 2b 55 00 00 	movaps %xmm0,0x552b(%rip)        # a090 <__cg_data_MOD_z+0x30>
    4b65:	0f 85 1a 01 00 00    	jne    4c85 <alloc_space_+0x535>
    4b6b:	bf 90 b5 01 00       	mov    $0x1b590,%edi
    4b70:	e8 2b c5 ff ff       	call   10a0 <malloc@plt>
    4b75:	66 0f 6f 05 b3 19 00 	movdqa 0x19b3(%rip),%xmm0        # 6530 <options.51.0+0x150>
    4b7c:	00 
    4b7d:	48 c7 05 80 56 00 00 	movq   $0xffffffffffffffff,0x5680(%rip)        # a208 <__cg_data_MOD_p+0x8>
    4b84:	ff ff ff ff 
    4b88:	48 85 c0             	test   %rax,%rax
    4b8b:	48 89 05 6e 56 00 00 	mov    %rax,0x566e(%rip)        # a200 <__cg_data_MOD_p>
    4b92:	0f 84 56 01 00 00    	je     4cee <alloc_space_+0x59e>
    4b98:	66 0f 6f 35 80 19 00 	movdqa 0x1980(%rip),%xmm6        # 6520 <options.51.0+0x140>
    4b9f:	00 
    4ba0:	48 83 3d 18 56 00 00 	cmpq   $0x0,0x5618(%rip)        # a1c0 <__cg_data_MOD_q>
    4ba7:	00 
    4ba8:	48 c7 05 1d 56 00 00 	movq   $0x8,0x561d(%rip)        # a1d0 <__cg_data_MOD_q+0x10>
    4baf:	08 00 00 00 
    4bb3:	48 89 1d 1e 56 00 00 	mov    %rbx,0x561e(%rip)        # a1d8 <__cg_data_MOD_q+0x18>
    4bba:	0f 29 35 5f 56 00 00 	movaps %xmm6,0x565f(%rip)        # a220 <__cg_data_MOD_p+0x20>
    4bc1:	0f 29 05 68 56 00 00 	movaps %xmm0,0x5668(%rip)        # a230 <__cg_data_MOD_p+0x30>
    4bc8:	0f 85 b7 00 00 00    	jne    4c85 <alloc_space_+0x535>
    4bce:	bf 90 b5 01 00       	mov    $0x1b590,%edi
    4bd3:	e8 c8 c4 ff ff       	call   10a0 <malloc@plt>
    4bd8:	66 0f 6f 05 50 19 00 	movdqa 0x1950(%rip),%xmm0        # 6530 <options.51.0+0x150>
    4bdf:	00 
    4be0:	48 c7 05 dd 55 00 00 	movq   $0xffffffffffffffff,0x55dd(%rip)        # a1c8 <__cg_data_MOD_q+0x8>
    4be7:	ff ff ff ff 
    4beb:	48 85 c0             	test   %rax,%rax
    4bee:	48 89 05 cb 55 00 00 	mov    %rax,0x55cb(%rip)        # a1c0 <__cg_data_MOD_q>
    4bf5:	0f 84 db 00 00 00    	je     4cd6 <alloc_space_+0x586>
    4bfb:	66 0f 6f 15 1d 19 00 	movdqa 0x191d(%rip),%xmm2        # 6520 <options.51.0+0x140>
    4c02:	00 
    4c03:	48 83 3d 75 55 00 00 	cmpq   $0x0,0x5575(%rip)        # a180 <__cg_data_MOD_r>
    4c0a:	00 
    4c0b:	48 c7 05 7a 55 00 00 	movq   $0x8,0x557a(%rip)        # a190 <__cg_data_MOD_r+0x10>
    4c12:	08 00 00 00 
    4c16:	48 89 1d 7b 55 00 00 	mov    %rbx,0x557b(%rip)        # a198 <__cg_data_MOD_r+0x18>
    4c1d:	0f 29 15 bc 55 00 00 	movaps %xmm2,0x55bc(%rip)        # a1e0 <__cg_data_MOD_q+0x20>
    4c24:	0f 29 05 c5 55 00 00 	movaps %xmm0,0x55c5(%rip)        # a1f0 <__cg_data_MOD_q+0x30>
    4c2b:	75 58                	jne    4c85 <alloc_space_+0x535>
    4c2d:	bf 90 b5 01 00       	mov    $0x1b590,%edi
    4c32:	e8 69 c4 ff ff       	call   10a0 <malloc@plt>
    4c37:	66 0f 6f 1d e1 18 00 	movdqa 0x18e1(%rip),%xmm3        # 6520 <options.51.0+0x140>
    4c3e:	00 
    4c3f:	66 0f 6f 05 e9 18 00 	movdqa 0x18e9(%rip),%xmm0        # 6530 <options.51.0+0x150>
    4c46:	00 
    4c47:	48 c7 05 36 55 00 00 	movq   $0xffffffffffffffff,0x5536(%rip)        # a188 <__cg_data_MOD_r+0x8>
    4c4e:	ff ff ff ff 
    4c52:	48 85 c0             	test   %rax,%rax
    4c55:	48 89 05 24 55 00 00 	mov    %rax,0x5524(%rip)        # a180 <__cg_data_MOD_r>
    4c5c:	0f 29 1d 3d 55 00 00 	movaps %xmm3,0x553d(%rip)        # a1a0 <__cg_data_MOD_r+0x20>
    4c63:	0f 29 05 46 55 00 00 	movaps %xmm0,0x5546(%rip)        # a1b0 <__cg_data_MOD_r+0x30>
    4c6a:	74 19                	je     4c85 <alloc_space_+0x535>
    4c6c:	48 81 c4 18 02 00 00 	add    $0x218,%rsp
    4c73:	5b                   	pop    %rbx
    4c74:	5d                   	pop    %rbp
    4c75:	c3                   	ret    
    4c76:	66 0f 6f 05 52 18 00 	movdqa 0x1852(%rip),%xmm0        # 64d0 <options.51.0+0xf0>
    4c7d:	00 
    4c7e:	0f 29 05 6b 56 00 00 	movaps %xmm0,0x566b(%rip)        # a2f0 <__cg_data_MOD_colidx+0x30>
    4c85:	48 8d 05 f4 17 00 00 	lea    0x17f4(%rip),%rax        # 6480 <options.51.0+0xa0>
    4c8c:	48 89 e5             	mov    %rsp,%rbp
    4c8f:	c7 44 24 10 70 00 00 	movl   $0x70,0x10(%rsp)
    4c96:	00 
    4c97:	48 89 44 24 08       	mov    %rax,0x8(%rsp)
    4c9c:	48 8b 05 a5 17 00 00 	mov    0x17a5(%rip),%rax        # 6448 <options.51.0+0x68>
    4ca3:	48 89 ef             	mov    %rbp,%rdi
    4ca6:	48 89 04 24          	mov    %rax,(%rsp)
    4caa:	e8 41 c5 ff ff       	call   11f0 <_gfortran_st_write@plt>
    4caf:	ba 25 00 00 00       	mov    $0x25,%edx
    4cb4:	48 8d 35 d5 17 00 00 	lea    0x17d5(%rip),%rsi        # 6490 <options.51.0+0xb0>
    4cbb:	48 89 ef             	mov    %rbp,%rdi
    4cbe:	e8 2d c4 ff ff       	call   10f0 <_gfortran_transfer_character_write@plt>
    4cc3:	48 89 ef             	mov    %rbp,%rdi
    4cc6:	e8 c5 c4 ff ff       	call   1190 <_gfortran_st_write_done@plt>
    4ccb:	31 d2                	xor    %edx,%edx
    4ccd:	31 f6                	xor    %esi,%esi
    4ccf:	31 ff                	xor    %edi,%edi
    4cd1:	e8 6a c3 ff ff       	call   1040 <_gfortran_stop_string@plt>
    4cd6:	66 0f 6f 1d 42 18 00 	movdqa 0x1842(%rip),%xmm3        # 6520 <options.51.0+0x140>
    4cdd:	00 
    4cde:	0f 29 05 0b 55 00 00 	movaps %xmm0,0x550b(%rip)        # a1f0 <__cg_data_MOD_q+0x30>
    4ce5:	0f 29 1d f4 54 00 00 	movaps %xmm3,0x54f4(%rip)        # a1e0 <__cg_data_MOD_q+0x20>
    4cec:	eb 97                	jmp    4c85 <alloc_space_+0x535>
    4cee:	66 0f 6f 1d 2a 18 00 	movdqa 0x182a(%rip),%xmm3        # 6520 <options.51.0+0x140>
    4cf5:	00 
    4cf6:	0f 29 05 33 55 00 00 	movaps %xmm0,0x5533(%rip)        # a230 <__cg_data_MOD_p+0x30>
    4cfd:	0f 29 1d 1c 55 00 00 	movaps %xmm3,0x551c(%rip)        # a220 <__cg_data_MOD_p+0x20>
    4d04:	e9 7c ff ff ff       	jmp    4c85 <alloc_space_+0x535>
    4d09:	66 0f 6f 1d 0f 18 00 	movdqa 0x180f(%rip),%xmm3        # 6520 <options.51.0+0x140>
    4d10:	00 
    4d11:	0f 29 05 78 53 00 00 	movaps %xmm0,0x5378(%rip)        # a090 <__cg_data_MOD_z+0x30>
    4d18:	0f 29 1d 61 53 00 00 	movaps %xmm3,0x5361(%rip)        # a080 <__cg_data_MOD_z+0x20>
    4d1f:	e9 61 ff ff ff       	jmp    4c85 <alloc_space_+0x535>
    4d24:	66 0f 6f 1d f4 17 00 	movdqa 0x17f4(%rip),%xmm3        # 6520 <options.51.0+0x140>
    4d2b:	00 
    4d2c:	66 0f 6f 05 fc 17 00 	movdqa 0x17fc(%rip),%xmm0        # 6530 <options.51.0+0x150>
    4d33:	00 
    4d34:	0f 29 1d 85 53 00 00 	movaps %xmm3,0x5385(%rip)        # a0c0 <__cg_data_MOD_x+0x20>
    4d3b:	0f 29 05 8e 53 00 00 	movaps %xmm0,0x538e(%rip)        # a0d0 <__cg_data_MOD_x+0x30>
    4d42:	e9 3e ff ff ff       	jmp    4c85 <alloc_space_+0x535>
    4d47:	66 0f 6f 1d d1 17 00 	movdqa 0x17d1(%rip),%xmm3        # 6520 <options.51.0+0x140>
    4d4e:	00 
    4d4f:	0f 29 1d 8a 56 00 00 	movaps %xmm3,0x568a(%rip)        # a3e0 <__cg_data_MOD_a+0x20>
    4d56:	66 0f 6f 1d 72 17 00 	movdqa 0x1772(%rip),%xmm3        # 64d0 <options.51.0+0xf0>
    4d5d:	00 
    4d5e:	0f 29 1d 8b 56 00 00 	movaps %xmm3,0x568b(%rip)        # a3f0 <__cg_data_MOD_a+0x30>
    4d65:	e9 1b ff ff ff       	jmp    4c85 <alloc_space_+0x535>
    4d6a:	66 0f 6f 1d ae 17 00 	movdqa 0x17ae(%rip),%xmm3        # 6520 <options.51.0+0x140>
    4d71:	00 
    4d72:	0f 29 05 f7 55 00 00 	movaps %xmm0,0x55f7(%rip)        # a370 <__cg_data_MOD_aelt+0x30>
    4d79:	0f 29 1d e0 55 00 00 	movaps %xmm3,0x55e0(%rip)        # a360 <__cg_data_MOD_aelt+0x20>
    4d80:	e9 00 ff ff ff       	jmp    4c85 <alloc_space_+0x535>
    4d85:	66 0f 6f 05 93 17 00 	movdqa 0x1793(%rip),%xmm0        # 6520 <options.51.0+0x140>
    4d8c:	00 
    4d8d:	66 0f 6f 1d 3b 17 00 	movdqa 0x173b(%rip),%xmm3        # 64d0 <options.51.0+0xf0>
    4d94:	00 
    4d95:	0f 29 05 64 53 00 00 	movaps %xmm0,0x5364(%rip)        # a100 <__cg_data_MOD_v+0x20>
    4d9c:	0f 29 1d 6d 53 00 00 	movaps %xmm3,0x536d(%rip)        # a110 <__cg_data_MOD_v+0x30>
    4da3:	e9 dd fe ff ff       	jmp    4c85 <alloc_space_+0x535>
    4da8:	66 0f 6f 05 50 17 00 	movdqa 0x1750(%rip),%xmm0        # 6500 <options.51.0+0x120>
    4daf:	00 
    4db0:	0f 29 05 79 55 00 00 	movaps %xmm0,0x5579(%rip)        # a330 <__cg_data_MOD_arow+0x30>
    4db7:	e9 c9 fe ff ff       	jmp    4c85 <alloc_space_+0x535>
    4dbc:	66 0f 6f 05 2c 17 00 	movdqa 0x172c(%rip),%xmm0        # 64f0 <options.51.0+0x110>
    4dc3:	00 
    4dc4:	0f 29 05 c5 54 00 00 	movaps %xmm0,0x54c5(%rip)        # a290 <__cg_data_MOD_iv+0x30>
    4dcb:	e9 b5 fe ff ff       	jmp    4c85 <alloc_space_+0x535>
    4dd0:	66 0f 6f 05 08 17 00 	movdqa 0x1708(%rip),%xmm0        # 64e0 <options.51.0+0x100>
    4dd7:	00 
    4dd8:	0f 29 05 91 53 00 00 	movaps %xmm0,0x5391(%rip)        # a170 <__cg_data_MOD_rowstr+0x30>
    4ddf:	e9 a1 fe ff ff       	jmp    4c85 <alloc_space_+0x535>
    4de4:	66 2e 0f 1f 84 00 00 	cs nopw 0x0(%rax,%rax,1)
    4deb:	00 00 00 
    4dee:	66 90                	xchg   %ax,%ax

0000000000004df0 <print_results_._omp_fn.0>:
    4df0:	53                   	push   %rbx
    4df1:	48 89 fb             	mov    %rdi,%rbx
    4df4:	e8 d7 c2 ff ff       	call   10d0 <omp_get_thread_num@plt>
    4df9:	85 c0                	test   %eax,%eax
    4dfb:	74 03                	je     4e00 <print_results_._omp_fn.0+0x10>
    4dfd:	5b                   	pop    %rbx
    4dfe:	c3                   	ret    
    4dff:	90                   	nop
    4e00:	e8 1b c3 ff ff       	call   1120 <omp_get_num_threads_@plt>
    4e05:	41 89 c0             	mov    %eax,%r8d
    4e08:	48 8b 03             	mov    (%rbx),%rax
    4e0b:	44 89 00             	mov    %r8d,(%rax)
    4e0e:	5b                   	pop    %rbx
    4e0f:	c3                   	ret    

0000000000004e10 <print_results_>:
    4e10:	41 57                	push   %r15
    4e12:	31 c0                	xor    %eax,%eax
    4e14:	49 89 ff             	mov    %rdi,%r15
    4e17:	41 56                	push   %r14
    4e19:	49 89 ce             	mov    %rcx,%r14
    4e1c:	41 55                	push   %r13
    4e1e:	41 54                	push   %r12
    4e20:	55                   	push   %rbp
    4e21:	53                   	push   %rbx
    4e22:	48 8d 1d 17 17 00 00 	lea    0x1717(%rip),%rbx        # 6540 <options.51.0+0x160>
    4e29:	48 81 ec 68 02 00 00 	sub    $0x268,%rsp
    4e30:	4c 89 44 24 08       	mov    %r8,0x8(%rsp)
    4e35:	48 8d 6c 24 50       	lea    0x50(%rsp),%rbp
    4e3a:	4c 89 4c 24 10       	mov    %r9,0x10(%rsp)
    4e3f:	48 89 74 24 18       	mov    %rsi,0x18(%rsp)
    4e44:	48 89 54 24 20       	mov    %rdx,0x20(%rsp)
    4e49:	e8 62 c3 ff ff       	call   11b0 <omp_get_max_threads_@plt>
    4e4e:	31 d2                	xor    %edx,%edx
    4e50:	48 89 ee             	mov    %rbp,%rsi
    4e53:	31 c9                	xor    %ecx,%ecx
    4e55:	89 44 24 30          	mov    %eax,0x30(%rsp)
    4e59:	48 8d 3d 90 ff ff ff 	lea    -0x70(%rip),%rdi        # 4df0 <print_results_._omp_fn.0>
    4e60:	41 89 c5             	mov    %eax,%r13d
    4e63:	48 8d 44 24 34       	lea    0x34(%rsp),%rax
    4e68:	48 89 44 24 28       	mov    %rax,0x28(%rsp)
    4e6d:	48 89 44 24 50       	mov    %rax,0x50(%rsp)
    4e72:	c7 44 24 34 00 00 00 	movl   $0x0,0x34(%rsp)
    4e79:	00 
    4e7a:	e8 01 c3 ff ff       	call   1180 <GOMP_parallel@plt>
    4e7f:	4c 8b 25 b2 15 00 00 	mov    0x15b2(%rip),%r12        # 6438 <options.51.0+0x58>
    4e86:	48 89 ef             	mov    %rbp,%rdi
    4e89:	48 8d 0d a8 17 00 00 	lea    0x17a8(%rip),%rcx        # 6638 <options.51.0+0x258>
    4e90:	48 89 8c 24 a0 00 00 	mov    %rcx,0xa0(%rsp)
    4e97:	00 
    4e98:	48 89 5c 24 58       	mov    %rbx,0x58(%rsp)
    4e9d:	c7 44 24 60 20 00 00 	movl   $0x20,0x60(%rsp)
    4ea4:	00 
    4ea5:	48 c7 84 24 a8 00 00 	movq   $0x25,0xa8(%rsp)
    4eac:	00 25 00 00 00 
    4eb1:	4c 89 64 24 50       	mov    %r12,0x50(%rsp)
    4eb6:	e8 35 c3 ff ff       	call   11f0 <_gfortran_st_write@plt>
    4ebb:	48 8b 94 24 08 03 00 	mov    0x308(%rsp),%rdx
    4ec2:	00 
    4ec3:	4c 89 fe             	mov    %r15,%rsi
    4ec6:	48 89 ef             	mov    %rbp,%rdi
    4ec9:	e8 22 c2 ff ff       	call   10f0 <_gfortran_transfer_character_write@plt>
    4ece:	48 89 ef             	mov    %rbp,%rdi
    4ed1:	e8 ba c2 ff ff       	call   1190 <_gfortran_st_write_done@plt>
    4ed6:	48 8d 0d 83 17 00 00 	lea    0x1783(%rip),%rcx        # 6660 <options.51.0+0x280>
    4edd:	48 89 ef             	mov    %rbp,%rdi
    4ee0:	48 89 5c 24 58       	mov    %rbx,0x58(%rsp)
    4ee5:	48 89 8c 24 a0 00 00 	mov    %rcx,0xa0(%rsp)
    4eec:	00 
    4eed:	c7 44 24 60 23 00 00 	movl   $0x23,0x60(%rsp)
    4ef4:	00 
    4ef5:	48 c7 84 24 a8 00 00 	movq   $0x21,0xa8(%rsp)
    4efc:	00 21 00 00 00 
    4f01:	4c 89 64 24 50       	mov    %r12,0x50(%rsp)
    4f06:	e8 e5 c2 ff ff       	call   11f0 <_gfortran_st_write@plt>
    4f0b:	48 8b 74 24 18       	mov    0x18(%rsp),%rsi
    4f10:	ba 01 00 00 00       	mov    $0x1,%edx
    4f15:	48 89 ef             	mov    %rbp,%rdi
    4f18:	e8 d3 c1 ff ff       	call   10f0 <_gfortran_transfer_character_write@plt>
    4f1d:	48 89 ef             	mov    %rbp,%rdi
    4f20:	e8 6b c2 ff ff       	call   1190 <_gfortran_st_write_done@plt>
    4f25:	41 8b 3e             	mov    (%r14),%edi
    4f28:	85 ff                	test   %edi,%edi
    4f2a:	75 0f                	jne    4f3b <print_results_+0x12b>
    4f2c:	48 8b 44 24 08       	mov    0x8(%rsp),%rax
    4f31:	8b 30                	mov    (%rax),%esi
    4f33:	85 f6                	test   %esi,%esi
    4f35:	0f 84 2d 07 00 00    	je     5668 <print_results_+0x858>
    4f3b:	48 8d 05 8e 17 00 00 	lea    0x178e(%rip),%rax        # 66d0 <options.51.0+0x2f0>
    4f42:	48 89 ef             	mov    %rbp,%rdi
    4f45:	48 89 5c 24 58       	mov    %rbx,0x58(%rsp)
    4f4a:	48 89 84 24 a0 00 00 	mov    %rax,0xa0(%rsp)
    4f51:	00 
    4f52:	c7 44 24 60 37 00 00 	movl   $0x37,0x60(%rsp)
    4f59:	00 
    4f5a:	48 c7 84 24 a8 00 00 	movq   $0x2d,0xa8(%rsp)
    4f61:	00 2d 00 00 00 
    4f66:	4c 89 64 24 50       	mov    %r12,0x50(%rsp)
    4f6b:	e8 80 c2 ff ff       	call   11f0 <_gfortran_st_write@plt>
    4f70:	48 8b 74 24 20       	mov    0x20(%rsp),%rsi
    4f75:	ba 04 00 00 00       	mov    $0x4,%edx
    4f7a:	48 89 ef             	mov    %rbp,%rdi
    4f7d:	e8 3e c1 ff ff       	call   10c0 <_gfortran_transfer_integer_write@plt>
    4f82:	ba 04 00 00 00       	mov    $0x4,%edx
    4f87:	4c 89 f6             	mov    %r14,%rsi
    4f8a:	48 89 ef             	mov    %rbp,%rdi
    4f8d:	e8 2e c1 ff ff       	call   10c0 <_gfortran_transfer_integer_write@plt>
    4f92:	48 8b 74 24 08       	mov    0x8(%rsp),%rsi
    4f97:	48 89 ef             	mov    %rbp,%rdi
    4f9a:	ba 04 00 00 00       	mov    $0x4,%edx
    4f9f:	e8 1c c1 ff ff       	call   10c0 <_gfortran_transfer_integer_write@plt>
    4fa4:	48 89 ef             	mov    %rbp,%rdi
    4fa7:	e8 e4 c1 ff ff       	call   1190 <_gfortran_st_write_done@plt>
    4fac:	48 8d 05 4d 17 00 00 	lea    0x174d(%rip),%rax        # 6700 <options.51.0+0x320>
    4fb3:	48 89 ef             	mov    %rbp,%rdi
    4fb6:	48 89 5c 24 58       	mov    %rbx,0x58(%rsp)
    4fbb:	48 89 84 24 a0 00 00 	mov    %rax,0xa0(%rsp)
    4fc2:	00 
    4fc3:	c7 44 24 60 3b 00 00 	movl   $0x3b,0x60(%rsp)
    4fca:	00 
    4fcb:	48 c7 84 24 a8 00 00 	movq   $0x21,0xa8(%rsp)
    4fd2:	00 21 00 00 00 
    4fd7:	4c 89 64 24 50       	mov    %r12,0x50(%rsp)
    4fdc:	e8 0f c2 ff ff       	call   11f0 <_gfortran_st_write@plt>
    4fe1:	48 8b 74 24 10       	mov    0x10(%rsp),%rsi
    4fe6:	ba 04 00 00 00       	mov    $0x4,%edx
    4feb:	48 89 ef             	mov    %rbp,%rdi
    4fee:	e8 cd c0 ff ff       	call   10c0 <_gfortran_transfer_integer_write@plt>
    4ff3:	48 89 ef             	mov    %rbp,%rdi
    4ff6:	e8 95 c1 ff ff       	call   1190 <_gfortran_st_write_done@plt>
    4ffb:	48 8d 05 26 17 00 00 	lea    0x1726(%rip),%rax        # 6728 <options.51.0+0x348>
    5002:	48 89 ef             	mov    %rbp,%rdi
    5005:	48 89 5c 24 58       	mov    %rbx,0x58(%rsp)
    500a:	48 89 84 24 a0 00 00 	mov    %rax,0xa0(%rsp)
    5011:	00 
    5012:	c7 44 24 60 3e 00 00 	movl   $0x3e,0x60(%rsp)
    5019:	00 
    501a:	48 c7 84 24 a8 00 00 	movq   $0x22,0xa8(%rsp)
    5021:	00 22 00 00 00 
    5026:	4c 89 64 24 50       	mov    %r12,0x50(%rsp)
    502b:	e8 c0 c1 ff ff       	call   11f0 <_gfortran_st_write@plt>
    5030:	48 8b b4 24 a0 02 00 	mov    0x2a0(%rsp),%rsi
    5037:	00 
    5038:	ba 08 00 00 00       	mov    $0x8,%edx
    503d:	48 89 ef             	mov    %rbp,%rdi
    5040:	e8 eb bf ff ff       	call   1030 <_gfortran_transfer_real_write@plt>
    5045:	48 89 ef             	mov    %rbp,%rdi
    5048:	e8 43 c1 ff ff       	call   1190 <_gfortran_st_write_done@plt>
    504d:	8b 4c 24 34          	mov    0x34(%rsp),%ecx
    5051:	85 c9                	test   %ecx,%ecx
    5053:	7e 4f                	jle    50a4 <print_results_+0x294>
    5055:	48 8d 05 f4 16 00 00 	lea    0x16f4(%rip),%rax        # 6750 <options.51.0+0x370>
    505c:	48 89 ef             	mov    %rbp,%rdi
    505f:	48 89 5c 24 58       	mov    %rbx,0x58(%rsp)
    5064:	48 89 84 24 a0 00 00 	mov    %rax,0xa0(%rsp)
    506b:	00 
    506c:	c7 44 24 60 41 00 00 	movl   $0x41,0x60(%rsp)
    5073:	00 
    5074:	48 c7 84 24 a8 00 00 	movq   $0x21,0xa8(%rsp)
    507b:	00 21 00 00 00 
    5080:	4c 89 64 24 50       	mov    %r12,0x50(%rsp)
    5085:	e8 66 c1 ff ff       	call   11f0 <_gfortran_st_write@plt>
    508a:	48 8b 74 24 28       	mov    0x28(%rsp),%rsi
    508f:	48 89 ef             	mov    %rbp,%rdi
    5092:	ba 04 00 00 00       	mov    $0x4,%edx
    5097:	e8 24 c0 ff ff       	call   10c0 <_gfortran_transfer_integer_write@plt>
    509c:	48 89 ef             	mov    %rbp,%rdi
    509f:	e8 ec c0 ff ff       	call   1190 <_gfortran_st_write_done@plt>
    50a4:	45 85 ed             	test   %r13d,%r13d
    50a7:	7e 4f                	jle    50f8 <print_results_+0x2e8>
    50a9:	48 8d 05 c8 16 00 00 	lea    0x16c8(%rip),%rax        # 6778 <options.51.0+0x398>
    50b0:	48 89 ef             	mov    %rbp,%rdi
    50b3:	48 89 5c 24 58       	mov    %rbx,0x58(%rsp)
    50b8:	48 89 84 24 a0 00 00 	mov    %rax,0xa0(%rsp)
    50bf:	00 
    50c0:	c7 44 24 60 44 00 00 	movl   $0x44,0x60(%rsp)
    50c7:	00 
    50c8:	48 c7 84 24 a8 00 00 	movq   $0x21,0xa8(%rsp)
    50cf:	00 21 00 00 00 
    50d4:	4c 89 64 24 50       	mov    %r12,0x50(%rsp)
    50d9:	e8 12 c1 ff ff       	call   11f0 <_gfortran_st_write@plt>
    50de:	48 89 ef             	mov    %rbp,%rdi
    50e1:	48 8d 74 24 30       	lea    0x30(%rsp),%rsi
    50e6:	ba 04 00 00 00       	mov    $0x4,%edx
    50eb:	e8 d0 bf ff ff       	call   10c0 <_gfortran_transfer_integer_write@plt>
    50f0:	48 89 ef             	mov    %rbp,%rdi
    50f3:	e8 98 c0 ff ff       	call   1190 <_gfortran_st_write_done@plt>
    50f8:	44 3b 6c 24 34       	cmp    0x34(%rsp),%r13d
    50fd:	74 3d                	je     513c <print_results_+0x32c>
    50ff:	48 8d 05 9a 16 00 00 	lea    0x169a(%rip),%rax        # 67a0 <options.51.0+0x3c0>
    5106:	48 89 ef             	mov    %rbp,%rdi
    5109:	48 89 5c 24 58       	mov    %rbx,0x58(%rsp)
    510e:	c7 44 24 60 47 00 00 	movl   $0x47,0x60(%rsp)
    5115:	00 
    5116:	48 89 84 24 a0 00 00 	mov    %rax,0xa0(%rsp)
    511d:	00 
    511e:	48 c7 84 24 a8 00 00 	movq   $0x38,0xa8(%rsp)
    5125:	00 38 00 00 00 
    512a:	4c 89 64 24 50       	mov    %r12,0x50(%rsp)
    512f:	e8 bc c0 ff ff       	call   11f0 <_gfortran_st_write@plt>
    5134:	48 89 ef             	mov    %rbp,%rdi
    5137:	e8 54 c0 ff ff       	call   1190 <_gfortran_st_write_done@plt>
    513c:	48 8d 05 9d 16 00 00 	lea    0x169d(%rip),%rax        # 67e0 <options.51.0+0x400>
    5143:	48 89 ef             	mov    %rbp,%rdi
    5146:	48 89 5c 24 58       	mov    %rbx,0x58(%rsp)
    514b:	48 89 84 24 a0 00 00 	mov    %rax,0xa0(%rsp)
    5152:	00 
    5153:	c7 44 24 60 4a 00 00 	movl   $0x4a,0x60(%rsp)
    515a:	00 
    515b:	48 c7 84 24 a8 00 00 	movq   $0x22,0xa8(%rsp)
    5162:	00 22 00 00 00 
    5167:	4c 89 64 24 50       	mov    %r12,0x50(%rsp)
    516c:	e8 7f c0 ff ff       	call   11f0 <_gfortran_st_write@plt>
    5171:	48 8b b4 24 a8 02 00 	mov    0x2a8(%rsp),%rsi
    5178:	00 
    5179:	ba 08 00 00 00       	mov    $0x8,%edx
    517e:	48 89 ef             	mov    %rbp,%rdi
    5181:	e8 aa be ff ff       	call   1030 <_gfortran_transfer_real_write@plt>
    5186:	48 89 ef             	mov    %rbp,%rdi
    5189:	e8 02 c0 ff ff       	call   1190 <_gfortran_st_write_done@plt>
    518e:	8b 54 24 34          	mov    0x34(%rsp),%edx
    5192:	85 d2                	test   %edx,%edx
    5194:	7e 73                	jle    5209 <print_results_+0x3f9>
    5196:	48 8d 05 6b 16 00 00 	lea    0x166b(%rip),%rax        # 6808 <options.51.0+0x428>
    519d:	48 89 ef             	mov    %rbp,%rdi
    51a0:	48 89 5c 24 58       	mov    %rbx,0x58(%rsp)
    51a5:	48 89 84 24 a0 00 00 	mov    %rax,0xa0(%rsp)
    51ac:	00 
    51ad:	c7 44 24 60 4d 00 00 	movl   $0x4d,0x60(%rsp)
    51b4:	00 
    51b5:	48 c7 84 24 a8 00 00 	movq   $0x23,0xa8(%rsp)
    51bc:	00 23 00 00 00 
    51c1:	4c 89 64 24 50       	mov    %r12,0x50(%rsp)
    51c6:	e8 25 c0 ff ff       	call   11f0 <_gfortran_st_write@plt>
    51cb:	66 0f ef c9          	pxor   %xmm1,%xmm1
    51cf:	48 89 ef             	mov    %rbp,%rdi
    51d2:	48 8b 84 24 a8 02 00 	mov    0x2a8(%rsp),%rax
    51d9:	00 
    51da:	f3 0f 2a 4c 24 34    	cvtsi2ssl 0x34(%rsp),%xmm1
    51e0:	48 8d 74 24 38       	lea    0x38(%rsp),%rsi
    51e5:	ba 08 00 00 00       	mov    $0x8,%edx
    51ea:	f2 0f 10 00          	movsd  (%rax),%xmm0
    51ee:	f3 0f 5a c9          	cvtss2sd %xmm1,%xmm1
    51f2:	f2 0f 5e c1          	divsd  %xmm1,%xmm0
    51f6:	f2 0f 11 44 24 38    	movsd  %xmm0,0x38(%rsp)
    51fc:	e8 2f be ff ff       	call   1030 <_gfortran_transfer_real_write@plt>
    5201:	48 89 ef             	mov    %rbp,%rdi
    5204:	e8 87 bf ff ff       	call   1190 <_gfortran_st_write_done@plt>
    5209:	48 8d 05 4a 13 00 00 	lea    0x134a(%rip),%rax        # 655a <options.51.0+0x17a>
    5210:	48 89 ef             	mov    %rbp,%rdi
    5213:	48 89 5c 24 58       	mov    %rbx,0x58(%rsp)
    5218:	48 89 84 24 a0 00 00 	mov    %rax,0xa0(%rsp)
    521f:	00 
    5220:	c7 44 24 60 50 00 00 	movl   $0x50,0x60(%rsp)
    5227:	00 
    5228:	48 c7 84 24 a8 00 00 	movq   $0x1c,0xa8(%rsp)
    522f:	00 1c 00 00 00 
    5234:	4c 89 64 24 50       	mov    %r12,0x50(%rsp)
    5239:	e8 b2 bf ff ff       	call   11f0 <_gfortran_st_write@plt>
    523e:	48 8b b4 24 b0 02 00 	mov    0x2b0(%rsp),%rsi
    5245:	00 
    5246:	ba 18 00 00 00       	mov    $0x18,%edx
    524b:	48 89 ef             	mov    %rbp,%rdi
    524e:	e8 9d be ff ff       	call   10f0 <_gfortran_transfer_character_write@plt>
    5253:	48 89 ef             	mov    %rbp,%rdi
    5256:	e8 35 bf ff ff       	call   1190 <_gfortran_st_write_done@plt>
    525b:	48 8b 84 24 b8 02 00 	mov    0x2b8(%rsp),%rax
    5262:	00 
    5263:	48 89 5c 24 58       	mov    %rbx,0x58(%rsp)
    5268:	8b 00                	mov    (%rax),%eax
    526a:	85 c0                	test   %eax,%eax
    526c:	0f 84 9e 03 00 00    	je     5610 <print_results_+0x800>
    5272:	48 8d 05 b7 15 00 00 	lea    0x15b7(%rip),%rax        # 6830 <options.51.0+0x450>
    5279:	48 89 ef             	mov    %rbp,%rdi
    527c:	c7 44 24 60 54 00 00 	movl   $0x54,0x60(%rsp)
    5283:	00 
    5284:	48 89 84 24 a0 00 00 	mov    %rax,0xa0(%rsp)
    528b:	00 
    528c:	48 c7 84 24 a8 00 00 	movq   $0x1f,0xa8(%rsp)
    5293:	00 1f 00 00 00 
    5298:	4c 89 64 24 50       	mov    %r12,0x50(%rsp)
    529d:	e8 4e bf ff ff       	call   11f0 <_gfortran_st_write@plt>
    52a2:	48 89 ef             	mov    %rbp,%rdi
    52a5:	ba 0c 00 00 00       	mov    $0xc,%edx
    52aa:	48 8d 35 c6 12 00 00 	lea    0x12c6(%rip),%rsi        # 6577 <options.51.0+0x197>
    52b1:	e8 3a be ff ff       	call   10f0 <_gfortran_transfer_character_write@plt>
    52b6:	48 89 ef             	mov    %rbp,%rdi
    52b9:	e8 d2 be ff ff       	call   1190 <_gfortran_st_write_done@plt>
    52be:	48 8d 05 8b 15 00 00 	lea    0x158b(%rip),%rax        # 6850 <options.51.0+0x470>
    52c5:	48 89 ef             	mov    %rbp,%rdi
    52c8:	48 89 5c 24 58       	mov    %rbx,0x58(%rsp)
    52cd:	48 89 84 24 a0 00 00 	mov    %rax,0xa0(%rsp)
    52d4:	00 
    52d5:	4c 89 64 24 50       	mov    %r12,0x50(%rsp)
    52da:	c7 44 24 60 5a 00 00 	movl   $0x5a,0x60(%rsp)
    52e1:	00 
    52e2:	48 c7 84 24 a8 00 00 	movq   $0x21,0xa8(%rsp)
    52e9:	00 21 00 00 00 
    52ee:	e8 fd be ff ff       	call   11f0 <_gfortran_st_write@plt>
    52f3:	48 8b 94 24 20 03 00 	mov    0x320(%rsp),%rdx
    52fa:	00 
    52fb:	48 8b b4 24 c0 02 00 	mov    0x2c0(%rsp),%rsi
    5302:	00 
    5303:	48 89 ef             	mov    %rbp,%rdi
    5306:	e8 e5 bd ff ff       	call   10f0 <_gfortran_transfer_character_write@plt>
    530b:	48 89 ef             	mov    %rbp,%rdi
    530e:	e8 7d be ff ff       	call   1190 <_gfortran_st_write_done@plt>
    5313:	48 8d 05 5e 15 00 00 	lea    0x155e(%rip),%rax        # 6878 <options.51.0+0x498>
    531a:	48 89 ef             	mov    %rbp,%rdi
    531d:	48 89 5c 24 58       	mov    %rbx,0x58(%rsp)
    5322:	48 89 84 24 a0 00 00 	mov    %rax,0xa0(%rsp)
    5329:	00 
    532a:	4c 89 64 24 50       	mov    %r12,0x50(%rsp)
    532f:	c7 44 24 60 5d 00 00 	movl   $0x5d,0x60(%rsp)
    5336:	00 
    5337:	48 c7 84 24 a8 00 00 	movq   $0x21,0xa8(%rsp)
    533e:	00 21 00 00 00 
    5343:	e8 a8 be ff ff       	call   11f0 <_gfortran_st_write@plt>
    5348:	48 8b 94 24 28 03 00 	mov    0x328(%rsp),%rdx
    534f:	00 
    5350:	48 8b b4 24 c8 02 00 	mov    0x2c8(%rsp),%rsi
    5357:	00 
    5358:	48 89 ef             	mov    %rbp,%rdi
    535b:	e8 90 bd ff ff       	call   10f0 <_gfortran_transfer_character_write@plt>
    5360:	48 89 ef             	mov    %rbp,%rdi
    5363:	e8 28 be ff ff       	call   1190 <_gfortran_st_write_done@plt>
    5368:	48 8d 05 31 15 00 00 	lea    0x1531(%rip),%rax        # 68a0 <options.51.0+0x4c0>
    536f:	48 89 ef             	mov    %rbp,%rdi
    5372:	48 89 5c 24 58       	mov    %rbx,0x58(%rsp)
    5377:	48 89 84 24 a0 00 00 	mov    %rax,0xa0(%rsp)
    537e:	00 
    537f:	4c 89 64 24 50       	mov    %r12,0x50(%rsp)
    5384:	c7 44 24 60 61 00 00 	movl   $0x61,0x60(%rsp)
    538b:	00 
    538c:	48 c7 84 24 a8 00 00 	movq   $0x40,0xa8(%rsp)
    5393:	00 40 00 00 00 
    5398:	e8 53 be ff ff       	call   11f0 <_gfortran_st_write@plt>
    539d:	48 8b 94 24 30 03 00 	mov    0x330(%rsp),%rdx
    53a4:	00 
    53a5:	48 8b b4 24 d0 02 00 	mov    0x2d0(%rsp),%rsi
    53ac:	00 
    53ad:	48 89 ef             	mov    %rbp,%rdi
    53b0:	e8 3b bd ff ff       	call   10f0 <_gfortran_transfer_character_write@plt>
    53b5:	48 89 ef             	mov    %rbp,%rdi
    53b8:	e8 d3 bd ff ff       	call   1190 <_gfortran_st_write_done@plt>
    53bd:	48 8d 05 cd 11 00 00 	lea    0x11cd(%rip),%rax        # 6591 <options.51.0+0x1b1>
    53c4:	48 89 ef             	mov    %rbp,%rdi
    53c7:	48 89 5c 24 58       	mov    %rbx,0x58(%rsp)
    53cc:	48 89 84 24 a0 00 00 	mov    %rax,0xa0(%rsp)
    53d3:	00 
    53d4:	4c 89 64 24 50       	mov    %r12,0x50(%rsp)
    53d9:	c7 44 24 60 65 00 00 	movl   $0x65,0x60(%rsp)
    53e0:	00 
    53e1:	48 c7 84 24 a8 00 00 	movq   $0x1a,0xa8(%rsp)
    53e8:	00 1a 00 00 00 
    53ed:	e8 fe bd ff ff       	call   11f0 <_gfortran_st_write@plt>
    53f2:	48 8b 94 24 38 03 00 	mov    0x338(%rsp),%rdx
    53f9:	00 
    53fa:	48 8b b4 24 d8 02 00 	mov    0x2d8(%rsp),%rsi
    5401:	00 
    5402:	48 89 ef             	mov    %rbp,%rdi
    5405:	e8 e6 bc ff ff       	call   10f0 <_gfortran_transfer_character_write@plt>
    540a:	48 89 ef             	mov    %rbp,%rdi
    540d:	e8 7e bd ff ff       	call   1190 <_gfortran_st_write_done@plt>
    5412:	48 8d 05 93 11 00 00 	lea    0x1193(%rip),%rax        # 65ac <options.51.0+0x1cc>
    5419:	48 89 ef             	mov    %rbp,%rdi
    541c:	48 89 5c 24 58       	mov    %rbx,0x58(%rsp)
    5421:	48 89 84 24 a0 00 00 	mov    %rax,0xa0(%rsp)
    5428:	00 
    5429:	4c 89 64 24 50       	mov    %r12,0x50(%rsp)
    542e:	c7 44 24 60 68 00 00 	movl   $0x68,0x60(%rsp)
    5435:	00 
    5436:	48 c7 84 24 a8 00 00 	movq   $0x1a,0xa8(%rsp)
    543d:	00 1a 00 00 00 
    5442:	e8 a9 bd ff ff       	call   11f0 <_gfortran_st_write@plt>
    5447:	48 8b 94 24 40 03 00 	mov    0x340(%rsp),%rdx
    544e:	00 
    544f:	48 8b b4 24 e0 02 00 	mov    0x2e0(%rsp),%rsi
    5456:	00 
    5457:	48 89 ef             	mov    %rbp,%rdi
    545a:	e8 91 bc ff ff       	call   10f0 <_gfortran_transfer_character_write@plt>
    545f:	48 89 ef             	mov    %rbp,%rdi
    5462:	e8 29 bd ff ff       	call   1190 <_gfortran_st_write_done@plt>
    5467:	48 8d 05 59 11 00 00 	lea    0x1159(%rip),%rax        # 65c7 <options.51.0+0x1e7>
    546e:	48 89 ef             	mov    %rbp,%rdi
    5471:	48 89 5c 24 58       	mov    %rbx,0x58(%rsp)
    5476:	48 89 84 24 a0 00 00 	mov    %rax,0xa0(%rsp)
    547d:	00 
    547e:	4c 89 64 24 50       	mov    %r12,0x50(%rsp)
    5483:	c7 44 24 60 6b 00 00 	movl   $0x6b,0x60(%rsp)
    548a:	00 
    548b:	48 c7 84 24 a8 00 00 	movq   $0x1a,0xa8(%rsp)
    5492:	00 1a 00 00 00 
    5497:	e8 54 bd ff ff       	call   11f0 <_gfortran_st_write@plt>
    549c:	48 8b 94 24 48 03 00 	mov    0x348(%rsp),%rdx
    54a3:	00 
    54a4:	48 8b b4 24 e8 02 00 	mov    0x2e8(%rsp),%rsi
    54ab:	00 
    54ac:	48 89 ef             	mov    %rbp,%rdi
    54af:	e8 3c bc ff ff       	call   10f0 <_gfortran_transfer_character_write@plt>
    54b4:	48 89 ef             	mov    %rbp,%rdi
    54b7:	e8 d4 bc ff ff       	call   1190 <_gfortran_st_write_done@plt>
    54bc:	48 8d 05 1f 11 00 00 	lea    0x111f(%rip),%rax        # 65e2 <options.51.0+0x202>
    54c3:	48 89 ef             	mov    %rbp,%rdi
    54c6:	48 89 5c 24 58       	mov    %rbx,0x58(%rsp)
    54cb:	48 89 84 24 a0 00 00 	mov    %rax,0xa0(%rsp)
    54d2:	00 
    54d3:	4c 89 64 24 50       	mov    %r12,0x50(%rsp)
    54d8:	c7 44 24 60 6e 00 00 	movl   $0x6e,0x60(%rsp)
    54df:	00 
    54e0:	48 c7 84 24 a8 00 00 	movq   $0x1a,0xa8(%rsp)
    54e7:	00 1a 00 00 00 
    54ec:	e8 ff bc ff ff       	call   11f0 <_gfortran_st_write@plt>
    54f1:	48 8b 94 24 50 03 00 	mov    0x350(%rsp),%rdx
    54f8:	00 
    54f9:	48 8b b4 24 f0 02 00 	mov    0x2f0(%rsp),%rsi
    5500:	00 
    5501:	48 89 ef             	mov    %rbp,%rdi
    5504:	e8 e7 bb ff ff       	call   10f0 <_gfortran_transfer_character_write@plt>
    5509:	48 89 ef             	mov    %rbp,%rdi
    550c:	e8 7f bc ff ff       	call   1190 <_gfortran_st_write_done@plt>
    5511:	48 8d 05 e5 10 00 00 	lea    0x10e5(%rip),%rax        # 65fd <options.51.0+0x21d>
    5518:	48 89 ef             	mov    %rbp,%rdi
    551b:	48 89 5c 24 58       	mov    %rbx,0x58(%rsp)
    5520:	48 89 84 24 a0 00 00 	mov    %rax,0xa0(%rsp)
    5527:	00 
    5528:	4c 89 64 24 50       	mov    %r12,0x50(%rsp)
    552d:	c7 44 24 60 71 00 00 	movl   $0x71,0x60(%rsp)
    5534:	00 
    5535:	48 c7 84 24 a8 00 00 	movq   $0x1a,0xa8(%rsp)
    553c:	00 1a 00 00 00 
    5541:	e8 aa bc ff ff       	call   11f0 <_gfortran_st_write@plt>
    5546:	48 8b 94 24 58 03 00 	mov    0x358(%rsp),%rdx
    554d:	00 
    554e:	48 8b b4 24 f8 02 00 	mov    0x2f8(%rsp),%rsi
    5555:	00 
    5556:	48 89 ef             	mov    %rbp,%rdi
    5559:	e8 92 bb ff ff       	call   10f0 <_gfortran_transfer_character_write@plt>
    555e:	48 89 ef             	mov    %rbp,%rdi
    5561:	e8 2a bc ff ff       	call   1190 <_gfortran_st_write_done@plt>
    5566:	48 8d 05 ab 10 00 00 	lea    0x10ab(%rip),%rax        # 6618 <options.51.0+0x238>
    556d:	48 89 ef             	mov    %rbp,%rdi
    5570:	48 89 5c 24 58       	mov    %rbx,0x58(%rsp)
    5575:	48 89 84 24 a0 00 00 	mov    %rax,0xa0(%rsp)
    557c:	00 
    557d:	4c 89 64 24 50       	mov    %r12,0x50(%rsp)
    5582:	c7 44 24 60 74 00 00 	movl   $0x74,0x60(%rsp)
    5589:	00 
    558a:	48 c7 84 24 a8 00 00 	movq   $0x1a,0xa8(%rsp)
    5591:	00 1a 00 00 00 
    5596:	e8 55 bc ff ff       	call   11f0 <_gfortran_st_write@plt>
    559b:	48 8b 94 24 60 03 00 	mov    0x360(%rsp),%rdx
    55a2:	00 
    55a3:	48 8b b4 24 00 03 00 	mov    0x300(%rsp),%rsi
    55aa:	00 
    55ab:	48 89 ef             	mov    %rbp,%rdi
    55ae:	e8 3d bb ff ff       	call   10f0 <_gfortran_transfer_character_write@plt>
    55b3:	48 89 ef             	mov    %rbp,%rdi
    55b6:	e8 d5 bb ff ff       	call   1190 <_gfortran_st_write_done@plt>
    55bb:	48 8d 05 26 13 00 00 	lea    0x1326(%rip),%rax        # 68e8 <options.51.0+0x508>
    55c2:	48 89 ef             	mov    %rbp,%rdi
    55c5:	48 89 5c 24 58       	mov    %rbx,0x58(%rsp)
    55ca:	48 89 84 24 a0 00 00 	mov    %rax,0xa0(%rsp)
    55d1:	00 
    55d2:	4c 89 64 24 50       	mov    %r12,0x50(%rsp)
    55d7:	c7 44 24 60 77 00 00 	movl   $0x77,0x60(%rsp)
    55de:	00 
    55df:	48 c7 84 24 a8 00 00 	movq   $0x76,0xa8(%rsp)
    55e6:	00 76 00 00 00 
    55eb:	e8 00 bc ff ff       	call   11f0 <_gfortran_st_write@plt>
    55f0:	48 89 ef             	mov    %rbp,%rdi
    55f3:	e8 98 bb ff ff       	call   1190 <_gfortran_st_write_done@plt>
    55f8:	48 81 c4 68 02 00 00 	add    $0x268,%rsp
    55ff:	5b                   	pop    %rbx
    5600:	5d                   	pop    %rbp
    5601:	41 5c                	pop    %r12
    5603:	41 5d                	pop    %r13
    5605:	41 5e                	pop    %r14
    5607:	41 5f                	pop    %r15
    5609:	c3                   	ret    
    560a:	66 0f 1f 44 00 00    	nopw   0x0(%rax,%rax,1)
    5610:	48 8d 05 19 12 00 00 	lea    0x1219(%rip),%rax        # 6830 <options.51.0+0x450>
    5617:	48 89 ef             	mov    %rbp,%rdi
    561a:	c7 44 24 60 56 00 00 	movl   $0x56,0x60(%rsp)
    5621:	00 
    5622:	48 89 84 24 a0 00 00 	mov    %rax,0xa0(%rsp)
    5629:	00 
    562a:	48 c7 84 24 a8 00 00 	movq   $0x1f,0xa8(%rsp)
    5631:	00 1f 00 00 00 
    5636:	4c 89 64 24 50       	mov    %r12,0x50(%rsp)
    563b:	e8 b0 bb ff ff       	call   11f0 <_gfortran_st_write@plt>
    5640:	48 89 ef             	mov    %rbp,%rdi
    5643:	ba 0c 00 00 00       	mov    $0xc,%edx
    5648:	48 8d 35 35 0f 00 00 	lea    0xf35(%rip),%rsi        # 6584 <options.51.0+0x1a4>
    564f:	e8 9c ba ff ff       	call   10f0 <_gfortran_transfer_character_write@plt>
    5654:	48 89 ef             	mov    %rbp,%rdi
    5657:	e8 34 bb ff ff       	call   1190 <_gfortran_st_write_done@plt>
    565c:	e9 5d fc ff ff       	jmp    52be <print_results_+0x4ae>
    5661:	0f 1f 80 00 00 00 00 	nopl   0x0(%rax)
    5668:	66 41 81 3f 45 50    	cmpw   $0x5045,(%r15)
    566e:	48 89 5c 24 58       	mov    %rbx,0x58(%rsp)
    5673:	0f 85 f7 00 00 00    	jne    5770 <print_results_+0x960>
    5679:	48 8b 05 e0 12 00 00 	mov    0x12e0(%rip),%rax        # 6960 <options.51.0+0x580>
    5680:	48 8d 0d cb 0e 00 00 	lea    0xecb(%rip),%rcx        # 6552 <options.51.0+0x172>
    5687:	48 89 ef             	mov    %rbp,%rdi
    568a:	45 31 f6             	xor    %r14d,%r14d
    568d:	4c 8d 7c 24 41       	lea    0x41(%rsp),%r15
    5692:	48 89 8c 24 a0 00 00 	mov    %rcx,0xa0(%rsp)
    5699:	00 
    569a:	48 89 44 24 50       	mov    %rax,0x50(%rsp)
    569f:	c7 44 24 60 2d 00 00 	movl   $0x2d,0x60(%rsp)
    56a6:	00 
    56a7:	4c 89 bc 24 c0 00 00 	mov    %r15,0xc0(%rsp)
    56ae:	00 
    56af:	48 c7 84 24 c8 00 00 	movq   $0xf,0xc8(%rsp)
    56b6:	00 0f 00 00 00 
    56bb:	48 c7 84 24 98 00 00 	movq   $0x0,0x98(%rsp)
    56c2:	00 00 00 00 00 
    56c7:	48 c7 84 24 a8 00 00 	movq   $0x7,0xa8(%rsp)
    56ce:	00 07 00 00 00 
    56d3:	e8 18 bb ff ff       	call   11f0 <_gfortran_st_write@plt>
    56d8:	48 8b 44 24 20       	mov    0x20(%rsp),%rax
    56dd:	f2 0f 10 05 83 12 00 	movsd  0x1283(%rip),%xmm0        # 6968 <options.51.0+0x588>
    56e4:	00 
    56e5:	8b 38                	mov    (%rax),%edi
    56e7:	e8 74 ba ff ff       	call   1160 <__powidf2@plt>
    56ec:	48 8d 74 24 38       	lea    0x38(%rsp),%rsi
    56f1:	ba 08 00 00 00       	mov    $0x8,%edx
    56f6:	48 89 ef             	mov    %rbp,%rdi
    56f9:	f2 0f 11 44 24 38    	movsd  %xmm0,0x38(%rsp)
    56ff:	e8 2c b9 ff ff       	call   1030 <_gfortran_transfer_real_write@plt>
    5704:	48 89 ef             	mov    %rbp,%rdi
    5707:	e8 84 ba ff ff       	call   1190 <_gfortran_st_write_done@plt>
    570c:	80 7c 24 4f 2e       	cmpb   $0x2e,0x4f(%rsp)
    5711:	48 89 ef             	mov    %rbp,%rdi
    5714:	48 8d 05 6d 0f 00 00 	lea    0xf6d(%rip),%rax        # 6688 <options.51.0+0x2a8>
    571b:	41 0f 95 c6          	setne  %r14b
    571f:	48 89 84 24 a0 00 00 	mov    %rax,0xa0(%rsp)
    5726:	00 
    5727:	49 83 c6 0e          	add    $0xe,%r14
    572b:	48 89 5c 24 58       	mov    %rbx,0x58(%rsp)
    5730:	c7 44 24 60 30 00 00 	movl   $0x30,0x60(%rsp)
    5737:	00 
    5738:	48 c7 84 24 a8 00 00 	movq   $0x1f,0xa8(%rsp)
    573f:	00 1f 00 00 00 
    5744:	4c 89 64 24 50       	mov    %r12,0x50(%rsp)
    5749:	e8 a2 ba ff ff       	call   11f0 <_gfortran_st_write@plt>
    574e:	48 89 ef             	mov    %rbp,%rdi
    5751:	4c 89 f2             	mov    %r14,%rdx
    5754:	4c 89 fe             	mov    %r15,%rsi
    5757:	e8 94 b9 ff ff       	call   10f0 <_gfortran_transfer_character_write@plt>
    575c:	48 89 ef             	mov    %rbp,%rdi
    575f:	e8 2c ba ff ff       	call   1190 <_gfortran_st_write_done@plt>
    5764:	e9 43 f8 ff ff       	jmp    4fac <print_results_+0x19c>
    5769:	0f 1f 80 00 00 00 00 	nopl   0x0(%rax)
    5770:	48 8d 05 31 0f 00 00 	lea    0xf31(%rip),%rax        # 66a8 <options.51.0+0x2c8>
    5777:	48 89 ef             	mov    %rbp,%rdi
    577a:	c7 44 24 60 33 00 00 	movl   $0x33,0x60(%rsp)
    5781:	00 
    5782:	48 89 84 24 a0 00 00 	mov    %rax,0xa0(%rsp)
    5789:	00 
    578a:	48 c7 84 24 a8 00 00 	movq   $0x20,0xa8(%rsp)
    5791:	00 20 00 00 00 
    5796:	4c 89 64 24 50       	mov    %r12,0x50(%rsp)
    579b:	e8 50 ba ff ff       	call   11f0 <_gfortran_st_write@plt>
    57a0:	48 8b 74 24 20       	mov    0x20(%rsp),%rsi
    57a5:	48 89 ef             	mov    %rbp,%rdi
    57a8:	ba 04 00 00 00       	mov    $0x4,%edx
    57ad:	e8 0e b9 ff ff       	call   10c0 <_gfortran_transfer_integer_write@plt>
    57b2:	48 89 ef             	mov    %rbp,%rdi
    57b5:	e8 d6 b9 ff ff       	call   1190 <_gfortran_st_write_done@plt>
    57ba:	e9 ed f7 ff ff       	jmp    4fac <print_results_+0x19c>
    57bf:	90                   	nop

00000000000057c0 <randlc_>:
    57c0:	f2 48 0f 2c 07       	cvttsd2si (%rdi),%rax
    57c5:	66 0f ef c0          	pxor   %xmm0,%xmm0
    57c9:	f2 48 0f 2c 16       	cvttsd2si (%rsi),%rdx
    57ce:	48 0f af c2          	imul   %rdx,%rax
    57d2:	48 ba ff ff ff ff ff 	movabs $0x3fffffffffff,%rdx
    57d9:	3f 00 00 
    57dc:	48 21 d0             	and    %rdx,%rax
    57df:	f2 48 0f 2a c0       	cvtsi2sd %rax,%xmm0
    57e4:	f2 0f 11 07          	movsd  %xmm0,(%rdi)
    57e8:	f2 0f 59 05 80 11 00 	mulsd  0x1180(%rip),%xmm0        # 6970 <options.51.0+0x590>
    57ef:	00 
    57f0:	c3                   	ret    
    57f1:	66 66 2e 0f 1f 84 00 	data16 cs nopw 0x0(%rax,%rax,1)
    57f8:	00 00 00 00 
    57fc:	0f 1f 40 00          	nopl   0x0(%rax)

0000000000005800 <vranlc_>:
    5800:	f2 48 0f 2c 06       	cvttsd2si (%rsi),%rax
    5805:	49 89 f0             	mov    %rsi,%r8
    5808:	8b 37                	mov    (%rdi),%esi
    580a:	f2 48 0f 2c 12       	cvttsd2si (%rdx),%rdx
    580f:	85 f6                	test   %esi,%esi
    5811:	7e 4d                	jle    5860 <vranlc_+0x60>
    5813:	83 ee 01             	sub    $0x1,%esi
    5816:	f2 0f 10 15 52 11 00 	movsd  0x1152(%rip),%xmm2        # 6970 <options.51.0+0x590>
    581d:	00 
    581e:	48 8d 7c f1 08       	lea    0x8(%rcx,%rsi,8),%rdi
    5823:	48 be ff ff ff ff ff 	movabs $0x3fffffffffff,%rsi
    582a:	3f 00 00 
    582d:	0f 1f 00             	nopl   (%rax)
    5830:	48 0f af c2          	imul   %rdx,%rax
    5834:	66 0f ef c0          	pxor   %xmm0,%xmm0
    5838:	48 83 c1 08          	add    $0x8,%rcx
    583c:	48 21 f0             	and    %rsi,%rax
    583f:	f2 48 0f 2a c0       	cvtsi2sd %rax,%xmm0
    5844:	66 0f 28 c8          	movapd %xmm0,%xmm1
    5848:	f2 0f 59 ca          	mulsd  %xmm2,%xmm1
    584c:	f2 0f 11 49 f8       	movsd  %xmm1,-0x8(%rcx)
    5851:	48 39 cf             	cmp    %rcx,%rdi
    5854:	75 da                	jne    5830 <vranlc_+0x30>
    5856:	f2 41 0f 11 00       	movsd  %xmm0,(%r8)
    585b:	c3                   	ret    
    585c:	0f 1f 40 00          	nopl   0x0(%rax)
    5860:	66 0f ef c0          	pxor   %xmm0,%xmm0
    5864:	f2 48 0f 2a c0       	cvtsi2sd %rax,%xmm0
    5869:	f2 41 0f 11 00       	movsd  %xmm0,(%r8)
    586e:	c3                   	ret    
    586f:	90                   	nop

0000000000005870 <timer_clear_>:
    5870:	48 63 07             	movslq (%rdi),%rax
    5873:	64 48 c7 04 c5 f8 fd 	movq   $0x0,%fs:-0x208(,%rax,8)
    587a:	ff ff 00 00 00 00 
    5880:	c3                   	ret    
    5881:	66 66 2e 0f 1f 84 00 	data16 cs nopw 0x0(%rax,%rax,1)
    5888:	00 00 00 00 
    588c:	0f 1f 40 00          	nopl   0x0(%rax)

0000000000005890 <timer_start_>:
    5890:	53                   	push   %rbx
    5891:	48 63 1f             	movslq (%rdi),%rbx
    5894:	31 c0                	xor    %eax,%eax
    5896:	48 83 eb 01          	sub    $0x1,%rbx
    589a:	e8 51 00 00 00       	call   58f0 <elapsed_time_>
    589f:	64 f2 0f 11 04 dd 00 	movsd  %xmm0,%fs:-0x400(,%rbx,8)
    58a6:	fc ff ff 
    58a9:	5b                   	pop    %rbx
    58aa:	c3                   	ret    
    58ab:	0f 1f 44 00 00       	nopl   0x0(%rax,%rax,1)

00000000000058b0 <timer_stop_>:
    58b0:	53                   	push   %rbx
    58b1:	31 c0                	xor    %eax,%eax
    58b3:	48 89 fb             	mov    %rdi,%rbx
    58b6:	e8 35 00 00 00       	call   58f0 <elapsed_time_>
    58bb:	48 63 03             	movslq (%rbx),%rax
    58be:	64 f2 0f 5c 04 c5 f8 	subsd  %fs:-0x408(,%rax,8),%xmm0
    58c5:	fb ff ff 
    58c8:	64 f2 0f 58 04 c5 f8 	addsd  %fs:-0x208(,%rax,8),%xmm0
    58cf:	fd ff ff 
    58d2:	64 f2 0f 11 04 c5 f8 	movsd  %xmm0,%fs:-0x208(,%rax,8)
    58d9:	fd ff ff 
    58dc:	5b                   	pop    %rbx
    58dd:	c3                   	ret    
    58de:	66 90                	xchg   %ax,%ax

00000000000058e0 <timer_read_>:
    58e0:	48 63 07             	movslq (%rdi),%rax
    58e3:	64 f2 0f 10 04 c5 f8 	movsd  %fs:-0x208(,%rax,8),%xmm0
    58ea:	fd ff ff 
    58ed:	c3                   	ret    
    58ee:	66 90                	xchg   %ax,%ax

00000000000058f0 <elapsed_time_>:
    58f0:	31 c0                	xor    %eax,%eax
    58f2:	e9 79 b8 ff ff       	jmp    1170 <omp_get_wtime_@plt>
    58f7:	66 0f 1f 84 00 00 00 	nopw   0x0(%rax,%rax,1)
    58fe:	00 00 

0000000000005900 <check_timer_flag_>:
    5900:	41 55                	push   %r13
    5902:	41 b9 0e 00 00 00    	mov    $0xe,%r9d
    5908:	45 31 c0             	xor    %r8d,%r8d
    590b:	31 c0                	xor    %eax,%eax
    590d:	41 54                	push   %r12
    590f:	55                   	push   %rbp
    5910:	53                   	push   %rbx
    5911:	48 89 fb             	mov    %rdi,%rbx
    5914:	48 81 ec 98 01 00 00 	sub    $0x198,%rsp
    591b:	c7 07 00 00 00 00    	movl   $0x0,(%rdi)
    5921:	48 8d 3d 5f 10 00 00 	lea    0x105f(%rip),%rdi        # 6987 <options.51.0+0x5a7>
    5928:	4c 8d 64 24 08       	lea    0x8(%rsp),%r12
    592d:	48 8d 54 24 0c       	lea    0xc(%rsp),%rdx
    5932:	48 8d 6c 24 10       	lea    0x10(%rsp),%rbp
    5937:	48 83 ec 08          	sub    $0x8,%rsp
    593b:	4c 89 e1             	mov    %r12,%rcx
    593e:	6a 14                	push   $0x14
    5940:	48 89 ee             	mov    %rbp,%rsi
    5943:	e8 c8 b7 ff ff       	call   1110 <_gfortran_get_environment_variable_i4@plt>
    5948:	59                   	pop    %rcx
    5949:	5e                   	pop    %rsi
    594a:	8b 7c 24 08          	mov    0x8(%rsp),%edi
    594e:	85 ff                	test   %edi,%edi
    5950:	75 2e                	jne    5980 <check_timer_flag_+0x80>
    5952:	8b 54 24 0c          	mov    0xc(%rsp),%edx
    5956:	85 d2                	test   %edx,%edx
    5958:	7e 10                	jle    596a <check_timer_flag_+0x6a>
    595a:	0f b6 44 24 10       	movzbl 0x10(%rsp),%eax
    595f:	83 e8 31             	sub    $0x31,%eax
    5962:	3c 08                	cmp    $0x8,%al
    5964:	0f 87 c6 00 00 00    	ja     5a30 <check_timer_flag_+0x130>
    596a:	c7 03 01 00 00 00    	movl   $0x1,(%rbx)
    5970:	48 81 c4 98 01 00 00 	add    $0x198,%rsp
    5977:	5b                   	pop    %rbx
    5978:	5d                   	pop    %rbp
    5979:	41 5c                	pop    %r12
    597b:	41 5d                	pop    %r13
    597d:	c3                   	ret    
    597e:	66 90                	xchg   %ax,%ax
    5980:	48 8d 05 fc 0f 00 00 	lea    0xffc(%rip),%rax        # 6983 <options.51.0+0x5a3>
    5987:	48 8d 35 ea 0f 00 00 	lea    0xfea(%rip),%rsi        # 6978 <options.51.0+0x598>
    598e:	c7 44 24 40 a2 00 00 	movl   $0xa2,0x40(%rsp)
    5995:	00 
    5996:	66 48 0f 6e c8       	movq   %rax,%xmm1
    599b:	66 48 0f 6e c6       	movq   %rsi,%xmm0
    59a0:	48 8b 05 19 10 00 00 	mov    0x1019(%rip),%rax        # 69c0 <options.51.0+0x5e0>
    59a7:	48 8d 6c 24 30       	lea    0x30(%rsp),%rbp
    59ac:	66 0f 6c c1          	punpcklqdq %xmm1,%xmm0
    59b0:	48 89 ef             	mov    %rbp,%rdi
    59b3:	4c 8d 2d f4 0f 00 00 	lea    0xff4(%rip),%r13        # 69ae <options.51.0+0x5ce>
    59ba:	c7 44 24 08 00 00 00 	movl   $0x0,0x8(%rsp)
    59c1:	00 
    59c2:	48 89 44 24 30       	mov    %rax,0x30(%rsp)
    59c7:	4c 89 6c 24 38       	mov    %r13,0x38(%rsp)
    59cc:	4c 89 64 24 58       	mov    %r12,0x58(%rsp)
    59d1:	48 c7 44 24 68 0a 00 	movq   $0xa,0x68(%rsp)
    59d8:	00 00 
    59da:	48 c7 84 24 80 00 00 	movq   $0x3,0x80(%rsp)
    59e1:	00 03 00 00 00 
    59e6:	c7 84 24 60 01 00 00 	movl   $0x0,0x160(%rsp)
    59ed:	00 00 00 00 
    59f1:	0f 29 44 24 70       	movaps %xmm0,0x70(%rsp)
    59f6:	e8 e5 b6 ff ff       	call   10e0 <_gfortran_st_open@plt>
    59fb:	8b 44 24 08          	mov    0x8(%rsp),%eax
    59ff:	85 c0                	test   %eax,%eax
    5a01:	0f 85 69 ff ff ff    	jne    5970 <check_timer_flag_+0x70>
    5a07:	48 8b 05 ba 0f 00 00 	mov    0xfba(%rip),%rax        # 69c8 <options.51.0+0x5e8>
    5a0e:	48 89 ef             	mov    %rbp,%rdi
    5a11:	4c 89 6c 24 38       	mov    %r13,0x38(%rsp)
    5a16:	c7 44 24 40 a4 00 00 	movl   $0xa4,0x40(%rsp)
    5a1d:	00 
    5a1e:	48 89 44 24 30       	mov    %rax,0x30(%rsp)
    5a23:	e8 68 b6 ff ff       	call   1090 <_gfortran_st_close@plt>
    5a28:	e9 3d ff ff ff       	jmp    596a <check_timer_flag_+0x6a>
    5a2d:	0f 1f 00             	nopl   (%rax)
    5a30:	48 8d 0d 5f 0f 00 00 	lea    0xf5f(%rip),%rcx        # 6996 <options.51.0+0x5b6>
    5a37:	ba 02 00 00 00       	mov    $0x2,%edx
    5a3c:	48 89 ee             	mov    %rbp,%rsi
    5a3f:	bf 14 00 00 00       	mov    $0x14,%edi
    5a44:	e8 f7 b6 ff ff       	call   1140 <_gfortran_compare_string@plt>
    5a49:	85 c0                	test   %eax,%eax
    5a4b:	0f 84 19 ff ff ff    	je     596a <check_timer_flag_+0x6a>
    5a51:	48 8d 0d 41 0f 00 00 	lea    0xf41(%rip),%rcx        # 6999 <options.51.0+0x5b9>
    5a58:	ba 02 00 00 00       	mov    $0x2,%edx
    5a5d:	48 89 ee             	mov    %rbp,%rsi
    5a60:	bf 14 00 00 00       	mov    $0x14,%edi
    5a65:	e8 d6 b6 ff ff       	call   1140 <_gfortran_compare_string@plt>
    5a6a:	85 c0                	test   %eax,%eax
    5a6c:	0f 84 f8 fe ff ff    	je     596a <check_timer_flag_+0x6a>
    5a72:	48 8d 0d 23 0f 00 00 	lea    0xf23(%rip),%rcx        # 699c <options.51.0+0x5bc>
    5a79:	ba 03 00 00 00       	mov    $0x3,%edx
    5a7e:	48 89 ee             	mov    %rbp,%rsi
    5a81:	bf 14 00 00 00       	mov    $0x14,%edi
    5a86:	e8 b5 b6 ff ff       	call   1140 <_gfortran_compare_string@plt>
    5a8b:	85 c0                	test   %eax,%eax
    5a8d:	0f 84 d7 fe ff ff    	je     596a <check_timer_flag_+0x6a>
    5a93:	48 8d 0d 06 0f 00 00 	lea    0xf06(%rip),%rcx        # 69a0 <options.51.0+0x5c0>
    5a9a:	ba 03 00 00 00       	mov    $0x3,%edx
    5a9f:	48 89 ee             	mov    %rbp,%rsi
    5aa2:	bf 14 00 00 00       	mov    $0x14,%edi
    5aa7:	e8 94 b6 ff ff       	call   1140 <_gfortran_compare_string@plt>
    5aac:	85 c0                	test   %eax,%eax
    5aae:	0f 84 b6 fe ff ff    	je     596a <check_timer_flag_+0x6a>
    5ab4:	48 8d 0d e9 0e 00 00 	lea    0xee9(%rip),%rcx        # 69a4 <options.51.0+0x5c4>
    5abb:	ba 04 00 00 00       	mov    $0x4,%edx
    5ac0:	48 89 ee             	mov    %rbp,%rsi
    5ac3:	bf 14 00 00 00       	mov    $0x14,%edi
    5ac8:	e8 73 b6 ff ff       	call   1140 <_gfortran_compare_string@plt>
    5acd:	85 c0                	test   %eax,%eax
    5acf:	0f 84 95 fe ff ff    	je     596a <check_timer_flag_+0x6a>
    5ad5:	48 8d 0d cd 0e 00 00 	lea    0xecd(%rip),%rcx        # 69a9 <options.51.0+0x5c9>
    5adc:	ba 04 00 00 00       	mov    $0x4,%edx
    5ae1:	48 89 ee             	mov    %rbp,%rsi
    5ae4:	bf 14 00 00 00       	mov    $0x14,%edi
    5ae9:	e8 52 b6 ff ff       	call   1140 <_gfortran_compare_string@plt>
    5aee:	85 c0                	test   %eax,%eax
    5af0:	0f 84 74 fe ff ff    	je     596a <check_timer_flag_+0x6a>
    5af6:	e9 75 fe ff ff       	jmp    5970 <check_timer_flag_+0x70>
    5afb:	0f 1f 44 00 00       	nopl   0x0(%rax,%rax,1)

0000000000005b00 <wtime_>:
    5b00:	f3 0f 1e fa          	endbr64 
    5b04:	53                   	push   %rbx
    5b05:	31 f6                	xor    %esi,%esi
    5b07:	48 89 fb             	mov    %rdi,%rbx
    5b0a:	48 83 ec 20          	sub    $0x20,%rsp
    5b0e:	64 48 8b 04 25 28 00 	mov    %fs:0x28,%rax
    5b15:	00 00 
    5b17:	48 89 44 24 18       	mov    %rax,0x18(%rsp)
    5b1c:	31 c0                	xor    %eax,%eax
    5b1e:	48 89 e7             	mov    %rsp,%rdi
    5b21:	e8 4a b5 ff ff       	call   1070 <gettimeofday@plt>
    5b26:	48 63 05 e3 34 00 00 	movslq 0x34e3(%rip),%rax        # 9010 <sec.0>
    5b2d:	48 8b 14 24          	mov    (%rsp),%rdx
    5b31:	85 c0                	test   %eax,%eax
    5b33:	79 09                	jns    5b3e <wtime_+0x3e>
    5b35:	89 15 d5 34 00 00    	mov    %edx,0x34d5(%rip)        # 9010 <sec.0>
    5b3b:	48 63 c2             	movslq %edx,%rax
    5b3e:	66 0f ef c0          	pxor   %xmm0,%xmm0
    5b42:	48 29 c2             	sub    %rax,%rdx
    5b45:	66 0f ef c9          	pxor   %xmm1,%xmm1
    5b49:	f2 48 0f 2a 44 24 08 	cvtsi2sdq 0x8(%rsp),%xmm0
    5b50:	f2 0f 59 05 78 0e 00 	mulsd  0xe78(%rip),%xmm0        # 69d0 <options.51.0+0x5f0>
    5b57:	00 
    5b58:	f2 48 0f 2a ca       	cvtsi2sd %rdx,%xmm1
    5b5d:	f2 0f 58 c1          	addsd  %xmm1,%xmm0
    5b61:	f2 0f 11 03          	movsd  %xmm0,(%rbx)
    5b65:	48 8b 44 24 18       	mov    0x18(%rsp),%rax
    5b6a:	64 48 2b 04 25 28 00 	sub    %fs:0x28,%rax
    5b71:	00 00 
    5b73:	75 06                	jne    5b7b <wtime_+0x7b>
    5b75:	48 83 c4 20          	add    $0x20,%rsp
    5b79:	5b                   	pop    %rbx
    5b7a:	c3                   	ret    
    5b7b:	e8 20 b6 ff ff       	call   11a0 <__stack_chk_fail@plt>

Disassembly of section .fini:

0000000000005b80 <_fini>:
    5b80:	f3 0f 1e fa          	endbr64 
    5b84:	48 83 ec 08          	sub    $0x8,%rsp
    5b88:	48 83 c4 08          	add    $0x8,%rsp
    5b8c:	c3                   	ret    
