
/home/lalitssrg/coreutils/lib/libcoreutils_a-mini-gmp-gnulib.o:     file format elf64-x86-64


Disassembly of section .text:

0000000000000000 <mpn_base_power_of_two_p>:
       0:	83 ff 20             	cmp    $0x20,%edi
       3:	77 2b                	ja     30 <mpn_base_power_of_two_p+0x30>
       5:	31 c0                	xor    %eax,%eax
       7:	83 ff 01             	cmp    $0x1,%edi
       a:	76 3e                	jbe    4a <mpn_base_power_of_two_p+0x4a>
       c:	83 ff 20             	cmp    $0x20,%edi
       f:	77 17                	ja     28 <mpn_base_power_of_two_p+0x28>
      11:	48 8d 15 00 00 00 00 	lea    0x0(%rip),%rdx        # 18 <mpn_base_power_of_two_p+0x18>
      18:	89 ff                	mov    %edi,%edi
      1a:	48 63 04 ba          	movslq (%rdx,%rdi,4),%rax
      1e:	48 01 d0             	add    %rdx,%rax
      21:	3e ff e0             	notrack jmp *%rax
      24:	0f 1f 40 00          	nopl   0x0(%rax)
      28:	31 c0                	xor    %eax,%eax
      2a:	c3                   	ret    
      2b:	0f 1f 44 00 00       	nopl   0x0(%rax,%rax,1)
      30:	b8 07 00 00 00       	mov    $0x7,%eax
      35:	81 ff 80 00 00 00    	cmp    $0x80,%edi
      3b:	74 0d                	je     4a <mpn_base_power_of_two_p+0x4a>
      3d:	81 ff 00 01 00 00    	cmp    $0x100,%edi
      43:	75 06                	jne    4b <mpn_base_power_of_two_p+0x4b>
      45:	b8 08 00 00 00       	mov    $0x8,%eax
      4a:	c3                   	ret    
      4b:	31 c0                	xor    %eax,%eax
      4d:	ba 06 00 00 00       	mov    $0x6,%edx
      52:	83 ff 40             	cmp    $0x40,%edi
      55:	0f 44 c2             	cmove  %edx,%eax
      58:	c3                   	ret    
      59:	0f 1f 80 00 00 00 00 	nopl   0x0(%rax)
      60:	b8 05 00 00 00       	mov    $0x5,%eax
      65:	c3                   	ret    
      66:	66 2e 0f 1f 84 00 00 	cs nopw 0x0(%rax,%rax,1)
      6d:	00 00 00 
      70:	b8 03 00 00 00       	mov    $0x3,%eax
      75:	c3                   	ret    
      76:	66 2e 0f 1f 84 00 00 	cs nopw 0x0(%rax,%rax,1)
      7d:	00 00 00 
      80:	b8 04 00 00 00       	mov    $0x4,%eax
      85:	c3                   	ret    
      86:	66 2e 0f 1f 84 00 00 	cs nopw 0x0(%rax,%rax,1)
      8d:	00 00 00 
      90:	b8 01 00 00 00       	mov    $0x1,%eax
      95:	c3                   	ret    
      96:	66 2e 0f 1f 84 00 00 	cs nopw 0x0(%rax,%rax,1)
      9d:	00 00 00 
      a0:	b8 02 00 00 00       	mov    $0x2,%eax
      a5:	c3                   	ret    
      a6:	66 2e 0f 1f 84 00 00 	cs nopw 0x0(%rax,%rax,1)
      ad:	00 00 00 

00000000000000b0 <mpn_set_str_bits>:
      b0:	49 89 fa             	mov    %rdi,%r10
      b3:	49 89 f3             	mov    %rsi,%r11
      b6:	48 8d 42 ff          	lea    -0x1(%rdx),%rax
      ba:	41 89 c9             	mov    %ecx,%r9d
      bd:	48 85 d2             	test   %rdx,%rdx
      c0:	74 76                	je     138 <mpn_set_str_bits+0x88>
      c2:	48 8d 14 06          	lea    (%rsi,%rax,1),%rdx
      c6:	45 31 c0             	xor    %r8d,%r8d
      c9:	31 c0                	xor    %eax,%eax
      cb:	31 f6                	xor    %esi,%esi
      cd:	eb 04                	jmp    d3 <mpn_set_str_bits+0x23>
      cf:	90                   	nop
      d0:	48 89 ca             	mov    %rcx,%rdx
      d3:	0f b6 3a             	movzbl (%rdx),%edi
      d6:	89 c1                	mov    %eax,%ecx
      d8:	44 01 c8             	add    %r9d,%eax
      db:	48 d3 e7             	shl    %cl,%rdi
      de:	48 09 fe             	or     %rdi,%rsi
      e1:	83 f8 3f             	cmp    $0x3f,%eax
      e4:	76 15                	jbe    fb <mpn_set_str_bits+0x4b>
      e6:	4b 89 34 c2          	mov    %rsi,(%r10,%r8,8)
      ea:	83 e8 40             	sub    $0x40,%eax
      ed:	0f b6 32             	movzbl (%rdx),%esi
      f0:	44 89 c9             	mov    %r9d,%ecx
      f3:	29 c1                	sub    %eax,%ecx
      f5:	49 83 c0 01          	add    $0x1,%r8
      f9:	d3 ee                	shr    %cl,%esi
      fb:	48 8d 4a ff          	lea    -0x1(%rdx),%rcx
      ff:	49 39 d3             	cmp    %rdx,%r11
     102:	75 cc                	jne    d0 <mpn_set_str_bits+0x20>
     104:	48 85 f6             	test   %rsi,%rsi
     107:	74 0f                	je     118 <mpn_set_str_bits+0x68>
     109:	4b 89 34 c2          	mov    %rsi,(%r10,%r8,8)
     10d:	49 8d 40 01          	lea    0x1(%r8),%rax
     111:	c3                   	ret    
     112:	66 0f 1f 44 00 00    	nopw   0x0(%rax,%rax,1)
     118:	4d 85 c0             	test   %r8,%r8
     11b:	75 09                	jne    126 <mpn_set_str_bits+0x76>
     11d:	eb 19                	jmp    138 <mpn_set_str_bits+0x88>
     11f:	90                   	nop
     120:	49 83 e8 01          	sub    $0x1,%r8
     124:	74 12                	je     138 <mpn_set_str_bits+0x88>
     126:	4b 83 7c c2 f8 00    	cmpq   $0x0,-0x8(%r10,%r8,8)
     12c:	74 f2                	je     120 <mpn_set_str_bits+0x70>
     12e:	4c 89 c0             	mov    %r8,%rax
     131:	c3                   	ret    
     132:	66 0f 1f 44 00 00    	nopw   0x0(%rax,%rax,1)
     138:	31 c0                	xor    %eax,%eax
     13a:	c3                   	ret    
     13b:	0f 1f 44 00 00       	nopl   0x0(%rax,%rax,1)

0000000000000140 <gmp_default_free>:
     140:	f3 0f 1e fa          	endbr64 
     144:	e9 00 00 00 00       	jmp    149 <gmp_default_free+0x9>
     149:	0f 1f 80 00 00 00 00 	nopl   0x0(%rax)

0000000000000150 <gmp_die>:
     150:	50                   	push   %rax
     151:	58                   	pop    %rax
     152:	48 8d 15 00 00 00 00 	lea    0x0(%rip),%rdx        # 159 <gmp_die+0x9>
     159:	be 01 00 00 00       	mov    $0x1,%esi
     15e:	31 c0                	xor    %eax,%eax
     160:	48 83 ec 08          	sub    $0x8,%rsp
     164:	48 89 f9             	mov    %rdi,%rcx
     167:	48 8b 3d 00 00 00 00 	mov    0x0(%rip),%rdi        # 16e <gmp_die+0x1e>
     16e:	e8 00 00 00 00       	call   173 <gmp_die+0x23>
     173:	e8 00 00 00 00       	call   178 <gmp_die+0x28>
     178:	0f 1f 84 00 00 00 00 	nopl   0x0(%rax,%rax,1)
     17f:	00 

0000000000000180 <gmp_default_realloc>:
     180:	f3 0f 1e fa          	endbr64 
     184:	48 83 ec 08          	sub    $0x8,%rsp
     188:	48 89 d6             	mov    %rdx,%rsi
     18b:	e8 00 00 00 00       	call   190 <gmp_default_realloc+0x10>
     190:	48 85 c0             	test   %rax,%rax
     193:	74 05                	je     19a <gmp_default_realloc+0x1a>
     195:	48 83 c4 08          	add    $0x8,%rsp
     199:	c3                   	ret    
     19a:	48 8d 3d 00 00 00 00 	lea    0x0(%rip),%rdi        # 1a1 <gmp_default_realloc+0x21>
     1a1:	e8 aa ff ff ff       	call   150 <gmp_die>
     1a6:	66 2e 0f 1f 84 00 00 	cs nopw 0x0(%rax,%rax,1)
     1ad:	00 00 00 

00000000000001b0 <mpn_common_scan>:
     1b0:	48 39 ce             	cmp    %rcx,%rsi
     1b3:	0f 8f 96 00 00 00    	jg     24f <mpn_common_scan+0x9f>
     1b9:	49 89 f9             	mov    %rdi,%r9
     1bc:	48 89 f0             	mov    %rsi,%rax
     1bf:	48 85 ff             	test   %rdi,%rdi
     1c2:	74 18                	je     1dc <mpn_common_scan+0x2c>
     1c4:	eb 40                	jmp    206 <mpn_common_scan+0x56>
     1c6:	66 2e 0f 1f 84 00 00 	cs nopw 0x0(%rax,%rax,1)
     1cd:	00 00 00 
     1d0:	48 8b 3c f2          	mov    (%rdx,%rsi,8),%rdi
     1d4:	48 89 f0             	mov    %rsi,%rax
     1d7:	4c 39 c7             	cmp    %r8,%rdi
     1da:	75 24                	jne    200 <mpn_common_scan+0x50>
     1dc:	48 83 c6 01          	add    $0x1,%rsi
     1e0:	48 39 f1             	cmp    %rsi,%rcx
     1e3:	75 eb                	jne    1d0 <mpn_common_scan+0x20>
     1e5:	48 c1 e1 06          	shl    $0x6,%rcx
     1e9:	48 c7 c0 ff ff ff ff 	mov    $0xffffffffffffffff,%rax
     1f0:	4d 85 c0             	test   %r8,%r8
     1f3:	48 0f 45 c1          	cmovne %rcx,%rax
     1f7:	c3                   	ret    
     1f8:	0f 1f 84 00 00 00 00 	nopl   0x0(%rax,%rax,1)
     1ff:	00 
     200:	4c 31 c7             	xor    %r8,%rdi
     203:	49 89 f9             	mov    %rdi,%r9
     206:	48 b9 00 00 00 00 00 	movabs $0xff00000000000000,%rcx
     20d:	00 00 ff 
     210:	4c 89 cf             	mov    %r9,%rdi
     213:	31 d2                	xor    %edx,%edx
     215:	48 f7 df             	neg    %rdi
     218:	4c 21 cf             	and    %r9,%rdi
     21b:	48 85 cf             	test   %rcx,%rdi
     21e:	75 0c                	jne    22c <mpn_common_scan+0x7c>
     220:	48 c1 e7 08          	shl    $0x8,%rdi
     224:	83 c2 08             	add    $0x8,%edx
     227:	48 85 cf             	test   %rcx,%rdi
     22a:	74 f4                	je     220 <mpn_common_scan+0x70>
     22c:	48 85 ff             	test   %rdi,%rdi
     22f:	78 0f                	js     240 <mpn_common_scan+0x90>
     231:	0f 1f 80 00 00 00 00 	nopl   0x0(%rax)
     238:	83 c2 01             	add    $0x1,%edx
     23b:	48 01 ff             	add    %rdi,%rdi
     23e:	79 f8                	jns    238 <mpn_common_scan+0x88>
     240:	b9 3f 00 00 00       	mov    $0x3f,%ecx
     245:	48 c1 e0 06          	shl    $0x6,%rax
     249:	29 d1                	sub    %edx,%ecx
     24b:	48 01 c8             	add    %rcx,%rax
     24e:	c3                   	ret    
     24f:	50                   	push   %rax
     250:	48 8d 0d 00 00 00 00 	lea    0x0(%rip),%rcx        # 257 <mpn_common_scan+0xa7>
     257:	ba d5 02 00 00       	mov    $0x2d5,%edx
     25c:	48 8d 35 00 00 00 00 	lea    0x0(%rip),%rsi        # 263 <mpn_common_scan+0xb3>
     263:	48 8d 3d 00 00 00 00 	lea    0x0(%rip),%rdi        # 26a <mpn_common_scan+0xba>
     26a:	e8 00 00 00 00       	call   26f <mpn_common_scan+0xbf>
     26f:	90                   	nop

0000000000000270 <mpn_limb_get_str>:
     270:	48 85 f6             	test   %rsi,%rsi
     273:	0f 84 0f 01 00 00    	je     388 <mpn_limb_get_str+0x118>
     279:	41 57                	push   %r15
     27b:	49 89 f9             	mov    %rdi,%r9
     27e:	49 89 d0             	mov    %rdx,%r8
     281:	31 c0                	xor    %eax,%eax
     283:	41 56                	push   %r14
     285:	49 c7 c2 ff ff ff ff 	mov    $0xffffffffffffffff,%r10
     28c:	49 bb 00 00 00 00 01 	movabs $0x100000000,%r11
     293:	00 00 00 
     296:	41 55                	push   %r13
     298:	41 54                	push   %r12
     29a:	55                   	push   %rbp
     29b:	53                   	push   %rbx
     29c:	bb 40 00 00 00       	mov    $0x40,%ebx
     2a1:	48 83 ec 08          	sub    $0x8,%rsp
     2a5:	0f 1f 00             	nopl   (%rax)
     2a8:	41 8b 38             	mov    (%r8),%edi
     2ab:	89 dd                	mov    %ebx,%ebp
     2ad:	49 89 f5             	mov    %rsi,%r13
     2b0:	29 fd                	sub    %edi,%ebp
     2b2:	89 e9                	mov    %ebp,%ecx
     2b4:	49 d3 ed             	shr    %cl,%r13
     2b7:	89 f9                	mov    %edi,%ecx
     2b9:	48 d3 e6             	shl    %cl,%rsi
     2bc:	49 8b 48 18          	mov    0x18(%r8),%rcx
     2c0:	45 89 ee             	mov    %r13d,%r14d
     2c3:	4c 89 ea             	mov    %r13,%rdx
     2c6:	49 89 f4             	mov    %rsi,%r12
     2c9:	48 c1 ea 20          	shr    $0x20,%rdx
     2cd:	4d 89 f7             	mov    %r14,%r15
     2d0:	48 89 ce             	mov    %rcx,%rsi
     2d3:	89 c9                	mov    %ecx,%ecx
     2d5:	48 c1 ee 20          	shr    $0x20,%rsi
     2d9:	4c 0f af f9          	imul   %rcx,%r15
     2dd:	48 0f af ca          	imul   %rdx,%rcx
     2e1:	48 0f af d6          	imul   %rsi,%rdx
     2e5:	49 0f af f6          	imul   %r14,%rsi
     2e9:	4c 8d 34 0e          	lea    (%rsi,%rcx,1),%r14
     2ed:	4c 89 fe             	mov    %r15,%rsi
     2f0:	45 89 ff             	mov    %r15d,%r15d
     2f3:	48 c1 ee 20          	shr    $0x20,%rsi
     2f7:	4c 01 f6             	add    %r14,%rsi
     2fa:	49 89 d6             	mov    %rdx,%r14
     2fd:	4c 01 da             	add    %r11,%rdx
     300:	48 39 f1             	cmp    %rsi,%rcx
     303:	49 0f 46 d6          	cmovbe %r14,%rdx
     307:	49 89 f6             	mov    %rsi,%r14
     30a:	31 c9                	xor    %ecx,%ecx
     30c:	49 c1 e6 20          	shl    $0x20,%r14
     310:	4d 01 fe             	add    %r15,%r14
     313:	4d 01 e6             	add    %r12,%r14
     316:	0f 92 c1             	setb   %cl
     319:	48 c1 ee 20          	shr    $0x20,%rsi
     31d:	49 8d 74 35 01       	lea    0x1(%r13,%rsi,1),%rsi
     322:	48 01 ce             	add    %rcx,%rsi
     325:	49 8b 48 08          	mov    0x8(%r8),%rcx
     329:	48 01 d6             	add    %rdx,%rsi
     32c:	48 89 ca             	mov    %rcx,%rdx
     32f:	48 0f af d6          	imul   %rsi,%rdx
     333:	49 29 d4             	sub    %rdx,%r12
     336:	31 d2                	xor    %edx,%edx
     338:	4d 39 e6             	cmp    %r12,%r14
     33b:	0f 92 c2             	setb   %dl
     33e:	48 29 d6             	sub    %rdx,%rsi
     341:	48 f7 da             	neg    %rdx
     344:	48 21 ca             	and    %rcx,%rdx
     347:	4c 01 e2             	add    %r12,%rdx
     34a:	48 39 d1             	cmp    %rdx,%rcx
     34d:	77 07                	ja     356 <mpn_limb_get_str+0xe6>
     34f:	48 29 ca             	sub    %rcx,%rdx
     352:	48 83 c6 01          	add    $0x1,%rsi
     356:	4d 89 d7             	mov    %r10,%r15
     359:	89 e9                	mov    %ebp,%ecx
     35b:	49 d3 ef             	shr    %cl,%r15
     35e:	49 85 d7             	test   %rdx,%r15
     361:	75 28                	jne    38b <mpn_limb_get_str+0x11b>
     363:	89 f9                	mov    %edi,%ecx
     365:	48 d3 ea             	shr    %cl,%rdx
     368:	41 88 14 01          	mov    %dl,(%r9,%rax,1)
     36c:	48 83 c0 01          	add    $0x1,%rax
     370:	48 85 f6             	test   %rsi,%rsi
     373:	0f 85 2f ff ff ff    	jne    2a8 <mpn_limb_get_str+0x38>
     379:	48 83 c4 08          	add    $0x8,%rsp
     37d:	5b                   	pop    %rbx
     37e:	5d                   	pop    %rbp
     37f:	41 5c                	pop    %r12
     381:	41 5d                	pop    %r13
     383:	41 5e                	pop    %r14
     385:	41 5f                	pop    %r15
     387:	c3                   	ret    
     388:	31 c0                	xor    %eax,%eax
     38a:	c3                   	ret    
     38b:	48 8d 0d 00 00 00 00 	lea    0x0(%rip),%rcx        # 392 <mpn_limb_get_str+0x122>
     392:	ba f4 04 00 00       	mov    $0x4f4,%edx
     397:	48 8d 35 00 00 00 00 	lea    0x0(%rip),%rsi        # 39e <mpn_limb_get_str+0x12e>
     39e:	48 8d 3d 00 00 00 00 	lea    0x0(%rip),%rdi        # 3a5 <mpn_limb_get_str+0x135>
     3a5:	e8 00 00 00 00       	call   3aa <mpn_limb_get_str+0x13a>
     3aa:	66 0f 1f 44 00 00    	nopw   0x0(%rax,%rax,1)

00000000000003b0 <mpz_realloc>:
     3b0:	55                   	push   %rbp
     3b1:	b8 01 00 00 00       	mov    $0x1,%eax
     3b6:	53                   	push   %rbx
     3b7:	48 89 fb             	mov    %rdi,%rbx
     3ba:	48 83 ec 08          	sub    $0x8,%rsp
     3be:	48 85 f6             	test   %rsi,%rsi
     3c1:	48 0f 4f c6          	cmovg  %rsi,%rax
     3c5:	48 63 37             	movslq (%rdi),%rsi
     3c8:	48 89 c5             	mov    %rax,%rbp
     3cb:	48 8d 3c c5 00 00 00 	lea    0x0(,%rax,8),%rdi
     3d2:	00 
     3d3:	85 f6                	test   %esi,%esi
     3d5:	75 39                	jne    410 <mpz_realloc+0x60>
     3d7:	ff 15 00 00 00 00    	call   *0x0(%rip)        # 3dd <mpz_realloc+0x2d>
     3dd:	48 63 73 04          	movslq 0x4(%rbx),%rsi
     3e1:	48 89 43 08          	mov    %rax,0x8(%rbx)
     3e5:	89 2b                	mov    %ebp,(%rbx)
     3e7:	89 f2                	mov    %esi,%edx
     3e9:	f7 da                	neg    %edx
     3eb:	85 f6                	test   %esi,%esi
     3ed:	48 63 d2             	movslq %edx,%rdx
     3f0:	48 0f 49 d6          	cmovns %rsi,%rdx
     3f4:	48 39 ea             	cmp    %rbp,%rdx
     3f7:	7e 07                	jle    400 <mpz_realloc+0x50>
     3f9:	c7 43 04 00 00 00 00 	movl   $0x0,0x4(%rbx)
     400:	48 83 c4 08          	add    $0x8,%rsp
     404:	5b                   	pop    %rbx
     405:	5d                   	pop    %rbp
     406:	c3                   	ret    
     407:	66 0f 1f 84 00 00 00 	nopw   0x0(%rax,%rax,1)
     40e:	00 00 
     410:	4c 8b 43 08          	mov    0x8(%rbx),%r8
     414:	48 89 fa             	mov    %rdi,%rdx
     417:	48 c1 e6 03          	shl    $0x3,%rsi
     41b:	4c 89 c7             	mov    %r8,%rdi
     41e:	ff 15 00 00 00 00    	call   *0x0(%rip)        # 424 <mpz_realloc+0x74>
     424:	eb b7                	jmp    3dd <mpz_realloc+0x2d>
     426:	66 2e 0f 1f 84 00 00 	cs nopw 0x0(%rax,%rax,1)
     42d:	00 00 00 

0000000000000430 <gmp_default_alloc>:
     430:	f3 0f 1e fa          	endbr64 
     434:	48 83 ec 08          	sub    $0x8,%rsp
     438:	48 85 ff             	test   %rdi,%rdi
     43b:	74 0f                	je     44c <gmp_default_alloc+0x1c>
     43d:	e8 00 00 00 00       	call   442 <gmp_default_alloc+0x12>
     442:	48 85 c0             	test   %rax,%rax
     445:	74 24                	je     46b <gmp_default_alloc+0x3b>
     447:	48 83 c4 08          	add    $0x8,%rsp
     44b:	c3                   	ret    
     44c:	48 8d 0d 00 00 00 00 	lea    0x0(%rip),%rcx        # 453 <gmp_default_alloc+0x23>
     453:	ba 2c 01 00 00       	mov    $0x12c,%edx
     458:	48 8d 35 00 00 00 00 	lea    0x0(%rip),%rsi        # 45f <gmp_default_alloc+0x2f>
     45f:	48 8d 3d 00 00 00 00 	lea    0x0(%rip),%rdi        # 466 <gmp_default_alloc+0x36>
     466:	e8 00 00 00 00       	call   46b <gmp_default_alloc+0x3b>
     46b:	48 8d 3d 00 00 00 00 	lea    0x0(%rip),%rdi        # 472 <gmp_default_alloc+0x42>
     472:	e8 d9 fc ff ff       	call   150 <gmp_die>
     477:	66 0f 1f 84 00 00 00 	nopw   0x0(%rax,%rax,1)
     47e:	00 00 

0000000000000480 <mpn_limb_size_in_base_2.part.0>:
     480:	50                   	push   %rax
     481:	58                   	pop    %rax
     482:	48 8d 0d 00 00 00 00 	lea    0x0(%rip),%rcx        # 489 <mpn_limb_size_in_base_2.part.0+0x9>
     489:	ba c3 04 00 00       	mov    $0x4c3,%edx
     48e:	48 8d 35 00 00 00 00 	lea    0x0(%rip),%rsi        # 495 <mpn_limb_size_in_base_2.part.0+0x15>
     495:	48 8d 3d 00 00 00 00 	lea    0x0(%rip),%rdi        # 49c <mpn_limb_size_in_base_2.part.0+0x1c>
     49c:	48 83 ec 08          	sub    $0x8,%rsp
     4a0:	e8 00 00 00 00       	call   4a5 <mpn_limb_size_in_base_2.part.0+0x25>
     4a5:	66 66 2e 0f 1f 84 00 	data16 cs nopw 0x0(%rax,%rax,1)
     4ac:	00 00 00 00 

00000000000004b0 <mpn_sub_1.part.0>:
     4b0:	50                   	push   %rax
     4b1:	58                   	pop    %rax
     4b2:	48 8d 0d 00 00 00 00 	lea    0x0(%rip),%rcx        # 4b9 <mpn_sub_1.part.0+0x9>
     4b9:	ba f6 01 00 00       	mov    $0x1f6,%edx
     4be:	48 8d 35 00 00 00 00 	lea    0x0(%rip),%rsi        # 4c5 <mpn_sub_1.part.0+0x15>
     4c5:	48 8d 3d 00 00 00 00 	lea    0x0(%rip),%rdi        # 4cc <mpn_sub_1.part.0+0x1c>
     4cc:	48 83 ec 08          	sub    $0x8,%rsp
     4d0:	e8 00 00 00 00       	call   4d5 <mpn_sub_1.part.0+0x25>
     4d5:	66 66 2e 0f 1f 84 00 	data16 cs nopw 0x0(%rax,%rax,1)
     4dc:	00 00 00 00 

00000000000004e0 <mpn_get_str_bits>:
     4e0:	41 55                	push   %r13
     4e2:	49 89 f9             	mov    %rdi,%r9
     4e5:	89 f7                	mov    %esi,%edi
     4e7:	48 8d 71 ff          	lea    -0x1(%rcx),%rsi
     4eb:	41 54                	push   %r12
     4ed:	48 c1 e6 06          	shl    $0x6,%rsi
     4f1:	55                   	push   %rbp
     4f2:	53                   	push   %rbx
     4f3:	48 83 ec 08          	sub    $0x8,%rsp
     4f7:	48 8b 44 ca f8       	mov    -0x8(%rdx,%rcx,8),%rax
     4fc:	48 85 c0             	test   %rax,%rax
     4ff:	0f 84 b9 00 00 00    	je     5be <mpn_get_str_bits+0xde>
     505:	49 89 ca             	mov    %rcx,%r10
     508:	49 89 d0             	mov    %rdx,%r8
     50b:	31 d2                	xor    %edx,%edx
     50d:	48 b9 00 00 00 00 00 	movabs $0xff00000000000000,%rcx
     514:	00 00 ff 
     517:	48 85 c8             	test   %rcx,%rax
     51a:	75 10                	jne    52c <mpn_get_str_bits+0x4c>
     51c:	0f 1f 40 00          	nopl   0x0(%rax)
     520:	48 c1 e0 08          	shl    $0x8,%rax
     524:	83 c2 08             	add    $0x8,%edx
     527:	48 85 c8             	test   %rcx,%rax
     52a:	74 f4                	je     520 <mpn_get_str_bits+0x40>
     52c:	48 85 c0             	test   %rax,%rax
     52f:	78 0f                	js     540 <mpn_get_str_bits+0x60>
     531:	0f 1f 80 00 00 00 00 	nopl   0x0(%rax)
     538:	83 c2 01             	add    $0x1,%edx
     53b:	48 01 c0             	add    %rax,%rax
     53e:	79 f8                	jns    538 <mpn_get_str_bits+0x58>
     540:	41 89 fb             	mov    %edi,%r11d
     543:	41 bc 01 00 00 00    	mov    $0x1,%r12d
     549:	89 f9                	mov    %edi,%ecx
     54b:	4a 8d 74 1e 3f       	lea    0x3f(%rsi,%r11,1),%rsi
     550:	41 d3 e4             	shl    %cl,%r12d
     553:	48 29 d6             	sub    %rdx,%rsi
     556:	31 d2                	xor    %edx,%edx
     558:	41 83 ec 01          	sub    $0x1,%r12d
     55c:	48 89 f0             	mov    %rsi,%rax
     55f:	49 f7 f3             	div    %r11
     562:	48 8d 58 ff          	lea    -0x1(%rax),%rbx
     566:	49 39 f3             	cmp    %rsi,%r11
     569:	77 48                	ja     5b3 <mpn_get_str_bits+0xd3>
     56b:	31 f6                	xor    %esi,%esi
     56d:	31 ed                	xor    %ebp,%ebp
     56f:	90                   	nop
     570:	4d 8b 1c e8          	mov    (%r8,%rbp,8),%r11
     574:	89 f1                	mov    %esi,%ecx
     576:	01 fe                	add    %edi,%esi
     578:	4c 8d 2c ed 00 00 00 	lea    0x0(,%rbp,8),%r13
     57f:	00 
     580:	49 d3 eb             	shr    %cl,%r11
     583:	44 89 da             	mov    %r11d,%edx
     586:	83 fe 3f             	cmp    $0x3f,%esi
     589:	76 1b                	jbe    5a6 <mpn_get_str_bits+0xc6>
     58b:	48 83 c5 01          	add    $0x1,%rbp
     58f:	49 39 ea             	cmp    %rbp,%r10
     592:	7e 12                	jle    5a6 <mpn_get_str_bits+0xc6>
     594:	4b 8b 54 28 08       	mov    0x8(%r8,%r13,1),%rdx
     599:	83 ee 40             	sub    $0x40,%esi
     59c:	89 f9                	mov    %edi,%ecx
     59e:	29 f1                	sub    %esi,%ecx
     5a0:	48 d3 e2             	shl    %cl,%rdx
     5a3:	44 09 da             	or     %r11d,%edx
     5a6:	44 21 e2             	and    %r12d,%edx
     5a9:	41 88 14 19          	mov    %dl,(%r9,%rbx,1)
     5ad:	48 83 eb 01          	sub    $0x1,%rbx
     5b1:	73 bd                	jae    570 <mpn_get_str_bits+0x90>
     5b3:	48 83 c4 08          	add    $0x8,%rsp
     5b7:	5b                   	pop    %rbx
     5b8:	5d                   	pop    %rbp
     5b9:	41 5c                	pop    %r12
     5bb:	41 5d                	pop    %r13
     5bd:	c3                   	ret    
     5be:	e8 bd fe ff ff       	call   480 <mpn_limb_size_in_base_2.part.0>
     5c3:	66 66 2e 0f 1f 84 00 	data16 cs nopw 0x0(%rax,%rax,1)
     5ca:	00 00 00 00 
     5ce:	66 90                	xchg   %ax,%ax

00000000000005d0 <mpz_abs_sub_bit>:
     5d0:	53                   	push   %rbx
     5d1:	8b 5f 04             	mov    0x4(%rdi),%ebx
     5d4:	48 89 f0             	mov    %rsi,%rax
     5d7:	49 89 fb             	mov    %rdi,%r11
     5da:	4c 8b 4f 08          	mov    0x8(%rdi),%r9
     5de:	48 89 f1             	mov    %rsi,%rcx
     5e1:	bf 01 00 00 00       	mov    $0x1,%edi
     5e6:	89 da                	mov    %ebx,%edx
     5e8:	f7 da                	neg    %edx
     5ea:	0f 48 d3             	cmovs  %ebx,%edx
     5ed:	48 c1 e8 06          	shr    $0x6,%rax
     5f1:	48 d3 e7             	shl    %cl,%rdi
     5f4:	48 63 d2             	movslq %edx,%rdx
     5f7:	48 39 c2             	cmp    %rax,%rdx
     5fa:	7e 51                	jle    64d <mpz_abs_sub_bit+0x7d>
     5fc:	49 8d 04 c1          	lea    (%r9,%rax,8),%rax
     600:	4d 8d 14 d1          	lea    (%r9,%rdx,8),%r10
     604:	0f 1f 40 00          	nopl   0x0(%rax)
     608:	48 8b 30             	mov    (%rax),%rsi
     60b:	48 89 f9             	mov    %rdi,%rcx
     60e:	31 ff                	xor    %edi,%edi
     610:	49 89 f0             	mov    %rsi,%r8
     613:	48 39 ce             	cmp    %rcx,%rsi
     616:	40 0f 92 c7          	setb   %dil
     61a:	49 29 c8             	sub    %rcx,%r8
     61d:	48 83 c0 08          	add    $0x8,%rax
     621:	4c 89 40 f8          	mov    %r8,-0x8(%rax)
     625:	49 39 c2             	cmp    %rax,%r10
     628:	75 de                	jne    608 <mpz_abs_sub_bit+0x38>
     62a:	48 39 ce             	cmp    %rcx,%rsi
     62d:	72 3d                	jb     66c <mpz_abs_sub_bit+0x9c>
     62f:	90                   	nop
     630:	49 83 7c d1 f8 00    	cmpq   $0x0,-0x8(%r9,%rdx,8)
     636:	75 06                	jne    63e <mpz_abs_sub_bit+0x6e>
     638:	48 83 ea 01          	sub    $0x1,%rdx
     63c:	75 f2                	jne    630 <mpz_abs_sub_bit+0x60>
     63e:	89 d0                	mov    %edx,%eax
     640:	f7 d8                	neg    %eax
     642:	85 db                	test   %ebx,%ebx
     644:	5b                   	pop    %rbx
     645:	0f 48 d0             	cmovs  %eax,%edx
     648:	41 89 53 04          	mov    %edx,0x4(%r11)
     64c:	c3                   	ret    
     64d:	48 8d 0d 00 00 00 00 	lea    0x0(%rip),%rcx        # 654 <mpz_abs_sub_bit+0x84>
     654:	ba b1 0e 00 00       	mov    $0xeb1,%edx
     659:	48 8d 35 00 00 00 00 	lea    0x0(%rip),%rsi        # 660 <mpz_abs_sub_bit+0x90>
     660:	48 8d 3d 00 00 00 00 	lea    0x0(%rip),%rdi        # 667 <mpz_abs_sub_bit+0x97>
     667:	e8 00 00 00 00       	call   66c <mpz_abs_sub_bit+0x9c>
     66c:	48 8d 0d 00 00 00 00 	lea    0x0(%rip),%rcx        # 673 <mpz_abs_sub_bit+0xa3>
     673:	ba b3 0e 00 00       	mov    $0xeb3,%edx
     678:	48 8d 35 00 00 00 00 	lea    0x0(%rip),%rsi        # 67f <mpz_abs_sub_bit+0xaf>
     67f:	48 8d 3d 00 00 00 00 	lea    0x0(%rip),%rdi        # 686 <mpz_abs_sub_bit+0xb6>
     686:	e8 00 00 00 00       	call   68b <mpz_abs_sub_bit+0xbb>
     68b:	0f 1f 44 00 00       	nopl   0x0(%rax,%rax,1)

0000000000000690 <mpz_abs_add_bit>:
     690:	41 57                	push   %r15
     692:	48 89 f1             	mov    %rsi,%rcx
     695:	41 56                	push   %r14
     697:	41 55                	push   %r13
     699:	41 54                	push   %r12
     69b:	49 89 fc             	mov    %rdi,%r12
     69e:	55                   	push   %rbp
     69f:	48 89 f5             	mov    %rsi,%rbp
     6a2:	53                   	push   %rbx
     6a3:	bb 01 00 00 00       	mov    $0x1,%ebx
     6a8:	48 83 ec 08          	sub    $0x8,%rsp
     6ac:	44 8b 6f 04          	mov    0x4(%rdi),%r13d
     6b0:	44 89 ef             	mov    %r13d,%edi
     6b3:	f7 df                	neg    %edi
     6b5:	41 0f 48 fd          	cmovs  %r13d,%edi
     6b9:	48 c1 ed 06          	shr    $0x6,%rbp
     6bd:	48 d3 e3             	shl    %cl,%rbx
     6c0:	4c 63 f7             	movslq %edi,%r14
     6c3:	49 39 ee             	cmp    %rbp,%r14
     6c6:	7f 70                	jg     738 <mpz_abs_add_bit+0xa8>
     6c8:	49 63 04 24          	movslq (%r12),%rax
     6cc:	4c 8d 7d 01          	lea    0x1(%rbp),%r15
     6d0:	48 39 e8             	cmp    %rbp,%rax
     6d3:	7e 4b                	jle    720 <mpz_abs_add_bit+0x90>
     6d5:	49 8b 44 24 08       	mov    0x8(%r12),%rax
     6da:	48 89 1c e8          	mov    %rbx,(%rax,%rbp,8)
     6de:	49 39 ee             	cmp    %rbp,%r14
     6e1:	7d 16                	jge    6f9 <mpz_abs_add_bit+0x69>
     6e3:	4c 29 f5             	sub    %r14,%rbp
     6e6:	4a 8d 3c f0          	lea    (%rax,%r14,8),%rdi
     6ea:	31 f6                	xor    %esi,%esi
     6ec:	48 8d 14 ed 00 00 00 	lea    0x0(,%rbp,8),%rdx
     6f3:	00 
     6f4:	e8 00 00 00 00       	call   6f9 <mpz_abs_add_bit+0x69>
     6f9:	44 89 f8             	mov    %r15d,%eax
     6fc:	f7 d8                	neg    %eax
     6fe:	45 85 ed             	test   %r13d,%r13d
     701:	41 0f 49 c7          	cmovns %r15d,%eax
     705:	41 89 44 24 04       	mov    %eax,0x4(%r12)
     70a:	48 83 c4 08          	add    $0x8,%rsp
     70e:	5b                   	pop    %rbx
     70f:	5d                   	pop    %rbp
     710:	41 5c                	pop    %r12
     712:	41 5d                	pop    %r13
     714:	41 5e                	pop    %r14
     716:	41 5f                	pop    %r15
     718:	c3                   	ret    
     719:	0f 1f 80 00 00 00 00 	nopl   0x0(%rax)
     720:	4c 89 fe             	mov    %r15,%rsi
     723:	4c 89 e7             	mov    %r12,%rdi
     726:	e8 85 fc ff ff       	call   3b0 <mpz_realloc>
     72b:	45 8b 6c 24 04       	mov    0x4(%r12),%r13d
     730:	eb a8                	jmp    6da <mpz_abs_add_bit+0x4a>
     732:	66 0f 1f 44 00 00    	nopw   0x0(%rax,%rax,1)
     738:	49 8b 44 24 08       	mov    0x8(%r12),%rax
     73d:	48 8d 14 e8          	lea    (%rax,%rbp,8),%rdx
     741:	4e 8d 04 f0          	lea    (%rax,%r14,8),%r8
     745:	0f 1f 00             	nopl   (%rax)
     748:	48 03 1a             	add    (%rdx),%rbx
     74b:	48 89 de             	mov    %rbx,%rsi
     74e:	0f 92 c1             	setb   %cl
     751:	48 83 c2 08          	add    $0x8,%rdx
     755:	0f b6 c9             	movzbl %cl,%ecx
     758:	48 89 72 f8          	mov    %rsi,-0x8(%rdx)
     75c:	48 89 cb             	mov    %rcx,%rbx
     75f:	49 39 d0             	cmp    %rdx,%r8
     762:	75 e4                	jne    748 <mpz_abs_add_bit+0xb8>
     764:	4d 89 f7             	mov    %r14,%r15
     767:	48 85 c9             	test   %rcx,%rcx
     76a:	74 8d                	je     6f9 <mpz_abs_add_bit+0x69>
     76c:	4d 8d 7e 01          	lea    0x1(%r14),%r15
     770:	41 3b 3c 24          	cmp    (%r12),%edi
     774:	7d 0d                	jge    783 <mpz_abs_add_bit+0xf3>
     776:	4a c7 04 f0 01 00 00 	movq   $0x1,(%rax,%r14,8)
     77d:	00 
     77e:	e9 76 ff ff ff       	jmp    6f9 <mpz_abs_add_bit+0x69>
     783:	4c 89 fe             	mov    %r15,%rsi
     786:	4c 89 e7             	mov    %r12,%rdi
     789:	e8 22 fc ff ff       	call   3b0 <mpz_realloc>
     78e:	45 8b 6c 24 04       	mov    0x4(%r12),%r13d
     793:	eb e1                	jmp    776 <mpz_abs_add_bit+0xe6>
     795:	66 66 2e 0f 1f 84 00 	data16 cs nopw 0x0(%rax,%rax,1)
     79c:	00 00 00 00 

00000000000007a0 <mp_get_memory_functions>:
     7a0:	f3 0f 1e fa          	endbr64 
     7a4:	48 85 ff             	test   %rdi,%rdi
     7a7:	74 0a                	je     7b3 <mp_get_memory_functions+0x13>
     7a9:	48 8b 05 00 00 00 00 	mov    0x0(%rip),%rax        # 7b0 <mp_get_memory_functions+0x10>
     7b0:	48 89 07             	mov    %rax,(%rdi)
     7b3:	48 85 f6             	test   %rsi,%rsi
     7b6:	74 0a                	je     7c2 <mp_get_memory_functions+0x22>
     7b8:	48 8b 05 00 00 00 00 	mov    0x0(%rip),%rax        # 7bf <mp_get_memory_functions+0x1f>
     7bf:	48 89 06             	mov    %rax,(%rsi)
     7c2:	48 85 d2             	test   %rdx,%rdx
     7c5:	74 0a                	je     7d1 <mp_get_memory_functions+0x31>
     7c7:	48 8b 05 00 00 00 00 	mov    0x0(%rip),%rax        # 7ce <mp_get_memory_functions+0x2e>
     7ce:	48 89 02             	mov    %rax,(%rdx)
     7d1:	c3                   	ret    
     7d2:	66 66 2e 0f 1f 84 00 	data16 cs nopw 0x0(%rax,%rax,1)
     7d9:	00 00 00 00 
     7dd:	0f 1f 00             	nopl   (%rax)

00000000000007e0 <mp_set_memory_functions>:
     7e0:	f3 0f 1e fa          	endbr64 
     7e4:	48 85 ff             	test   %rdi,%rdi
     7e7:	48 8d 05 42 fc ff ff 	lea    -0x3be(%rip),%rax        # 430 <gmp_default_alloc>
     7ee:	48 0f 44 f8          	cmove  %rax,%rdi
     7f2:	48 85 f6             	test   %rsi,%rsi
     7f5:	48 8d 05 84 f9 ff ff 	lea    -0x67c(%rip),%rax        # 180 <gmp_default_realloc>
     7fc:	48 0f 44 f0          	cmove  %rax,%rsi
     800:	48 8d 05 39 f9 ff ff 	lea    -0x6c7(%rip),%rax        # 140 <gmp_default_free>
     807:	48 85 d2             	test   %rdx,%rdx
     80a:	48 0f 44 d0          	cmove  %rax,%rdx
     80e:	48 89 3d 00 00 00 00 	mov    %rdi,0x0(%rip)        # 815 <mp_set_memory_functions+0x35>
     815:	48 89 35 00 00 00 00 	mov    %rsi,0x0(%rip)        # 81c <mp_set_memory_functions+0x3c>
     81c:	48 89 15 00 00 00 00 	mov    %rdx,0x0(%rip)        # 823 <mp_set_memory_functions+0x43>
     823:	c3                   	ret    
     824:	66 66 2e 0f 1f 84 00 	data16 cs nopw 0x0(%rax,%rax,1)
     82b:	00 00 00 00 
     82f:	90                   	nop

0000000000000830 <mpn_copyi>:
     830:	f3 0f 1e fa          	endbr64 
     834:	48 85 d2             	test   %rdx,%rdx
     837:	7e 18                	jle    851 <mpn_copyi+0x21>
     839:	31 c0                	xor    %eax,%eax
     83b:	0f 1f 44 00 00       	nopl   0x0(%rax,%rax,1)
     840:	48 8b 0c c6          	mov    (%rsi,%rax,8),%rcx
     844:	48 89 0c c7          	mov    %rcx,(%rdi,%rax,8)
     848:	48 83 c0 01          	add    $0x1,%rax
     84c:	48 39 c2             	cmp    %rax,%rdx
     84f:	75 ef                	jne    840 <mpn_copyi+0x10>
     851:	c3                   	ret    
     852:	66 66 2e 0f 1f 84 00 	data16 cs nopw 0x0(%rax,%rax,1)
     859:	00 00 00 00 
     85d:	0f 1f 00             	nopl   (%rax)

0000000000000860 <mpn_copyd>:
     860:	f3 0f 1e fa          	endbr64 
     864:	48 83 ea 01          	sub    $0x1,%rdx
     868:	78 14                	js     87e <mpn_copyd+0x1e>
     86a:	66 0f 1f 44 00 00    	nopw   0x0(%rax,%rax,1)
     870:	48 8b 04 d6          	mov    (%rsi,%rdx,8),%rax
     874:	48 89 04 d7          	mov    %rax,(%rdi,%rdx,8)
     878:	48 83 ea 01          	sub    $0x1,%rdx
     87c:	73 f2                	jae    870 <mpn_copyd+0x10>
     87e:	c3                   	ret    
     87f:	90                   	nop

0000000000000880 <mpn_cmp>:
     880:	f3 0f 1e fa          	endbr64 
     884:	eb 17                	jmp    89d <mpn_cmp+0x1d>
     886:	66 2e 0f 1f 84 00 00 	cs nopw 0x0(%rax,%rax,1)
     88d:	00 00 00 
     890:	48 8b 04 d7          	mov    (%rdi,%rdx,8),%rax
     894:	48 8b 0c d6          	mov    (%rsi,%rdx,8),%rcx
     898:	48 39 c8             	cmp    %rcx,%rax
     89b:	75 13                	jne    8b0 <mpn_cmp+0x30>
     89d:	48 83 ea 01          	sub    $0x1,%rdx
     8a1:	79 ed                	jns    890 <mpn_cmp+0x10>
     8a3:	31 c0                	xor    %eax,%eax
     8a5:	c3                   	ret    
     8a6:	66 2e 0f 1f 84 00 00 	cs nopw 0x0(%rax,%rax,1)
     8ad:	00 00 00 
     8b0:	48 39 c1             	cmp    %rax,%rcx
     8b3:	19 c0                	sbb    %eax,%eax
     8b5:	83 e0 02             	and    $0x2,%eax
     8b8:	83 e8 01             	sub    $0x1,%eax
     8bb:	c3                   	ret    
     8bc:	0f 1f 40 00          	nopl   0x0(%rax)

00000000000008c0 <mpn_zero_p>:
     8c0:	f3 0f 1e fa          	endbr64 
     8c4:	48 85 f6             	test   %rsi,%rsi
     8c7:	7f 0d                	jg     8d6 <mpn_zero_p+0x16>
     8c9:	eb 13                	jmp    8de <mpn_zero_p+0x1e>
     8cb:	0f 1f 44 00 00       	nopl   0x0(%rax,%rax,1)
     8d0:	48 83 ee 01          	sub    $0x1,%rsi
     8d4:	74 08                	je     8de <mpn_zero_p+0x1e>
     8d6:	48 83 7c f7 f8 00    	cmpq   $0x0,-0x8(%rdi,%rsi,8)
     8dc:	74 f2                	je     8d0 <mpn_zero_p+0x10>
     8de:	31 c0                	xor    %eax,%eax
     8e0:	48 85 f6             	test   %rsi,%rsi
     8e3:	0f 94 c0             	sete   %al
     8e6:	c3                   	ret    
     8e7:	66 0f 1f 84 00 00 00 	nopw   0x0(%rax,%rax,1)
     8ee:	00 00 

00000000000008f0 <mpn_zero>:
     8f0:	f3 0f 1e fa          	endbr64 
     8f4:	48 85 f6             	test   %rsi,%rsi
     8f7:	7e 17                	jle    910 <mpn_zero+0x20>
     8f9:	48 8d 14 f5 00 00 00 	lea    0x0(,%rsi,8),%rdx
     900:	00 
     901:	31 f6                	xor    %esi,%esi
     903:	e9 00 00 00 00       	jmp    908 <mpn_zero+0x18>
     908:	0f 1f 84 00 00 00 00 	nopl   0x0(%rax,%rax,1)
     90f:	00 
     910:	c3                   	ret    
     911:	66 66 2e 0f 1f 84 00 	data16 cs nopw 0x0(%rax,%rax,1)
     918:	00 00 00 00 
     91c:	0f 1f 40 00          	nopl   0x0(%rax)

0000000000000920 <mpn_add_1>:
     920:	f3 0f 1e fa          	endbr64 
     924:	48 85 d2             	test   %rdx,%rdx
     927:	7e 22                	jle    94b <mpn_add_1+0x2b>
     929:	48 89 c8             	mov    %rcx,%rax
     92c:	45 31 c0             	xor    %r8d,%r8d
     92f:	90                   	nop
     930:	4a 03 04 c6          	add    (%rsi,%r8,8),%rax
     934:	48 89 c1             	mov    %rax,%rcx
     937:	0f 92 c0             	setb   %al
     93a:	4a 89 0c c7          	mov    %rcx,(%rdi,%r8,8)
     93e:	49 83 c0 01          	add    $0x1,%r8
     942:	0f b6 c0             	movzbl %al,%eax
     945:	4c 39 c2             	cmp    %r8,%rdx
     948:	75 e6                	jne    930 <mpn_add_1+0x10>
     94a:	c3                   	ret    
     94b:	50                   	push   %rax
     94c:	48 8d 0d 00 00 00 00 	lea    0x0(%rip),%rcx        # 953 <mpn_add_1+0x33>
     953:	ba c3 01 00 00       	mov    $0x1c3,%edx
     958:	48 8d 35 00 00 00 00 	lea    0x0(%rip),%rsi        # 95f <mpn_add_1+0x3f>
     95f:	48 8d 3d 00 00 00 00 	lea    0x0(%rip),%rdi        # 966 <mpn_add_1+0x46>
     966:	e8 00 00 00 00       	call   96b <mpn_add_1+0x4b>
     96b:	0f 1f 44 00 00       	nopl   0x0(%rax,%rax,1)

0000000000000970 <mpn_add_n>:
     970:	f3 0f 1e fa          	endbr64 
     974:	31 c0                	xor    %eax,%eax
     976:	48 85 c9             	test   %rcx,%rcx
     979:	7e 35                	jle    9b0 <mpn_add_n+0x40>
     97b:	45 31 c0             	xor    %r8d,%r8d
     97e:	66 90                	xchg   %ax,%ax
     980:	45 31 d2             	xor    %r10d,%r10d
     983:	4a 03 04 c6          	add    (%rsi,%r8,8),%rax
     987:	41 0f 92 c2          	setb   %r10b
     98b:	4a 03 04 c2          	add    (%rdx,%r8,8),%rax
     98f:	49 89 c1             	mov    %rax,%r9
     992:	4c 89 d0             	mov    %r10,%rax
     995:	4e 89 0c c7          	mov    %r9,(%rdi,%r8,8)
     999:	48 83 d0 00          	adc    $0x0,%rax
     99d:	49 83 c0 01          	add    $0x1,%r8
     9a1:	4c 39 c1             	cmp    %r8,%rcx
     9a4:	75 da                	jne    980 <mpn_add_n+0x10>
     9a6:	c3                   	ret    
     9a7:	66 0f 1f 84 00 00 00 	nopw   0x0(%rax,%rax,1)
     9ae:	00 00 
     9b0:	c3                   	ret    
     9b1:	66 66 2e 0f 1f 84 00 	data16 cs nopw 0x0(%rax,%rax,1)
     9b8:	00 00 00 00 
     9bc:	0f 1f 40 00          	nopl   0x0(%rax)

00000000000009c0 <mpn_add>:
     9c0:	f3 0f 1e fa          	endbr64 
     9c4:	4c 39 c2             	cmp    %r8,%rdx
     9c7:	7c 72                	jl     a3b <mpn_add+0x7b>
     9c9:	49 89 fa             	mov    %rdi,%r10
     9cc:	31 c0                	xor    %eax,%eax
     9ce:	48 89 f7             	mov    %rsi,%rdi
     9d1:	31 f6                	xor    %esi,%esi
     9d3:	4d 85 c0             	test   %r8,%r8
     9d6:	7e 2e                	jle    a06 <mpn_add+0x46>
     9d8:	0f 1f 84 00 00 00 00 	nopl   0x0(%rax,%rax,1)
     9df:	00 
     9e0:	45 31 db             	xor    %r11d,%r11d
     9e3:	48 03 04 f7          	add    (%rdi,%rsi,8),%rax
     9e7:	41 0f 92 c3          	setb   %r11b
     9eb:	48 03 04 f1          	add    (%rcx,%rsi,8),%rax
     9ef:	49 89 c1             	mov    %rax,%r9
     9f2:	4c 89 d8             	mov    %r11,%rax
     9f5:	4d 89 0c f2          	mov    %r9,(%r10,%rsi,8)
     9f9:	48 83 d0 00          	adc    $0x0,%rax
     9fd:	48 83 c6 01          	add    $0x1,%rsi
     a01:	49 39 f0             	cmp    %rsi,%r8
     a04:	75 da                	jne    9e0 <mpn_add+0x20>
     a06:	4c 39 c2             	cmp    %r8,%rdx
     a09:	7f 05                	jg     a10 <mpn_add+0x50>
     a0b:	c3                   	ret    
     a0c:	0f 1f 40 00          	nopl   0x0(%rax)
     a10:	4a 8d 0c c5 00 00 00 	lea    0x0(,%r8,8),%rcx
     a17:	00 
     a18:	48 c1 e2 03          	shl    $0x3,%rdx
     a1c:	0f 1f 40 00          	nopl   0x0(%rax)
     a20:	48 03 04 0f          	add    (%rdi,%rcx,1),%rax
     a24:	48 89 c6             	mov    %rax,%rsi
     a27:	0f 92 c0             	setb   %al
     a2a:	49 89 34 0a          	mov    %rsi,(%r10,%rcx,1)
     a2e:	48 83 c1 08          	add    $0x8,%rcx
     a32:	0f b6 c0             	movzbl %al,%eax
     a35:	48 39 ca             	cmp    %rcx,%rdx
     a38:	75 e6                	jne    a20 <mpn_add+0x60>
     a3a:	c3                   	ret    
     a3b:	50                   	push   %rax
     a3c:	48 8d 0d 00 00 00 00 	lea    0x0(%rip),%rcx        # a43 <mpn_add+0x83>
     a43:	ba e9 01 00 00       	mov    $0x1e9,%edx
     a48:	48 8d 35 00 00 00 00 	lea    0x0(%rip),%rsi        # a4f <mpn_add+0x8f>
     a4f:	48 8d 3d 00 00 00 00 	lea    0x0(%rip),%rdi        # a56 <mpn_add+0x96>
     a56:	e8 00 00 00 00       	call   a5b <mpn_add+0x9b>
     a5b:	0f 1f 44 00 00       	nopl   0x0(%rax,%rax,1)

0000000000000a60 <mpz_abs_add>:
     a60:	41 55                	push   %r13
     a62:	41 54                	push   %r12
     a64:	49 89 f4             	mov    %rsi,%r12
     a67:	55                   	push   %rbp
     a68:	48 89 d5             	mov    %rdx,%rbp
     a6b:	53                   	push   %rbx
     a6c:	48 83 ec 18          	sub    $0x18,%rsp
     a70:	8b 46 04             	mov    0x4(%rsi),%eax
     a73:	89 c3                	mov    %eax,%ebx
     a75:	f7 db                	neg    %ebx
     a77:	0f 48 d8             	cmovs  %eax,%ebx
     a7a:	8b 42 04             	mov    0x4(%rdx),%eax
     a7d:	41 89 c0             	mov    %eax,%r8d
     a80:	48 63 db             	movslq %ebx,%rbx
     a83:	41 f7 d8             	neg    %r8d
     a86:	44 0f 48 c0          	cmovs  %eax,%r8d
     a8a:	4d 63 c0             	movslq %r8d,%r8
     a8d:	4c 39 c3             	cmp    %r8,%rbx
     a90:	7d 0f                	jge    aa1 <mpz_abs_add+0x41>
     a92:	48 89 d8             	mov    %rbx,%rax
     a95:	49 89 d4             	mov    %rdx,%r12
     a98:	4c 89 c3             	mov    %r8,%rbx
     a9b:	48 89 f5             	mov    %rsi,%rbp
     a9e:	49 89 c0             	mov    %rax,%r8
     aa1:	48 63 07             	movslq (%rdi),%rax
     aa4:	48 39 d8             	cmp    %rbx,%rax
     aa7:	7e 2f                	jle    ad8 <mpz_abs_add+0x78>
     aa9:	4c 8b 6f 08          	mov    0x8(%rdi),%r13
     aad:	48 8b 4d 08          	mov    0x8(%rbp),%rcx
     ab1:	49 8b 74 24 08       	mov    0x8(%r12),%rsi
     ab6:	48 89 da             	mov    %rbx,%rdx
     ab9:	4c 89 ef             	mov    %r13,%rdi
     abc:	e8 00 00 00 00       	call   ac1 <mpz_abs_add+0x61>
     ac1:	49 89 44 dd 00       	mov    %rax,0x0(%r13,%rbx,8)
     ac6:	48 83 c4 18          	add    $0x18,%rsp
     aca:	48 01 d8             	add    %rbx,%rax
     acd:	5b                   	pop    %rbx
     ace:	5d                   	pop    %rbp
     acf:	41 5c                	pop    %r12
     ad1:	41 5d                	pop    %r13
     ad3:	c3                   	ret    
     ad4:	0f 1f 40 00          	nopl   0x0(%rax)
     ad8:	48 8d 73 01          	lea    0x1(%rbx),%rsi
     adc:	4c 89 44 24 08       	mov    %r8,0x8(%rsp)
     ae1:	e8 ca f8 ff ff       	call   3b0 <mpz_realloc>
     ae6:	4c 8b 44 24 08       	mov    0x8(%rsp),%r8
     aeb:	49 89 c5             	mov    %rax,%r13
     aee:	eb bd                	jmp    aad <mpz_abs_add+0x4d>

0000000000000af0 <mpn_sub_1>:
     af0:	f3 0f 1e fa          	endbr64 
     af4:	48 85 d2             	test   %rdx,%rdx
     af7:	7e 27                	jle    b20 <mpn_sub_1+0x30>
     af9:	48 89 c8             	mov    %rcx,%rax
     afc:	45 31 c0             	xor    %r8d,%r8d
     aff:	90                   	nop
     b00:	4e 8b 0c c6          	mov    (%rsi,%r8,8),%r9
     b04:	49 89 c2             	mov    %rax,%r10
     b07:	31 c0                	xor    %eax,%eax
     b09:	4d 39 ca             	cmp    %r9,%r10
     b0c:	0f 97 c0             	seta   %al
     b0f:	4d 29 d1             	sub    %r10,%r9
     b12:	4e 89 0c c7          	mov    %r9,(%rdi,%r8,8)
     b16:	49 83 c0 01          	add    $0x1,%r8
     b1a:	4c 39 c2             	cmp    %r8,%rdx
     b1d:	75 e1                	jne    b00 <mpn_sub_1+0x10>
     b1f:	c3                   	ret    
     b20:	50                   	push   %rax
     b21:	e8 8a f9 ff ff       	call   4b0 <mpn_sub_1.part.0>
     b26:	66 2e 0f 1f 84 00 00 	cs nopw 0x0(%rax,%rax,1)
     b2d:	00 00 00 

0000000000000b30 <mpn_sub_n>:
     b30:	f3 0f 1e fa          	endbr64 
     b34:	49 89 fa             	mov    %rdi,%r10
     b37:	31 c0                	xor    %eax,%eax
     b39:	48 85 c9             	test   %rcx,%rcx
     b3c:	7e 32                	jle    b70 <mpn_sub_n+0x40>
     b3e:	31 ff                	xor    %edi,%edi
     b40:	48 03 04 fa          	add    (%rdx,%rdi,8),%rax
     b44:	4c 8b 04 fe          	mov    (%rsi,%rdi,8),%r8
     b48:	49 89 c1             	mov    %rax,%r9
     b4b:	0f 92 c0             	setb   %al
     b4e:	0f b6 c0             	movzbl %al,%eax
     b51:	4d 39 c8             	cmp    %r9,%r8
     b54:	48 83 d0 00          	adc    $0x0,%rax
     b58:	4d 29 c8             	sub    %r9,%r8
     b5b:	4d 89 04 fa          	mov    %r8,(%r10,%rdi,8)
     b5f:	48 83 c7 01          	add    $0x1,%rdi
     b63:	48 39 f9             	cmp    %rdi,%rcx
     b66:	75 d8                	jne    b40 <mpn_sub_n+0x10>
     b68:	c3                   	ret    
     b69:	0f 1f 80 00 00 00 00 	nopl   0x0(%rax)
     b70:	c3                   	ret    
     b71:	66 66 2e 0f 1f 84 00 	data16 cs nopw 0x0(%rax,%rax,1)
     b78:	00 00 00 00 
     b7c:	0f 1f 40 00          	nopl   0x0(%rax)

0000000000000b80 <mpn_sub>:
     b80:	f3 0f 1e fa          	endbr64 
     b84:	4c 39 c2             	cmp    %r8,%rdx
     b87:	7c 77                	jl     c00 <mpn_sub+0x80>
     b89:	49 89 d3             	mov    %rdx,%r11
     b8c:	49 89 f9             	mov    %rdi,%r9
     b8f:	49 89 f2             	mov    %rsi,%r10
     b92:	31 c0                	xor    %eax,%eax
     b94:	31 d2                	xor    %edx,%edx
     b96:	4d 85 c0             	test   %r8,%r8
     b99:	7e 2d                	jle    bc8 <mpn_sub+0x48>
     b9b:	0f 1f 44 00 00       	nopl   0x0(%rax,%rax,1)
     ba0:	48 03 04 d1          	add    (%rcx,%rdx,8),%rax
     ba4:	49 8b 34 d2          	mov    (%r10,%rdx,8),%rsi
     ba8:	48 89 c7             	mov    %rax,%rdi
     bab:	0f 92 c0             	setb   %al
     bae:	0f b6 c0             	movzbl %al,%eax
     bb1:	48 39 fe             	cmp    %rdi,%rsi
     bb4:	48 83 d0 00          	adc    $0x0,%rax
     bb8:	48 29 fe             	sub    %rdi,%rsi
     bbb:	49 89 34 d1          	mov    %rsi,(%r9,%rdx,8)
     bbf:	48 83 c2 01          	add    $0x1,%rdx
     bc3:	49 39 d0             	cmp    %rdx,%r8
     bc6:	75 d8                	jne    ba0 <mpn_sub+0x20>
     bc8:	4d 39 c3             	cmp    %r8,%r11
     bcb:	7f 03                	jg     bd0 <mpn_sub+0x50>
     bcd:	c3                   	ret    
     bce:	66 90                	xchg   %ax,%ax
     bd0:	4a 8d 14 c5 00 00 00 	lea    0x0(,%r8,8),%rdx
     bd7:	00 
     bd8:	49 c1 e3 03          	shl    $0x3,%r11
     bdc:	0f 1f 40 00          	nopl   0x0(%rax)
     be0:	49 8b 0c 12          	mov    (%r10,%rdx,1),%rcx
     be4:	48 89 c6             	mov    %rax,%rsi
     be7:	31 c0                	xor    %eax,%eax
     be9:	48 39 f1             	cmp    %rsi,%rcx
     bec:	0f 92 c0             	setb   %al
     bef:	48 29 f1             	sub    %rsi,%rcx
     bf2:	49 89 0c 11          	mov    %rcx,(%r9,%rdx,1)
     bf6:	48 83 c2 08          	add    $0x8,%rdx
     bfa:	49 39 d3             	cmp    %rdx,%r11
     bfd:	75 e1                	jne    be0 <mpn_sub+0x60>
     bff:	c3                   	ret    
     c00:	50                   	push   %rax
     c01:	48 8d 0d 00 00 00 00 	lea    0x0(%rip),%rcx        # c08 <mpn_sub+0x88>
     c08:	ba 1d 02 00 00       	mov    $0x21d,%edx
     c0d:	48 8d 35 00 00 00 00 	lea    0x0(%rip),%rsi        # c14 <mpn_sub+0x94>
     c14:	48 8d 3d 00 00 00 00 	lea    0x0(%rip),%rdi        # c1b <mpn_sub+0x9b>
     c1b:	e8 00 00 00 00       	call   c20 <mpz_abs_sub>

0000000000000c20 <mpz_abs_sub>:
     c20:	41 57                	push   %r15
     c22:	41 56                	push   %r14
     c24:	49 89 f6             	mov    %rsi,%r14
     c27:	41 55                	push   %r13
     c29:	49 89 d5             	mov    %rdx,%r13
     c2c:	41 54                	push   %r12
     c2e:	55                   	push   %rbp
     c2f:	53                   	push   %rbx
     c30:	48 83 ec 08          	sub    $0x8,%rsp
     c34:	44 8b 7e 04          	mov    0x4(%rsi),%r15d
     c38:	41 8b 6d 04          	mov    0x4(%r13),%ebp
     c3c:	4d 8b 4d 08          	mov    0x8(%r13),%r9
     c40:	48 8b 76 08          	mov    0x8(%rsi),%rsi
     c44:	44 89 fa             	mov    %r15d,%edx
     c47:	89 e9                	mov    %ebp,%ecx
     c49:	f7 da                	neg    %edx
     c4b:	41 0f 48 d7          	cmovs  %r15d,%edx
     c4f:	f7 d9                	neg    %ecx
     c51:	0f 48 cd             	cmovs  %ebp,%ecx
     c54:	4c 63 e2             	movslq %edx,%r12
     c57:	48 63 d9             	movslq %ecx,%rbx
     c5a:	49 39 dc             	cmp    %rbx,%r12
     c5d:	0f 84 ad 00 00 00    	je     d10 <mpz_abs_sub+0xf0>
     c63:	7d 6d                	jge    cd2 <mpz_abs_sub+0xb2>
     c65:	3b 0f                	cmp    (%rdi),%ecx
     c67:	0f 8f db 00 00 00    	jg     d48 <mpz_abs_sub+0x128>
     c6d:	4c 8b 7f 08          	mov    0x8(%rdi),%r15
     c71:	48 89 f1             	mov    %rsi,%rcx
     c74:	4d 89 e0             	mov    %r12,%r8
     c77:	48 89 da             	mov    %rbx,%rdx
     c7a:	4c 89 ce             	mov    %r9,%rsi
     c7d:	4c 89 ff             	mov    %r15,%rdi
     c80:	e8 00 00 00 00       	call   c85 <mpz_abs_sub+0x65>
     c85:	48 85 c0             	test   %rax,%rax
     c88:	0f 85 f1 00 00 00    	jne    d7f <mpz_abs_sub+0x15f>
     c8e:	85 ed                	test   %ebp,%ebp
     c90:	75 18                	jne    caa <mpz_abs_sub+0x8a>
     c92:	e9 91 00 00 00       	jmp    d28 <mpz_abs_sub+0x108>
     c97:	66 0f 1f 84 00 00 00 	nopw   0x0(%rax,%rax,1)
     c9e:	00 00 
     ca0:	48 83 eb 01          	sub    $0x1,%rbx
     ca4:	0f 84 7e 00 00 00    	je     d28 <mpz_abs_sub+0x108>
     caa:	49 83 7c df f8 00    	cmpq   $0x0,-0x8(%r15,%rbx,8)
     cb0:	74 ee                	je     ca0 <mpz_abs_sub+0x80>
     cb2:	48 f7 db             	neg    %rbx
     cb5:	49 89 dc             	mov    %rbx,%r12
     cb8:	48 83 c4 08          	add    $0x8,%rsp
     cbc:	4c 89 e0             	mov    %r12,%rax
     cbf:	5b                   	pop    %rbx
     cc0:	5d                   	pop    %rbp
     cc1:	41 5c                	pop    %r12
     cc3:	41 5d                	pop    %r13
     cc5:	41 5e                	pop    %r14
     cc7:	41 5f                	pop    %r15
     cc9:	c3                   	ret    
     cca:	66 0f 1f 44 00 00    	nopw   0x0(%rax,%rax,1)
     cd0:	76 93                	jbe    c65 <mpz_abs_sub+0x45>
     cd2:	3b 17                	cmp    (%rdi),%edx
     cd4:	7f 5a                	jg     d30 <mpz_abs_sub+0x110>
     cd6:	48 8b 6f 08          	mov    0x8(%rdi),%rbp
     cda:	49 89 d8             	mov    %rbx,%r8
     cdd:	4c 89 c9             	mov    %r9,%rcx
     ce0:	4c 89 e2             	mov    %r12,%rdx
     ce3:	48 89 ef             	mov    %rbp,%rdi
     ce6:	e8 00 00 00 00       	call   ceb <mpz_abs_sub+0xcb>
     ceb:	48 85 c0             	test   %rax,%rax
     cee:	75 70                	jne    d60 <mpz_abs_sub+0x140>
     cf0:	45 85 ff             	test   %r15d,%r15d
     cf3:	75 11                	jne    d06 <mpz_abs_sub+0xe6>
     cf5:	eb 31                	jmp    d28 <mpz_abs_sub+0x108>
     cf7:	66 0f 1f 84 00 00 00 	nopw   0x0(%rax,%rax,1)
     cfe:	00 00 
     d00:	49 83 ec 01          	sub    $0x1,%r12
     d04:	74 22                	je     d28 <mpz_abs_sub+0x108>
     d06:	4a 83 7c e5 f8 00    	cmpq   $0x0,-0x8(%rbp,%r12,8)
     d0c:	74 f2                	je     d00 <mpz_abs_sub+0xe0>
     d0e:	eb a8                	jmp    cb8 <mpz_abs_sub+0x98>
     d10:	4c 89 e0             	mov    %r12,%rax
     d13:	eb 0d                	jmp    d22 <mpz_abs_sub+0x102>
     d15:	0f 1f 00             	nopl   (%rax)
     d18:	4d 8b 14 c1          	mov    (%r9,%rax,8),%r10
     d1c:	4c 39 14 c6          	cmp    %r10,(%rsi,%rax,8)
     d20:	75 ae                	jne    cd0 <mpz_abs_sub+0xb0>
     d22:	48 83 e8 01          	sub    $0x1,%rax
     d26:	73 f0                	jae    d18 <mpz_abs_sub+0xf8>
     d28:	45 31 e4             	xor    %r12d,%r12d
     d2b:	eb 8b                	jmp    cb8 <mpz_abs_sub+0x98>
     d2d:	0f 1f 00             	nopl   (%rax)
     d30:	4c 89 e6             	mov    %r12,%rsi
     d33:	e8 78 f6 ff ff       	call   3b0 <mpz_realloc>
     d38:	4d 8b 4d 08          	mov    0x8(%r13),%r9
     d3c:	49 8b 76 08          	mov    0x8(%r14),%rsi
     d40:	48 89 c5             	mov    %rax,%rbp
     d43:	eb 95                	jmp    cda <mpz_abs_sub+0xba>
     d45:	0f 1f 00             	nopl   (%rax)
     d48:	48 89 de             	mov    %rbx,%rsi
     d4b:	e8 60 f6 ff ff       	call   3b0 <mpz_realloc>
     d50:	49 8b 76 08          	mov    0x8(%r14),%rsi
     d54:	4d 8b 4d 08          	mov    0x8(%r13),%r9
     d58:	49 89 c7             	mov    %rax,%r15
     d5b:	e9 11 ff ff ff       	jmp    c71 <mpz_abs_sub+0x51>
     d60:	48 8d 0d 00 00 00 00 	lea    0x0(%rip),%rcx        # d67 <mpz_abs_sub+0x147>
     d67:	ba de 07 00 00       	mov    $0x7de,%edx
     d6c:	48 8d 35 00 00 00 00 	lea    0x0(%rip),%rsi        # d73 <mpz_abs_sub+0x153>
     d73:	48 8d 3d 00 00 00 00 	lea    0x0(%rip),%rdi        # d7a <mpz_abs_sub+0x15a>
     d7a:	e8 00 00 00 00       	call   d7f <mpz_abs_sub+0x15f>
     d7f:	48 8d 0d 00 00 00 00 	lea    0x0(%rip),%rcx        # d86 <mpz_abs_sub+0x166>
     d86:	ba e4 07 00 00       	mov    $0x7e4,%edx
     d8b:	48 8d 35 00 00 00 00 	lea    0x0(%rip),%rsi        # d92 <mpz_abs_sub+0x172>
     d92:	48 8d 3d 00 00 00 00 	lea    0x0(%rip),%rdi        # d99 <mpz_abs_sub+0x179>
     d99:	e8 00 00 00 00       	call   d9e <mpz_abs_sub+0x17e>
     d9e:	66 90                	xchg   %ax,%ax

0000000000000da0 <mpn_mul_1>:
     da0:	f3 0f 1e fa          	endbr64 
     da4:	41 55                	push   %r13
     da6:	41 54                	push   %r12
     da8:	55                   	push   %rbp
     da9:	53                   	push   %rbx
     daa:	48 83 ec 08          	sub    $0x8,%rsp
     dae:	48 85 d2             	test   %rdx,%rdx
     db1:	0f 8e a7 00 00 00    	jle    e5e <mpn_mul_1+0xbe>
     db7:	49 89 c9             	mov    %rcx,%r9
     dba:	49 89 fa             	mov    %rdi,%r10
     dbd:	49 89 f3             	mov    %rsi,%r11
     dc0:	48 89 d3             	mov    %rdx,%rbx
     dc3:	49 c1 e9 20          	shr    $0x20,%r9
     dc7:	89 cf                	mov    %ecx,%edi
     dc9:	31 f6                	xor    %esi,%esi
     dcb:	45 31 c0             	xor    %r8d,%r8d
     dce:	48 bd 00 00 00 00 01 	movabs $0x100000000,%rbp
     dd5:	00 00 00 
     dd8:	0f 1f 84 00 00 00 00 	nopl   0x0(%rax,%rax,1)
     ddf:	00 
     de0:	49 8b 04 f3          	mov    (%r11,%rsi,8),%rax
     de4:	48 89 c1             	mov    %rax,%rcx
     de7:	89 c0                	mov    %eax,%eax
     de9:	48 c1 e9 20          	shr    $0x20,%rcx
     ded:	48 89 c2             	mov    %rax,%rdx
     df0:	49 89 cd             	mov    %rcx,%r13
     df3:	48 0f af d7          	imul   %rdi,%rdx
     df7:	49 0f af c1          	imul   %r9,%rax
     dfb:	4c 0f af ef          	imul   %rdi,%r13
     dff:	49 0f af c9          	imul   %r9,%rcx
     e03:	4e 8d 24 28          	lea    (%rax,%r13,1),%r12
     e07:	48 89 d0             	mov    %rdx,%rax
     e0a:	89 d2                	mov    %edx,%edx
     e0c:	48 c1 e8 20          	shr    $0x20,%rax
     e10:	4c 01 e0             	add    %r12,%rax
     e13:	49 89 cc             	mov    %rcx,%r12
     e16:	48 01 e9             	add    %rbp,%rcx
     e19:	49 39 c5             	cmp    %rax,%r13
     e1c:	49 0f 46 cc          	cmovbe %r12,%rcx
     e20:	49 89 c4             	mov    %rax,%r12
     e23:	4c 01 c2             	add    %r8,%rdx
     e26:	48 c1 e8 20          	shr    $0x20,%rax
     e2a:	49 c1 e4 20          	shl    $0x20,%r12
     e2e:	4c 01 e2             	add    %r12,%rdx
     e31:	49 39 d0             	cmp    %rdx,%r8
     e34:	49 89 14 f2          	mov    %rdx,(%r10,%rsi,8)
     e38:	41 0f 97 c0          	seta   %r8b
     e3c:	48 83 c6 01          	add    $0x1,%rsi
     e40:	45 0f b6 c0          	movzbl %r8b,%r8d
     e44:	4c 01 c0             	add    %r8,%rax
     e47:	4c 8d 04 08          	lea    (%rax,%rcx,1),%r8
     e4b:	48 39 f3             	cmp    %rsi,%rbx
     e4e:	75 90                	jne    de0 <mpn_mul_1+0x40>
     e50:	48 83 c4 08          	add    $0x8,%rsp
     e54:	4c 89 c0             	mov    %r8,%rax
     e57:	5b                   	pop    %rbx
     e58:	5d                   	pop    %rbp
     e59:	41 5c                	pop    %r12
     e5b:	41 5d                	pop    %r13
     e5d:	c3                   	ret    
     e5e:	48 8d 0d 00 00 00 00 	lea    0x0(%rip),%rcx        # e65 <mpn_mul_1+0xc5>
     e65:	ba 2a 02 00 00       	mov    $0x22a,%edx
     e6a:	48 8d 35 00 00 00 00 	lea    0x0(%rip),%rsi        # e71 <mpn_mul_1+0xd1>
     e71:	48 8d 3d 00 00 00 00 	lea    0x0(%rip),%rdi        # e78 <mpn_mul_1+0xd8>
     e78:	e8 00 00 00 00       	call   e7d <mpn_mul_1+0xdd>
     e7d:	0f 1f 00             	nopl   (%rax)

0000000000000e80 <mpn_set_str_other>:
     e80:	41 57                	push   %r15
     e82:	41 56                	push   %r14
     e84:	41 55                	push   %r13
     e86:	41 54                	push   %r12
     e88:	55                   	push   %rbp
     e89:	53                   	push   %rbx
     e8a:	48 83 ec 38          	sub    $0x38,%rsp
     e8e:	48 89 54 24 10       	mov    %rdx,0x10(%rsp)
     e93:	48 85 d2             	test   %rdx,%rdx
     e96:	0f 84 85 01 00 00    	je     1021 <mpn_set_str_other+0x1a1>
     e9c:	48 8b 44 24 10       	mov    0x10(%rsp),%rax
     ea1:	49 89 cf             	mov    %rcx,%r15
     ea4:	41 8b 08             	mov    (%r8),%ecx
     ea7:	31 d2                	xor    %edx,%edx
     ea9:	49 89 fc             	mov    %rdi,%r12
     eac:	49 89 f5             	mov    %rsi,%r13
     eaf:	48 83 e8 01          	sub    $0x1,%rax
     eb3:	89 4c 24 1c          	mov    %ecx,0x1c(%rsp)
     eb7:	48 f7 f1             	div    %rcx
     eba:	0f b6 06             	movzbl (%rsi),%eax
     ebd:	48 85 d2             	test   %rdx,%rdx
     ec0:	0f 84 32 01 00 00    	je     ff8 <mpn_set_str_other+0x178>
     ec6:	8d 6a ff             	lea    -0x1(%rdx),%ebp
     ec9:	49 8d 4d 01          	lea    0x1(%r13),%rcx
     ecd:	49 8d 74 2d 02       	lea    0x2(%r13,%rbp,1),%rsi
     ed2:	66 0f 1f 44 00 00    	nopw   0x0(%rax,%rax,1)
     ed8:	49 0f af c7          	imul   %r15,%rax
     edc:	0f b6 11             	movzbl (%rcx),%edx
     edf:	48 83 c1 01          	add    $0x1,%rcx
     ee3:	48 01 d0             	add    %rdx,%rax
     ee6:	48 39 f1             	cmp    %rsi,%rcx
     ee9:	75 ed                	jne    ed8 <mpn_set_str_other+0x58>
     eeb:	48 83 c5 02          	add    $0x2,%rbp
     eef:	49 89 04 24          	mov    %rax,(%r12)
     ef3:	41 be 01 00 00 00    	mov    $0x1,%r14d
     ef9:	48 39 6c 24 10       	cmp    %rbp,0x10(%rsp)
     efe:	0f 86 cf 00 00 00    	jbe    fd3 <mpn_set_str_other+0x153>
     f04:	8b 44 24 1c          	mov    0x1c(%rsp),%eax
     f08:	83 e8 02             	sub    $0x2,%eax
     f0b:	48 89 44 24 20       	mov    %rax,0x20(%rsp)
     f10:	49 8d 44 05 02       	lea    0x2(%r13,%rax,1),%rax
     f15:	48 89 44 24 28       	mov    %rax,0x28(%rsp)
     f1a:	4c 89 f8             	mov    %r15,%rax
     f1d:	4d 89 ef             	mov    %r13,%r15
     f20:	4d 89 e5             	mov    %r12,%r13
     f23:	4d 89 f4             	mov    %r14,%r12
     f26:	49 89 c6             	mov    %rax,%r14
     f29:	0f 1f 80 00 00 00 00 	nopl   0x0(%rax)
     f30:	83 7c 24 1c 01       	cmpl   $0x1,0x1c(%rsp)
     f35:	41 0f b6 1c 2f       	movzbl (%r15,%rbp,1),%ebx
     f3a:	48 8d 4d 01          	lea    0x1(%rbp),%rcx
     f3e:	0f 86 ac 00 00 00    	jbe    ff0 <mpn_set_str_other+0x170>
     f44:	49 8d 04 0f          	lea    (%r15,%rcx,1),%rax
     f48:	48 03 6c 24 28       	add    0x28(%rsp),%rbp
     f4d:	0f 1f 00             	nopl   (%rax)
     f50:	49 0f af de          	imul   %r14,%rbx
     f54:	0f b6 10             	movzbl (%rax),%edx
     f57:	48 83 c0 01          	add    $0x1,%rax
     f5b:	48 01 d3             	add    %rdx,%rbx
     f5e:	48 39 e8             	cmp    %rbp,%rax
     f61:	75 ed                	jne    f50 <mpn_set_str_other+0xd0>
     f63:	48 8b 44 24 20       	mov    0x20(%rsp),%rax
     f68:	48 8d 6c 01 01       	lea    0x1(%rcx,%rax,1),%rbp
     f6d:	49 8b 48 08          	mov    0x8(%r8),%rcx
     f71:	4c 89 ef             	mov    %r13,%rdi
     f74:	4c 89 e2             	mov    %r12,%rdx
     f77:	4c 89 ee             	mov    %r13,%rsi
     f7a:	4c 89 44 24 08       	mov    %r8,0x8(%rsp)
     f7f:	e8 00 00 00 00       	call   f84 <mpn_set_str_other+0x104>
     f84:	4e 8d 1c e5 00 00 00 	lea    0x0(,%r12,8),%r11
     f8b:	00 
     f8c:	4c 8b 44 24 08       	mov    0x8(%rsp),%r8
     f91:	48 89 c7             	mov    %rax,%rdi
     f94:	4b 8d 0c 2b          	lea    (%r11,%r13,1),%rcx
     f98:	4c 89 e8             	mov    %r13,%rax
     f9b:	0f 1f 44 00 00       	nopl   0x0(%rax,%rax,1)
     fa0:	48 89 da             	mov    %rbx,%rdx
     fa3:	31 db                	xor    %ebx,%ebx
     fa5:	48 03 10             	add    (%rax),%rdx
     fa8:	48 89 10             	mov    %rdx,(%rax)
     fab:	0f 92 c3             	setb   %bl
     fae:	48 83 c0 08          	add    $0x8,%rax
     fb2:	48 39 c1             	cmp    %rax,%rcx
     fb5:	75 e9                	jne    fa0 <mpn_set_str_other+0x120>
     fb7:	48 01 df             	add    %rbx,%rdi
     fba:	74 09                	je     fc5 <mpn_set_str_other+0x145>
     fbc:	4b 89 7c 1d 00       	mov    %rdi,0x0(%r13,%r11,1)
     fc1:	49 83 c4 01          	add    $0x1,%r12
     fc5:	48 39 6c 24 10       	cmp    %rbp,0x10(%rsp)
     fca:	0f 87 60 ff ff ff    	ja     f30 <mpn_set_str_other+0xb0>
     fd0:	4d 89 e6             	mov    %r12,%r14
     fd3:	48 39 6c 24 10       	cmp    %rbp,0x10(%rsp)
     fd8:	75 28                	jne    1002 <mpn_set_str_other+0x182>
     fda:	48 83 c4 38          	add    $0x38,%rsp
     fde:	4c 89 f0             	mov    %r14,%rax
     fe1:	5b                   	pop    %rbx
     fe2:	5d                   	pop    %rbp
     fe3:	41 5c                	pop    %r12
     fe5:	41 5d                	pop    %r13
     fe7:	41 5e                	pop    %r14
     fe9:	41 5f                	pop    %r15
     feb:	c3                   	ret    
     fec:	0f 1f 40 00          	nopl   0x0(%rax)
     ff0:	48 89 cd             	mov    %rcx,%rbp
     ff3:	e9 75 ff ff ff       	jmp    f6d <mpn_set_str_other+0xed>
     ff8:	bd 01 00 00 00       	mov    $0x1,%ebp
     ffd:	e9 ed fe ff ff       	jmp    eef <mpn_set_str_other+0x6f>
    1002:	48 8d 0d 00 00 00 00 	lea    0x0(%rip),%rcx        # 1009 <mpn_set_str_other+0x189>
    1009:	ba 7b 05 00 00       	mov    $0x57b,%edx
    100e:	48 8d 35 00 00 00 00 	lea    0x0(%rip),%rsi        # 1015 <mpn_set_str_other+0x195>
    1015:	48 8d 3d 00 00 00 00 	lea    0x0(%rip),%rdi        # 101c <mpn_set_str_other+0x19c>
    101c:	e8 00 00 00 00       	call   1021 <mpn_set_str_other+0x1a1>
    1021:	48 8d 0d 00 00 00 00 	lea    0x0(%rip),%rcx        # 1028 <mpn_set_str_other+0x1a8>
    1028:	ba 63 05 00 00       	mov    $0x563,%edx
    102d:	48 8d 35 00 00 00 00 	lea    0x0(%rip),%rsi        # 1034 <mpn_set_str_other+0x1b4>
    1034:	48 8d 3d 00 00 00 00 	lea    0x0(%rip),%rdi        # 103b <mpn_set_str_other+0x1bb>
    103b:	e8 00 00 00 00       	call   1040 <mpz_set_str.part.0>

0000000000001040 <mpz_set_str.part.0>:
    1040:	41 57                	push   %r15
    1042:	41 56                	push   %r14
    1044:	41 55                	push   %r13
    1046:	41 54                	push   %r12
    1048:	55                   	push   %rbp
    1049:	89 d5                	mov    %edx,%ebp
    104b:	53                   	push   %rbx
    104c:	48 89 f3             	mov    %rsi,%rbx
    104f:	48 83 ec 48          	sub    $0x48,%rsp
    1053:	48 89 7c 24 08       	mov    %rdi,0x8(%rsp)
    1058:	64 48 8b 04 25 28 00 	mov    %fs:0x28,%rax
    105f:	00 00 
    1061:	48 89 44 24 38       	mov    %rax,0x38(%rsp)
    1066:	31 c0                	xor    %eax,%eax
    1068:	e8 00 00 00 00       	call   106d <mpz_set_str.part.0+0x2d>
    106d:	48 8b 10             	mov    (%rax),%rdx
    1070:	49 89 c0             	mov    %rax,%r8
    1073:	eb 07                	jmp    107c <mpz_set_str.part.0+0x3c>
    1075:	0f 1f 00             	nopl   (%rax)
    1078:	48 83 c3 01          	add    $0x1,%rbx
    107c:	0f b6 03             	movzbl (%rbx),%eax
    107f:	49 89 c6             	mov    %rax,%r14
    1082:	f6 44 42 01 20       	testb  $0x20,0x1(%rdx,%rax,2)
    1087:	75 ef                	jne    1078 <mpz_set_str.part.0+0x38>
    1089:	31 c0                	xor    %eax,%eax
    108b:	41 80 fe 2d          	cmp    $0x2d,%r14b
    108f:	0f 94 c0             	sete   %al
    1092:	48 01 c3             	add    %rax,%rbx
    1095:	0f b6 03             	movzbl (%rbx),%eax
    1098:	85 ed                	test   %ebp,%ebp
    109a:	75 44                	jne    10e0 <mpz_set_str.part.0+0xa0>
    109c:	41 bd 0a 00 00 00    	mov    $0xa,%r13d
    10a2:	3c 30                	cmp    $0x30,%al
    10a4:	0f 84 46 02 00 00    	je     12f0 <mpz_set_str.part.0+0x2b0>
    10aa:	84 c0                	test   %al,%al
    10ac:	0f 84 df 02 00 00    	je     1391 <mpz_set_str.part.0+0x351>
    10b2:	48 89 df             	mov    %rbx,%rdi
    10b5:	4c 89 44 24 10       	mov    %r8,0x10(%rsp)
    10ba:	44 89 ed             	mov    %r13d,%ebp
    10bd:	e8 00 00 00 00       	call   10c2 <mpz_set_str.part.0+0x82>
    10c2:	49 89 c4             	mov    %rax,%r12
    10c5:	48 89 c7             	mov    %rax,%rdi
    10c8:	ff 15 00 00 00 00    	call   *0x0(%rip)        # 10ce <mpz_set_str.part.0+0x8e>
    10ce:	4c 8b 44 24 10       	mov    0x10(%rsp),%r8
    10d3:	be 0a 00 00 00       	mov    $0xa,%esi
    10d8:	49 89 c7             	mov    %rax,%r15
    10db:	eb 3c                	jmp    1119 <mpz_set_str.part.0+0xd9>
    10dd:	0f 1f 00             	nopl   (%rax)
    10e0:	4c 89 44 24 10       	mov    %r8,0x10(%rsp)
    10e5:	84 c0                	test   %al,%al
    10e7:	0f 84 68 02 00 00    	je     1355 <mpz_set_str.part.0+0x315>
    10ed:	48 89 df             	mov    %rbx,%rdi
    10f0:	e8 00 00 00 00       	call   10f5 <mpz_set_str.part.0+0xb5>
    10f5:	49 89 c4             	mov    %rax,%r12
    10f8:	48 89 c7             	mov    %rax,%rdi
    10fb:	ff 15 00 00 00 00    	call   *0x0(%rip)        # 1101 <mpz_set_str.part.0+0xc1>
    1101:	83 fd 25             	cmp    $0x25,%ebp
    1104:	be 0a 00 00 00       	mov    $0xa,%esi
    1109:	4c 8b 44 24 10       	mov    0x10(%rsp),%r8
    110e:	49 89 c7             	mov    %rax,%r15
    1111:	b8 24 00 00 00       	mov    $0x24,%eax
    1116:	0f 4d f0             	cmovge %eax,%esi
    1119:	0f b6 03             	movzbl (%rbx),%eax
    111c:	45 31 ed             	xor    %r13d,%r13d
    111f:	83 ee 61             	sub    $0x61,%esi
    1122:	84 c0                	test   %al,%al
    1124:	75 29                	jne    114f <mpz_set_str.part.0+0x10f>
    1126:	eb 58                	jmp    1180 <mpz_set_str.part.0+0x140>
    1128:	0f 1f 84 00 00 00 00 	nopl   0x0(%rax,%rax,1)
    112f:	00 
    1130:	0f be c2             	movsbl %dl,%eax
    1133:	39 c5                	cmp    %eax,%ebp
    1135:	76 49                	jbe    1180 <mpz_set_str.part.0+0x140>
    1137:	43 88 04 2f          	mov    %al,(%r15,%r13,1)
    113b:	49 83 c5 01          	add    $0x1,%r13
    113f:	0f b6 43 01          	movzbl 0x1(%rbx),%eax
    1143:	48 83 c3 01          	add    $0x1,%rbx
    1147:	84 c0                	test   %al,%al
    1149:	0f 84 81 00 00 00    	je     11d0 <mpz_set_str.part.0+0x190>
    114f:	49 8b 38             	mov    (%r8),%rdi
    1152:	0f b6 d0             	movzbl %al,%edx
    1155:	f6 44 57 01 20       	testb  $0x20,0x1(%rdi,%rdx,2)
    115a:	75 e3                	jne    113f <mpz_set_str.part.0+0xff>
    115c:	8d 50 d0             	lea    -0x30(%rax),%edx
    115f:	80 fa 09             	cmp    $0x9,%dl
    1162:	76 cc                	jbe    1130 <mpz_set_str.part.0+0xf0>
    1164:	8d 50 9f             	lea    -0x61(%rax),%edx
    1167:	80 fa 19             	cmp    $0x19,%dl
    116a:	77 0c                	ja     1178 <mpz_set_str.part.0+0x138>
    116c:	0f be c0             	movsbl %al,%eax
    116f:	01 f0                	add    %esi,%eax
    1171:	eb c0                	jmp    1133 <mpz_set_str.part.0+0xf3>
    1173:	0f 1f 44 00 00       	nopl   0x0(%rax,%rax,1)
    1178:	8d 50 bf             	lea    -0x41(%rax),%edx
    117b:	80 fa 19             	cmp    $0x19,%dl
    117e:	76 40                	jbe    11c0 <mpz_set_str.part.0+0x180>
    1180:	4c 89 e6             	mov    %r12,%rsi
    1183:	4c 89 ff             	mov    %r15,%rdi
    1186:	31 ed                	xor    %ebp,%ebp
    1188:	ff 15 00 00 00 00    	call   *0x0(%rip)        # 118e <mpz_set_str.part.0+0x14e>
    118e:	b8 ff ff ff ff       	mov    $0xffffffff,%eax
    1193:	48 8b 4c 24 08       	mov    0x8(%rsp),%rcx
    1198:	89 69 04             	mov    %ebp,0x4(%rcx)
    119b:	48 8b 54 24 38       	mov    0x38(%rsp),%rdx
    11a0:	64 48 2b 14 25 28 00 	sub    %fs:0x28,%rdx
    11a7:	00 00 
    11a9:	0f 85 1b 02 00 00    	jne    13ca <mpz_set_str.part.0+0x38a>
    11af:	48 83 c4 48          	add    $0x48,%rsp
    11b3:	5b                   	pop    %rbx
    11b4:	5d                   	pop    %rbp
    11b5:	41 5c                	pop    %r12
    11b7:	41 5d                	pop    %r13
    11b9:	41 5e                	pop    %r14
    11bb:	41 5f                	pop    %r15
    11bd:	c3                   	ret    
    11be:	66 90                	xchg   %ax,%ax
    11c0:	83 e8 37             	sub    $0x37,%eax
    11c3:	0f be c0             	movsbl %al,%eax
    11c6:	e9 68 ff ff ff       	jmp    1133 <mpz_set_str.part.0+0xf3>
    11cb:	0f 1f 44 00 00       	nopl   0x0(%rax,%rax,1)
    11d0:	4d 85 ed             	test   %r13,%r13
    11d3:	74 ab                	je     1180 <mpz_set_str.part.0+0x140>
    11d5:	89 ef                	mov    %ebp,%edi
    11d7:	e8 24 ee ff ff       	call   0 <mpn_base_power_of_two_p>
    11dc:	89 c1                	mov    %eax,%ecx
    11de:	48 8b 44 24 08       	mov    0x8(%rsp),%rax
    11e3:	4c 63 00             	movslq (%rax),%r8
    11e6:	85 c9                	test   %ecx,%ecx
    11e8:	74 66                	je     1250 <mpz_set_str.part.0+0x210>
    11ea:	41 89 c9             	mov    %ecx,%r9d
    11ed:	4d 0f af cd          	imul   %r13,%r9
    11f1:	49 83 c1 3f          	add    $0x3f,%r9
    11f5:	49 c1 e9 06          	shr    $0x6,%r9
    11f9:	4d 39 c1             	cmp    %r8,%r9
    11fc:	0f 8f 0c 01 00 00    	jg     130e <mpz_set_str.part.0+0x2ce>
    1202:	48 8b 44 24 08       	mov    0x8(%rsp),%rax
    1207:	48 8b 78 08          	mov    0x8(%rax),%rdi
    120b:	4c 89 ea             	mov    %r13,%rdx
    120e:	4c 89 fe             	mov    %r15,%rsi
    1211:	4c 89 4c 24 10       	mov    %r9,0x10(%rsp)
    1216:	e8 95 ee ff ff       	call   b0 <mpn_set_str_bits>
    121b:	4c 8b 4c 24 10       	mov    0x10(%rsp),%r9
    1220:	48 89 c5             	mov    %rax,%rbp
    1223:	4c 39 cd             	cmp    %r9,%rbp
    1226:	0f 8f a3 01 00 00    	jg     13cf <mpz_set_str.part.0+0x38f>
    122c:	4c 89 e6             	mov    %r12,%rsi
    122f:	4c 89 ff             	mov    %r15,%rdi
    1232:	ff 15 00 00 00 00    	call   *0x0(%rip)        # 1238 <mpz_set_str.part.0+0x1f8>
    1238:	89 e8                	mov    %ebp,%eax
    123a:	f7 d8                	neg    %eax
    123c:	41 80 fe 2d          	cmp    $0x2d,%r14b
    1240:	0f 44 e8             	cmove  %eax,%ebp
    1243:	31 c0                	xor    %eax,%eax
    1245:	e9 49 ff ff ff       	jmp    1193 <mpz_set_str.part.0+0x153>
    124a:	66 0f 1f 44 00 00    	nopw   0x0(%rax,%rax,1)
    1250:	48 63 cd             	movslq %ebp,%rcx
    1253:	48 89 c8             	mov    %rcx,%rax
    1256:	48 f7 e1             	mul    %rcx
    1259:	0f 80 5b 01 00 00    	jo     13ba <mpz_set_str.part.0+0x37a>
    125f:	48 89 ce             	mov    %rcx,%rsi
    1262:	bf 01 00 00 00       	mov    $0x1,%edi
    1267:	66 0f 1f 84 00 00 00 	nopw   0x0(%rax,%rax,1)
    126e:	00 00 
    1270:	48 0f af f1          	imul   %rcx,%rsi
    1274:	83 c7 01             	add    $0x1,%edi
    1277:	48 89 f0             	mov    %rsi,%rax
    127a:	48 f7 e1             	mul    %rcx
    127d:	71 f1                	jno    1270 <mpz_set_str.part.0+0x230>
    127f:	41 89 fa             	mov    %edi,%r10d
    1282:	31 d2                	xor    %edx,%edx
    1284:	4f 8d 4c 15 ff       	lea    -0x1(%r13,%r10,1),%r9
    1289:	4c 89 c8             	mov    %r9,%rax
    128c:	49 f7 f2             	div    %r10
    128f:	49 89 c1             	mov    %rax,%r9
    1292:	89 7c 24 20          	mov    %edi,0x20(%rsp)
    1296:	48 89 74 24 28       	mov    %rsi,0x28(%rsp)
    129b:	4d 39 c1             	cmp    %r8,%r9
    129e:	0f 8f c4 00 00 00    	jg     1368 <mpz_set_str.part.0+0x328>
    12a4:	48 8b 44 24 08       	mov    0x8(%rsp),%rax
    12a9:	48 8b 58 08          	mov    0x8(%rax),%rbx
    12ad:	4c 8d 44 24 20       	lea    0x20(%rsp),%r8
    12b2:	4c 89 ea             	mov    %r13,%rdx
    12b5:	4c 89 fe             	mov    %r15,%rsi
    12b8:	48 89 df             	mov    %rbx,%rdi
    12bb:	4c 89 4c 24 10       	mov    %r9,0x10(%rsp)
    12c0:	e8 bb fb ff ff       	call   e80 <mpn_set_str_other>
    12c5:	4c 8b 4c 24 10       	mov    0x10(%rsp),%r9
    12ca:	48 85 c0             	test   %rax,%rax
    12cd:	48 89 c1             	mov    %rax,%rcx
    12d0:	0f 8e c5 00 00 00    	jle    139b <mpz_set_str.part.0+0x35b>
    12d6:	48 83 7c c3 f8 01    	cmpq   $0x1,-0x8(%rbx,%rax,8)
    12dc:	48 83 d9 00          	sbb    $0x0,%rcx
    12e0:	48 89 cd             	mov    %rcx,%rbp
    12e3:	e9 3b ff ff ff       	jmp    1223 <mpz_set_str.part.0+0x1e3>
    12e8:	0f 1f 84 00 00 00 00 	nopl   0x0(%rax,%rax,1)
    12ef:	00 
    12f0:	0f b6 43 01          	movzbl 0x1(%rbx),%eax
    12f4:	83 e0 df             	and    $0xffffffdf,%eax
    12f7:	3c 58                	cmp    $0x58,%al
    12f9:	75 38                	jne    1333 <mpz_set_str.part.0+0x2f3>
    12fb:	0f b6 43 02          	movzbl 0x2(%rbx),%eax
    12ff:	41 bd 10 00 00 00    	mov    $0x10,%r13d
    1305:	48 83 c3 02          	add    $0x2,%rbx
    1309:	e9 9c fd ff ff       	jmp    10aa <mpz_set_str.part.0+0x6a>
    130e:	4c 89 ce             	mov    %r9,%rsi
    1311:	48 89 c7             	mov    %rax,%rdi
    1314:	89 4c 24 18          	mov    %ecx,0x18(%rsp)
    1318:	4c 89 4c 24 10       	mov    %r9,0x10(%rsp)
    131d:	e8 8e f0 ff ff       	call   3b0 <mpz_realloc>
    1322:	4c 8b 4c 24 10       	mov    0x10(%rsp),%r9
    1327:	8b 4c 24 18          	mov    0x18(%rsp),%ecx
    132b:	48 89 c7             	mov    %rax,%rdi
    132e:	e9 d8 fe ff ff       	jmp    120b <mpz_set_str.part.0+0x1cb>
    1333:	3c 42                	cmp    $0x42,%al
    1335:	75 13                	jne    134a <mpz_set_str.part.0+0x30a>
    1337:	0f b6 43 02          	movzbl 0x2(%rbx),%eax
    133b:	41 bd 02 00 00 00    	mov    $0x2,%r13d
    1341:	48 83 c3 02          	add    $0x2,%rbx
    1345:	e9 60 fd ff ff       	jmp    10aa <mpz_set_str.part.0+0x6a>
    134a:	41 bd 08 00 00 00    	mov    $0x8,%r13d
    1350:	e9 5d fd ff ff       	jmp    10b2 <mpz_set_str.part.0+0x72>
    1355:	31 ed                	xor    %ebp,%ebp
    1357:	b8 ff ff ff ff       	mov    $0xffffffff,%eax
    135c:	e9 32 fe ff ff       	jmp    1193 <mpz_set_str.part.0+0x153>
    1361:	0f 1f 80 00 00 00 00 	nopl   0x0(%rax)
    1368:	48 8b 7c 24 08       	mov    0x8(%rsp),%rdi
    136d:	4c 89 ce             	mov    %r9,%rsi
    1370:	48 89 4c 24 18       	mov    %rcx,0x18(%rsp)
    1375:	4c 89 4c 24 10       	mov    %r9,0x10(%rsp)
    137a:	e8 31 f0 ff ff       	call   3b0 <mpz_realloc>
    137f:	4c 8b 4c 24 10       	mov    0x10(%rsp),%r9
    1384:	48 8b 4c 24 18       	mov    0x18(%rsp),%rcx
    1389:	48 89 c3             	mov    %rax,%rbx
    138c:	e9 1c ff ff ff       	jmp    12ad <mpz_set_str.part.0+0x26d>
    1391:	b8 ff ff ff ff       	mov    $0xffffffff,%eax
    1396:	e9 f8 fd ff ff       	jmp    1193 <mpz_set_str.part.0+0x153>
    139b:	48 8d 0d 00 00 00 00 	lea    0x0(%rip),%rcx        # 13a2 <mpz_set_str.part.0+0x362>
    13a2:	ba 3d 11 00 00       	mov    $0x113d,%edx
    13a7:	48 8d 35 00 00 00 00 	lea    0x0(%rip),%rsi        # 13ae <mpz_set_str.part.0+0x36e>
    13ae:	48 8d 3d 00 00 00 00 	lea    0x0(%rip),%rdi        # 13b5 <mpz_set_str.part.0+0x375>
    13b5:	e8 00 00 00 00       	call   13ba <mpz_set_str.part.0+0x37a>
    13ba:	4d 89 e9             	mov    %r13,%r9
    13bd:	48 89 ce             	mov    %rcx,%rsi
    13c0:	bf 01 00 00 00       	mov    $0x1,%edi
    13c5:	e9 c8 fe ff ff       	jmp    1292 <mpz_set_str.part.0+0x252>
    13ca:	e8 00 00 00 00       	call   13cf <mpz_set_str.part.0+0x38f>
    13cf:	48 8d 0d 00 00 00 00 	lea    0x0(%rip),%rcx        # 13d6 <mpz_set_str.part.0+0x396>
    13d6:	ba 40 11 00 00       	mov    $0x1140,%edx
    13db:	48 8d 35 00 00 00 00 	lea    0x0(%rip),%rsi        # 13e2 <mpz_set_str.part.0+0x3a2>
    13e2:	48 8d 3d 00 00 00 00 	lea    0x0(%rip),%rdi        # 13e9 <mpz_set_str.part.0+0x3a9>
    13e9:	e8 00 00 00 00       	call   13ee <mpz_set_str.part.0+0x3ae>
    13ee:	66 90                	xchg   %ax,%ax

00000000000013f0 <mpn_addmul_1>:
    13f0:	f3 0f 1e fa          	endbr64 
    13f4:	41 55                	push   %r13
    13f6:	41 54                	push   %r12
    13f8:	55                   	push   %rbp
    13f9:	53                   	push   %rbx
    13fa:	48 83 ec 08          	sub    $0x8,%rsp
    13fe:	48 85 d2             	test   %rdx,%rdx
    1401:	0f 8e ab 00 00 00    	jle    14b2 <mpn_addmul_1+0xc2>
    1407:	49 89 ca             	mov    %rcx,%r10
    140a:	49 89 f3             	mov    %rsi,%r11
    140d:	48 89 d3             	mov    %rdx,%rbx
    1410:	41 89 c9             	mov    %ecx,%r9d
    1413:	49 c1 ea 20          	shr    $0x20,%r10
    1417:	31 f6                	xor    %esi,%esi
    1419:	45 31 c0             	xor    %r8d,%r8d
    141c:	48 bd 00 00 00 00 01 	movabs $0x100000000,%rbp
    1423:	00 00 00 
    1426:	66 2e 0f 1f 84 00 00 	cs nopw 0x0(%rax,%rax,1)
    142d:	00 00 00 
    1430:	49 8b 14 f3          	mov    (%r11,%rsi,8),%rdx
    1434:	48 89 d1             	mov    %rdx,%rcx
    1437:	89 d2                	mov    %edx,%edx
    1439:	48 c1 e9 20          	shr    $0x20,%rcx
    143d:	48 89 d0             	mov    %rdx,%rax
    1440:	49 89 cd             	mov    %rcx,%r13
    1443:	49 0f af c1          	imul   %r9,%rax
    1447:	49 0f af d2          	imul   %r10,%rdx
    144b:	4d 0f af e9          	imul   %r9,%r13
    144f:	49 0f af ca          	imul   %r10,%rcx
    1453:	4e 8d 24 2a          	lea    (%rdx,%r13,1),%r12
    1457:	48 89 c2             	mov    %rax,%rdx
    145a:	89 c0                	mov    %eax,%eax
    145c:	48 c1 ea 20          	shr    $0x20,%rdx
    1460:	4c 01 e2             	add    %r12,%rdx
    1463:	49 89 cc             	mov    %rcx,%r12
    1466:	48 01 e9             	add    %rbp,%rcx
    1469:	49 39 d5             	cmp    %rdx,%r13
    146c:	49 0f 46 cc          	cmovbe %r12,%rcx
    1470:	49 89 d4             	mov    %rdx,%r12
    1473:	4c 01 c0             	add    %r8,%rax
    1476:	48 c1 ea 20          	shr    $0x20,%rdx
    147a:	49 c1 e4 20          	shl    $0x20,%r12
    147e:	4c 01 e0             	add    %r12,%rax
    1481:	49 39 c0             	cmp    %rax,%r8
    1484:	41 0f 97 c0          	seta   %r8b
    1488:	48 03 04 f7          	add    (%rdi,%rsi,8),%rax
    148c:	45 0f b6 c0          	movzbl %r8b,%r8d
    1490:	48 89 04 f7          	mov    %rax,(%rdi,%rsi,8)
    1494:	4c 11 c2             	adc    %r8,%rdx
    1497:	48 83 c6 01          	add    $0x1,%rsi
    149b:	4c 8d 04 0a          	lea    (%rdx,%rcx,1),%r8
    149f:	48 39 f3             	cmp    %rsi,%rbx
    14a2:	75 8c                	jne    1430 <mpn_addmul_1+0x40>
    14a4:	48 83 c4 08          	add    $0x8,%rsp
    14a8:	4c 89 c0             	mov    %r8,%rax
    14ab:	5b                   	pop    %rbx
    14ac:	5d                   	pop    %rbp
    14ad:	41 5c                	pop    %r12
    14af:	41 5d                	pop    %r13
    14b1:	c3                   	ret    
    14b2:	48 8d 0d 00 00 00 00 	lea    0x0(%rip),%rcx        # 14b9 <mpn_addmul_1+0xc9>
    14b9:	ba 41 02 00 00       	mov    $0x241,%edx
    14be:	48 8d 35 00 00 00 00 	lea    0x0(%rip),%rsi        # 14c5 <mpn_addmul_1+0xd5>
    14c5:	48 8d 3d 00 00 00 00 	lea    0x0(%rip),%rdi        # 14cc <mpn_addmul_1+0xdc>
    14cc:	e8 00 00 00 00       	call   14d1 <mpn_addmul_1+0xe1>
    14d1:	66 66 2e 0f 1f 84 00 	data16 cs nopw 0x0(%rax,%rax,1)
    14d8:	00 00 00 00 
    14dc:	0f 1f 40 00          	nopl   0x0(%rax)

00000000000014e0 <mpn_submul_1>:
    14e0:	f3 0f 1e fa          	endbr64 
    14e4:	41 55                	push   %r13
    14e6:	41 54                	push   %r12
    14e8:	55                   	push   %rbp
    14e9:	53                   	push   %rbx
    14ea:	48 83 ec 08          	sub    $0x8,%rsp
    14ee:	48 85 d2             	test   %rdx,%rdx
    14f1:	0f 8e ad 00 00 00    	jle    15a4 <mpn_submul_1+0xc4>
    14f7:	49 89 cb             	mov    %rcx,%r11
    14fa:	49 89 fa             	mov    %rdi,%r10
    14fd:	48 89 f3             	mov    %rsi,%rbx
    1500:	48 89 d5             	mov    %rdx,%rbp
    1503:	49 c1 eb 20          	shr    $0x20,%r11
    1507:	41 89 c9             	mov    %ecx,%r9d
    150a:	31 ff                	xor    %edi,%edi
    150c:	45 31 c0             	xor    %r8d,%r8d
    150f:	49 bc 00 00 00 00 01 	movabs $0x100000000,%r12
    1516:	00 00 00 
    1519:	0f 1f 80 00 00 00 00 	nopl   0x0(%rax)
    1520:	48 8b 34 fb          	mov    (%rbx,%rdi,8),%rsi
    1524:	48 89 f1             	mov    %rsi,%rcx
    1527:	89 f6                	mov    %esi,%esi
    1529:	48 c1 e9 20          	shr    $0x20,%rcx
    152d:	48 89 f2             	mov    %rsi,%rdx
    1530:	49 0f af d1          	imul   %r9,%rdx
    1534:	49 89 cd             	mov    %rcx,%r13
    1537:	4d 0f af e9          	imul   %r9,%r13
    153b:	49 0f af f3          	imul   %r11,%rsi
    153f:	49 0f af cb          	imul   %r11,%rcx
    1543:	48 89 d0             	mov    %rdx,%rax
    1546:	89 d2                	mov    %edx,%edx
    1548:	48 c1 e8 20          	shr    $0x20,%rax
    154c:	4c 01 ee             	add    %r13,%rsi
    154f:	48 01 f0             	add    %rsi,%rax
    1552:	48 89 ce             	mov    %rcx,%rsi
    1555:	4c 01 e1             	add    %r12,%rcx
    1558:	49 39 c5             	cmp    %rax,%r13
    155b:	48 0f 46 ce          	cmovbe %rsi,%rcx
    155f:	48 89 c6             	mov    %rax,%rsi
    1562:	4c 01 c2             	add    %r8,%rdx
    1565:	48 c1 e8 20          	shr    $0x20,%rax
    1569:	48 c1 e6 20          	shl    $0x20,%rsi
    156d:	48 01 f2             	add    %rsi,%rdx
    1570:	49 8b 34 fa          	mov    (%r10,%rdi,8),%rsi
    1574:	49 39 d0             	cmp    %rdx,%r8
    1577:	41 0f 97 c0          	seta   %r8b
    157b:	48 29 d6             	sub    %rdx,%rsi
    157e:	45 0f b6 c0          	movzbl %r8b,%r8d
    1582:	49 89 34 fa          	mov    %rsi,(%r10,%rdi,8)
    1586:	4c 11 c0             	adc    %r8,%rax
    1589:	48 83 c7 01          	add    $0x1,%rdi
    158d:	4c 8d 04 08          	lea    (%rax,%rcx,1),%r8
    1591:	48 39 fd             	cmp    %rdi,%rbp
    1594:	75 8a                	jne    1520 <mpn_submul_1+0x40>
    1596:	48 83 c4 08          	add    $0x8,%rsp
    159a:	4c 89 c0             	mov    %r8,%rax
    159d:	5b                   	pop    %rbx
    159e:	5d                   	pop    %rbp
    159f:	41 5c                	pop    %r12
    15a1:	41 5d                	pop    %r13
    15a3:	c3                   	ret    
    15a4:	48 8d 0d 00 00 00 00 	lea    0x0(%rip),%rcx        # 15ab <mpn_submul_1+0xcb>
    15ab:	ba 5b 02 00 00       	mov    $0x25b,%edx
    15b0:	48 8d 35 00 00 00 00 	lea    0x0(%rip),%rsi        # 15b7 <mpn_submul_1+0xd7>
    15b7:	48 8d 3d 00 00 00 00 	lea    0x0(%rip),%rdi        # 15be <mpn_submul_1+0xde>
    15be:	e8 00 00 00 00       	call   15c3 <mpn_submul_1+0xe3>
    15c3:	66 66 2e 0f 1f 84 00 	data16 cs nopw 0x0(%rax,%rax,1)
    15ca:	00 00 00 00 
    15ce:	66 90                	xchg   %ax,%ax

00000000000015d0 <mpn_mul>:
    15d0:	f3 0f 1e fa          	endbr64 
    15d4:	41 57                	push   %r15
    15d6:	41 56                	push   %r14
    15d8:	41 55                	push   %r13
    15da:	41 54                	push   %r12
    15dc:	55                   	push   %rbp
    15dd:	53                   	push   %rbx
    15de:	48 83 ec 18          	sub    $0x18,%rsp
    15e2:	4c 39 c2             	cmp    %r8,%rdx
    15e5:	0f 8c f8 00 00 00    	jl     16e3 <mpn_mul+0x113>
    15eb:	4d 89 c5             	mov    %r8,%r13
    15ee:	4d 85 c0             	test   %r8,%r8
    15f1:	0f 8e cd 00 00 00    	jle    16c4 <mpn_mul+0xf4>
    15f7:	4a 8d 04 02          	lea    (%rdx,%r8,1),%rax
    15fb:	48 89 fb             	mov    %rdi,%rbx
    15fe:	48 89 f5             	mov    %rsi,%rbp
    1601:	49 89 d7             	mov    %rdx,%r15
    1604:	48 8d 04 c7          	lea    (%rdi,%rax,8),%rax
    1608:	49 89 ce             	mov    %rcx,%r14
    160b:	48 39 f0             	cmp    %rsi,%rax
    160e:	0f 87 84 00 00 00    	ja     1698 <mpn_mul+0xc8>
    1614:	4c 39 f0             	cmp    %r14,%rax
    1617:	76 0d                	jbe    1626 <mpn_mul+0x56>
    1619:	4b 8d 04 ee          	lea    (%r14,%r13,8),%rax
    161d:	48 39 c3             	cmp    %rax,%rbx
    1620:	0f 82 dc 00 00 00    	jb     1702 <mpn_mul+0x132>
    1626:	49 8b 0e             	mov    (%r14),%rcx
    1629:	4c 89 fa             	mov    %r15,%rdx
    162c:	48 89 ee             	mov    %rbp,%rsi
    162f:	48 89 df             	mov    %rbx,%rdi
    1632:	4e 8d 24 fd 00 00 00 	lea    0x0(,%r15,8),%r12
    1639:	00 
    163a:	4e 8d 04 23          	lea    (%rbx,%r12,1),%r8
    163e:	4c 89 44 24 08       	mov    %r8,0x8(%rsp)
    1643:	e8 00 00 00 00       	call   1648 <mpn_mul+0x78>
    1648:	4c 8b 44 24 08       	mov    0x8(%rsp),%r8
    164d:	49 89 00             	mov    %rax,(%r8)
    1650:	49 83 ed 01          	sub    $0x1,%r13
    1654:	74 2e                	je     1684 <mpn_mul+0xb4>
    1656:	66 2e 0f 1f 84 00 00 	cs nopw 0x0(%rax,%rax,1)
    165d:	00 00 00 
    1660:	48 83 c3 08          	add    $0x8,%rbx
    1664:	49 8b 4e 08          	mov    0x8(%r14),%rcx
    1668:	4c 89 fa             	mov    %r15,%rdx
    166b:	48 89 ee             	mov    %rbp,%rsi
    166e:	48 89 df             	mov    %rbx,%rdi
    1671:	49 83 c6 08          	add    $0x8,%r14
    1675:	e8 00 00 00 00       	call   167a <mpn_mul+0xaa>
    167a:	4a 89 04 23          	mov    %rax,(%rbx,%r12,1)
    167e:	49 83 ed 01          	sub    $0x1,%r13
    1682:	75 dc                	jne    1660 <mpn_mul+0x90>
    1684:	48 83 c4 18          	add    $0x18,%rsp
    1688:	5b                   	pop    %rbx
    1689:	5d                   	pop    %rbp
    168a:	41 5c                	pop    %r12
    168c:	41 5d                	pop    %r13
    168e:	41 5e                	pop    %r14
    1690:	41 5f                	pop    %r15
    1692:	c3                   	ret    
    1693:	0f 1f 44 00 00       	nopl   0x0(%rax,%rax,1)
    1698:	48 8d 14 d6          	lea    (%rsi,%rdx,8),%rdx
    169c:	48 39 d7             	cmp    %rdx,%rdi
    169f:	0f 83 6f ff ff ff    	jae    1614 <mpn_mul+0x44>
    16a5:	48 8d 0d 00 00 00 00 	lea    0x0(%rip),%rcx        # 16ac <mpn_mul+0xdc>
    16ac:	ba 75 02 00 00       	mov    $0x275,%edx
    16b1:	48 8d 35 00 00 00 00 	lea    0x0(%rip),%rsi        # 16b8 <mpn_mul+0xe8>
    16b8:	48 8d 3d 00 00 00 00 	lea    0x0(%rip),%rdi        # 16bf <mpn_mul+0xef>
    16bf:	e8 00 00 00 00       	call   16c4 <mpn_mul+0xf4>
    16c4:	48 8d 0d 00 00 00 00 	lea    0x0(%rip),%rcx        # 16cb <mpn_mul+0xfb>
    16cb:	ba 74 02 00 00       	mov    $0x274,%edx
    16d0:	48 8d 35 00 00 00 00 	lea    0x0(%rip),%rsi        # 16d7 <mpn_mul+0x107>
    16d7:	48 8d 3d 00 00 00 00 	lea    0x0(%rip),%rdi        # 16de <mpn_mul+0x10e>
    16de:	e8 00 00 00 00       	call   16e3 <mpn_mul+0x113>
    16e3:	48 8d 0d 00 00 00 00 	lea    0x0(%rip),%rcx        # 16ea <mpn_mul+0x11a>
    16ea:	ba 73 02 00 00       	mov    $0x273,%edx
    16ef:	48 8d 35 00 00 00 00 	lea    0x0(%rip),%rsi        # 16f6 <mpn_mul+0x126>
    16f6:	48 8d 3d 00 00 00 00 	lea    0x0(%rip),%rdi        # 16fd <mpn_mul+0x12d>
    16fd:	e8 00 00 00 00       	call   1702 <mpn_mul+0x132>
    1702:	48 8d 0d 00 00 00 00 	lea    0x0(%rip),%rcx        # 1709 <mpn_mul+0x139>
    1709:	ba 76 02 00 00       	mov    $0x276,%edx
    170e:	48 8d 35 00 00 00 00 	lea    0x0(%rip),%rsi        # 1715 <mpn_mul+0x145>
    1715:	48 8d 3d 00 00 00 00 	lea    0x0(%rip),%rdi        # 171c <mpn_mul+0x14c>
    171c:	e8 00 00 00 00       	call   1721 <mpn_mul+0x151>
    1721:	66 66 2e 0f 1f 84 00 	data16 cs nopw 0x0(%rax,%rax,1)
    1728:	00 00 00 00 
    172c:	0f 1f 40 00          	nopl   0x0(%rax)

0000000000001730 <mpn_mul_n>:
    1730:	f3 0f 1e fa          	endbr64 
    1734:	49 89 d1             	mov    %rdx,%r9
    1737:	49 89 c8             	mov    %rcx,%r8
    173a:	48 89 ca             	mov    %rcx,%rdx
    173d:	4c 89 c9             	mov    %r9,%rcx
    1740:	e9 8b fe ff ff       	jmp    15d0 <mpn_mul>
    1745:	66 66 2e 0f 1f 84 00 	data16 cs nopw 0x0(%rax,%rax,1)
    174c:	00 00 00 00 

0000000000001750 <mpn_sqr>:
    1750:	f3 0f 1e fa          	endbr64 
    1754:	49 89 d0             	mov    %rdx,%r8
    1757:	48 89 f1             	mov    %rsi,%rcx
    175a:	e9 71 fe ff ff       	jmp    15d0 <mpn_mul>
    175f:	90                   	nop

0000000000001760 <mpn_lshift>:
    1760:	f3 0f 1e fa          	endbr64 
    1764:	41 54                	push   %r12
    1766:	48 85 d2             	test   %rdx,%rdx
    1769:	7e 7f                	jle    17ea <mpn_lshift+0x8a>
    176b:	41 89 c8             	mov    %ecx,%r8d
    176e:	85 c9                	test   %ecx,%ecx
    1770:	0f 84 b2 00 00 00    	je     1828 <mpn_lshift+0xc8>
    1776:	83 f9 3f             	cmp    $0x3f,%ecx
    1779:	0f 87 8a 00 00 00    	ja     1809 <mpn_lshift+0xa9>
    177f:	49 89 f3             	mov    %rsi,%r11
    1782:	49 89 f9             	mov    %rdi,%r9
    1785:	48 8d 04 d5 00 00 00 	lea    0x0(,%rdx,8),%rax
    178c:	00 
    178d:	41 ba 40 00 00 00    	mov    $0x40,%r10d
    1793:	48 8d 34 07          	lea    (%rdi,%rax,1),%rsi
    1797:	49 8b 7c 03 f8       	mov    -0x8(%r11,%rax,1),%rdi
    179c:	41 29 ca             	sub    %ecx,%r10d
    179f:	44 89 d1             	mov    %r10d,%ecx
    17a2:	49 89 fc             	mov    %rdi,%r12
    17a5:	49 d3 ec             	shr    %cl,%r12
    17a8:	44 89 c1             	mov    %r8d,%ecx
    17ab:	48 d3 e7             	shl    %cl,%rdi
    17ae:	48 83 ea 01          	sub    $0x1,%rdx
    17b2:	74 2c                	je     17e0 <mpn_lshift+0x80>
    17b4:	0f 1f 40 00          	nopl   0x0(%rax)
    17b8:	49 8b 74 d3 f8       	mov    -0x8(%r11,%rdx,8),%rsi
    17bd:	44 89 d1             	mov    %r10d,%ecx
    17c0:	48 89 f0             	mov    %rsi,%rax
    17c3:	48 d3 e8             	shr    %cl,%rax
    17c6:	44 89 c1             	mov    %r8d,%ecx
    17c9:	48 09 f8             	or     %rdi,%rax
    17cc:	48 89 f7             	mov    %rsi,%rdi
    17cf:	49 89 04 d1          	mov    %rax,(%r9,%rdx,8)
    17d3:	48 d3 e7             	shl    %cl,%rdi
    17d6:	48 83 ea 01          	sub    $0x1,%rdx
    17da:	75 dc                	jne    17b8 <mpn_lshift+0x58>
    17dc:	49 8d 71 08          	lea    0x8(%r9),%rsi
    17e0:	4c 89 e0             	mov    %r12,%rax
    17e3:	48 89 7e f8          	mov    %rdi,-0x8(%rsi)
    17e7:	41 5c                	pop    %r12
    17e9:	c3                   	ret    
    17ea:	48 8d 0d 00 00 00 00 	lea    0x0(%rip),%rcx        # 17f1 <mpn_lshift+0x91>
    17f1:	ba 9c 02 00 00       	mov    $0x29c,%edx
    17f6:	48 8d 35 00 00 00 00 	lea    0x0(%rip),%rsi        # 17fd <mpn_lshift+0x9d>
    17fd:	48 8d 3d 00 00 00 00 	lea    0x0(%rip),%rdi        # 1804 <mpn_lshift+0xa4>
    1804:	e8 00 00 00 00       	call   1809 <mpn_lshift+0xa9>
    1809:	48 8d 0d 00 00 00 00 	lea    0x0(%rip),%rcx        # 1810 <mpn_lshift+0xb0>
    1810:	ba 9e 02 00 00       	mov    $0x29e,%edx
    1815:	48 8d 35 00 00 00 00 	lea    0x0(%rip),%rsi        # 181c <mpn_lshift+0xbc>
    181c:	48 8d 3d 00 00 00 00 	lea    0x0(%rip),%rdi        # 1823 <mpn_lshift+0xc3>
    1823:	e8 00 00 00 00       	call   1828 <mpn_lshift+0xc8>
    1828:	48 8d 0d 00 00 00 00 	lea    0x0(%rip),%rcx        # 182f <mpn_lshift+0xcf>
    182f:	ba 9d 02 00 00       	mov    $0x29d,%edx
    1834:	48 8d 35 00 00 00 00 	lea    0x0(%rip),%rsi        # 183b <mpn_lshift+0xdb>
    183b:	48 8d 3d 00 00 00 00 	lea    0x0(%rip),%rdi        # 1842 <mpn_lshift+0xe2>
    1842:	e8 00 00 00 00       	call   1847 <mpn_lshift+0xe7>
    1847:	66 0f 1f 84 00 00 00 	nopw   0x0(%rax,%rax,1)
    184e:	00 00 

0000000000001850 <mpn_div_qr_1_preinv>:
    1850:	41 57                	push   %r15
    1852:	41 56                	push   %r14
    1854:	49 89 d6             	mov    %rdx,%r14
    1857:	41 55                	push   %r13
    1859:	49 89 cd             	mov    %rcx,%r13
    185c:	41 54                	push   %r12
    185e:	49 89 f4             	mov    %rsi,%r12
    1861:	55                   	push   %rbp
    1862:	48 89 fd             	mov    %rdi,%rbp
    1865:	53                   	push   %rbx
    1866:	48 83 ec 18          	sub    $0x18,%rsp
    186a:	8b 09                	mov    (%rcx),%ecx
    186c:	85 c9                	test   %ecx,%ecx
    186e:	0f 84 24 01 00 00    	je     1998 <mpn_div_qr_1_preinv+0x148>
    1874:	48 85 ff             	test   %rdi,%rdi
    1877:	0f 84 53 01 00 00    	je     19d0 <mpn_div_qr_1_preinv+0x180>
    187d:	e8 00 00 00 00       	call   1882 <mpn_div_qr_1_preinv+0x32>
    1882:	49 8d 7e ff          	lea    -0x1(%r14),%rdi
    1886:	4d 8b 45 08          	mov    0x8(%r13),%r8
    188a:	49 89 ec             	mov    %rbp,%r12
    188d:	4d 8b 4d 18          	mov    0x18(%r13),%r9
    1891:	48 89 c3             	mov    %rax,%rbx
    1894:	45 31 f6             	xor    %r14d,%r14d
    1897:	48 85 ff             	test   %rdi,%rdi
    189a:	0f 88 20 01 00 00    	js     19c0 <mpn_div_qr_1_preinv+0x170>
    18a0:	4c 89 64 24 08       	mov    %r12,0x8(%rsp)
    18a5:	49 bf 00 00 00 00 01 	movabs $0x100000000,%r15
    18ac:	00 00 00 
    18af:	4d 89 ca             	mov    %r9,%r10
    18b2:	45 89 c9             	mov    %r9d,%r9d
    18b5:	49 c1 ea 20          	shr    $0x20,%r10
    18b9:	0f 1f 80 00 00 00 00 	nopl   0x0(%rax)
    18c0:	48 89 d8             	mov    %rbx,%rax
    18c3:	89 da                	mov    %ebx,%edx
    18c5:	48 c1 e8 20          	shr    $0x20,%rax
    18c9:	49 89 d3             	mov    %rdx,%r11
    18cc:	48 89 c1             	mov    %rax,%rcx
    18cf:	4d 0f af d9          	imul   %r9,%r11
    18d3:	49 0f af c9          	imul   %r9,%rcx
    18d7:	49 0f af d2          	imul   %r10,%rdx
    18db:	49 0f af c2          	imul   %r10,%rax
    18df:	48 8d 34 0a          	lea    (%rdx,%rcx,1),%rsi
    18e3:	4c 89 da             	mov    %r11,%rdx
    18e6:	45 89 db             	mov    %r11d,%r11d
    18e9:	48 c1 ea 20          	shr    $0x20,%rdx
    18ed:	48 01 f2             	add    %rsi,%rdx
    18f0:	48 89 c6             	mov    %rax,%rsi
    18f3:	4c 01 f8             	add    %r15,%rax
    18f6:	48 39 d1             	cmp    %rdx,%rcx
    18f9:	49 8b 0c fc          	mov    (%r12,%rdi,8),%rcx
    18fd:	48 0f 46 c6          	cmovbe %rsi,%rax
    1901:	48 89 d6             	mov    %rdx,%rsi
    1904:	48 c1 e6 20          	shl    $0x20,%rsi
    1908:	4c 01 de             	add    %r11,%rsi
    190b:	45 31 db             	xor    %r11d,%r11d
    190e:	48 01 ce             	add    %rcx,%rsi
    1911:	41 0f 92 c3          	setb   %r11b
    1915:	48 c1 ea 20          	shr    $0x20,%rdx
    1919:	48 8d 54 13 01       	lea    0x1(%rbx,%rdx,1),%rdx
    191e:	31 db                	xor    %ebx,%ebx
    1920:	4c 01 da             	add    %r11,%rdx
    1923:	48 01 d0             	add    %rdx,%rax
    1926:	48 89 c2             	mov    %rax,%rdx
    1929:	49 0f af d0          	imul   %r8,%rdx
    192d:	48 29 d1             	sub    %rdx,%rcx
    1930:	48 39 ce             	cmp    %rcx,%rsi
    1933:	0f 92 c3             	setb   %bl
    1936:	48 29 d8             	sub    %rbx,%rax
    1939:	48 f7 db             	neg    %rbx
    193c:	4c 21 c3             	and    %r8,%rbx
    193f:	48 01 cb             	add    %rcx,%rbx
    1942:	4c 39 c3             	cmp    %r8,%rbx
    1945:	72 07                	jb     194e <mpn_div_qr_1_preinv+0xfe>
    1947:	4c 29 c3             	sub    %r8,%rbx
    194a:	48 83 c0 01          	add    $0x1,%rax
    194e:	48 85 ed             	test   %rbp,%rbp
    1951:	74 05                	je     1958 <mpn_div_qr_1_preinv+0x108>
    1953:	48 89 44 fd 00       	mov    %rax,0x0(%rbp,%rdi,8)
    1958:	48 83 ef 01          	sub    $0x1,%rdi
    195c:	0f 83 5e ff ff ff    	jae    18c0 <mpn_div_qr_1_preinv+0x70>
    1962:	4d 85 f6             	test   %r14,%r14
    1965:	74 59                	je     19c0 <mpn_div_qr_1_preinv+0x170>
    1967:	48 8b 7c 24 08       	mov    0x8(%rsp),%rdi
    196c:	4a 8d 34 f5 00 00 00 	lea    0x0(,%r14,8),%rsi
    1973:	00 
    1974:	ff 15 00 00 00 00    	call   *0x0(%rip)        # 197a <mpn_div_qr_1_preinv+0x12a>
    197a:	41 8b 4d 00          	mov    0x0(%r13),%ecx
    197e:	48 83 c4 18          	add    $0x18,%rsp
    1982:	48 89 d8             	mov    %rbx,%rax
    1985:	48 d3 e8             	shr    %cl,%rax
    1988:	5b                   	pop    %rbx
    1989:	5d                   	pop    %rbp
    198a:	41 5c                	pop    %r12
    198c:	41 5d                	pop    %r13
    198e:	41 5e                	pop    %r14
    1990:	41 5f                	pop    %r15
    1992:	c3                   	ret    
    1993:	0f 1f 44 00 00       	nopl   0x0(%rax,%rax,1)
    1998:	48 8d 7a ff          	lea    -0x1(%rdx),%rdi
    199c:	4d 8b 45 08          	mov    0x8(%r13),%r8
    19a0:	4d 8b 4d 18          	mov    0x18(%r13),%r9
    19a4:	45 31 f6             	xor    %r14d,%r14d
    19a7:	48 c7 44 24 08 00 00 	movq   $0x0,0x8(%rsp)
    19ae:	00 00 
    19b0:	31 db                	xor    %ebx,%ebx
    19b2:	48 85 ff             	test   %rdi,%rdi
    19b5:	0f 89 ea fe ff ff    	jns    18a5 <mpn_div_qr_1_preinv+0x55>
    19bb:	eb c1                	jmp    197e <mpn_div_qr_1_preinv+0x12e>
    19bd:	0f 1f 00             	nopl   (%rax)
    19c0:	41 8b 4d 00          	mov    0x0(%r13),%ecx
    19c4:	eb b8                	jmp    197e <mpn_div_qr_1_preinv+0x12e>
    19c6:	66 2e 0f 1f 84 00 00 	cs nopw 0x0(%rax,%rax,1)
    19cd:	00 00 00 
    19d0:	48 8d 3c d5 00 00 00 	lea    0x0(,%rdx,8),%rdi
    19d7:	00 
    19d8:	ff 15 00 00 00 00    	call   *0x0(%rip)        # 19de <mpn_div_qr_1_preinv+0x18e>
    19de:	41 8b 4d 00          	mov    0x0(%r13),%ecx
    19e2:	4c 89 e6             	mov    %r12,%rsi
    19e5:	4c 89 f2             	mov    %r14,%rdx
    19e8:	48 89 c7             	mov    %rax,%rdi
    19eb:	48 89 44 24 08       	mov    %rax,0x8(%rsp)
    19f0:	49 89 c4             	mov    %rax,%r12
    19f3:	e8 00 00 00 00       	call   19f8 <mpn_div_qr_1_preinv+0x1a8>
    19f8:	4c 89 f7             	mov    %r14,%rdi
    19fb:	4d 8b 45 08          	mov    0x8(%r13),%r8
    19ff:	4d 8b 4d 18          	mov    0x18(%r13),%r9
    1a03:	48 89 c3             	mov    %rax,%rbx
    1a06:	48 83 ef 01          	sub    $0x1,%rdi
    1a0a:	0f 89 90 fe ff ff    	jns    18a0 <mpn_div_qr_1_preinv+0x50>
    1a10:	e9 4d ff ff ff       	jmp    1962 <mpn_div_qr_1_preinv+0x112>
    1a15:	66 66 2e 0f 1f 84 00 	data16 cs nopw 0x0(%rax,%rax,1)
    1a1c:	00 00 00 00 

0000000000001a20 <mpn_rshift>:
    1a20:	f3 0f 1e fa          	endbr64 
    1a24:	41 54                	push   %r12
    1a26:	53                   	push   %rbx
    1a27:	48 83 ec 08          	sub    $0x8,%rsp
    1a2b:	48 85 d2             	test   %rdx,%rdx
    1a2e:	7e 78                	jle    1aa8 <mpn_rshift+0x88>
    1a30:	41 89 c9             	mov    %ecx,%r9d
    1a33:	85 c9                	test   %ecx,%ecx
    1a35:	0f 84 ab 00 00 00    	je     1ae6 <mpn_rshift+0xc6>
    1a3b:	83 f9 3f             	cmp    $0x3f,%ecx
    1a3e:	0f 87 83 00 00 00    	ja     1ac7 <mpn_rshift+0xa7>
    1a44:	4c 8b 06             	mov    (%rsi),%r8
    1a47:	bb 40 00 00 00       	mov    $0x40,%ebx
    1a4c:	49 89 fa             	mov    %rdi,%r10
    1a4f:	49 89 f3             	mov    %rsi,%r11
    1a52:	29 cb                	sub    %ecx,%ebx
    1a54:	4d 89 c4             	mov    %r8,%r12
    1a57:	89 d9                	mov    %ebx,%ecx
    1a59:	49 d3 e4             	shl    %cl,%r12
    1a5c:	44 89 c9             	mov    %r9d,%ecx
    1a5f:	49 d3 e8             	shr    %cl,%r8
    1a62:	48 83 fa 01          	cmp    $0x1,%rdx
    1a66:	74 32                	je     1a9a <mpn_rshift+0x7a>
    1a68:	48 83 ea 01          	sub    $0x1,%rdx
    1a6c:	31 c0                	xor    %eax,%eax
    1a6e:	66 90                	xchg   %ax,%ax
    1a70:	49 8b 7c c3 08       	mov    0x8(%r11,%rax,8),%rdi
    1a75:	89 d9                	mov    %ebx,%ecx
    1a77:	48 89 fe             	mov    %rdi,%rsi
    1a7a:	48 d3 e6             	shl    %cl,%rsi
    1a7d:	44 89 c9             	mov    %r9d,%ecx
    1a80:	4c 09 c6             	or     %r8,%rsi
    1a83:	48 d3 ef             	shr    %cl,%rdi
    1a86:	49 89 34 c2          	mov    %rsi,(%r10,%rax,8)
    1a8a:	48 83 c0 01          	add    $0x1,%rax
    1a8e:	49 89 f8             	mov    %rdi,%r8
    1a91:	48 39 c2             	cmp    %rax,%rdx
    1a94:	75 da                	jne    1a70 <mpn_rshift+0x50>
    1a96:	4d 8d 14 d2          	lea    (%r10,%rdx,8),%r10
    1a9a:	4d 89 02             	mov    %r8,(%r10)
    1a9d:	48 83 c4 08          	add    $0x8,%rsp
    1aa1:	4c 89 e0             	mov    %r12,%rax
    1aa4:	5b                   	pop    %rbx
    1aa5:	41 5c                	pop    %r12
    1aa7:	c3                   	ret    
    1aa8:	48 8d 0d 00 00 00 00 	lea    0x0(%rip),%rcx        # 1aaf <mpn_rshift+0x8f>
    1aaf:	ba ba 02 00 00       	mov    $0x2ba,%edx
    1ab4:	48 8d 35 00 00 00 00 	lea    0x0(%rip),%rsi        # 1abb <mpn_rshift+0x9b>
    1abb:	48 8d 3d 00 00 00 00 	lea    0x0(%rip),%rdi        # 1ac2 <mpn_rshift+0xa2>
    1ac2:	e8 00 00 00 00       	call   1ac7 <mpn_rshift+0xa7>
    1ac7:	48 8d 0d 00 00 00 00 	lea    0x0(%rip),%rcx        # 1ace <mpn_rshift+0xae>
    1ace:	ba bc 02 00 00       	mov    $0x2bc,%edx
    1ad3:	48 8d 35 00 00 00 00 	lea    0x0(%rip),%rsi        # 1ada <mpn_rshift+0xba>
    1ada:	48 8d 3d 00 00 00 00 	lea    0x0(%rip),%rdi        # 1ae1 <mpn_rshift+0xc1>
    1ae1:	e8 00 00 00 00       	call   1ae6 <mpn_rshift+0xc6>
    1ae6:	48 8d 0d 00 00 00 00 	lea    0x0(%rip),%rcx        # 1aed <mpn_rshift+0xcd>
    1aed:	ba bb 02 00 00       	mov    $0x2bb,%edx
    1af2:	48 8d 35 00 00 00 00 	lea    0x0(%rip),%rsi        # 1af9 <mpn_rshift+0xd9>
    1af9:	48 8d 3d 00 00 00 00 	lea    0x0(%rip),%rdi        # 1b00 <mpn_rshift+0xe0>
    1b00:	e8 00 00 00 00       	call   1b05 <mpn_rshift+0xe5>
    1b05:	66 66 2e 0f 1f 84 00 	data16 cs nopw 0x0(%rax,%rax,1)
    1b0c:	00 00 00 00 

0000000000001b10 <mpn_div_qr_preinv>:
    1b10:	41 57                	push   %r15
    1b12:	41 56                	push   %r14
    1b14:	41 55                	push   %r13
    1b16:	41 54                	push   %r12
    1b18:	55                   	push   %rbp
    1b19:	53                   	push   %rbx
    1b1a:	48 83 ec 78          	sub    $0x78,%rsp
    1b1e:	48 89 7c 24 18       	mov    %rdi,0x18(%rsp)
    1b23:	48 89 74 24 48       	mov    %rsi,0x48(%rsp)
    1b28:	4c 89 04 24          	mov    %r8,(%rsp)
    1b2c:	4d 85 c0             	test   %r8,%r8
    1b2f:	0f 84 84 06 00 00    	je     21b9 <mpn_div_qr_preinv+0x6a9>
    1b35:	49 89 d5             	mov    %rdx,%r13
    1b38:	48 39 14 24          	cmp    %rdx,(%rsp)
    1b3c:	0f 8f 58 06 00 00    	jg     219a <mpn_div_qr_preinv+0x68a>
    1b42:	48 83 3c 24 01       	cmpq   $0x1,(%rsp)
    1b47:	4c 89 cb             	mov    %r9,%rbx
    1b4a:	0f 84 d0 03 00 00    	je     1f20 <mpn_div_qr_preinv+0x410>
    1b50:	48 83 3c 24 02       	cmpq   $0x2,(%rsp)
    1b55:	0f 84 f5 03 00 00    	je     1f50 <mpn_div_qr_preinv+0x440>
    1b5b:	48 8b 34 24          	mov    (%rsp),%rsi
    1b5f:	49 8b 41 08          	mov    0x8(%r9),%rax
    1b63:	49 89 cc             	mov    %rcx,%r12
    1b66:	48 c1 e6 03          	shl    $0x3,%rsi
    1b6a:	4c 8d 4c 31 f8       	lea    -0x8(%rcx,%rsi,1),%r9
    1b6f:	48 89 74 24 20       	mov    %rsi,0x20(%rsp)
    1b74:	4d 8b 31             	mov    (%r9),%r14
    1b77:	4c 39 f0             	cmp    %r14,%rax
    1b7a:	0f 85 b5 06 00 00    	jne    2235 <mpn_div_qr_preinv+0x725>
    1b80:	48 8b 74 24 20       	mov    0x20(%rsp),%rsi
    1b85:	48 8d 6c 31 f0       	lea    -0x10(%rcx,%rsi,1),%rbp
    1b8a:	4c 8b 7d 00          	mov    0x0(%rbp),%r15
    1b8e:	4c 39 7b 10          	cmp    %r15,0x10(%rbx)
    1b92:	0f 85 7e 06 00 00    	jne    2216 <mpn_div_qr_preinv+0x706>
    1b98:	48 85 c0             	test   %rax,%rax
    1b9b:	0f 89 56 06 00 00    	jns    21f7 <mpn_div_qr_preinv+0x6e7>
    1ba1:	8b 03                	mov    (%rbx),%eax
    1ba3:	45 31 c0             	xor    %r8d,%r8d
    1ba6:	89 44 24 6c          	mov    %eax,0x6c(%rsp)
    1baa:	85 c0                	test   %eax,%eax
    1bac:	0f 85 3e 03 00 00    	jne    1ef0 <mpn_div_qr_preinv+0x3e0>
    1bb2:	48 8b 43 18          	mov    0x18(%rbx),%rax
    1bb6:	48 89 44 24 40       	mov    %rax,0x40(%rsp)
    1bbb:	4d 85 f6             	test   %r14,%r14
    1bbe:	0f 89 14 06 00 00    	jns    21d8 <mpn_div_qr_preinv+0x6c8>
    1bc4:	48 8b 34 24          	mov    (%rsp),%rsi
    1bc8:	4c 89 e8             	mov    %r13,%rax
    1bcb:	48 29 f0             	sub    %rsi,%rax
    1bce:	48 89 44 24 08       	mov    %rax,0x8(%rsp)
    1bd3:	48 8b 44 24 40       	mov    0x40(%rsp),%rax
    1bd8:	48 c1 e8 20          	shr    $0x20,%rax
    1bdc:	48 89 44 24 50       	mov    %rax,0x50(%rsp)
    1be1:	4c 89 f8             	mov    %r15,%rax
    1be4:	48 c1 e8 20          	shr    $0x20,%rax
    1be8:	48 89 44 24 58       	mov    %rax,0x58(%rsp)
    1bed:	48 8d 46 ff          	lea    -0x1(%rsi),%rax
    1bf1:	4c 89 e6             	mov    %r12,%rsi
    1bf4:	48 89 44 24 60       	mov    %rax,0x60(%rsp)
    1bf9:	48 8b 44 24 48       	mov    0x48(%rsp),%rax
    1bfe:	4e 8d 2c e8          	lea    (%rax,%r13,8),%r13
    1c02:	eb 51                	jmp    1c55 <mpn_div_qr_preinv+0x145>
    1c04:	0f 1f 40 00          	nopl   0x0(%rax)
    1c08:	4c 39 fa             	cmp    %r15,%rdx
    1c0b:	75 61                	jne    1c6e <mpn_div_qr_preinv+0x15e>
    1c0d:	48 8b 14 24          	mov    (%rsp),%rdx
    1c11:	48 c7 c1 ff ff ff ff 	mov    $0xffffffffffffffff,%rcx
    1c18:	48 89 74 24 10       	mov    %rsi,0x10(%rsp)
    1c1d:	48 c7 c3 ff ff ff ff 	mov    $0xffffffffffffffff,%rbx
    1c24:	e8 00 00 00 00       	call   1c29 <mpn_div_qr_preinv+0x119>
    1c29:	4d 8b 45 f8          	mov    -0x8(%r13),%r8
    1c2d:	48 8b 74 24 10       	mov    0x10(%rsp),%rsi
    1c32:	48 8b 44 24 18       	mov    0x18(%rsp),%rax
    1c37:	48 85 c0             	test   %rax,%rax
    1c3a:	74 09                	je     1c45 <mpn_div_qr_preinv+0x135>
    1c3c:	48 8b 54 24 08       	mov    0x8(%rsp),%rdx
    1c41:	48 89 1c d0          	mov    %rbx,(%rax,%rdx,8)
    1c45:	49 83 ed 08          	sub    $0x8,%r13
    1c49:	48 83 6c 24 08 01    	subq   $0x1,0x8(%rsp)
    1c4f:	0f 88 2b 02 00 00    	js     1e80 <mpn_div_qr_preinv+0x370>
    1c55:	4d 89 ec             	mov    %r13,%r12
    1c58:	4c 2b 64 24 20       	sub    0x20(%rsp),%r12
    1c5d:	49 8b 55 f8          	mov    -0x8(%r13),%rdx
    1c61:	4c 89 64 24 10       	mov    %r12,0x10(%rsp)
    1c66:	4c 89 e7             	mov    %r12,%rdi
    1c69:	4d 39 f0             	cmp    %r14,%r8
    1c6c:	74 9a                	je     1c08 <mpn_div_qr_preinv+0xf8>
    1c6e:	45 89 c1             	mov    %r8d,%r9d
    1c71:	8b 7c 24 40          	mov    0x40(%rsp),%edi
    1c75:	48 8b 5c 24 50       	mov    0x50(%rsp),%rbx
    1c7a:	4c 89 c0             	mov    %r8,%rax
    1c7d:	4d 89 ca             	mov    %r9,%r10
    1c80:	48 c1 e8 20          	shr    $0x20,%rax
    1c84:	45 89 fb             	mov    %r15d,%r11d
    1c87:	4c 0f af d7          	imul   %rdi,%r10
    1c8b:	4c 0f af cb          	imul   %rbx,%r9
    1c8f:	48 0f af f8          	imul   %rax,%rdi
    1c93:	4c 89 d1             	mov    %r10,%rcx
    1c96:	48 0f af c3          	imul   %rbx,%rax
    1c9a:	45 89 d2             	mov    %r10d,%r10d
    1c9d:	48 bb 00 00 00 00 01 	movabs $0x100000000,%rbx
    1ca4:	00 00 00 
    1ca7:	48 c1 e9 20          	shr    $0x20,%rcx
    1cab:	49 89 dc             	mov    %rbx,%r12
    1cae:	49 01 f9             	add    %rdi,%r9
    1cb1:	4c 01 c9             	add    %r9,%rcx
    1cb4:	49 89 c1             	mov    %rax,%r9
    1cb7:	48 01 d8             	add    %rbx,%rax
    1cba:	48 39 cf             	cmp    %rcx,%rdi
    1cbd:	48 89 cb             	mov    %rcx,%rbx
    1cc0:	49 8b 7d f0          	mov    -0x10(%r13),%rdi
    1cc4:	49 0f 46 c1          	cmovbe %r9,%rax
    1cc8:	48 c1 e1 20          	shl    $0x20,%rcx
    1ccc:	4c 01 d1             	add    %r10,%rcx
    1ccf:	48 c1 eb 20          	shr    $0x20,%rbx
    1cd3:	48 89 fd             	mov    %rdi,%rbp
    1cd6:	48 01 d1             	add    %rdx,%rcx
    1cd9:	4d 89 da             	mov    %r11,%r10
    1cdc:	4c 11 c3             	adc    %r8,%rbx
    1cdf:	4c 29 fd             	sub    %r15,%rbp
    1ce2:	4c 29 f2             	sub    %r14,%rdx
    1ce5:	48 01 c3             	add    %rax,%rbx
    1ce8:	4c 39 ff             	cmp    %r15,%rdi
    1ceb:	48 8b 04 24          	mov    (%rsp),%rax
    1cef:	48 89 df             	mov    %rbx,%rdi
    1cf2:	48 83 da 00          	sbb    $0x0,%rdx
    1cf6:	41 89 d9             	mov    %ebx,%r9d
    1cf9:	49 0f af fe          	imul   %r14,%rdi
    1cfd:	4c 8d 40 fe          	lea    -0x2(%rax),%r8
    1d01:	48 89 d8             	mov    %rbx,%rax
    1d04:	48 c1 e8 20          	shr    $0x20,%rax
    1d08:	4d 0f af d1          	imul   %r9,%r10
    1d0c:	48 29 fa             	sub    %rdi,%rdx
    1d0f:	48 8b 7c 24 58       	mov    0x58(%rsp),%rdi
    1d14:	4c 0f af cf          	imul   %rdi,%r9
    1d18:	48 0f af f8          	imul   %rax,%rdi
    1d1c:	49 0f af c3          	imul   %r11,%rax
    1d20:	4e 8d 1c 08          	lea    (%rax,%r9,1),%r11
    1d24:	4c 89 d0             	mov    %r10,%rax
    1d27:	45 89 d2             	mov    %r10d,%r10d
    1d2a:	48 c1 e8 20          	shr    $0x20,%rax
    1d2e:	4c 01 d8             	add    %r11,%rax
    1d31:	49 89 fb             	mov    %rdi,%r11
    1d34:	4c 01 e7             	add    %r12,%rdi
    1d37:	49 39 c1             	cmp    %rax,%r9
    1d3a:	49 89 c1             	mov    %rax,%r9
    1d3d:	49 0f 46 fb          	cmovbe %r11,%rdi
    1d41:	49 c1 e1 20          	shl    $0x20,%r9
    1d45:	4d 01 ca             	add    %r9,%r10
    1d48:	48 c1 e8 20          	shr    $0x20,%rax
    1d4c:	49 89 c1             	mov    %rax,%r9
    1d4f:	4c 39 d5             	cmp    %r10,%rbp
    1d52:	48 89 d0             	mov    %rdx,%rax
    1d55:	4c 19 c8             	sbb    %r9,%rax
    1d58:	48 29 f8             	sub    %rdi,%rax
    1d5b:	48 39 c1             	cmp    %rax,%rcx
    1d5e:	0f 96 c1             	setbe  %cl
    1d61:	48 83 c3 01          	add    $0x1,%rbx
    1d65:	4c 29 d5             	sub    %r10,%rbp
    1d68:	45 31 d2             	xor    %r10d,%r10d
    1d6b:	0f b6 c9             	movzbl %cl,%ecx
    1d6e:	48 89 ca             	mov    %rcx,%rdx
    1d71:	48 29 cb             	sub    %rcx,%rbx
    1d74:	48 f7 da             	neg    %rdx
    1d77:	48 89 d1             	mov    %rdx,%rcx
    1d7a:	4c 21 f9             	and    %r15,%rcx
    1d7d:	48 01 cd             	add    %rcx,%rbp
    1d80:	41 0f 92 c2          	setb   %r10b
    1d84:	4c 21 f2             	and    %r14,%rdx
    1d87:	49 89 e9             	mov    %rbp,%r9
    1d8a:	48 01 c2             	add    %rax,%rdx
    1d8d:	49 01 d2             	add    %rdx,%r10
    1d90:	4d 39 f2             	cmp    %r14,%r10
    1d93:	72 57                	jb     1dec <mpn_div_qr_preinv+0x2dc>
    1d95:	77 41                	ja     1dd8 <mpn_div_qr_preinv+0x2c8>
    1d97:	4c 39 fd             	cmp    %r15,%rbp
    1d9a:	73 3c                	jae    1dd8 <mpn_div_qr_preinv+0x2c8>
    1d9c:	48 8b 7c 24 10       	mov    0x10(%rsp),%rdi
    1da1:	4c 89 c2             	mov    %r8,%rdx
    1da4:	48 89 d9             	mov    %rbx,%rcx
    1da7:	48 89 74 24 28       	mov    %rsi,0x28(%rsp)
    1dac:	4c 89 54 24 30       	mov    %r10,0x30(%rsp)
    1db1:	e8 00 00 00 00       	call   1db6 <mpn_div_qr_preinv+0x2a6>
    1db6:	4c 8b 44 24 30       	mov    0x30(%rsp),%r8
    1dbb:	48 8b 74 24 28       	mov    0x28(%rsp),%rsi
    1dc0:	48 39 c5             	cmp    %rax,%rbp
    1dc3:	49 83 d8 00          	sbb    $0x0,%r8
    1dc7:	48 29 c5             	sub    %rax,%rbp
    1dca:	49 89 6d f0          	mov    %rbp,-0x10(%r13)
    1dce:	e9 5f fe ff ff       	jmp    1c32 <mpn_div_qr_preinv+0x122>
    1dd3:	0f 1f 44 00 00       	nopl   0x0(%rax,%rax,1)
    1dd8:	48 83 c3 01          	add    $0x1,%rbx
    1ddc:	4c 39 fd             	cmp    %r15,%rbp
    1ddf:	49 89 e9             	mov    %rbp,%r9
    1de2:	49 83 da 00          	sbb    $0x0,%r10
    1de6:	4d 29 f9             	sub    %r15,%r9
    1de9:	4d 29 f2             	sub    %r14,%r10
    1dec:	4c 8b 64 24 10       	mov    0x10(%rsp),%r12
    1df1:	4c 89 c2             	mov    %r8,%rdx
    1df4:	48 89 d9             	mov    %rbx,%rcx
    1df7:	4c 89 54 24 38       	mov    %r10,0x38(%rsp)
    1dfc:	4c 89 4c 24 30       	mov    %r9,0x30(%rsp)
    1e01:	4c 89 e7             	mov    %r12,%rdi
    1e04:	48 89 74 24 28       	mov    %rsi,0x28(%rsp)
    1e09:	e8 00 00 00 00       	call   1e0e <mpn_div_qr_preinv+0x2fe>
    1e0e:	4c 8b 4c 24 30       	mov    0x30(%rsp),%r9
    1e13:	4c 8b 54 24 38       	mov    0x38(%rsp),%r10
    1e18:	31 d2                	xor    %edx,%edx
    1e1a:	48 8b 74 24 28       	mov    0x28(%rsp),%rsi
    1e1f:	4c 39 c8             	cmp    %r9,%rax
    1e22:	4d 89 d0             	mov    %r10,%r8
    1e25:	0f 97 c2             	seta   %dl
    1e28:	49 29 c1             	sub    %rax,%r9
    1e2b:	49 29 d0             	sub    %rdx,%r8
    1e2e:	4c 39 d2             	cmp    %r10,%rdx
    1e31:	4d 89 4d f0          	mov    %r9,-0x10(%r13)
    1e35:	0f 86 f7 fd ff ff    	jbe    1c32 <mpn_div_qr_preinv+0x122>
    1e3b:	4c 8b 4c 24 60       	mov    0x60(%rsp),%r9
    1e40:	31 d2                	xor    %edx,%edx
    1e42:	31 c0                	xor    %eax,%eax
    1e44:	0f 1f 40 00          	nopl   0x0(%rax)
    1e48:	31 ff                	xor    %edi,%edi
    1e4a:	49 03 14 c4          	add    (%r12,%rax,8),%rdx
    1e4e:	40 0f 92 c7          	setb   %dil
    1e52:	48 89 d1             	mov    %rdx,%rcx
    1e55:	48 03 0c c6          	add    (%rsi,%rax,8),%rcx
    1e59:	48 83 d7 00          	adc    $0x0,%rdi
    1e5d:	49 89 0c c4          	mov    %rcx,(%r12,%rax,8)
    1e61:	48 83 c0 01          	add    $0x1,%rax
    1e65:	48 89 fa             	mov    %rdi,%rdx
    1e68:	4c 39 c8             	cmp    %r9,%rax
    1e6b:	7c db                	jl     1e48 <mpn_div_qr_preinv+0x338>
    1e6d:	4d 01 f0             	add    %r14,%r8
    1e70:	48 83 eb 01          	sub    $0x1,%rbx
    1e74:	49 01 f8             	add    %rdi,%r8
    1e77:	e9 b6 fd ff ff       	jmp    1c32 <mpn_div_qr_preinv+0x122>
    1e7c:	0f 1f 40 00          	nopl   0x0(%rax)
    1e80:	48 8b 44 24 48       	mov    0x48(%rsp),%rax
    1e85:	48 8b 74 24 20       	mov    0x20(%rsp),%rsi
    1e8a:	8b 54 24 6c          	mov    0x6c(%rsp),%edx
    1e8e:	4c 89 44 30 f8       	mov    %r8,-0x8(%rax,%rsi,1)
    1e93:	85 d2                	test   %edx,%edx
    1e95:	75 19                	jne    1eb0 <mpn_div_qr_preinv+0x3a0>
    1e97:	48 83 c4 78          	add    $0x78,%rsp
    1e9b:	5b                   	pop    %rbx
    1e9c:	5d                   	pop    %rbp
    1e9d:	41 5c                	pop    %r12
    1e9f:	41 5d                	pop    %r13
    1ea1:	41 5e                	pop    %r14
    1ea3:	41 5f                	pop    %r15
    1ea5:	c3                   	ret    
    1ea6:	66 2e 0f 1f 84 00 00 	cs nopw 0x0(%rax,%rax,1)
    1ead:	00 00 00 
    1eb0:	8b 4c 24 6c          	mov    0x6c(%rsp),%ecx
    1eb4:	48 8b 14 24          	mov    (%rsp),%rdx
    1eb8:	48 89 c6             	mov    %rax,%rsi
    1ebb:	48 89 c7             	mov    %rax,%rdi
    1ebe:	e8 00 00 00 00       	call   1ec3 <mpn_div_qr_preinv+0x3b3>
    1ec3:	48 85 c0             	test   %rax,%rax
    1ec6:	74 cf                	je     1e97 <mpn_div_qr_preinv+0x387>
    1ec8:	48 8d 0d 00 00 00 00 	lea    0x0(%rip),%rcx        # 1ecf <mpn_div_qr_preinv+0x3bf>
    1ecf:	ba 7b 04 00 00       	mov    $0x47b,%edx
    1ed4:	48 8d 35 00 00 00 00 	lea    0x0(%rip),%rsi        # 1edb <mpn_div_qr_preinv+0x3cb>
    1edb:	48 8d 3d 00 00 00 00 	lea    0x0(%rip),%rdi        # 1ee2 <mpn_div_qr_preinv+0x3d2>
    1ee2:	e8 00 00 00 00       	call   1ee7 <mpn_div_qr_preinv+0x3d7>
    1ee7:	66 0f 1f 84 00 00 00 	nopw   0x0(%rax,%rax,1)
    1eee:	00 00 
    1ef0:	48 8b 74 24 48       	mov    0x48(%rsp),%rsi
    1ef5:	89 c1                	mov    %eax,%ecx
    1ef7:	4c 89 4c 24 08       	mov    %r9,0x8(%rsp)
    1efc:	48 89 f7             	mov    %rsi,%rdi
    1eff:	e8 00 00 00 00       	call   1f04 <mpn_div_qr_preinv+0x3f4>
    1f04:	4c 8b 4c 24 08       	mov    0x8(%rsp),%r9
    1f09:	4c 8b 7d 00          	mov    0x0(%rbp),%r15
    1f0d:	49 89 c0             	mov    %rax,%r8
    1f10:	4d 8b 31             	mov    (%r9),%r14
    1f13:	e9 9a fc ff ff       	jmp    1bb2 <mpn_div_qr_preinv+0xa2>
    1f18:	0f 1f 84 00 00 00 00 	nopl   0x0(%rax,%rax,1)
    1f1f:	00 
    1f20:	48 8b 5c 24 48       	mov    0x48(%rsp),%rbx
    1f25:	48 8b 7c 24 18       	mov    0x18(%rsp),%rdi
    1f2a:	4c 89 c9             	mov    %r9,%rcx
    1f2d:	48 89 de             	mov    %rbx,%rsi
    1f30:	e8 1b f9 ff ff       	call   1850 <mpn_div_qr_1_preinv>
    1f35:	48 89 03             	mov    %rax,(%rbx)
    1f38:	48 83 c4 78          	add    $0x78,%rsp
    1f3c:	5b                   	pop    %rbx
    1f3d:	5d                   	pop    %rbp
    1f3e:	41 5c                	pop    %r12
    1f40:	41 5d                	pop    %r13
    1f42:	41 5e                	pop    %r14
    1f44:	41 5f                	pop    %r15
    1f46:	c3                   	ret    
    1f47:	66 0f 1f 84 00 00 00 	nopw   0x0(%rax,%rax,1)
    1f4e:	00 00 
    1f50:	48 83 fa 01          	cmp    $0x1,%rdx
    1f54:	0f 84 21 02 00 00    	je     217b <mpn_div_qr_preinv+0x66b>
    1f5a:	49 8b 59 18          	mov    0x18(%r9),%rbx
    1f5e:	41 8b 01             	mov    (%r9),%eax
    1f61:	31 ff                	xor    %edi,%edi
    1f63:	49 8b 69 08          	mov    0x8(%r9),%rbp
    1f67:	4d 8b 61 10          	mov    0x10(%r9),%r12
    1f6b:	48 89 de             	mov    %rbx,%rsi
    1f6e:	89 44 24 10          	mov    %eax,0x10(%rsp)
    1f72:	89 db                	mov    %ebx,%ebx
    1f74:	48 c1 ee 20          	shr    $0x20,%rsi
    1f78:	48 89 74 24 08       	mov    %rsi,0x8(%rsp)
    1f7d:	85 c0                	test   %eax,%eax
    1f7f:	0f 85 df 01 00 00    	jne    2164 <mpn_div_qr_preinv+0x654>
    1f85:	48 8b 44 24 48       	mov    0x48(%rsp),%rax
    1f8a:	45 89 e7             	mov    %r12d,%r15d
    1f8d:	49 be 00 00 00 00 01 	movabs $0x100000000,%r14
    1f94:	00 00 00 
    1f97:	4e 8b 44 e8 f8       	mov    -0x8(%rax,%r13,8),%r8
    1f9c:	4c 89 e0             	mov    %r12,%rax
    1f9f:	49 83 ed 02          	sub    $0x2,%r13
    1fa3:	48 c1 e8 20          	shr    $0x20,%rax
    1fa7:	48 89 04 24          	mov    %rax,(%rsp)
    1fab:	4c 89 c6             	mov    %r8,%rsi
    1fae:	eb 18                	jmp    1fc8 <mpn_div_qr_preinv+0x4b8>
    1fb0:	48 8b 44 24 18       	mov    0x18(%rsp),%rax
    1fb5:	48 85 c0             	test   %rax,%rax
    1fb8:	74 04                	je     1fbe <mpn_div_qr_preinv+0x4ae>
    1fba:	4a 89 14 e8          	mov    %rdx,(%rax,%r13,8)
    1fbe:	49 83 ed 01          	sub    $0x1,%r13
    1fc2:	0f 82 48 01 00 00    	jb     2110 <mpn_div_qr_preinv+0x600>
    1fc8:	48 8b 44 24 48       	mov    0x48(%rsp),%rax
    1fcd:	89 fa                	mov    %edi,%edx
    1fcf:	48 89 f9             	mov    %rdi,%rcx
    1fd2:	48 c1 e9 20          	shr    $0x20,%rcx
    1fd6:	49 89 d1             	mov    %rdx,%r9
    1fd9:	4e 8b 04 e8          	mov    (%rax,%r13,8),%r8
    1fdd:	48 8b 44 24 08       	mov    0x8(%rsp),%rax
    1fe2:	4c 0f af cb          	imul   %rbx,%r9
    1fe6:	49 89 ca             	mov    %rcx,%r10
    1fe9:	4c 0f af d3          	imul   %rbx,%r10
    1fed:	48 0f af d0          	imul   %rax,%rdx
    1ff1:	48 0f af c8          	imul   %rax,%rcx
    1ff5:	4c 89 c8             	mov    %r9,%rax
    1ff8:	45 89 c9             	mov    %r9d,%r9d
    1ffb:	48 c1 e8 20          	shr    $0x20,%rax
    1fff:	4c 01 d2             	add    %r10,%rdx
    2002:	48 01 d0             	add    %rdx,%rax
    2005:	48 89 ca             	mov    %rcx,%rdx
    2008:	4c 01 f1             	add    %r14,%rcx
    200b:	49 39 c2             	cmp    %rax,%r10
    200e:	48 0f 46 ca          	cmovbe %rdx,%rcx
    2012:	48 89 c2             	mov    %rax,%rdx
    2015:	48 c1 e0 20          	shl    $0x20,%rax
    2019:	4c 01 c8             	add    %r9,%rax
    201c:	48 c1 ea 20          	shr    $0x20,%rdx
    2020:	48 01 f0             	add    %rsi,%rax
    2023:	48 11 fa             	adc    %rdi,%rdx
    2026:	48 29 ee             	sub    %rbp,%rsi
    2029:	31 ff                	xor    %edi,%edi
    202b:	48 01 ca             	add    %rcx,%rdx
    202e:	4c 89 c1             	mov    %r8,%rcx
    2031:	4c 29 e1             	sub    %r12,%rcx
    2034:	4d 39 c4             	cmp    %r8,%r12
    2037:	41 89 d2             	mov    %edx,%r10d
    203a:	49 89 d3             	mov    %rdx,%r11
    203d:	40 0f 97 c7          	seta   %dil
    2041:	49 c1 eb 20          	shr    $0x20,%r11
    2045:	48 29 fe             	sub    %rdi,%rsi
    2048:	48 89 ef             	mov    %rbp,%rdi
    204b:	48 0f af fa          	imul   %rdx,%rdi
    204f:	48 29 fe             	sub    %rdi,%rsi
    2052:	4c 89 d7             	mov    %r10,%rdi
    2055:	49 89 f0             	mov    %rsi,%r8
    2058:	48 8b 34 24          	mov    (%rsp),%rsi
    205c:	49 0f af ff          	imul   %r15,%rdi
    2060:	4c 0f af d6          	imul   %rsi,%r10
    2064:	49 0f af f3          	imul   %r11,%rsi
    2068:	4d 0f af df          	imul   %r15,%r11
    206c:	49 89 f1             	mov    %rsi,%r9
    206f:	48 89 fe             	mov    %rdi,%rsi
    2072:	89 ff                	mov    %edi,%edi
    2074:	4d 01 d3             	add    %r10,%r11
    2077:	48 c1 ee 20          	shr    $0x20,%rsi
    207b:	4c 01 de             	add    %r11,%rsi
    207e:	4d 89 cb             	mov    %r9,%r11
    2081:	4d 01 f1             	add    %r14,%r9
    2084:	49 39 f2             	cmp    %rsi,%r10
    2087:	49 89 f2             	mov    %rsi,%r10
    208a:	4d 0f 46 cb          	cmovbe %r11,%r9
    208e:	49 c1 e2 20          	shl    $0x20,%r10
    2092:	4c 01 d7             	add    %r10,%rdi
    2095:	48 c1 ee 20          	shr    $0x20,%rsi
    2099:	48 39 f9             	cmp    %rdi,%rcx
    209c:	49 19 f0             	sbb    %rsi,%r8
    209f:	31 f6                	xor    %esi,%esi
    20a1:	4d 29 c8             	sub    %r9,%r8
    20a4:	4c 39 c0             	cmp    %r8,%rax
    20a7:	40 0f 96 c6          	setbe  %sil
    20ab:	48 83 c2 01          	add    $0x1,%rdx
    20af:	48 29 f9             	sub    %rdi,%rcx
    20b2:	31 ff                	xor    %edi,%edi
    20b4:	48 89 f0             	mov    %rsi,%rax
    20b7:	48 29 f2             	sub    %rsi,%rdx
    20ba:	4c 89 e6             	mov    %r12,%rsi
    20bd:	48 f7 d8             	neg    %rax
    20c0:	48 21 c6             	and    %rax,%rsi
    20c3:	48 01 f1             	add    %rsi,%rcx
    20c6:	40 0f 92 c7          	setb   %dil
    20ca:	48 21 e8             	and    %rbp,%rax
    20cd:	48 89 ce             	mov    %rcx,%rsi
    20d0:	4c 01 c0             	add    %r8,%rax
    20d3:	48 01 c7             	add    %rax,%rdi
    20d6:	48 39 fd             	cmp    %rdi,%rbp
    20d9:	0f 87 d1 fe ff ff    	ja     1fb0 <mpn_div_qr_preinv+0x4a0>
    20df:	72 09                	jb     20ea <mpn_div_qr_preinv+0x5da>
    20e1:	49 39 cc             	cmp    %rcx,%r12
    20e4:	0f 87 c6 fe ff ff    	ja     1fb0 <mpn_div_qr_preinv+0x4a0>
    20ea:	31 c0                	xor    %eax,%eax
    20ec:	48 83 c2 01          	add    $0x1,%rdx
    20f0:	49 39 cc             	cmp    %rcx,%r12
    20f3:	48 89 ce             	mov    %rcx,%rsi
    20f6:	0f 97 c0             	seta   %al
    20f9:	4c 29 e6             	sub    %r12,%rsi
    20fc:	48 29 c7             	sub    %rax,%rdi
    20ff:	48 29 ef             	sub    %rbp,%rdi
    2102:	e9 a9 fe ff ff       	jmp    1fb0 <mpn_div_qr_preinv+0x4a0>
    2107:	66 0f 1f 84 00 00 00 	nopw   0x0(%rax,%rax,1)
    210e:	00 00 
    2110:	49 89 f0             	mov    %rsi,%r8
    2113:	8b 74 24 10          	mov    0x10(%rsp),%esi
    2117:	85 f6                	test   %esi,%esi
    2119:	74 2e                	je     2149 <mpn_div_qr_preinv+0x639>
    211b:	b8 40 00 00 00       	mov    $0x40,%eax
    2120:	29 f0                	sub    %esi,%eax
    2122:	89 c1                	mov    %eax,%ecx
    2124:	49 d3 ed             	shr    %cl,%r13
    2127:	4d 85 c5             	test   %r8,%r13
    212a:	0f 85 24 01 00 00    	jne    2254 <mpn_div_qr_preinv+0x744>
    2130:	8b 5c 24 10          	mov    0x10(%rsp),%ebx
    2134:	48 89 fe             	mov    %rdi,%rsi
    2137:	89 d9                	mov    %ebx,%ecx
    2139:	49 d3 e8             	shr    %cl,%r8
    213c:	89 c1                	mov    %eax,%ecx
    213e:	48 d3 e6             	shl    %cl,%rsi
    2141:	89 d9                	mov    %ebx,%ecx
    2143:	49 09 f0             	or     %rsi,%r8
    2146:	48 d3 ef             	shr    %cl,%rdi
    2149:	48 8b 44 24 48       	mov    0x48(%rsp),%rax
    214e:	48 89 78 08          	mov    %rdi,0x8(%rax)
    2152:	4c 89 00             	mov    %r8,(%rax)
    2155:	48 83 c4 78          	add    $0x78,%rsp
    2159:	5b                   	pop    %rbx
    215a:	5d                   	pop    %rbp
    215b:	41 5c                	pop    %r12
    215d:	41 5d                	pop    %r13
    215f:	41 5e                	pop    %r14
    2161:	41 5f                	pop    %r15
    2163:	c3                   	ret    
    2164:	48 8b 74 24 48       	mov    0x48(%rsp),%rsi
    2169:	89 c1                	mov    %eax,%ecx
    216b:	48 89 f7             	mov    %rsi,%rdi
    216e:	e8 00 00 00 00       	call   2173 <mpn_div_qr_preinv+0x663>
    2173:	48 89 c7             	mov    %rax,%rdi
    2176:	e9 0a fe ff ff       	jmp    1f85 <mpn_div_qr_preinv+0x475>
    217b:	48 8d 0d 00 00 00 00 	lea    0x0(%rip),%rcx        # 2182 <mpn_div_qr_preinv+0x672>
    2182:	ba fa 03 00 00       	mov    $0x3fa,%edx
    2187:	48 8d 35 00 00 00 00 	lea    0x0(%rip),%rsi        # 218e <mpn_div_qr_preinv+0x67e>
    218e:	48 8d 3d 00 00 00 00 	lea    0x0(%rip),%rdi        # 2195 <mpn_div_qr_preinv+0x685>
    2195:	e8 00 00 00 00       	call   219a <mpn_div_qr_preinv+0x68a>
    219a:	48 8d 0d 00 00 00 00 	lea    0x0(%rip),%rcx        # 21a1 <mpn_div_qr_preinv+0x691>
    21a1:	ba 63 04 00 00       	mov    $0x463,%edx
    21a6:	48 8d 35 00 00 00 00 	lea    0x0(%rip),%rsi        # 21ad <mpn_div_qr_preinv+0x69d>
    21ad:	48 8d 3d 00 00 00 00 	lea    0x0(%rip),%rdi        # 21b4 <mpn_div_qr_preinv+0x6a4>
    21b4:	e8 00 00 00 00       	call   21b9 <mpn_div_qr_preinv+0x6a9>
    21b9:	48 8d 0d 00 00 00 00 	lea    0x0(%rip),%rcx        # 21c0 <mpn_div_qr_preinv+0x6b0>
    21c0:	ba 62 04 00 00       	mov    $0x462,%edx
    21c5:	48 8d 35 00 00 00 00 	lea    0x0(%rip),%rsi        # 21cc <mpn_div_qr_preinv+0x6bc>
    21cc:	48 8d 3d 00 00 00 00 	lea    0x0(%rip),%rdi        # 21d3 <mpn_div_qr_preinv+0x6c3>
    21d3:	e8 00 00 00 00       	call   21d8 <mpn_div_qr_preinv+0x6c8>
    21d8:	48 8d 0d 00 00 00 00 	lea    0x0(%rip),%rcx        # 21df <mpn_div_qr_preinv+0x6cf>
    21df:	ba 30 04 00 00       	mov    $0x430,%edx
    21e4:	48 8d 35 00 00 00 00 	lea    0x0(%rip),%rsi        # 21eb <mpn_div_qr_preinv+0x6db>
    21eb:	48 8d 3d 00 00 00 00 	lea    0x0(%rip),%rdi        # 21f2 <mpn_div_qr_preinv+0x6e2>
    21f2:	e8 00 00 00 00       	call   21f7 <mpn_div_qr_preinv+0x6e7>
    21f7:	48 8d 0d 00 00 00 00 	lea    0x0(%rip),%rcx        # 21fe <mpn_div_qr_preinv+0x6ee>
    21fe:	ba 70 04 00 00       	mov    $0x470,%edx
    2203:	48 8d 35 00 00 00 00 	lea    0x0(%rip),%rsi        # 220a <mpn_div_qr_preinv+0x6fa>
    220a:	48 8d 3d 00 00 00 00 	lea    0x0(%rip),%rdi        # 2211 <mpn_div_qr_preinv+0x701>
    2211:	e8 00 00 00 00       	call   2216 <mpn_div_qr_preinv+0x706>
    2216:	48 8d 0d 00 00 00 00 	lea    0x0(%rip),%rcx        # 221d <mpn_div_qr_preinv+0x70d>
    221d:	ba 6f 04 00 00       	mov    $0x46f,%edx
    2222:	48 8d 35 00 00 00 00 	lea    0x0(%rip),%rsi        # 2229 <mpn_div_qr_preinv+0x719>
    2229:	48 8d 3d 00 00 00 00 	lea    0x0(%rip),%rdi        # 2230 <mpn_div_qr_preinv+0x720>
    2230:	e8 00 00 00 00       	call   2235 <mpn_div_qr_preinv+0x725>
    2235:	48 8d 0d 00 00 00 00 	lea    0x0(%rip),%rcx        # 223c <mpn_div_qr_preinv+0x72c>
    223c:	ba 6e 04 00 00       	mov    $0x46e,%edx
    2241:	48 8d 35 00 00 00 00 	lea    0x0(%rip),%rsi        # 2248 <mpn_div_qr_preinv+0x738>
    2248:	48 8d 3d 00 00 00 00 	lea    0x0(%rip),%rdi        # 224f <mpn_div_qr_preinv+0x73f>
    224f:	e8 00 00 00 00       	call   2254 <mpn_div_qr_preinv+0x744>
    2254:	48 8d 0d 00 00 00 00 	lea    0x0(%rip),%rcx        # 225b <mpn_div_qr_preinv+0x74b>
    225b:	ba 15 04 00 00       	mov    $0x415,%edx
    2260:	48 8d 35 00 00 00 00 	lea    0x0(%rip),%rsi        # 2267 <mpn_div_qr_preinv+0x757>
    2267:	48 8d 3d 00 00 00 00 	lea    0x0(%rip),%rdi        # 226e <mpn_div_qr_preinv+0x75e>
    226e:	e8 00 00 00 00       	call   2273 <mpn_div_qr_preinv+0x763>
    2273:	66 66 2e 0f 1f 84 00 	data16 cs nopw 0x0(%rax,%rax,1)
    227a:	00 00 00 00 
    227e:	66 90                	xchg   %ax,%ax

0000000000002280 <mpn_scan1>:
    2280:	f3 0f 1e fa          	endbr64 
    2284:	48 89 f1             	mov    %rsi,%rcx
    2287:	48 89 fa             	mov    %rdi,%rdx
    228a:	48 c1 ee 06          	shr    $0x6,%rsi
    228e:	45 31 c0             	xor    %r8d,%r8d
    2291:	48 c7 c7 ff ff ff ff 	mov    $0xffffffffffffffff,%rdi
    2298:	48 d3 e7             	shl    %cl,%rdi
    229b:	48 89 f1             	mov    %rsi,%rcx
    229e:	48 23 3c f2          	and    (%rdx,%rsi,8),%rdi
    22a2:	e9 09 df ff ff       	jmp    1b0 <mpn_common_scan>
    22a7:	66 0f 1f 84 00 00 00 	nopw   0x0(%rax,%rax,1)
    22ae:	00 00 

00000000000022b0 <mpn_scan0>:
    22b0:	f3 0f 1e fa          	endbr64 
    22b4:	48 89 f1             	mov    %rsi,%rcx
    22b7:	48 c1 ee 06          	shr    $0x6,%rsi
    22bb:	48 89 fa             	mov    %rdi,%rdx
    22be:	48 c7 c0 ff ff ff ff 	mov    $0xffffffffffffffff,%rax
    22c5:	48 8b 3c f7          	mov    (%rdi,%rsi,8),%rdi
    22c9:	48 d3 e0             	shl    %cl,%rax
    22cc:	49 c7 c0 ff ff ff ff 	mov    $0xffffffffffffffff,%r8
    22d3:	48 89 f1             	mov    %rsi,%rcx
    22d6:	48 f7 d7             	not    %rdi
    22d9:	48 21 c7             	and    %rax,%rdi
    22dc:	e9 cf de ff ff       	jmp    1b0 <mpn_common_scan>
    22e1:	66 66 2e 0f 1f 84 00 	data16 cs nopw 0x0(%rax,%rax,1)
    22e8:	00 00 00 00 
    22ec:	0f 1f 40 00          	nopl   0x0(%rax)

00000000000022f0 <mpn_com>:
    22f0:	f3 0f 1e fa          	endbr64 
    22f4:	48 85 d2             	test   %rdx,%rdx
    22f7:	7e 1b                	jle    2314 <mpn_com+0x24>
    22f9:	31 c0                	xor    %eax,%eax
    22fb:	0f 1f 44 00 00       	nopl   0x0(%rax,%rax,1)
    2300:	48 8b 0c c6          	mov    (%rsi,%rax,8),%rcx
    2304:	48 f7 d1             	not    %rcx
    2307:	48 89 0c c7          	mov    %rcx,(%rdi,%rax,8)
    230b:	48 83 c0 01          	add    $0x1,%rax
    230f:	48 39 c2             	cmp    %rax,%rdx
    2312:	75 ec                	jne    2300 <mpn_com+0x10>
    2314:	c3                   	ret    
    2315:	66 66 2e 0f 1f 84 00 	data16 cs nopw 0x0(%rax,%rax,1)
    231c:	00 00 00 00 

0000000000002320 <mpn_neg>:
    2320:	f3 0f 1e fa          	endbr64 
    2324:	4c 8b 06             	mov    (%rsi),%r8
    2327:	48 8d 42 ff          	lea    -0x1(%rdx),%rax
    232b:	4d 85 c0             	test   %r8,%r8
    232e:	74 20                	je     2350 <mpn_neg+0x30>
    2330:	eb 2e                	jmp    2360 <mpn_neg+0x40>
    2332:	66 0f 1f 44 00 00    	nopw   0x0(%rax,%rax,1)
    2338:	48 8b 4e 08          	mov    0x8(%rsi),%rcx
    233c:	48 83 c6 08          	add    $0x8,%rsi
    2340:	48 89 c2             	mov    %rax,%rdx
    2343:	48 83 c7 08          	add    $0x8,%rdi
    2347:	48 83 e8 01          	sub    $0x1,%rax
    234b:	48 85 c9             	test   %rcx,%rcx
    234e:	75 18                	jne    2368 <mpn_neg+0x48>
    2350:	48 c7 07 00 00 00 00 	movq   $0x0,(%rdi)
    2357:	48 85 c0             	test   %rax,%rax
    235a:	75 dc                	jne    2338 <mpn_neg+0x18>
    235c:	4c 89 c0             	mov    %r8,%rax
    235f:	c3                   	ret    
    2360:	4c 89 c1             	mov    %r8,%rcx
    2363:	0f 1f 44 00 00       	nopl   0x0(%rax,%rax,1)
    2368:	48 f7 d9             	neg    %rcx
    236b:	31 c0                	xor    %eax,%eax
    236d:	48 89 0f             	mov    %rcx,(%rdi)
    2370:	48 8d 4a ff          	lea    -0x1(%rdx),%rcx
    2374:	48 83 fa 01          	cmp    $0x1,%rdx
    2378:	7e 1c                	jle    2396 <mpn_neg+0x76>
    237a:	66 0f 1f 44 00 00    	nopw   0x0(%rax,%rax,1)
    2380:	48 8b 54 c6 08       	mov    0x8(%rsi,%rax,8),%rdx
    2385:	48 f7 d2             	not    %rdx
    2388:	48 89 54 c7 08       	mov    %rdx,0x8(%rdi,%rax,8)
    238d:	48 83 c0 01          	add    $0x1,%rax
    2391:	48 39 c1             	cmp    %rax,%rcx
    2394:	75 ea                	jne    2380 <mpn_neg+0x60>
    2396:	41 b8 01 00 00 00    	mov    $0x1,%r8d
    239c:	4c 89 c0             	mov    %r8,%rax
    239f:	c3                   	ret    

00000000000023a0 <mpz_div_r_2exp>:
    23a0:	41 57                	push   %r15
    23a2:	41 56                	push   %r14
    23a4:	41 55                	push   %r13
    23a6:	49 89 fd             	mov    %rdi,%r13
    23a9:	41 54                	push   %r12
    23ab:	55                   	push   %rbp
    23ac:	53                   	push   %rbx
    23ad:	48 83 ec 28          	sub    $0x28,%rsp
    23b1:	4c 63 46 04          	movslq 0x4(%rsi),%r8
    23b5:	4d 85 c0             	test   %r8,%r8
    23b8:	0f 84 f2 00 00 00    	je     24b0 <mpz_div_r_2exp+0x110>
    23be:	49 89 d7             	mov    %rdx,%r15
    23c1:	48 85 d2             	test   %rdx,%rdx
    23c4:	0f 84 e6 00 00 00    	je     24b0 <mpz_div_r_2exp+0x110>
    23ca:	4c 8d 62 3f          	lea    0x3f(%rdx),%r12
    23ce:	49 c1 ec 06          	shr    $0x6,%r12
    23d2:	4c 89 e3             	mov    %r12,%rbx
    23d5:	0f 84 1d 02 00 00    	je     25f8 <mpz_div_r_2exp+0x258>
    23db:	48 63 07             	movslq (%rdi),%rax
    23de:	89 ca                	mov    %ecx,%edx
    23e0:	49 89 f6             	mov    %rsi,%r14
    23e3:	4c 89 c1             	mov    %r8,%rcx
    23e6:	4c 39 e0             	cmp    %r12,%rax
    23e9:	0f 8c 91 00 00 00    	jl     2480 <mpz_div_r_2exp+0xe0>
    23ef:	48 8b 6f 08          	mov    0x8(%rdi),%rbp
    23f3:	41 89 c9             	mov    %ecx,%r9d
    23f6:	41 f7 d9             	neg    %r9d
    23f9:	44 0f 48 c9          	cmovs  %ecx,%r9d
    23fd:	44 89 e1             	mov    %r12d,%ecx
    2400:	45 31 d2             	xor    %r10d,%r10d
    2403:	c1 e1 06             	shl    $0x6,%ecx
    2406:	44 29 f9             	sub    %r15d,%ecx
    2409:	49 c7 c7 ff ff ff ff 	mov    $0xffffffffffffffff,%r15
    2410:	45 89 c9             	mov    %r9d,%r9d
    2413:	49 d3 ef             	shr    %cl,%r15
    2416:	4d 85 c0             	test   %r8,%r8
    2419:	41 0f 9f c2          	setg   %r10b
    241d:	4d 39 cc             	cmp    %r9,%r12
    2420:	0f 8e a2 00 00 00    	jle    24c8 <mpz_div_r_2exp+0x128>
    2426:	44 39 d2             	cmp    %r10d,%edx
    2429:	0f 84 51 01 00 00    	je     2580 <mpz_div_r_2exp+0x1e0>
    242f:	4a 8d 4c cd f8       	lea    -0x8(%rbp,%r9,8),%rcx
    2434:	4d 39 ee             	cmp    %r13,%r14
    2437:	0f 84 03 01 00 00    	je     2540 <mpz_div_r_2exp+0x1a0>
    243d:	49 8b 56 08          	mov    0x8(%r14),%rdx
    2441:	31 db                	xor    %ebx,%ebx
    2443:	0f 1f 44 00 00       	nopl   0x0(%rax,%rax,1)
    2448:	48 8b 04 da          	mov    (%rdx,%rbx,8),%rax
    244c:	48 89 44 dd 00       	mov    %rax,0x0(%rbp,%rbx,8)
    2451:	48 83 c3 01          	add    $0x1,%rbx
    2455:	49 39 d9             	cmp    %rbx,%r9
    2458:	75 ee                	jne    2448 <mpz_div_r_2exp+0xa8>
    245a:	48 8b 01             	mov    (%rcx),%rax
    245d:	48 85 c0             	test   %rax,%rax
    2460:	0f 84 c0 00 00 00    	je     2526 <mpz_div_r_2exp+0x186>
    2466:	66 2e 0f 1f 84 00 00 	cs nopw 0x0(%rax,%rax,1)
    246d:	00 00 00 
    2470:	89 d8                	mov    %ebx,%eax
    2472:	f7 d8                	neg    %eax
    2474:	4d 85 c0             	test   %r8,%r8
    2477:	0f 48 d8             	cmovs  %eax,%ebx
    247a:	eb 36                	jmp    24b2 <mpz_div_r_2exp+0x112>
    247c:	0f 1f 40 00          	nopl   0x0(%rax)
    2480:	4c 89 e6             	mov    %r12,%rsi
    2483:	89 54 24 1c          	mov    %edx,0x1c(%rsp)
    2487:	4c 89 44 24 10       	mov    %r8,0x10(%rsp)
    248c:	44 89 44 24 08       	mov    %r8d,0x8(%rsp)
    2491:	e8 1a df ff ff       	call   3b0 <mpz_realloc>
    2496:	8b 4c 24 08          	mov    0x8(%rsp),%ecx
    249a:	4c 8b 44 24 10       	mov    0x10(%rsp),%r8
    249f:	8b 54 24 1c          	mov    0x1c(%rsp),%edx
    24a3:	48 89 c5             	mov    %rax,%rbp
    24a6:	e9 48 ff ff ff       	jmp    23f3 <mpz_div_r_2exp+0x53>
    24ab:	0f 1f 44 00 00       	nopl   0x0(%rax,%rax,1)
    24b0:	31 db                	xor    %ebx,%ebx
    24b2:	41 89 5d 04          	mov    %ebx,0x4(%r13)
    24b6:	48 83 c4 28          	add    $0x28,%rsp
    24ba:	5b                   	pop    %rbx
    24bb:	5d                   	pop    %rbp
    24bc:	41 5c                	pop    %r12
    24be:	41 5d                	pop    %r13
    24c0:	41 5e                	pop    %r14
    24c2:	41 5f                	pop    %r15
    24c4:	c3                   	ret    
    24c5:	0f 1f 00             	nopl   (%rax)
    24c8:	49 8b 76 08          	mov    0x8(%r14),%rsi
    24cc:	4d 39 ee             	cmp    %r13,%r14
    24cf:	74 21                	je     24f2 <mpz_div_r_2exp+0x152>
    24d1:	4c 89 e7             	mov    %r12,%rdi
    24d4:	48 83 ef 01          	sub    $0x1,%rdi
    24d8:	74 18                	je     24f2 <mpz_div_r_2exp+0x152>
    24da:	31 c0                	xor    %eax,%eax
    24dc:	0f 1f 40 00          	nopl   0x0(%rax)
    24e0:	48 8b 0c c6          	mov    (%rsi,%rax,8),%rcx
    24e4:	48 89 4c c5 00       	mov    %rcx,0x0(%rbp,%rax,8)
    24e9:	48 83 c0 01          	add    $0x1,%rax
    24ed:	48 39 c7             	cmp    %rax,%rdi
    24f0:	75 ee                	jne    24e0 <mpz_div_r_2exp+0x140>
    24f2:	4a 8d 04 e5 00 00 00 	lea    0x0(,%r12,8),%rax
    24f9:	00 
    24fa:	48 8b 7c 06 f8       	mov    -0x8(%rsi,%rax,1),%rdi
    24ff:	4c 8d 4c 05 f8       	lea    -0x8(%rbp,%rax,1),%r9
    2504:	4c 21 ff             	and    %r15,%rdi
    2507:	49 89 39             	mov    %rdi,(%r9)
    250a:	48 89 f8             	mov    %rdi,%rax
    250d:	44 39 d2             	cmp    %r10d,%edx
    2510:	75 0b                	jne    251d <mpz_div_r_2exp+0x17d>
    2512:	eb 3c                	jmp    2550 <mpz_div_r_2exp+0x1b0>
    2514:	0f 1f 40 00          	nopl   0x0(%rax)
    2518:	48 8b 44 dd f8       	mov    -0x8(%rbp,%rbx,8),%rax
    251d:	48 85 c0             	test   %rax,%rax
    2520:	0f 85 4a ff ff ff    	jne    2470 <mpz_div_r_2exp+0xd0>
    2526:	48 83 eb 01          	sub    $0x1,%rbx
    252a:	75 ec                	jne    2518 <mpz_div_r_2exp+0x178>
    252c:	89 d8                	mov    %ebx,%eax
    252e:	f7 d8                	neg    %eax
    2530:	4d 85 c0             	test   %r8,%r8
    2533:	0f 48 d8             	cmovs  %eax,%ebx
    2536:	e9 77 ff ff ff       	jmp    24b2 <mpz_div_r_2exp+0x112>
    253b:	0f 1f 44 00 00       	nopl   0x0(%rax,%rax,1)
    2540:	48 8b 01             	mov    (%rcx),%rax
    2543:	4c 89 cb             	mov    %r9,%rbx
    2546:	eb d5                	jmp    251d <mpz_div_r_2exp+0x17d>
    2548:	0f 1f 84 00 00 00 00 	nopl   0x0(%rax,%rax,1)
    254f:	00 
    2550:	4c 89 e2             	mov    %r12,%rdx
    2553:	48 89 ee             	mov    %rbp,%rsi
    2556:	48 89 ef             	mov    %rbp,%rdi
    2559:	4c 89 44 24 08       	mov    %r8,0x8(%rsp)
    255e:	e8 00 00 00 00       	call   2563 <mpz_div_r_2exp+0x1c3>
    2563:	49 8b 01             	mov    (%r9),%rax
    2566:	4c 8b 44 24 08       	mov    0x8(%rsp),%r8
    256b:	4c 21 f8             	and    %r15,%rax
    256e:	49 f7 d8             	neg    %r8
    2571:	49 89 01             	mov    %rax,(%r9)
    2574:	eb a7                	jmp    251d <mpz_div_r_2exp+0x17d>
    2576:	66 2e 0f 1f 84 00 00 	cs nopw 0x0(%rax,%rax,1)
    257d:	00 00 00 
    2580:	49 8b 76 08          	mov    0x8(%r14),%rsi
    2584:	4c 89 ca             	mov    %r9,%rdx
    2587:	48 89 ef             	mov    %rbp,%rdi
    258a:	4c 89 44 24 08       	mov    %r8,0x8(%rsp)
    258f:	e8 00 00 00 00       	call   2594 <mpz_div_r_2exp+0x1f4>
    2594:	48 85 c0             	test   %rax,%rax
    2597:	74 40                	je     25d9 <mpz_div_r_2exp+0x239>
    2599:	49 8d 44 24 ff       	lea    -0x1(%r12),%rax
    259e:	4c 8b 44 24 08       	mov    0x8(%rsp),%r8
    25a3:	49 39 c1             	cmp    %rax,%r9
    25a6:	7d 24                	jge    25cc <mpz_div_r_2exp+0x22c>
    25a8:	4c 29 c8             	sub    %r9,%rax
    25ab:	4a 8d 7c cd 00       	lea    0x0(%rbp,%r9,8),%rdi
    25b0:	be ff 00 00 00       	mov    $0xff,%esi
    25b5:	4c 89 44 24 08       	mov    %r8,0x8(%rsp)
    25ba:	48 8d 14 c5 00 00 00 	lea    0x0(,%rax,8),%rdx
    25c1:	00 
    25c2:	e8 00 00 00 00       	call   25c7 <mpz_div_r_2exp+0x227>
    25c7:	4c 8b 44 24 08       	mov    0x8(%rsp),%r8
    25cc:	4e 89 7c e5 f8       	mov    %r15,-0x8(%rbp,%r12,8)
    25d1:	49 f7 d8             	neg    %r8
    25d4:	e9 97 fe ff ff       	jmp    2470 <mpz_div_r_2exp+0xd0>
    25d9:	48 8d 0d 00 00 00 00 	lea    0x0(%rip),%rcx        # 25e0 <mpz_div_r_2exp+0x240>
    25e0:	ba 93 09 00 00       	mov    $0x993,%edx
    25e5:	48 8d 35 00 00 00 00 	lea    0x0(%rip),%rsi        # 25ec <mpz_div_r_2exp+0x24c>
    25ec:	48 8d 3d 00 00 00 00 	lea    0x0(%rip),%rdi        # 25f3 <mpz_div_r_2exp+0x253>
    25f3:	e8 00 00 00 00       	call   25f8 <mpz_div_r_2exp+0x258>
    25f8:	48 8d 0d 00 00 00 00 	lea    0x0(%rip),%rcx        # 25ff <mpz_div_r_2exp+0x25f>
    25ff:	ba 83 09 00 00       	mov    $0x983,%edx
    2604:	48 8d 35 00 00 00 00 	lea    0x0(%rip),%rsi        # 260b <mpz_div_r_2exp+0x26b>
    260b:	48 8d 3d 00 00 00 00 	lea    0x0(%rip),%rdi        # 2612 <mpz_div_r_2exp+0x272>
    2612:	e8 00 00 00 00       	call   2617 <mpz_div_r_2exp+0x277>
    2617:	66 0f 1f 84 00 00 00 	nopw   0x0(%rax,%rax,1)
    261e:	00 00 

0000000000002620 <mpn_invert_3by2>:
    2620:	f3 0f 1e fa          	endbr64 
    2624:	48 89 f9             	mov    %rdi,%rcx
    2627:	49 89 f8             	mov    %rdi,%r8
    262a:	31 d2                	xor    %edx,%edx
    262c:	49 89 f1             	mov    %rsi,%r9
    262f:	48 f7 d1             	not    %rcx
    2632:	49 c1 e8 20          	shr    $0x20,%r8
    2636:	48 89 c8             	mov    %rcx,%rax
    2639:	49 f7 f0             	div    %r8
    263c:	48 89 ca             	mov    %rcx,%rdx
    263f:	b9 ff ff ff ff       	mov    $0xffffffff,%ecx
    2644:	89 c6                	mov    %eax,%esi
    2646:	4c 0f af c6          	imul   %rsi,%r8
    264a:	4c 29 c2             	sub    %r8,%rdx
    264d:	48 c1 e2 20          	shl    $0x20,%rdx
    2651:	48 09 ca             	or     %rcx,%rdx
    2654:	89 f9                	mov    %edi,%ecx
    2656:	48 0f af ce          	imul   %rsi,%rcx
    265a:	48 39 ca             	cmp    %rcx,%rdx
    265d:	73 11                	jae    2670 <mpn_invert_3by2+0x50>
    265f:	8d 70 ff             	lea    -0x1(%rax),%esi
    2662:	48 01 fa             	add    %rdi,%rdx
    2665:	72 09                	jb     2670 <mpn_invert_3by2+0x50>
    2667:	48 39 d1             	cmp    %rdx,%rcx
    266a:	0f 87 e0 00 00 00    	ja     2750 <mpn_invert_3by2+0x130>
    2670:	48 29 ca             	sub    %rcx,%rdx
    2673:	b8 ff ff ff ff       	mov    $0xffffffff,%eax
    2678:	48 89 d1             	mov    %rdx,%rcx
    267b:	48 c1 e9 20          	shr    $0x20,%rcx
    267f:	48 0f af ce          	imul   %rsi,%rcx
    2683:	48 01 d1             	add    %rdx,%rcx
    2686:	48 c1 e2 20          	shl    $0x20,%rdx
    268a:	49 89 ca             	mov    %rcx,%r10
    268d:	48 01 d0             	add    %rdx,%rax
    2690:	48 89 fa             	mov    %rdi,%rdx
    2693:	48 c1 e1 20          	shl    $0x20,%rcx
    2697:	49 c1 ea 20          	shr    $0x20,%r10
    269b:	4d 8d 42 01          	lea    0x1(%r10),%r8
    269f:	49 0f af d0          	imul   %r8,%rdx
    26a3:	48 29 d0             	sub    %rdx,%rax
    26a6:	48 39 c1             	cmp    %rax,%rcx
    26a9:	77 06                	ja     26b1 <mpn_invert_3by2+0x91>
    26ab:	48 01 f8             	add    %rdi,%rax
    26ae:	4d 89 d0             	mov    %r10,%r8
    26b1:	48 c1 e6 20          	shl    $0x20,%rsi
    26b5:	49 01 f0             	add    %rsi,%r8
    26b8:	48 39 f8             	cmp    %rdi,%rax
    26bb:	72 07                	jb     26c4 <mpn_invert_3by2+0xa4>
    26bd:	49 83 c0 01          	add    $0x1,%r8
    26c1:	48 29 f8             	sub    %rdi,%rax
    26c4:	4d 85 c9             	test   %r9,%r9
    26c7:	74 6d                	je     2736 <mpn_invert_3by2+0x116>
    26c9:	49 8d 51 ff          	lea    -0x1(%r9),%rdx
    26cd:	48 29 c2             	sub    %rax,%rdx
    26d0:	4c 39 c8             	cmp    %r9,%rax
    26d3:	73 0c                	jae    26e1 <mpn_invert_3by2+0xc1>
    26d5:	48 39 d7             	cmp    %rdx,%rdi
    26d8:	76 66                	jbe    2740 <mpn_invert_3by2+0x120>
    26da:	49 83 e8 01          	sub    $0x1,%r8
    26de:	48 29 fa             	sub    %rdi,%rdx
    26e1:	45 89 ca             	mov    %r9d,%r10d
    26e4:	44 89 c6             	mov    %r8d,%esi
    26e7:	4c 89 c9             	mov    %r9,%rcx
    26ea:	4c 89 c0             	mov    %r8,%rax
    26ed:	48 c1 e9 20          	shr    $0x20,%rcx
    26f1:	4d 89 d3             	mov    %r10,%r11
    26f4:	48 c1 e8 20          	shr    $0x20,%rax
    26f8:	4c 0f af de          	imul   %rsi,%r11
    26fc:	48 0f af f1          	imul   %rcx,%rsi
    2700:	48 0f af c8          	imul   %rax,%rcx
    2704:	49 0f af c2          	imul   %r10,%rax
    2708:	4d 89 da             	mov    %r11,%r10
    270b:	49 c1 ea 20          	shr    $0x20,%r10
    270f:	48 01 f0             	add    %rsi,%rax
    2712:	4c 01 d0             	add    %r10,%rax
    2715:	48 39 c6             	cmp    %rax,%rsi
    2718:	76 0d                	jbe    2727 <mpn_invert_3by2+0x107>
    271a:	48 be 00 00 00 00 01 	movabs $0x100000000,%rsi
    2721:	00 00 00 
    2724:	48 01 f1             	add    %rsi,%rcx
    2727:	48 89 c6             	mov    %rax,%rsi
    272a:	48 c1 ee 20          	shr    $0x20,%rsi
    272e:	48 01 f1             	add    %rsi,%rcx
    2731:	48 01 ca             	add    %rcx,%rdx
    2734:	72 25                	jb     275b <mpn_invert_3by2+0x13b>
    2736:	4c 89 c0             	mov    %r8,%rax
    2739:	c3                   	ret    
    273a:	66 0f 1f 44 00 00    	nopw   0x0(%rax,%rax,1)
    2740:	48 29 fa             	sub    %rdi,%rdx
    2743:	49 83 e8 02          	sub    $0x2,%r8
    2747:	eb 95                	jmp    26de <mpn_invert_3by2+0xbe>
    2749:	0f 1f 80 00 00 00 00 	nopl   0x0(%rax)
    2750:	48 01 fa             	add    %rdi,%rdx
    2753:	8d 70 fe             	lea    -0x2(%rax),%esi
    2756:	e9 15 ff ff ff       	jmp    2670 <mpn_invert_3by2+0x50>
    275b:	48 c1 e0 20          	shl    $0x20,%rax
    275f:	45 89 db             	mov    %r11d,%r11d
    2762:	49 83 e8 01          	sub    $0x1,%r8
    2766:	4c 01 d8             	add    %r11,%rax
    2769:	49 39 c1             	cmp    %rax,%r9
    276c:	0f 92 c0             	setb   %al
    276f:	48 39 d7             	cmp    %rdx,%rdi
    2772:	0f 94 c1             	sete   %cl
    2775:	21 c8                	and    %ecx,%eax
    2777:	48 39 d7             	cmp    %rdx,%rdi
    277a:	0f 92 c2             	setb   %dl
    277d:	09 d0                	or     %edx,%eax
    277f:	0f b6 c0             	movzbl %al,%eax
    2782:	49 29 c0             	sub    %rax,%r8
    2785:	eb af                	jmp    2736 <mpn_invert_3by2+0x116>
    2787:	66 0f 1f 84 00 00 00 	nopw   0x0(%rax,%rax,1)
    278e:	00 00 

0000000000002790 <mpn_div_qr_1_invert>:
    2790:	53                   	push   %rbx
    2791:	48 85 f6             	test   %rsi,%rsi
    2794:	74 53                	je     27e9 <mpn_div_qr_1_invert+0x59>
    2796:	48 ba 00 00 00 00 00 	movabs $0xff00000000000000,%rdx
    279d:	00 00 ff 
    27a0:	48 89 fb             	mov    %rdi,%rbx
    27a3:	48 89 f0             	mov    %rsi,%rax
    27a6:	31 c9                	xor    %ecx,%ecx
    27a8:	48 85 d6             	test   %rdx,%rsi
    27ab:	75 0f                	jne    27bc <mpn_div_qr_1_invert+0x2c>
    27ad:	0f 1f 00             	nopl   (%rax)
    27b0:	48 c1 e0 08          	shl    $0x8,%rax
    27b4:	83 c1 08             	add    $0x8,%ecx
    27b7:	48 85 d0             	test   %rdx,%rax
    27ba:	74 f4                	je     27b0 <mpn_div_qr_1_invert+0x20>
    27bc:	48 85 c0             	test   %rax,%rax
    27bf:	78 0f                	js     27d0 <mpn_div_qr_1_invert+0x40>
    27c1:	0f 1f 80 00 00 00 00 	nopl   0x0(%rax)
    27c8:	83 c1 01             	add    $0x1,%ecx
    27cb:	48 01 c0             	add    %rax,%rax
    27ce:	79 f8                	jns    27c8 <mpn_div_qr_1_invert+0x38>
    27d0:	48 89 f7             	mov    %rsi,%rdi
    27d3:	89 0b                	mov    %ecx,(%rbx)
    27d5:	31 f6                	xor    %esi,%esi
    27d7:	48 d3 e7             	shl    %cl,%rdi
    27da:	48 89 7b 08          	mov    %rdi,0x8(%rbx)
    27de:	e8 00 00 00 00       	call   27e3 <mpn_div_qr_1_invert+0x53>
    27e3:	48 89 43 18          	mov    %rax,0x18(%rbx)
    27e7:	5b                   	pop    %rbx
    27e8:	c3                   	ret    
    27e9:	48 8d 0d 00 00 00 00 	lea    0x0(%rip),%rcx        # 27f0 <mpn_div_qr_1_invert+0x60>
    27f0:	ba 8f 03 00 00       	mov    $0x38f,%edx
    27f5:	48 8d 35 00 00 00 00 	lea    0x0(%rip),%rsi        # 27fc <mpn_div_qr_1_invert+0x6c>
    27fc:	48 8d 3d 00 00 00 00 	lea    0x0(%rip),%rdi        # 2803 <mpn_div_qr_1_invert+0x73>
    2803:	e8 00 00 00 00       	call   2808 <mpn_div_qr_1_invert+0x78>
    2808:	0f 1f 84 00 00 00 00 	nopl   0x0(%rax,%rax,1)
    280f:	00 

0000000000002810 <mpn_get_str_other>:
    2810:	41 57                	push   %r15
    2812:	48 63 f6             	movslq %esi,%rsi
    2815:	49 89 d7             	mov    %rdx,%r15
    2818:	41 56                	push   %r14
    281a:	41 55                	push   %r13
    281c:	49 89 cd             	mov    %rcx,%r13
    281f:	41 54                	push   %r12
    2821:	4d 89 c4             	mov    %r8,%r12
    2824:	55                   	push   %rbp
    2825:	48 89 fd             	mov    %rdi,%rbp
    2828:	53                   	push   %rbx
    2829:	31 db                	xor    %ebx,%ebx
    282b:	48 83 ec 68          	sub    $0x68,%rsp
    282f:	64 48 8b 04 25 28 00 	mov    %fs:0x28,%rax
    2836:	00 00 
    2838:	48 89 44 24 58       	mov    %rax,0x58(%rsp)
    283d:	31 c0                	xor    %eax,%eax
    283f:	48 8d 7c 24 10       	lea    0x10(%rsp),%rdi
    2844:	48 89 3c 24          	mov    %rdi,(%rsp)
    2848:	e8 43 ff ff ff       	call   2790 <mpn_div_qr_1_invert>
    284d:	48 89 ef             	mov    %rbp,%rdi
    2850:	49 83 fc 01          	cmp    $0x1,%r12
    2854:	7f 6a                	jg     28c0 <mpn_get_str_other+0xb0>
    2856:	48 8b 14 24          	mov    (%rsp),%rdx
    285a:	49 8b 75 00          	mov    0x0(%r13),%rsi
    285e:	e8 0d da ff ff       	call   270 <mpn_limb_get_str>
    2863:	48 01 d8             	add    %rbx,%rax
    2866:	48 83 f8 01          	cmp    $0x1,%rax
    286a:	76 2f                	jbe    289b <mpn_get_str_other+0x8b>
    286c:	48 8d 70 fe          	lea    -0x2(%rax),%rsi
    2870:	48 89 ea             	mov    %rbp,%rdx
    2873:	48 8d 4c 05 ff       	lea    -0x1(%rbp,%rax,1),%rcx
    2878:	48 d1 ee             	shr    %rsi
    287b:	4c 8d 44 35 01       	lea    0x1(%rbp,%rsi,1),%r8
    2880:	0f b6 39             	movzbl (%rcx),%edi
    2883:	0f b6 32             	movzbl (%rdx),%esi
    2886:	48 83 c2 01          	add    $0x1,%rdx
    288a:	48 83 e9 01          	sub    $0x1,%rcx
    288e:	40 88 7a ff          	mov    %dil,-0x1(%rdx)
    2892:	40 88 71 01          	mov    %sil,0x1(%rcx)
    2896:	4c 39 c2             	cmp    %r8,%rdx
    2899:	75 e5                	jne    2880 <mpn_get_str_other+0x70>
    289b:	48 8b 54 24 58       	mov    0x58(%rsp),%rdx
    28a0:	64 48 2b 14 25 28 00 	sub    %fs:0x28,%rdx
    28a7:	00 00 
    28a9:	0f 85 a3 00 00 00    	jne    2952 <mpn_get_str_other+0x142>
    28af:	48 83 c4 68          	add    $0x68,%rsp
    28b3:	5b                   	pop    %rbx
    28b4:	5d                   	pop    %rbp
    28b5:	41 5c                	pop    %r12
    28b7:	41 5d                	pop    %r13
    28b9:	41 5e                	pop    %r14
    28bb:	41 5f                	pop    %r15
    28bd:	c3                   	ret    
    28be:	66 90                	xchg   %ax,%ax
    28c0:	48 8d 44 24 30       	lea    0x30(%rsp),%rax
    28c5:	49 8b 77 08          	mov    0x8(%r15),%rsi
    28c9:	45 31 f6             	xor    %r14d,%r14d
    28cc:	48 89 c7             	mov    %rax,%rdi
    28cf:	48 89 44 24 08       	mov    %rax,0x8(%rsp)
    28d4:	e8 b7 fe ff ff       	call   2790 <mpn_div_qr_1_invert>
    28d9:	0f 1f 80 00 00 00 00 	nopl   0x0(%rax)
    28e0:	48 8b 4c 24 08       	mov    0x8(%rsp),%rcx
    28e5:	4c 89 e2             	mov    %r12,%rdx
    28e8:	4c 89 ee             	mov    %r13,%rsi
    28eb:	4c 89 ef             	mov    %r13,%rdi
    28ee:	e8 5d ef ff ff       	call   1850 <mpn_div_qr_1_preinv>
    28f3:	48 8b 14 24          	mov    (%rsp),%rdx
    28f7:	4b 83 7c e5 f8 01    	cmpq   $0x1,-0x8(%r13,%r12,8)
    28fd:	4a 8d 7c 35 00       	lea    0x0(%rbp,%r14,1),%rdi
    2902:	48 89 c6             	mov    %rax,%rsi
    2905:	49 83 dc 00          	sbb    $0x0,%r12
    2909:	e8 62 d9 ff ff       	call   270 <mpn_limb_get_str>
    290e:	41 8b 17             	mov    (%r15),%edx
    2911:	49 8d 1c 06          	lea    (%r14,%rax,1),%rbx
    2915:	48 39 d0             	cmp    %rdx,%rax
    2918:	73 1d                	jae    2937 <mpn_get_str_other+0x127>
    291a:	66 0f 1f 44 00 00    	nopw   0x0(%rax,%rax,1)
    2920:	48 83 c3 01          	add    $0x1,%rbx
    2924:	c6 44 1d ff 00       	movb   $0x0,-0x1(%rbp,%rbx,1)
    2929:	48 89 d8             	mov    %rbx,%rax
    292c:	41 8b 17             	mov    (%r15),%edx
    292f:	4c 29 f0             	sub    %r14,%rax
    2932:	48 39 c2             	cmp    %rax,%rdx
    2935:	77 e9                	ja     2920 <mpn_get_str_other+0x110>
    2937:	49 83 fc 01          	cmp    $0x1,%r12
    293b:	74 0b                	je     2948 <mpn_get_str_other+0x138>
    293d:	49 89 de             	mov    %rbx,%r14
    2940:	eb 9e                	jmp    28e0 <mpn_get_str_other+0xd0>
    2942:	66 0f 1f 44 00 00    	nopw   0x0(%rax,%rax,1)
    2948:	48 8d 7c 1d 00       	lea    0x0(%rbp,%rbx,1),%rdi
    294d:	e9 04 ff ff ff       	jmp    2856 <mpn_get_str_other+0x46>
    2952:	e8 00 00 00 00       	call   2957 <mpn_get_str_other+0x147>
    2957:	66 0f 1f 84 00 00 00 	nopw   0x0(%rax,%rax,1)
    295e:	00 00 

0000000000002960 <mpn_div_qr_invert>:
    2960:	55                   	push   %rbp
    2961:	48 85 d2             	test   %rdx,%rdx
    2964:	0f 84 6a 01 00 00    	je     2ad4 <mpn_div_qr_invert+0x174>
    296a:	48 89 fd             	mov    %rdi,%rbp
    296d:	49 89 f1             	mov    %rsi,%r9
    2970:	48 83 fa 01          	cmp    $0x1,%rdx
    2974:	0f 84 ae 00 00 00    	je     2a28 <mpn_div_qr_invert+0xc8>
    297a:	48 83 fa 02          	cmp    $0x2,%rdx
    297e:	0f 84 b4 00 00 00    	je     2a38 <mpn_div_qr_invert+0xd8>
    2984:	48 c1 e2 03          	shl    $0x3,%rdx
    2988:	48 8b 7c 16 f8       	mov    -0x8(%rsi,%rdx,1),%rdi
    298d:	48 8b 74 16 f0       	mov    -0x10(%rsi,%rdx,1),%rsi
    2992:	48 85 ff             	test   %rdi,%rdi
    2995:	0f 84 77 01 00 00    	je     2b12 <mpn_div_qr_invert+0x1b2>
    299b:	48 b9 00 00 00 00 00 	movabs $0xff00000000000000,%rcx
    29a2:	00 00 ff 
    29a5:	48 89 f8             	mov    %rdi,%rax
    29a8:	45 31 c0             	xor    %r8d,%r8d
    29ab:	48 85 cf             	test   %rcx,%rdi
    29ae:	0f 85 04 01 00 00    	jne    2ab8 <mpn_div_qr_invert+0x158>
    29b4:	0f 1f 40 00          	nopl   0x0(%rax)
    29b8:	48 c1 e0 08          	shl    $0x8,%rax
    29bc:	41 83 c0 08          	add    $0x8,%r8d
    29c0:	48 85 c8             	test   %rcx,%rax
    29c3:	74 f3                	je     29b8 <mpn_div_qr_invert+0x58>
    29c5:	48 85 c0             	test   %rax,%rax
    29c8:	78 0f                	js     29d9 <mpn_div_qr_invert+0x79>
    29ca:	66 0f 1f 44 00 00    	nopw   0x0(%rax,%rax,1)
    29d0:	41 83 c0 01          	add    $0x1,%r8d
    29d4:	48 01 c0             	add    %rax,%rax
    29d7:	79 f7                	jns    29d0 <mpn_div_qr_invert+0x70>
    29d9:	44 89 45 00          	mov    %r8d,0x0(%rbp)
    29dd:	45 85 c0             	test   %r8d,%r8d
    29e0:	74 2c                	je     2a0e <mpn_div_qr_invert+0xae>
    29e2:	b8 40 00 00 00       	mov    $0x40,%eax
    29e7:	44 89 c1             	mov    %r8d,%ecx
    29ea:	49 89 f2             	mov    %rsi,%r10
    29ed:	49 8b 54 11 e8       	mov    -0x18(%r9,%rdx,1),%rdx
    29f2:	44 29 c0             	sub    %r8d,%eax
    29f5:	48 d3 e7             	shl    %cl,%rdi
    29f8:	89 c1                	mov    %eax,%ecx
    29fa:	49 d3 ea             	shr    %cl,%r10
    29fd:	44 89 c1             	mov    %r8d,%ecx
    2a00:	48 d3 e6             	shl    %cl,%rsi
    2a03:	89 c1                	mov    %eax,%ecx
    2a05:	4c 09 d7             	or     %r10,%rdi
    2a08:	48 d3 ea             	shr    %cl,%rdx
    2a0b:	48 09 d6             	or     %rdx,%rsi
    2a0e:	48 89 7d 08          	mov    %rdi,0x8(%rbp)
    2a12:	48 89 75 10          	mov    %rsi,0x10(%rbp)
    2a16:	e8 00 00 00 00       	call   2a1b <mpn_div_qr_invert+0xbb>
    2a1b:	48 89 45 18          	mov    %rax,0x18(%rbp)
    2a1f:	5d                   	pop    %rbp
    2a20:	c3                   	ret    
    2a21:	0f 1f 80 00 00 00 00 	nopl   0x0(%rax)
    2a28:	48 8b 36             	mov    (%rsi),%rsi
    2a2b:	5d                   	pop    %rbp
    2a2c:	e9 5f fd ff ff       	jmp    2790 <mpn_div_qr_1_invert>
    2a31:	0f 1f 80 00 00 00 00 	nopl   0x0(%rax)
    2a38:	49 8b 79 08          	mov    0x8(%r9),%rdi
    2a3c:	48 8b 36             	mov    (%rsi),%rsi
    2a3f:	48 85 ff             	test   %rdi,%rdi
    2a42:	0f 84 ab 00 00 00    	je     2af3 <mpn_div_qr_invert+0x193>
    2a48:	48 b9 00 00 00 00 00 	movabs $0xff00000000000000,%rcx
    2a4f:	00 00 ff 
    2a52:	48 89 f8             	mov    %rdi,%rax
    2a55:	31 d2                	xor    %edx,%edx
    2a57:	48 85 cf             	test   %rcx,%rdi
    2a5a:	75 71                	jne    2acd <mpn_div_qr_invert+0x16d>
    2a5c:	0f 1f 40 00          	nopl   0x0(%rax)
    2a60:	48 c1 e0 08          	shl    $0x8,%rax
    2a64:	83 c2 08             	add    $0x8,%edx
    2a67:	48 85 c8             	test   %rcx,%rax
    2a6a:	74 f4                	je     2a60 <mpn_div_qr_invert+0x100>
    2a6c:	48 85 c0             	test   %rax,%rax
    2a6f:	78 0f                	js     2a80 <mpn_div_qr_invert+0x120>
    2a71:	0f 1f 80 00 00 00 00 	nopl   0x0(%rax)
    2a78:	83 c2 01             	add    $0x1,%edx
    2a7b:	48 01 c0             	add    %rax,%rax
    2a7e:	79 f8                	jns    2a78 <mpn_div_qr_invert+0x118>
    2a80:	85 d2                	test   %edx,%edx
    2a82:	74 18                	je     2a9c <mpn_div_qr_invert+0x13c>
    2a84:	b9 40 00 00 00       	mov    $0x40,%ecx
    2a89:	48 89 f0             	mov    %rsi,%rax
    2a8c:	29 d1                	sub    %edx,%ecx
    2a8e:	48 d3 e8             	shr    %cl,%rax
    2a91:	89 d1                	mov    %edx,%ecx
    2a93:	48 d3 e7             	shl    %cl,%rdi
    2a96:	48 d3 e6             	shl    %cl,%rsi
    2a99:	48 09 c7             	or     %rax,%rdi
    2a9c:	89 55 00             	mov    %edx,0x0(%rbp)
    2a9f:	48 89 7d 08          	mov    %rdi,0x8(%rbp)
    2aa3:	48 89 75 10          	mov    %rsi,0x10(%rbp)
    2aa7:	e8 00 00 00 00       	call   2aac <mpn_div_qr_invert+0x14c>
    2aac:	48 89 45 18          	mov    %rax,0x18(%rbp)
    2ab0:	5d                   	pop    %rbp
    2ab1:	c3                   	ret    
    2ab2:	66 0f 1f 44 00 00    	nopw   0x0(%rax,%rax,1)
    2ab8:	48 85 ff             	test   %rdi,%rdi
    2abb:	0f 89 0f ff ff ff    	jns    29d0 <mpn_div_qr_invert+0x70>
    2ac1:	c7 45 00 00 00 00 00 	movl   $0x0,0x0(%rbp)
    2ac8:	e9 41 ff ff ff       	jmp    2a0e <mpn_div_qr_invert+0xae>
    2acd:	48 85 ff             	test   %rdi,%rdi
    2ad0:	79 a6                	jns    2a78 <mpn_div_qr_invert+0x118>
    2ad2:	eb c8                	jmp    2a9c <mpn_div_qr_invert+0x13c>
    2ad4:	48 8d 0d 00 00 00 00 	lea    0x0(%rip),%rcx        # 2adb <mpn_div_qr_invert+0x17b>
    2adb:	ba ad 03 00 00       	mov    $0x3ad,%edx
    2ae0:	48 8d 35 00 00 00 00 	lea    0x0(%rip),%rsi        # 2ae7 <mpn_div_qr_invert+0x187>
    2ae7:	48 8d 3d 00 00 00 00 	lea    0x0(%rip),%rdi        # 2aee <mpn_div_qr_invert+0x18e>
    2aee:	e8 00 00 00 00       	call   2af3 <mpn_div_qr_invert+0x193>
    2af3:	48 8d 0d 00 00 00 00 	lea    0x0(%rip),%rcx        # 2afa <mpn_div_qr_invert+0x19a>
    2afa:	ba 9c 03 00 00       	mov    $0x39c,%edx
    2aff:	48 8d 35 00 00 00 00 	lea    0x0(%rip),%rsi        # 2b06 <mpn_div_qr_invert+0x1a6>
    2b06:	48 8d 3d 00 00 00 00 	lea    0x0(%rip),%rdi        # 2b0d <mpn_div_qr_invert+0x1ad>
    2b0d:	e8 00 00 00 00       	call   2b12 <mpn_div_qr_invert+0x1b2>
    2b12:	48 8d 0d 00 00 00 00 	lea    0x0(%rip),%rcx        # 2b19 <mpn_div_qr_invert+0x1b9>
    2b19:	ba ba 03 00 00       	mov    $0x3ba,%edx
    2b1e:	48 8d 35 00 00 00 00 	lea    0x0(%rip),%rsi        # 2b25 <mpn_div_qr_invert+0x1c5>
    2b25:	48 8d 3d 00 00 00 00 	lea    0x0(%rip),%rdi        # 2b2c <mpn_div_qr_invert+0x1cc>
    2b2c:	e8 00 00 00 00       	call   2b31 <mpn_div_qr_invert+0x1d1>
    2b31:	66 66 2e 0f 1f 84 00 	data16 cs nopw 0x0(%rax,%rax,1)
    2b38:	00 00 00 00 
    2b3c:	0f 1f 40 00          	nopl   0x0(%rax)

0000000000002b40 <mpn_get_str>:
    2b40:	f3 0f 1e fa          	endbr64 
    2b44:	55                   	push   %rbp
    2b45:	48 83 ec 20          	sub    $0x20,%rsp
    2b49:	64 48 8b 04 25 28 00 	mov    %fs:0x28,%rax
    2b50:	00 00 
    2b52:	48 89 44 24 18       	mov    %rax,0x18(%rsp)
    2b57:	31 c0                	xor    %eax,%eax
    2b59:	48 85 c9             	test   %rcx,%rcx
    2b5c:	0f 8e c5 00 00 00    	jle    2c27 <mpn_get_str+0xe7>
    2b62:	48 83 7c ca f8 00    	cmpq   $0x0,-0x8(%rdx,%rcx,8)
    2b68:	49 89 d3             	mov    %rdx,%r11
    2b6b:	0f 84 97 00 00 00    	je     2c08 <mpn_get_str+0xc8>
    2b71:	48 89 fd             	mov    %rdi,%rbp
    2b74:	89 f7                	mov    %esi,%edi
    2b76:	41 89 f2             	mov    %esi,%r10d
    2b79:	e8 82 d4 ff ff       	call   0 <mpn_base_power_of_two_p>
    2b7e:	89 c6                	mov    %eax,%esi
    2b80:	85 c0                	test   %eax,%eax
    2b82:	75 64                	jne    2be8 <mpn_get_str+0xa8>
    2b84:	49 63 fa             	movslq %r10d,%rdi
    2b87:	41 b9 01 00 00 00    	mov    $0x1,%r9d
    2b8d:	48 89 f8             	mov    %rdi,%rax
    2b90:	48 89 fe             	mov    %rdi,%rsi
    2b93:	48 f7 e7             	mul    %rdi
    2b96:	70 18                	jo     2bb0 <mpn_get_str+0x70>
    2b98:	0f 1f 84 00 00 00 00 	nopl   0x0(%rax,%rax,1)
    2b9f:	00 
    2ba0:	48 0f af f7          	imul   %rdi,%rsi
    2ba4:	41 83 c1 01          	add    $0x1,%r9d
    2ba8:	48 89 f0             	mov    %rsi,%rax
    2bab:	48 f7 e7             	mul    %rdi
    2bae:	71 f0                	jno    2ba0 <mpn_get_str+0x60>
    2bb0:	48 89 74 24 08       	mov    %rsi,0x8(%rsp)
    2bb5:	48 89 e2             	mov    %rsp,%rdx
    2bb8:	49 89 c8             	mov    %rcx,%r8
    2bbb:	44 89 d6             	mov    %r10d,%esi
    2bbe:	4c 89 d9             	mov    %r11,%rcx
    2bc1:	48 89 ef             	mov    %rbp,%rdi
    2bc4:	44 89 0c 24          	mov    %r9d,(%rsp)
    2bc8:	e8 43 fc ff ff       	call   2810 <mpn_get_str_other>
    2bcd:	48 8b 54 24 18       	mov    0x18(%rsp),%rdx
    2bd2:	64 48 2b 14 25 28 00 	sub    %fs:0x28,%rdx
    2bd9:	00 00 
    2bdb:	75 69                	jne    2c46 <mpn_get_str+0x106>
    2bdd:	48 83 c4 20          	add    $0x20,%rsp
    2be1:	5d                   	pop    %rbp
    2be2:	c3                   	ret    
    2be3:	0f 1f 44 00 00       	nopl   0x0(%rax,%rax,1)
    2be8:	48 8b 44 24 18       	mov    0x18(%rsp),%rax
    2bed:	64 48 2b 04 25 28 00 	sub    %fs:0x28,%rax
    2bf4:	00 00 
    2bf6:	75 4e                	jne    2c46 <mpn_get_str+0x106>
    2bf8:	48 83 c4 20          	add    $0x20,%rsp
    2bfc:	48 89 ef             	mov    %rbp,%rdi
    2bff:	4c 89 da             	mov    %r11,%rdx
    2c02:	5d                   	pop    %rbp
    2c03:	e9 d8 d8 ff ff       	jmp    4e0 <mpn_get_str_bits>
    2c08:	48 8d 0d 00 00 00 00 	lea    0x0(%rip),%rcx        # 2c0f <mpn_get_str+0xcf>
    2c0f:	ba 2e 05 00 00       	mov    $0x52e,%edx
    2c14:	48 8d 35 00 00 00 00 	lea    0x0(%rip),%rsi        # 2c1b <mpn_get_str+0xdb>
    2c1b:	48 8d 3d 00 00 00 00 	lea    0x0(%rip),%rdi        # 2c22 <mpn_get_str+0xe2>
    2c22:	e8 00 00 00 00       	call   2c27 <mpn_get_str+0xe7>
    2c27:	48 8d 0d 00 00 00 00 	lea    0x0(%rip),%rcx        # 2c2e <mpn_get_str+0xee>
    2c2e:	ba 2d 05 00 00       	mov    $0x52d,%edx
    2c33:	48 8d 35 00 00 00 00 	lea    0x0(%rip),%rsi        # 2c3a <mpn_get_str+0xfa>
    2c3a:	48 8d 3d 00 00 00 00 	lea    0x0(%rip),%rdi        # 2c41 <mpn_get_str+0x101>
    2c41:	e8 00 00 00 00       	call   2c46 <mpn_get_str+0x106>
    2c46:	e8 00 00 00 00       	call   2c4b <mpn_get_str+0x10b>
    2c4b:	0f 1f 44 00 00       	nopl   0x0(%rax,%rax,1)

0000000000002c50 <mpn_set_str>:
    2c50:	f3 0f 1e fa          	endbr64 
    2c54:	48 83 ec 28          	sub    $0x28,%rsp
    2c58:	64 48 8b 04 25 28 00 	mov    %fs:0x28,%rax
    2c5f:	00 00 
    2c61:	48 89 44 24 18       	mov    %rax,0x18(%rsp)
    2c66:	31 c0                	xor    %eax,%eax
    2c68:	48 85 d2             	test   %rdx,%rdx
    2c6b:	0f 84 97 00 00 00    	je     2d08 <mpn_set_str+0xb8>
    2c71:	49 89 fa             	mov    %rdi,%r10
    2c74:	89 cf                	mov    %ecx,%edi
    2c76:	49 89 d1             	mov    %rdx,%r9
    2c79:	49 89 f3             	mov    %rsi,%r11
    2c7c:	e8 7f d3 ff ff       	call   0 <mpn_base_power_of_two_p>
    2c81:	41 89 c0             	mov    %eax,%r8d
    2c84:	85 c0                	test   %eax,%eax
    2c86:	75 58                	jne    2ce0 <mpn_set_str+0x90>
    2c88:	48 63 c9             	movslq %ecx,%rcx
    2c8b:	bf 01 00 00 00       	mov    $0x1,%edi
    2c90:	48 89 c8             	mov    %rcx,%rax
    2c93:	48 89 ce             	mov    %rcx,%rsi
    2c96:	48 f7 e1             	mul    %rcx
    2c99:	70 14                	jo     2caf <mpn_set_str+0x5f>
    2c9b:	0f 1f 44 00 00       	nopl   0x0(%rax,%rax,1)
    2ca0:	48 0f af f1          	imul   %rcx,%rsi
    2ca4:	83 c7 01             	add    $0x1,%edi
    2ca7:	48 89 f0             	mov    %rsi,%rax
    2caa:	48 f7 e1             	mul    %rcx
    2cad:	71 f1                	jno    2ca0 <mpn_set_str+0x50>
    2caf:	89 3c 24             	mov    %edi,(%rsp)
    2cb2:	49 89 e0             	mov    %rsp,%r8
    2cb5:	4c 89 ca             	mov    %r9,%rdx
    2cb8:	4c 89 d7             	mov    %r10,%rdi
    2cbb:	48 89 74 24 08       	mov    %rsi,0x8(%rsp)
    2cc0:	4c 89 de             	mov    %r11,%rsi
    2cc3:	e8 b8 e1 ff ff       	call   e80 <mpn_set_str_other>
    2cc8:	48 8b 54 24 18       	mov    0x18(%rsp),%rdx
    2ccd:	64 48 2b 14 25 28 00 	sub    %fs:0x28,%rdx
    2cd4:	00 00 
    2cd6:	75 34                	jne    2d0c <mpn_set_str+0xbc>
    2cd8:	48 83 c4 28          	add    $0x28,%rsp
    2cdc:	c3                   	ret    
    2cdd:	0f 1f 00             	nopl   (%rax)
    2ce0:	48 8b 44 24 18       	mov    0x18(%rsp),%rax
    2ce5:	64 48 2b 04 25 28 00 	sub    %fs:0x28,%rax
    2cec:	00 00 
    2cee:	75 1c                	jne    2d0c <mpn_set_str+0xbc>
    2cf0:	44 89 c1             	mov    %r8d,%ecx
    2cf3:	4c 89 ca             	mov    %r9,%rdx
    2cf6:	4c 89 d7             	mov    %r10,%rdi
    2cf9:	48 83 c4 28          	add    $0x28,%rsp
    2cfd:	e9 ae d3 ff ff       	jmp    b0 <mpn_set_str_bits>
    2d02:	66 0f 1f 44 00 00    	nopw   0x0(%rax,%rax,1)
    2d08:	31 c0                	xor    %eax,%eax
    2d0a:	eb bc                	jmp    2cc8 <mpn_set_str+0x78>
    2d0c:	e8 00 00 00 00       	call   2d11 <mpn_set_str+0xc1>
    2d11:	66 66 2e 0f 1f 84 00 	data16 cs nopw 0x0(%rax,%rax,1)
    2d18:	00 00 00 00 
    2d1c:	0f 1f 40 00          	nopl   0x0(%rax)

0000000000002d20 <mpz_init>:
    2d20:	f3 0f 1e fa          	endbr64 
    2d24:	48 8d 05 00 00 00 00 	lea    0x0(%rip),%rax        # 2d2b <mpz_init+0xb>
    2d2b:	48 c7 07 00 00 00 00 	movq   $0x0,(%rdi)
    2d32:	48 89 47 08          	mov    %rax,0x8(%rdi)
    2d36:	c3                   	ret    
    2d37:	66 0f 1f 84 00 00 00 	nopw   0x0(%rax,%rax,1)
    2d3e:	00 00 

0000000000002d40 <mpz_init2>:
    2d40:	f3 0f 1e fa          	endbr64 
    2d44:	48 83 fe 01          	cmp    $0x1,%rsi
    2d48:	53                   	push   %rbx
    2d49:	48 89 fb             	mov    %rdi,%rbx
    2d4c:	48 83 d6 ff          	adc    $0xffffffffffffffff,%rsi
    2d50:	c7 43 04 00 00 00 00 	movl   $0x0,0x4(%rbx)
    2d57:	48 c1 ee 06          	shr    $0x6,%rsi
    2d5b:	48 8d 7e 01          	lea    0x1(%rsi),%rdi
    2d5f:	89 3b                	mov    %edi,(%rbx)
    2d61:	48 c1 e7 03          	shl    $0x3,%rdi
    2d65:	ff 15 00 00 00 00    	call   *0x0(%rip)        # 2d6b <mpz_init2+0x2b>
    2d6b:	48 89 43 08          	mov    %rax,0x8(%rbx)
    2d6f:	5b                   	pop    %rbx
    2d70:	c3                   	ret    
    2d71:	66 66 2e 0f 1f 84 00 	data16 cs nopw 0x0(%rax,%rax,1)
    2d78:	00 00 00 00 
    2d7c:	0f 1f 40 00          	nopl   0x0(%rax)

0000000000002d80 <mpz_clear>:
    2d80:	f3 0f 1e fa          	endbr64 
    2d84:	48 63 37             	movslq (%rdi),%rsi
    2d87:	85 f6                	test   %esi,%esi
    2d89:	74 15                	je     2da0 <mpz_clear+0x20>
    2d8b:	48 8b 7f 08          	mov    0x8(%rdi),%rdi
    2d8f:	48 c1 e6 03          	shl    $0x3,%rsi
    2d93:	ff 25 00 00 00 00    	jmp    *0x0(%rip)        # 2d99 <mpz_clear+0x19>
    2d99:	0f 1f 80 00 00 00 00 	nopl   0x0(%rax)
    2da0:	c3                   	ret    
    2da1:	66 66 2e 0f 1f 84 00 	data16 cs nopw 0x0(%rax,%rax,1)
    2da8:	00 00 00 00 
    2dac:	0f 1f 40 00          	nopl   0x0(%rax)

0000000000002db0 <mpz_set_si>:
    2db0:	f3 0f 1e fa          	endbr64 
    2db4:	53                   	push   %rbx
    2db5:	48 89 f3             	mov    %rsi,%rbx
    2db8:	48 85 f6             	test   %rsi,%rsi
    2dbb:	78 2b                	js     2de8 <mpz_set_si+0x38>
    2dbd:	74 19                	je     2dd8 <mpz_set_si+0x28>
    2dbf:	8b 17                	mov    (%rdi),%edx
    2dc1:	c7 47 04 01 00 00 00 	movl   $0x1,0x4(%rdi)
    2dc8:	85 d2                	test   %edx,%edx
    2dca:	7e 44                	jle    2e10 <mpz_set_si+0x60>
    2dcc:	48 8b 47 08          	mov    0x8(%rdi),%rax
    2dd0:	48 89 18             	mov    %rbx,(%rax)
    2dd3:	5b                   	pop    %rbx
    2dd4:	c3                   	ret    
    2dd5:	0f 1f 00             	nopl   (%rax)
    2dd8:	c7 47 04 00 00 00 00 	movl   $0x0,0x4(%rdi)
    2ddf:	5b                   	pop    %rbx
    2de0:	c3                   	ret    
    2de1:	0f 1f 80 00 00 00 00 	nopl   0x0(%rax)
    2de8:	8b 07                	mov    (%rdi),%eax
    2dea:	c7 47 04 ff ff ff ff 	movl   $0xffffffff,0x4(%rdi)
    2df1:	85 c0                	test   %eax,%eax
    2df3:	7e 0b                	jle    2e00 <mpz_set_si+0x50>
    2df5:	48 8b 47 08          	mov    0x8(%rdi),%rax
    2df9:	48 f7 db             	neg    %rbx
    2dfc:	eb d2                	jmp    2dd0 <mpz_set_si+0x20>
    2dfe:	66 90                	xchg   %ax,%ax
    2e00:	be 01 00 00 00       	mov    $0x1,%esi
    2e05:	e8 a6 d5 ff ff       	call   3b0 <mpz_realloc>
    2e0a:	eb ed                	jmp    2df9 <mpz_set_si+0x49>
    2e0c:	0f 1f 40 00          	nopl   0x0(%rax)
    2e10:	be 01 00 00 00       	mov    $0x1,%esi
    2e15:	e8 96 d5 ff ff       	call   3b0 <mpz_realloc>
    2e1a:	eb b4                	jmp    2dd0 <mpz_set_si+0x20>
    2e1c:	0f 1f 40 00          	nopl   0x0(%rax)

0000000000002e20 <mpz_set_ui>:
    2e20:	f3 0f 1e fa          	endbr64 
    2e24:	48 85 f6             	test   %rsi,%rsi
    2e27:	74 1f                	je     2e48 <mpz_set_ui+0x28>
    2e29:	8b 07                	mov    (%rdi),%eax
    2e2b:	53                   	push   %rbx
    2e2c:	48 89 f3             	mov    %rsi,%rbx
    2e2f:	c7 47 04 01 00 00 00 	movl   $0x1,0x4(%rdi)
    2e36:	85 c0                	test   %eax,%eax
    2e38:	7e 16                	jle    2e50 <mpz_set_ui+0x30>
    2e3a:	48 8b 47 08          	mov    0x8(%rdi),%rax
    2e3e:	48 89 18             	mov    %rbx,(%rax)
    2e41:	5b                   	pop    %rbx
    2e42:	c3                   	ret    
    2e43:	0f 1f 44 00 00       	nopl   0x0(%rax,%rax,1)
    2e48:	c7 47 04 00 00 00 00 	movl   $0x0,0x4(%rdi)
    2e4f:	c3                   	ret    
    2e50:	be 01 00 00 00       	mov    $0x1,%esi
    2e55:	e8 56 d5 ff ff       	call   3b0 <mpz_realloc>
    2e5a:	48 89 18             	mov    %rbx,(%rax)
    2e5d:	5b                   	pop    %rbx
    2e5e:	c3                   	ret    
    2e5f:	90                   	nop

0000000000002e60 <mpz_set>:
    2e60:	f3 0f 1e fa          	endbr64 
    2e64:	48 39 f7             	cmp    %rsi,%rdi
    2e67:	74 67                	je     2ed0 <mpz_set+0x70>
    2e69:	41 55                	push   %r13
    2e6b:	41 54                	push   %r12
    2e6d:	49 89 f4             	mov    %rsi,%r12
    2e70:	55                   	push   %rbp
    2e71:	48 89 fd             	mov    %rdi,%rbp
    2e74:	53                   	push   %rbx
    2e75:	48 83 ec 08          	sub    $0x8,%rsp
    2e79:	44 8b 6e 04          	mov    0x4(%rsi),%r13d
    2e7d:	44 89 e8             	mov    %r13d,%eax
    2e80:	f7 d8                	neg    %eax
    2e82:	41 0f 48 c5          	cmovs  %r13d,%eax
    2e86:	48 63 d8             	movslq %eax,%rbx
    2e89:	3b 07                	cmp    (%rdi),%eax
    2e8b:	7f 33                	jg     2ec0 <mpz_set+0x60>
    2e8d:	48 8b 47 08          	mov    0x8(%rdi),%rax
    2e91:	44 89 ef             	mov    %r13d,%edi
    2e94:	49 8b 74 24 08       	mov    0x8(%r12),%rsi
    2e99:	31 d2                	xor    %edx,%edx
    2e9b:	45 85 ed             	test   %r13d,%r13d
    2e9e:	74 11                	je     2eb1 <mpz_set+0x51>
    2ea0:	48 8b 0c d6          	mov    (%rsi,%rdx,8),%rcx
    2ea4:	48 89 0c d0          	mov    %rcx,(%rax,%rdx,8)
    2ea8:	48 83 c2 01          	add    $0x1,%rdx
    2eac:	48 39 d3             	cmp    %rdx,%rbx
    2eaf:	75 ef                	jne    2ea0 <mpz_set+0x40>
    2eb1:	89 7d 04             	mov    %edi,0x4(%rbp)
    2eb4:	48 83 c4 08          	add    $0x8,%rsp
    2eb8:	5b                   	pop    %rbx
    2eb9:	5d                   	pop    %rbp
    2eba:	41 5c                	pop    %r12
    2ebc:	41 5d                	pop    %r13
    2ebe:	c3                   	ret    
    2ebf:	90                   	nop
    2ec0:	48 89 de             	mov    %rbx,%rsi
    2ec3:	e8 e8 d4 ff ff       	call   3b0 <mpz_realloc>
    2ec8:	41 8b 7c 24 04       	mov    0x4(%r12),%edi
    2ecd:	eb c5                	jmp    2e94 <mpz_set+0x34>
    2ecf:	90                   	nop
    2ed0:	c3                   	ret    
    2ed1:	66 66 2e 0f 1f 84 00 	data16 cs nopw 0x0(%rax,%rax,1)
    2ed8:	00 00 00 00 
    2edc:	0f 1f 40 00          	nopl   0x0(%rax)

0000000000002ee0 <mpz_div_q_2exp>:
    2ee0:	41 57                	push   %r15
    2ee2:	41 56                	push   %r14
    2ee4:	41 55                	push   %r13
    2ee6:	41 54                	push   %r12
    2ee8:	55                   	push   %rbp
    2ee9:	48 89 fd             	mov    %rdi,%rbp
    2eec:	53                   	push   %rbx
    2eed:	48 83 ec 38          	sub    $0x38,%rsp
    2ef1:	4c 63 6e 04          	movslq 0x4(%rsi),%r13
    2ef5:	64 48 8b 04 25 28 00 	mov    %fs:0x28,%rax
    2efc:	00 00 
    2efe:	48 89 44 24 28       	mov    %rax,0x28(%rsp)
    2f03:	31 c0                	xor    %eax,%eax
    2f05:	4d 85 ed             	test   %r13,%r13
    2f08:	0f 84 fa 00 00 00    	je     3008 <mpz_div_q_2exp+0x128>
    2f0e:	48 89 d7             	mov    %rdx,%rdi
    2f11:	44 89 eb             	mov    %r13d,%ebx
    2f14:	49 89 f4             	mov    %rsi,%r12
    2f17:	48 c1 ef 06          	shr    $0x6,%rdi
    2f1b:	f7 db                	neg    %ebx
    2f1d:	41 0f 48 dd          	cmovs  %r13d,%ebx
    2f21:	31 f6                	xor    %esi,%esi
    2f23:	83 e2 3f             	and    $0x3f,%edx
    2f26:	48 89 f8             	mov    %rdi,%rax
    2f29:	89 db                	mov    %ebx,%ebx
    2f2b:	48 29 fb             	sub    %rdi,%rbx
    2f2e:	4d 85 ed             	test   %r13,%r13
    2f31:	40 0f 9f c6          	setg   %sil
    2f35:	39 f1                	cmp    %esi,%ecx
    2f37:	0f 84 8b 00 00 00    	je     2fc8 <mpz_div_q_2exp+0xe8>
    2f3d:	48 85 db             	test   %rbx,%rbx
    2f40:	0f 8e 8a 01 00 00    	jle    30d0 <mpz_div_q_2exp+0x1f0>
    2f46:	4c 8d 04 fd 00 00 00 	lea    0x0(,%rdi,8),%r8
    2f4d:	00 
    2f4e:	45 31 ff             	xor    %r15d,%r15d
    2f51:	48 63 45 00          	movslq 0x0(%rbp),%rax
    2f55:	48 39 d8             	cmp    %rbx,%rax
    2f58:	0f 8c 82 01 00 00    	jl     30e0 <mpz_div_q_2exp+0x200>
    2f5e:	4c 8b 75 08          	mov    0x8(%rbp),%r14
    2f62:	31 c0                	xor    %eax,%eax
    2f64:	4d 03 44 24 08       	add    0x8(%r12),%r8
    2f69:	48 85 d2             	test   %rdx,%rdx
    2f6c:	0f 85 9e 01 00 00    	jne    3110 <mpz_div_q_2exp+0x230>
    2f72:	66 0f 1f 44 00 00    	nopw   0x0(%rax,%rax,1)
    2f78:	49 8b 14 c0          	mov    (%r8,%rax,8),%rdx
    2f7c:	49 89 14 c6          	mov    %rdx,(%r14,%rax,8)
    2f80:	48 83 c0 01          	add    $0x1,%rax
    2f84:	48 39 c3             	cmp    %rax,%rbx
    2f87:	7f ef                	jg     2f78 <mpz_div_q_2exp+0x98>
    2f89:	89 5d 04             	mov    %ebx,0x4(%rbp)
    2f8c:	45 85 ff             	test   %r15d,%r15d
    2f8f:	0f 85 8a 00 00 00    	jne    301f <mpz_div_q_2exp+0x13f>
    2f95:	4d 85 ed             	test   %r13,%r13
    2f98:	0f 88 0a 01 00 00    	js     30a8 <mpz_div_q_2exp+0x1c8>
    2f9e:	48 8b 44 24 28       	mov    0x28(%rsp),%rax
    2fa3:	64 48 2b 04 25 28 00 	sub    %fs:0x28,%rax
    2faa:	00 00 
    2fac:	0f 85 a5 01 00 00    	jne    3157 <mpz_div_q_2exp+0x277>
    2fb2:	48 83 c4 38          	add    $0x38,%rsp
    2fb6:	5b                   	pop    %rbx
    2fb7:	5d                   	pop    %rbp
    2fb8:	41 5c                	pop    %r12
    2fba:	41 5d                	pop    %r13
    2fbc:	41 5e                	pop    %r14
    2fbe:	41 5f                	pop    %r15
    2fc0:	c3                   	ret    
    2fc1:	0f 1f 80 00 00 00 00 	nopl   0x0(%rax)
    2fc8:	48 85 db             	test   %rbx,%rbx
    2fcb:	7e 4b                	jle    3018 <mpz_div_q_2exp+0x138>
    2fcd:	49 8b 74 24 08       	mov    0x8(%r12),%rsi
    2fd2:	48 85 ff             	test   %rdi,%rdi
    2fd5:	75 13                	jne    2fea <mpz_div_q_2exp+0x10a>
    2fd7:	e9 54 01 00 00       	jmp    3130 <mpz_div_q_2exp+0x250>
    2fdc:	0f 1f 40 00          	nopl   0x0(%rax)
    2fe0:	48 83 e8 01          	sub    $0x1,%rax
    2fe4:	0f 84 46 01 00 00    	je     3130 <mpz_div_q_2exp+0x250>
    2fea:	48 83 7c c6 f8 00    	cmpq   $0x0,-0x8(%rsi,%rax,8)
    2ff0:	74 ee                	je     2fe0 <mpz_div_q_2exp+0x100>
    2ff2:	4c 8d 04 fd 00 00 00 	lea    0x0(,%rdi,8),%r8
    2ff9:	00 
    2ffa:	41 bf 01 00 00 00    	mov    $0x1,%r15d
    3000:	e9 4c ff ff ff       	jmp    2f51 <mpz_div_q_2exp+0x71>
    3005:	0f 1f 00             	nopl   (%rax)
    3008:	c7 47 04 00 00 00 00 	movl   $0x0,0x4(%rdi)
    300f:	eb 8d                	jmp    2f9e <mpz_div_q_2exp+0xbe>
    3011:	0f 1f 80 00 00 00 00 	nopl   0x0(%rax)
    3018:	c7 45 04 00 00 00 00 	movl   $0x0,0x4(%rbp)
    301f:	48 8d 05 00 00 00 00 	lea    0x0(%rip),%rax        # 3026 <mpz_div_q_2exp+0x146>
    3026:	4c 8d 64 24 10       	lea    0x10(%rsp),%r12
    302b:	be 01 00 00 00       	mov    $0x1,%esi
    3030:	48 89 44 24 18       	mov    %rax,0x18(%rsp)
    3035:	4c 89 e7             	mov    %r12,%rdi
    3038:	48 b8 00 00 00 00 01 	movabs $0x100000000,%rax
    303f:	00 00 00 
    3042:	48 89 44 24 10       	mov    %rax,0x10(%rsp)
    3047:	e8 64 d3 ff ff       	call   3b0 <mpz_realloc>
    304c:	4c 89 e2             	mov    %r12,%rdx
    304f:	48 89 ee             	mov    %rbp,%rsi
    3052:	48 89 ef             	mov    %rbp,%rdi
    3055:	48 c7 00 01 00 00 00 	movq   $0x1,(%rax)
    305c:	8b 45 04             	mov    0x4(%rbp),%eax
    305f:	33 44 24 14          	xor    0x14(%rsp),%eax
    3063:	78 5b                	js     30c0 <mpz_div_q_2exp+0x1e0>
    3065:	e8 f6 d9 ff ff       	call   a60 <mpz_abs_add>
    306a:	89 c2                	mov    %eax,%edx
    306c:	8b 45 04             	mov    0x4(%rbp),%eax
    306f:	85 c0                	test   %eax,%eax
    3071:	79 02                	jns    3075 <mpz_div_q_2exp+0x195>
    3073:	f7 da                	neg    %edx
    3075:	48 63 44 24 10       	movslq 0x10(%rsp),%rax
    307a:	89 55 04             	mov    %edx,0x4(%rbp)
    307d:	85 c0                	test   %eax,%eax
    307f:	0f 84 10 ff ff ff    	je     2f95 <mpz_div_q_2exp+0xb5>
    3085:	48 8b 7c 24 18       	mov    0x18(%rsp),%rdi
    308a:	48 8d 34 c5 00 00 00 	lea    0x0(,%rax,8),%rsi
    3091:	00 
    3092:	ff 15 00 00 00 00    	call   *0x0(%rip)        # 3098 <mpz_div_q_2exp+0x1b8>
    3098:	4d 85 ed             	test   %r13,%r13
    309b:	0f 89 fd fe ff ff    	jns    2f9e <mpz_div_q_2exp+0xbe>
    30a1:	0f 1f 80 00 00 00 00 	nopl   0x0(%rax)
    30a8:	48 89 ee             	mov    %rbp,%rsi
    30ab:	48 89 ef             	mov    %rbp,%rdi
    30ae:	e8 00 00 00 00       	call   30b3 <mpz_div_q_2exp+0x1d3>
    30b3:	f7 5d 04             	negl   0x4(%rbp)
    30b6:	e9 e3 fe ff ff       	jmp    2f9e <mpz_div_q_2exp+0xbe>
    30bb:	0f 1f 44 00 00       	nopl   0x0(%rax,%rax,1)
    30c0:	e8 5b db ff ff       	call   c20 <mpz_abs_sub>
    30c5:	eb a3                	jmp    306a <mpz_div_q_2exp+0x18a>
    30c7:	66 0f 1f 84 00 00 00 	nopw   0x0(%rax,%rax,1)
    30ce:	00 00 
    30d0:	c7 45 04 00 00 00 00 	movl   $0x0,0x4(%rbp)
    30d7:	e9 b9 fe ff ff       	jmp    2f95 <mpz_div_q_2exp+0xb5>
    30dc:	0f 1f 40 00          	nopl   0x0(%rax)
    30e0:	48 89 de             	mov    %rbx,%rsi
    30e3:	48 89 ef             	mov    %rbp,%rdi
    30e6:	4c 89 44 24 08       	mov    %r8,0x8(%rsp)
    30eb:	48 89 14 24          	mov    %rdx,(%rsp)
    30ef:	e8 bc d2 ff ff       	call   3b0 <mpz_realloc>
    30f4:	48 8b 14 24          	mov    (%rsp),%rdx
    30f8:	4c 8b 44 24 08       	mov    0x8(%rsp),%r8
    30fd:	49 89 c6             	mov    %rax,%r14
    3100:	4d 03 44 24 08       	add    0x8(%r12),%r8
    3105:	31 c0                	xor    %eax,%eax
    3107:	48 85 d2             	test   %rdx,%rdx
    310a:	0f 84 68 fe ff ff    	je     2f78 <mpz_div_q_2exp+0x98>
    3110:	89 d1                	mov    %edx,%ecx
    3112:	4c 89 c6             	mov    %r8,%rsi
    3115:	48 89 da             	mov    %rbx,%rdx
    3118:	4c 89 f7             	mov    %r14,%rdi
    311b:	e8 00 00 00 00       	call   3120 <mpz_div_q_2exp+0x240>
    3120:	49 83 7c de f8 01    	cmpq   $0x1,-0x8(%r14,%rbx,8)
    3126:	48 83 db 00          	sbb    $0x0,%rbx
    312a:	e9 5a fe ff ff       	jmp    2f89 <mpz_div_q_2exp+0xa9>
    312f:	90                   	nop
    3130:	48 c7 c0 ff ff ff ff 	mov    $0xffffffffffffffff,%rax
    3137:	89 d1                	mov    %edx,%ecx
    3139:	45 31 ff             	xor    %r15d,%r15d
    313c:	48 d3 e0             	shl    %cl,%rax
    313f:	4c 8d 04 fd 00 00 00 	lea    0x0(,%rdi,8),%r8
    3146:	00 
    3147:	48 f7 d0             	not    %rax
    314a:	48 23 04 fe          	and    (%rsi,%rdi,8),%rax
    314e:	41 0f 95 c7          	setne  %r15b
    3152:	e9 fa fd ff ff       	jmp    2f51 <mpz_div_q_2exp+0x71>
    3157:	e8 00 00 00 00       	call   315c <mpz_div_q_2exp+0x27c>
    315c:	0f 1f 40 00          	nopl   0x0(%rax)

0000000000003160 <mpz_make_odd>:
    3160:	41 54                	push   %r12
    3162:	55                   	push   %rbp
    3163:	48 83 ec 08          	sub    $0x8,%rsp
    3167:	8b 47 04             	mov    0x4(%rdi),%eax
    316a:	85 c0                	test   %eax,%eax
    316c:	7e 3a                	jle    31a8 <mpz_make_odd+0x48>
    316e:	48 8b 47 08          	mov    0x8(%rdi),%rax
    3172:	48 89 fd             	mov    %rdi,%rbp
    3175:	45 31 c0             	xor    %r8d,%r8d
    3178:	31 c9                	xor    %ecx,%ecx
    317a:	31 f6                	xor    %esi,%esi
    317c:	48 8b 38             	mov    (%rax),%rdi
    317f:	48 89 c2             	mov    %rax,%rdx
    3182:	e8 29 d0 ff ff       	call   1b0 <mpn_common_scan>
    3187:	48 89 ee             	mov    %rbp,%rsi
    318a:	48 89 ef             	mov    %rbp,%rdi
    318d:	b9 02 00 00 00       	mov    $0x2,%ecx
    3192:	48 89 c2             	mov    %rax,%rdx
    3195:	49 89 c4             	mov    %rax,%r12
    3198:	e8 43 fd ff ff       	call   2ee0 <mpz_div_q_2exp>
    319d:	48 83 c4 08          	add    $0x8,%rsp
    31a1:	4c 89 e0             	mov    %r12,%rax
    31a4:	5d                   	pop    %rbp
    31a5:	41 5c                	pop    %r12
    31a7:	c3                   	ret    
    31a8:	48 8d 0d 00 00 00 00 	lea    0x0(%rip),%rcx        # 31af <mpz_make_odd+0x4f>
    31af:	ba ab 0a 00 00       	mov    $0xaab,%edx
    31b4:	48 8d 35 00 00 00 00 	lea    0x0(%rip),%rsi        # 31bb <mpz_make_odd+0x5b>
    31bb:	48 8d 3d 00 00 00 00 	lea    0x0(%rip),%rdi        # 31c2 <mpz_make_odd+0x62>
    31c2:	e8 00 00 00 00       	call   31c7 <mpz_make_odd+0x67>
    31c7:	66 0f 1f 84 00 00 00 	nopw   0x0(%rax,%rax,1)
    31ce:	00 00 

00000000000031d0 <mpz_init_set_si>:
    31d0:	f3 0f 1e fa          	endbr64 
    31d4:	48 8d 05 00 00 00 00 	lea    0x0(%rip),%rax        # 31db <mpz_init_set_si+0xb>
    31db:	53                   	push   %rbx
    31dc:	48 89 f3             	mov    %rsi,%rbx
    31df:	48 c7 07 00 00 00 00 	movq   $0x0,(%rdi)
    31e6:	48 89 47 08          	mov    %rax,0x8(%rdi)
    31ea:	48 85 f6             	test   %rsi,%rsi
    31ed:	78 21                	js     3210 <mpz_init_set_si+0x40>
    31ef:	74 14                	je     3205 <mpz_init_set_si+0x35>
    31f1:	c7 47 04 01 00 00 00 	movl   $0x1,0x4(%rdi)
    31f8:	be 01 00 00 00       	mov    $0x1,%esi
    31fd:	e8 ae d1 ff ff       	call   3b0 <mpz_realloc>
    3202:	48 89 18             	mov    %rbx,(%rax)
    3205:	5b                   	pop    %rbx
    3206:	c3                   	ret    
    3207:	66 0f 1f 84 00 00 00 	nopw   0x0(%rax,%rax,1)
    320e:	00 00 
    3210:	c7 47 04 ff ff ff ff 	movl   $0xffffffff,0x4(%rdi)
    3217:	be 01 00 00 00       	mov    $0x1,%esi
    321c:	48 f7 db             	neg    %rbx
    321f:	e8 8c d1 ff ff       	call   3b0 <mpz_realloc>
    3224:	48 89 18             	mov    %rbx,(%rax)
    3227:	5b                   	pop    %rbx
    3228:	c3                   	ret    
    3229:	0f 1f 80 00 00 00 00 	nopl   0x0(%rax)

0000000000003230 <mpz_init_set_ui>:
    3230:	f3 0f 1e fa          	endbr64 
    3234:	48 8d 05 00 00 00 00 	lea    0x0(%rip),%rax        # 323b <mpz_init_set_ui+0xb>
    323b:	48 c7 07 00 00 00 00 	movq   $0x0,(%rdi)
    3242:	48 89 47 08          	mov    %rax,0x8(%rdi)
    3246:	48 85 f6             	test   %rsi,%rsi
    3249:	74 1d                	je     3268 <mpz_init_set_ui+0x38>
    324b:	53                   	push   %rbx
    324c:	48 89 f3             	mov    %rsi,%rbx
    324f:	be 01 00 00 00       	mov    $0x1,%esi
    3254:	c7 47 04 01 00 00 00 	movl   $0x1,0x4(%rdi)
    325b:	e8 50 d1 ff ff       	call   3b0 <mpz_realloc>
    3260:	48 89 18             	mov    %rbx,(%rax)
    3263:	5b                   	pop    %rbx
    3264:	c3                   	ret    
    3265:	0f 1f 00             	nopl   (%rax)
    3268:	c3                   	ret    
    3269:	0f 1f 80 00 00 00 00 	nopl   0x0(%rax)

0000000000003270 <mpz_init_set>:
    3270:	f3 0f 1e fa          	endbr64 
    3274:	48 8d 05 00 00 00 00 	lea    0x0(%rip),%rax        # 327b <mpz_init_set+0xb>
    327b:	48 c7 07 00 00 00 00 	movq   $0x0,(%rdi)
    3282:	48 89 47 08          	mov    %rax,0x8(%rdi)
    3286:	e9 d5 fb ff ff       	jmp    2e60 <mpz_set>
    328b:	0f 1f 44 00 00       	nopl   0x0(%rax,%rax,1)

0000000000003290 <mpz_fits_slong_p>:
    3290:	f3 0f 1e fa          	endbr64 
    3294:	8b 47 04             	mov    0x4(%rdi),%eax
    3297:	48 8b 57 08          	mov    0x8(%rdi),%rdx
    329b:	45 31 c0             	xor    %r8d,%r8d
    329e:	85 c0                	test   %eax,%eax
    32a0:	78 4e                	js     32f0 <mpz_fits_slong_p+0x60>
    32a2:	83 f8 01             	cmp    $0x1,%eax
    32a5:	7e 09                	jle    32b0 <mpz_fits_slong_p+0x20>
    32a7:	44 89 c0             	mov    %r8d,%eax
    32aa:	c3                   	ret    
    32ab:	0f 1f 44 00 00       	nopl   0x0(%rax,%rax,1)
    32b0:	41 b8 01 00 00 00    	mov    $0x1,%r8d
    32b6:	85 c0                	test   %eax,%eax
    32b8:	74 ed                	je     32a7 <mpz_fits_slong_p+0x17>
    32ba:	48 b9 fe ff ff ff ff 	movabs $0x7ffffffffffffffe,%rcx
    32c1:	ff ff 7f 
    32c4:	48 8b 12             	mov    (%rdx),%rdx
    32c7:	48 89 d0             	mov    %rdx,%rax
    32ca:	48 c1 e8 3f          	shr    $0x3f,%rax
    32ce:	48 39 ca             	cmp    %rcx,%rdx
    32d1:	0f 96 c2             	setbe  %dl
    32d4:	45 31 c0             	xor    %r8d,%r8d
    32d7:	0f b6 d2             	movzbl %dl,%edx
    32da:	29 d0                	sub    %edx,%eax
    32dc:	83 f8 01             	cmp    $0x1,%eax
    32df:	41 0f 95 c0          	setne  %r8b
    32e3:	44 89 c0             	mov    %r8d,%eax
    32e6:	c3                   	ret    
    32e7:	66 0f 1f 84 00 00 00 	nopw   0x0(%rax,%rax,1)
    32ee:	00 00 
    32f0:	83 f8 ff             	cmp    $0xffffffff,%eax
    32f3:	75 b2                	jne    32a7 <mpz_fits_slong_p+0x17>
    32f5:	48 8b 02             	mov    (%rdx),%rax
    32f8:	48 ba 00 00 00 00 00 	movabs $0x8000000000000000,%rdx
    32ff:	00 00 80 
    3302:	48 39 d0             	cmp    %rdx,%rax
    3305:	48 f7 d0             	not    %rax
    3308:	0f 97 c2             	seta   %dl
    330b:	48 c1 e8 3f          	shr    $0x3f,%rax
    330f:	45 31 c0             	xor    %r8d,%r8d
    3312:	0f b6 d2             	movzbl %dl,%edx
    3315:	29 c2                	sub    %eax,%edx
    3317:	83 fa 01             	cmp    $0x1,%edx
    331a:	41 0f 95 c0          	setne  %r8b
    331e:	eb 87                	jmp    32a7 <mpz_fits_slong_p+0x17>

0000000000003320 <mpz_fits_ulong_p>:
    3320:	f3 0f 1e fa          	endbr64 
    3324:	48 63 47 04          	movslq 0x4(%rdi),%rax
    3328:	48 83 f8 01          	cmp    $0x1,%rax
    332c:	0f 96 c0             	setbe  %al
    332f:	0f b6 c0             	movzbl %al,%eax
    3332:	c3                   	ret    
    3333:	66 66 2e 0f 1f 84 00 	data16 cs nopw 0x0(%rax,%rax,1)
    333a:	00 00 00 00 
    333e:	66 90                	xchg   %ax,%ax

0000000000003340 <mpz_fits_sint_p>:
    3340:	f3 0f 1e fa          	endbr64 
    3344:	8b 47 04             	mov    0x4(%rdi),%eax
    3347:	48 8b 57 08          	mov    0x8(%rdi),%rdx
    334b:	45 31 c0             	xor    %r8d,%r8d
    334e:	85 c0                	test   %eax,%eax
    3350:	78 4e                	js     33a0 <mpz_fits_sint_p+0x60>
    3352:	83 f8 01             	cmp    $0x1,%eax
    3355:	7e 09                	jle    3360 <mpz_fits_sint_p+0x20>
    3357:	44 89 c0             	mov    %r8d,%eax
    335a:	c3                   	ret    
    335b:	0f 1f 44 00 00       	nopl   0x0(%rax,%rax,1)
    3360:	41 b8 01 00 00 00    	mov    $0x1,%r8d
    3366:	85 c0                	test   %eax,%eax
    3368:	74 ed                	je     3357 <mpz_fits_sint_p+0x17>
    336a:	48 8b 12             	mov    (%rdx),%rdx
    336d:	31 c0                	xor    %eax,%eax
    336f:	48 81 fa ff ff ff 7f 	cmp    $0x7fffffff,%rdx
    3376:	0f 97 c0             	seta   %al
    3379:	48 81 fa fe ff ff 7f 	cmp    $0x7ffffffe,%rdx
    3380:	0f 96 c2             	setbe  %dl
    3383:	45 31 c0             	xor    %r8d,%r8d
    3386:	0f b6 d2             	movzbl %dl,%edx
    3389:	29 d0                	sub    %edx,%eax
    338b:	83 f8 01             	cmp    $0x1,%eax
    338e:	41 0f 95 c0          	setne  %r8b
    3392:	44 89 c0             	mov    %r8d,%eax
    3395:	c3                   	ret    
    3396:	66 2e 0f 1f 84 00 00 	cs nopw 0x0(%rax,%rax,1)
    339d:	00 00 00 
    33a0:	83 f8 ff             	cmp    $0xffffffff,%eax
    33a3:	75 b2                	jne    3357 <mpz_fits_sint_p+0x17>
    33a5:	b8 00 00 00 80       	mov    $0x80000000,%eax
    33aa:	48 39 02             	cmp    %rax,(%rdx)
    33ad:	0f 97 c0             	seta   %al
    33b0:	0f b6 c0             	movzbl %al,%eax
    33b3:	83 d8 00             	sbb    $0x0,%eax
    33b6:	45 31 c0             	xor    %r8d,%r8d
    33b9:	83 f8 01             	cmp    $0x1,%eax
    33bc:	41 0f 95 c0          	setne  %r8b
    33c0:	eb 95                	jmp    3357 <mpz_fits_sint_p+0x17>
    33c2:	66 66 2e 0f 1f 84 00 	data16 cs nopw 0x0(%rax,%rax,1)
    33c9:	00 00 00 00 
    33cd:	0f 1f 00             	nopl   (%rax)

00000000000033d0 <mpz_fits_uint_p>:
    33d0:	f3 0f 1e fa          	endbr64 
    33d4:	8b 57 04             	mov    0x4(%rdi),%edx
    33d7:	31 c0                	xor    %eax,%eax
    33d9:	83 fa 01             	cmp    $0x1,%edx
    33dc:	76 02                	jbe    33e0 <mpz_fits_uint_p+0x10>
    33de:	c3                   	ret    
    33df:	90                   	nop
    33e0:	b8 01 00 00 00       	mov    $0x1,%eax
    33e5:	85 d2                	test   %edx,%edx
    33e7:	74 f5                	je     33de <mpz_fits_uint_p+0xe>
    33e9:	48 8b 47 08          	mov    0x8(%rdi),%rax
    33ed:	b9 fe ff ff ff       	mov    $0xfffffffe,%ecx
    33f2:	48 8b 10             	mov    (%rax),%rdx
    33f5:	48 89 d0             	mov    %rdx,%rax
    33f8:	48 c1 e8 20          	shr    $0x20,%rax
    33fc:	0f 95 c0             	setne  %al
    33ff:	48 39 ca             	cmp    %rcx,%rdx
    3402:	0f 96 c2             	setbe  %dl
    3405:	0f b6 c0             	movzbl %al,%eax
    3408:	0f b6 d2             	movzbl %dl,%edx
    340b:	29 d0                	sub    %edx,%eax
    340d:	83 f8 01             	cmp    $0x1,%eax
    3410:	0f 95 c0             	setne  %al
    3413:	0f b6 c0             	movzbl %al,%eax
    3416:	c3                   	ret    
    3417:	66 0f 1f 84 00 00 00 	nopw   0x0(%rax,%rax,1)
    341e:	00 00 

0000000000003420 <mpz_fits_sshort_p>:
    3420:	f3 0f 1e fa          	endbr64 
    3424:	8b 47 04             	mov    0x4(%rdi),%eax
    3427:	48 8b 57 08          	mov    0x8(%rdi),%rdx
    342b:	45 31 c0             	xor    %r8d,%r8d
    342e:	85 c0                	test   %eax,%eax
    3430:	78 4e                	js     3480 <mpz_fits_sshort_p+0x60>
    3432:	83 f8 01             	cmp    $0x1,%eax
    3435:	7e 09                	jle    3440 <mpz_fits_sshort_p+0x20>
    3437:	44 89 c0             	mov    %r8d,%eax
    343a:	c3                   	ret    
    343b:	0f 1f 44 00 00       	nopl   0x0(%rax,%rax,1)
    3440:	41 b8 01 00 00 00    	mov    $0x1,%r8d
    3446:	85 c0                	test   %eax,%eax
    3448:	74 ed                	je     3437 <mpz_fits_sshort_p+0x17>
    344a:	48 8b 12             	mov    (%rdx),%rdx
    344d:	31 c0                	xor    %eax,%eax
    344f:	48 81 fa ff 7f 00 00 	cmp    $0x7fff,%rdx
    3456:	0f 97 c0             	seta   %al
    3459:	48 81 fa fe 7f 00 00 	cmp    $0x7ffe,%rdx
    3460:	0f 96 c2             	setbe  %dl
    3463:	45 31 c0             	xor    %r8d,%r8d
    3466:	0f b6 d2             	movzbl %dl,%edx
    3469:	29 d0                	sub    %edx,%eax
    346b:	83 f8 01             	cmp    $0x1,%eax
    346e:	41 0f 95 c0          	setne  %r8b
    3472:	44 89 c0             	mov    %r8d,%eax
    3475:	c3                   	ret    
    3476:	66 2e 0f 1f 84 00 00 	cs nopw 0x0(%rax,%rax,1)
    347d:	00 00 00 
    3480:	83 f8 ff             	cmp    $0xffffffff,%eax
    3483:	75 b2                	jne    3437 <mpz_fits_sshort_p+0x17>
    3485:	48 8b 12             	mov    (%rdx),%rdx
    3488:	31 c0                	xor    %eax,%eax
    348a:	48 81 fa 00 80 00 00 	cmp    $0x8000,%rdx
    3491:	0f 97 c0             	seta   %al
    3494:	48 81 fa ff 7f 00 00 	cmp    $0x7fff,%rdx
    349b:	eb c3                	jmp    3460 <mpz_fits_sshort_p+0x40>
    349d:	0f 1f 00             	nopl   (%rax)

00000000000034a0 <mpz_fits_ushort_p>:
    34a0:	f3 0f 1e fa          	endbr64 
    34a4:	8b 57 04             	mov    0x4(%rdi),%edx
    34a7:	31 c0                	xor    %eax,%eax
    34a9:	83 fa 01             	cmp    $0x1,%edx
    34ac:	76 02                	jbe    34b0 <mpz_fits_ushort_p+0x10>
    34ae:	c3                   	ret    
    34af:	90                   	nop
    34b0:	b8 01 00 00 00       	mov    $0x1,%eax
    34b5:	85 d2                	test   %edx,%edx
    34b7:	74 f5                	je     34ae <mpz_fits_ushort_p+0xe>
    34b9:	48 8b 47 08          	mov    0x8(%rdi),%rax
    34bd:	48 8b 10             	mov    (%rax),%rdx
    34c0:	31 c0                	xor    %eax,%eax
    34c2:	48 81 fa ff ff 00 00 	cmp    $0xffff,%rdx
    34c9:	0f 97 c0             	seta   %al
    34cc:	48 81 fa fe ff 00 00 	cmp    $0xfffe,%rdx
    34d3:	0f 96 c2             	setbe  %dl
    34d6:	0f b6 d2             	movzbl %dl,%edx
    34d9:	29 d0                	sub    %edx,%eax
    34db:	83 f8 01             	cmp    $0x1,%eax
    34de:	0f 95 c0             	setne  %al
    34e1:	0f b6 c0             	movzbl %al,%eax
    34e4:	c3                   	ret    
    34e5:	66 66 2e 0f 1f 84 00 	data16 cs nopw 0x0(%rax,%rax,1)
    34ec:	00 00 00 00 

00000000000034f0 <mpz_get_si>:
    34f0:	f3 0f 1e fa          	endbr64 
    34f4:	8b 57 04             	mov    0x4(%rdi),%edx
    34f7:	31 c0                	xor    %eax,%eax
    34f9:	85 d2                	test   %edx,%edx
    34fb:	74 11                	je     350e <mpz_get_si+0x1e>
    34fd:	48 8b 47 08          	mov    0x8(%rdi),%rax
    3501:	48 8b 00             	mov    (%rax),%rax
    3504:	79 0a                	jns    3510 <mpz_get_si+0x20>
    3506:	48 f7 d8             	neg    %rax
    3509:	48 0f ba e8 3f       	bts    $0x3f,%rax
    350e:	c3                   	ret    
    350f:	90                   	nop
    3510:	48 0f ba f0 3f       	btr    $0x3f,%rax
    3515:	c3                   	ret    
    3516:	66 2e 0f 1f 84 00 00 	cs nopw 0x0(%rax,%rax,1)
    351d:	00 00 00 

0000000000003520 <mpz_get_ui>:
    3520:	f3 0f 1e fa          	endbr64 
    3524:	8b 57 04             	mov    0x4(%rdi),%edx
    3527:	31 c0                	xor    %eax,%eax
    3529:	85 d2                	test   %edx,%edx
    352b:	74 07                	je     3534 <mpz_get_ui+0x14>
    352d:	48 8b 47 08          	mov    0x8(%rdi),%rax
    3531:	48 8b 00             	mov    (%rax),%rax
    3534:	c3                   	ret    
    3535:	66 66 2e 0f 1f 84 00 	data16 cs nopw 0x0(%rax,%rax,1)
    353c:	00 00 00 00 

0000000000003540 <mpz_size>:
    3540:	f3 0f 1e fa          	endbr64 
    3544:	8b 57 04             	mov    0x4(%rdi),%edx
    3547:	89 d0                	mov    %edx,%eax
    3549:	f7 d8                	neg    %eax
    354b:	0f 48 c2             	cmovs  %edx,%eax
    354e:	48 98                	cltq   
    3550:	c3                   	ret    
    3551:	66 66 2e 0f 1f 84 00 	data16 cs nopw 0x0(%rax,%rax,1)
    3558:	00 00 00 00 
    355c:	0f 1f 40 00          	nopl   0x0(%rax)

0000000000003560 <mpz_getlimbn>:
    3560:	f3 0f 1e fa          	endbr64 
    3564:	45 31 c0             	xor    %r8d,%r8d
    3567:	48 85 f6             	test   %rsi,%rsi
    356a:	78 1d                	js     3589 <mpz_getlimbn+0x29>
    356c:	48 63 4f 04          	movslq 0x4(%rdi),%rcx
    3570:	89 c8                	mov    %ecx,%eax
    3572:	f7 d8                	neg    %eax
    3574:	85 c9                	test   %ecx,%ecx
    3576:	48 98                	cltq   
    3578:	48 0f 49 c1          	cmovns %rcx,%rax
    357c:	48 39 f0             	cmp    %rsi,%rax
    357f:	7e 08                	jle    3589 <mpz_getlimbn+0x29>
    3581:	48 8b 47 08          	mov    0x8(%rdi),%rax
    3585:	4c 8b 04 f0          	mov    (%rax,%rsi,8),%r8
    3589:	4c 89 c0             	mov    %r8,%rax
    358c:	c3                   	ret    
    358d:	0f 1f 00             	nopl   (%rax)

0000000000003590 <mpz_realloc2>:
    3590:	f3 0f 1e fa          	endbr64 
    3594:	48 83 fe 01          	cmp    $0x1,%rsi
    3598:	48 83 d6 ff          	adc    $0xffffffffffffffff,%rsi
    359c:	48 c1 ee 06          	shr    $0x6,%rsi
    35a0:	48 83 c6 01          	add    $0x1,%rsi
    35a4:	e9 07 ce ff ff       	jmp    3b0 <mpz_realloc>
    35a9:	0f 1f 80 00 00 00 00 	nopl   0x0(%rax)

00000000000035b0 <mpz_limbs_read>:
    35b0:	f3 0f 1e fa          	endbr64 
    35b4:	48 8b 47 08          	mov    0x8(%rdi),%rax
    35b8:	c3                   	ret    
    35b9:	0f 1f 80 00 00 00 00 	nopl   0x0(%rax)

00000000000035c0 <mpz_limbs_modify>:
    35c0:	f3 0f 1e fa          	endbr64 
    35c4:	48 85 f6             	test   %rsi,%rsi
    35c7:	7e 1c                	jle    35e5 <mpz_limbs_modify+0x25>
    35c9:	48 63 07             	movslq (%rdi),%rax
    35cc:	48 39 f0             	cmp    %rsi,%rax
    35cf:	7c 0f                	jl     35e0 <mpz_limbs_modify+0x20>
    35d1:	48 8b 47 08          	mov    0x8(%rdi),%rax
    35d5:	c3                   	ret    
    35d6:	66 2e 0f 1f 84 00 00 	cs nopw 0x0(%rax,%rax,1)
    35dd:	00 00 00 
    35e0:	e9 cb cd ff ff       	jmp    3b0 <mpz_realloc>
    35e5:	50                   	push   %rax
    35e6:	48 8d 0d 00 00 00 00 	lea    0x0(%rip),%rcx        # 35ed <mpz_limbs_modify+0x2d>
    35ed:	ba 88 06 00 00       	mov    $0x688,%edx
    35f2:	48 8d 35 00 00 00 00 	lea    0x0(%rip),%rsi        # 35f9 <mpz_limbs_modify+0x39>
    35f9:	48 8d 3d 00 00 00 00 	lea    0x0(%rip),%rdi        # 3600 <mpz_limbs_modify+0x40>
    3600:	e8 00 00 00 00       	call   3605 <mpz_limbs_modify+0x45>
    3605:	66 66 2e 0f 1f 84 00 	data16 cs nopw 0x0(%rax,%rax,1)
    360c:	00 00 00 00 

0000000000003610 <mpz_limbs_write>:
    3610:	f3 0f 1e fa          	endbr64 
    3614:	48 85 f6             	test   %rsi,%rsi
    3617:	7e 1c                	jle    3635 <mpz_limbs_write+0x25>
    3619:	48 63 07             	movslq (%rdi),%rax
    361c:	48 39 c6             	cmp    %rax,%rsi
    361f:	7f 0f                	jg     3630 <mpz_limbs_write+0x20>
    3621:	48 8b 47 08          	mov    0x8(%rdi),%rax
    3625:	c3                   	ret    
    3626:	66 2e 0f 1f 84 00 00 	cs nopw 0x0(%rax,%rax,1)
    362d:	00 00 00 
    3630:	e9 7b cd ff ff       	jmp    3b0 <mpz_realloc>
    3635:	50                   	push   %rax
    3636:	48 8d 0d 00 00 00 00 	lea    0x0(%rip),%rcx        # 363d <mpz_limbs_write+0x2d>
    363d:	ba 88 06 00 00       	mov    $0x688,%edx
    3642:	48 8d 35 00 00 00 00 	lea    0x0(%rip),%rsi        # 3649 <mpz_limbs_write+0x39>
    3649:	48 8d 3d 00 00 00 00 	lea    0x0(%rip),%rdi        # 3650 <mpz_limbs_write+0x40>
    3650:	e8 00 00 00 00       	call   3655 <mpz_limbs_write+0x45>
    3655:	66 66 2e 0f 1f 84 00 	data16 cs nopw 0x0(%rax,%rax,1)
    365c:	00 00 00 00 

0000000000003660 <mpz_limbs_finish>:
    3660:	f3 0f 1e fa          	endbr64 
    3664:	48 89 f0             	mov    %rsi,%rax
    3667:	48 8b 57 08          	mov    0x8(%rdi),%rdx
    366b:	48 f7 d8             	neg    %rax
    366e:	48 0f 48 c6          	cmovs  %rsi,%rax
    3672:	48 85 f6             	test   %rsi,%rsi
    3675:	75 0f                	jne    3686 <mpz_limbs_finish+0x26>
    3677:	eb 20                	jmp    3699 <mpz_limbs_finish+0x39>
    3679:	0f 1f 80 00 00 00 00 	nopl   0x0(%rax)
    3680:	48 83 e8 01          	sub    $0x1,%rax
    3684:	74 08                	je     368e <mpz_limbs_finish+0x2e>
    3686:	48 83 7c c2 f8 00    	cmpq   $0x0,-0x8(%rdx,%rax,8)
    368c:	74 f2                	je     3680 <mpz_limbs_finish+0x20>
    368e:	48 85 f6             	test   %rsi,%rsi
    3691:	79 02                	jns    3695 <mpz_limbs_finish+0x35>
    3693:	f7 d8                	neg    %eax
    3695:	89 47 04             	mov    %eax,0x4(%rdi)
    3698:	c3                   	ret    
    3699:	31 c0                	xor    %eax,%eax
    369b:	eb f8                	jmp    3695 <mpz_limbs_finish+0x35>
    369d:	0f 1f 00             	nopl   (%rax)

00000000000036a0 <mpz_roinit_n>:
    36a0:	f3 0f 1e fa          	endbr64 
    36a4:	48 89 d1             	mov    %rdx,%rcx
    36a7:	c7 07 00 00 00 00    	movl   $0x0,(%rdi)
    36ad:	48 89 f8             	mov    %rdi,%rax
    36b0:	48 f7 d9             	neg    %rcx
    36b3:	48 89 77 08          	mov    %rsi,0x8(%rdi)
    36b7:	48 0f 48 ca          	cmovs  %rdx,%rcx
    36bb:	48 85 d2             	test   %rdx,%rdx
    36be:	75 0e                	jne    36ce <mpz_roinit_n+0x2e>
    36c0:	eb 1f                	jmp    36e1 <mpz_roinit_n+0x41>
    36c2:	66 0f 1f 44 00 00    	nopw   0x0(%rax,%rax,1)
    36c8:	48 83 e9 01          	sub    $0x1,%rcx
    36cc:	74 08                	je     36d6 <mpz_roinit_n+0x36>
    36ce:	48 83 7c ce f8 00    	cmpq   $0x0,-0x8(%rsi,%rcx,8)
    36d4:	74 f2                	je     36c8 <mpz_roinit_n+0x28>
    36d6:	48 85 d2             	test   %rdx,%rdx
    36d9:	79 02                	jns    36dd <mpz_roinit_n+0x3d>
    36db:	f7 d9                	neg    %ecx
    36dd:	89 48 04             	mov    %ecx,0x4(%rax)
    36e0:	c3                   	ret    
    36e1:	31 c9                	xor    %ecx,%ecx
    36e3:	eb f8                	jmp    36dd <mpz_roinit_n+0x3d>
    36e5:	66 66 2e 0f 1f 84 00 	data16 cs nopw 0x0(%rax,%rax,1)
    36ec:	00 00 00 00 

00000000000036f0 <mpz_set_d>:
    36f0:	f3 0f 1e fa          	endbr64 
    36f4:	55                   	push   %rbp
    36f5:	48 89 fd             	mov    %rdi,%rbp
    36f8:	53                   	push   %rbx
    36f9:	48 83 ec 18          	sub    $0x18,%rsp
    36fd:	66 0f 2e c0          	ucomisd %xmm0,%xmm0
    3701:	0f 8a 59 01 00 00    	jp     3860 <mpz_set_d+0x170>
    3707:	66 0f 28 e0          	movapd %xmm0,%xmm4
    370b:	f2 0f 10 05 00 00 00 	movsd  0x0(%rip),%xmm0        # 3713 <mpz_set_d+0x23>
    3712:	00 
    3713:	f2 0f 59 c4          	mulsd  %xmm4,%xmm0
    3717:	66 0f 2e c4          	ucomisd %xmm4,%xmm0
    371b:	7a 06                	jp     3723 <mpz_set_d+0x33>
    371d:	0f 84 3d 01 00 00    	je     3860 <mpz_set_d+0x170>
    3723:	66 0f ef f6          	pxor   %xmm6,%xmm6
    3727:	66 0f 28 cc          	movapd %xmm4,%xmm1
    372b:	66 0f 28 c4          	movapd %xmm4,%xmm0
    372f:	f2 0f 10 2d 00 00 00 	movsd  0x0(%rip),%xmm5        # 3737 <mpz_set_d+0x47>
    3736:	00 
    3737:	f2 0f c2 ce 01       	cmpltsd %xmm6,%xmm1
    373c:	66 0f 57 05 00 00 00 	xorpd  0x0(%rip),%xmm0        # 3744 <mpz_set_d+0x54>
    3743:	00 
    3744:	66 0f 54 c1          	andpd  %xmm1,%xmm0
    3748:	66 0f 55 cc          	andnpd %xmm4,%xmm1
    374c:	66 0f 56 c1          	orpd   %xmm1,%xmm0
    3750:	66 0f 2f e8          	comisd %xmm0,%xmm5
    3754:	0f 87 06 01 00 00    	ja     3860 <mpz_set_d+0x170>
    375a:	f2 0f 10 1d 00 00 00 	movsd  0x0(%rip),%xmm3        # 3762 <mpz_set_d+0x72>
    3761:	00 
    3762:	f2 0f 10 0d 00 00 00 	movsd  0x0(%rip),%xmm1        # 376a <mpz_set_d+0x7a>
    3769:	00 
    376a:	bb 01 00 00 00       	mov    $0x1,%ebx
    376f:	66 0f 2f c3          	comisd %xmm3,%xmm0
    3773:	72 11                	jb     3786 <mpz_set_d+0x96>
    3775:	0f 1f 00             	nopl   (%rax)
    3778:	f2 0f 59 c1          	mulsd  %xmm1,%xmm0
    377c:	48 83 c3 01          	add    $0x1,%rbx
    3780:	66 0f 2f c3          	comisd %xmm3,%xmm0
    3784:	73 f2                	jae    3778 <mpz_set_d+0x88>
    3786:	48 63 45 00          	movslq 0x0(%rbp),%rax
    378a:	48 39 d8             	cmp    %rbx,%rax
    378d:	0f 8c 35 01 00 00    	jl     38c8 <mpz_set_d+0x1d8>
    3793:	48 8b 45 08          	mov    0x8(%rbp),%rax
    3797:	f2 0f 10 15 00 00 00 	movsd  0x0(%rip),%xmm2        # 379f <mpz_set_d+0xaf>
    379e:	00 
    379f:	66 0f 2f c2          	comisd %xmm2,%xmm0
    37a3:	0f 83 c7 00 00 00    	jae    3870 <mpz_set_d+0x180>
    37a9:	f2 48 0f 2c d0       	cvttsd2si %xmm0,%rdx
    37ae:	48 85 d2             	test   %rdx,%rdx
    37b1:	0f 88 d4 00 00 00    	js     388b <mpz_set_d+0x19b>
    37b7:	66 0f ef c9          	pxor   %xmm1,%xmm1
    37bb:	f2 48 0f 2a ca       	cvtsi2sd %rdx,%xmm1
    37c0:	f2 0f 5c c1          	subsd  %xmm1,%xmm0
    37c4:	66 0f 2f e8          	comisd %xmm0,%xmm5
    37c8:	0f 86 5b 01 00 00    	jbe    3929 <mpz_set_d+0x239>
    37ce:	48 89 54 d8 f8       	mov    %rdx,-0x8(%rax,%rbx,8)
    37d3:	48 8d 4b fe          	lea    -0x2(%rbx),%rcx
    37d7:	48 83 fb 01          	cmp    $0x1,%rbx
    37db:	0f 84 cf 00 00 00    	je     38b0 <mpz_set_d+0x1c0>
    37e1:	49 b8 00 00 00 00 00 	movabs $0x8000000000000000,%r8
    37e8:	00 00 80 
    37eb:	eb 32                	jmp    381f <mpz_set_d+0x12f>
    37ed:	0f 1f 00             	nopl   (%rax)
    37f0:	f2 48 0f 2c d0       	cvttsd2si %xmm0,%rdx
    37f5:	48 85 d2             	test   %rdx,%rdx
    37f8:	78 44                	js     383e <mpz_set_d+0x14e>
    37fa:	66 0f ef c9          	pxor   %xmm1,%xmm1
    37fe:	f2 48 0f 2a ca       	cvtsi2sd %rdx,%xmm1
    3803:	f2 0f 5c c1          	subsd  %xmm1,%xmm0
    3807:	66 0f 2f e8          	comisd %xmm0,%xmm5
    380b:	0f 86 f9 00 00 00    	jbe    390a <mpz_set_d+0x21a>
    3811:	48 89 14 c8          	mov    %rdx,(%rax,%rcx,8)
    3815:	48 83 e9 01          	sub    $0x1,%rcx
    3819:	0f 82 91 00 00 00    	jb     38b0 <mpz_set_d+0x1c0>
    381f:	f2 0f 59 c3          	mulsd  %xmm3,%xmm0
    3823:	66 0f 2f c2          	comisd %xmm2,%xmm0
    3827:	72 c7                	jb     37f0 <mpz_set_d+0x100>
    3829:	66 0f 28 c8          	movapd %xmm0,%xmm1
    382d:	f2 0f 5c ca          	subsd  %xmm2,%xmm1
    3831:	f2 48 0f 2c d1       	cvttsd2si %xmm1,%rdx
    3836:	4c 31 c2             	xor    %r8,%rdx
    3839:	48 85 d2             	test   %rdx,%rdx
    383c:	79 bc                	jns    37fa <mpz_set_d+0x10a>
    383e:	48 89 d6             	mov    %rdx,%rsi
    3841:	48 89 d7             	mov    %rdx,%rdi
    3844:	66 0f ef c9          	pxor   %xmm1,%xmm1
    3848:	48 d1 ee             	shr    %rsi
    384b:	83 e7 01             	and    $0x1,%edi
    384e:	48 09 fe             	or     %rdi,%rsi
    3851:	f2 48 0f 2a ce       	cvtsi2sd %rsi,%xmm1
    3856:	f2 0f 58 c9          	addsd  %xmm1,%xmm1
    385a:	eb a7                	jmp    3803 <mpz_set_d+0x113>
    385c:	0f 1f 40 00          	nopl   0x0(%rax)
    3860:	31 db                	xor    %ebx,%ebx
    3862:	89 5d 04             	mov    %ebx,0x4(%rbp)
    3865:	48 83 c4 18          	add    $0x18,%rsp
    3869:	5b                   	pop    %rbx
    386a:	5d                   	pop    %rbp
    386b:	c3                   	ret    
    386c:	0f 1f 40 00          	nopl   0x0(%rax)
    3870:	66 0f 28 c8          	movapd %xmm0,%xmm1
    3874:	f2 0f 5c ca          	subsd  %xmm2,%xmm1
    3878:	f2 48 0f 2c d1       	cvttsd2si %xmm1,%rdx
    387d:	48 0f ba fa 3f       	btc    $0x3f,%rdx
    3882:	48 85 d2             	test   %rdx,%rdx
    3885:	0f 89 2c ff ff ff    	jns    37b7 <mpz_set_d+0xc7>
    388b:	48 89 d1             	mov    %rdx,%rcx
    388e:	48 89 d6             	mov    %rdx,%rsi
    3891:	66 0f ef c9          	pxor   %xmm1,%xmm1
    3895:	48 d1 e9             	shr    %rcx
    3898:	83 e6 01             	and    $0x1,%esi
    389b:	48 09 f1             	or     %rsi,%rcx
    389e:	f2 48 0f 2a c9       	cvtsi2sd %rcx,%xmm1
    38a3:	f2 0f 58 c9          	addsd  %xmm1,%xmm1
    38a7:	e9 14 ff ff ff       	jmp    37c0 <mpz_set_d+0xd0>
    38ac:	0f 1f 40 00          	nopl   0x0(%rax)
    38b0:	89 d8                	mov    %ebx,%eax
    38b2:	f7 d8                	neg    %eax
    38b4:	66 0f 2f f4          	comisd %xmm4,%xmm6
    38b8:	0f 47 d8             	cmova  %eax,%ebx
    38bb:	89 5d 04             	mov    %ebx,0x4(%rbp)
    38be:	48 83 c4 18          	add    $0x18,%rsp
    38c2:	5b                   	pop    %rbx
    38c3:	5d                   	pop    %rbp
    38c4:	c3                   	ret    
    38c5:	0f 1f 00             	nopl   (%rax)
    38c8:	48 89 de             	mov    %rbx,%rsi
    38cb:	48 89 ef             	mov    %rbp,%rdi
    38ce:	f2 0f 11 64 24 08    	movsd  %xmm4,0x8(%rsp)
    38d4:	f2 0f 11 04 24       	movsd  %xmm0,(%rsp)
    38d9:	e8 d2 ca ff ff       	call   3b0 <mpz_realloc>
    38de:	48 8b 3d 00 00 00 00 	mov    0x0(%rip),%rdi        # 38e5 <mpz_set_d+0x1f5>
    38e5:	f2 0f 10 04 24       	movsd  (%rsp),%xmm0
    38ea:	66 0f ef f6          	pxor   %xmm6,%xmm6
    38ee:	48 8b 35 00 00 00 00 	mov    0x0(%rip),%rsi        # 38f5 <mpz_set_d+0x205>
    38f5:	f2 0f 10 64 24 08    	movsd  0x8(%rsp),%xmm4
    38fb:	66 48 0f 6e df       	movq   %rdi,%xmm3
    3900:	66 48 0f 6e ee       	movq   %rsi,%xmm5
    3905:	e9 8d fe ff ff       	jmp    3797 <mpz_set_d+0xa7>
    390a:	48 8d 0d 00 00 00 00 	lea    0x0(%rip),%rcx        # 3911 <mpz_set_d+0x221>
    3911:	ba d9 06 00 00       	mov    $0x6d9,%edx
    3916:	48 8d 35 00 00 00 00 	lea    0x0(%rip),%rsi        # 391d <mpz_set_d+0x22d>
    391d:	48 8d 3d 00 00 00 00 	lea    0x0(%rip),%rdi        # 3924 <mpz_set_d+0x234>
    3924:	e8 00 00 00 00       	call   3929 <mpz_set_d+0x239>
    3929:	48 8d 0d 00 00 00 00 	lea    0x0(%rip),%rcx        # 3930 <mpz_set_d+0x240>
    3930:	ba d1 06 00 00       	mov    $0x6d1,%edx
    3935:	48 8d 35 00 00 00 00 	lea    0x0(%rip),%rsi        # 393c <mpz_set_d+0x24c>
    393c:	48 8d 3d 00 00 00 00 	lea    0x0(%rip),%rdi        # 3943 <mpz_set_d+0x253>
    3943:	e8 00 00 00 00       	call   3948 <mpz_set_d+0x258>
    3948:	0f 1f 84 00 00 00 00 	nopl   0x0(%rax,%rax,1)
    394f:	00 

0000000000003950 <mpz_init_set_d>:
    3950:	f3 0f 1e fa          	endbr64 
    3954:	48 8d 05 00 00 00 00 	lea    0x0(%rip),%rax        # 395b <mpz_init_set_d+0xb>
    395b:	48 c7 07 00 00 00 00 	movq   $0x0,(%rdi)
    3962:	48 89 47 08          	mov    %rax,0x8(%rdi)
    3966:	e9 85 fd ff ff       	jmp    36f0 <mpz_set_d>
    396b:	0f 1f 44 00 00       	nopl   0x0(%rax,%rax,1)

0000000000003970 <mpz_get_d>:
    3970:	f3 0f 1e fa          	endbr64 
    3974:	44 8b 47 04          	mov    0x4(%rdi),%r8d
    3978:	66 0f ef c0          	pxor   %xmm0,%xmm0
    397c:	45 85 c0             	test   %r8d,%r8d
    397f:	0f 84 eb 00 00 00    	je     3a70 <mpz_get_d+0x100>
    3985:	44 89 c6             	mov    %r8d,%esi
    3988:	4c 8b 4f 08          	mov    0x8(%rdi),%r9
    398c:	48 b9 00 00 00 00 00 	movabs $0xff00000000000000,%rcx
    3993:	00 00 ff 
    3996:	f7 de                	neg    %esi
    3998:	41 0f 48 f0          	cmovs  %r8d,%esi
    399c:	31 d2                	xor    %edx,%edx
    399e:	8d 46 ff             	lea    -0x1(%rsi),%eax
    39a1:	48 98                	cltq   
    39a3:	49 8b 3c c1          	mov    (%r9,%rax,8),%rdi
    39a7:	48 89 f8             	mov    %rdi,%rax
    39aa:	48 85 cf             	test   %rcx,%rdi
    39ad:	0f 85 1d 01 00 00    	jne    3ad0 <mpz_get_d+0x160>
    39b3:	0f 1f 44 00 00       	nopl   0x0(%rax,%rax,1)
    39b8:	48 c1 e0 08          	shl    $0x8,%rax
    39bc:	83 c2 08             	add    $0x8,%edx
    39bf:	48 85 c8             	test   %rcx,%rax
    39c2:	74 f4                	je     39b8 <mpz_get_d+0x48>
    39c4:	48 85 c0             	test   %rax,%rax
    39c7:	78 0f                	js     39d8 <mpz_get_d+0x68>
    39c9:	0f 1f 80 00 00 00 00 	nopl   0x0(%rax)
    39d0:	83 c2 01             	add    $0x1,%edx
    39d3:	48 01 c0             	add    %rax,%rax
    39d6:	79 f8                	jns    39d0 <mpz_get_d+0x60>
    39d8:	83 ea 0b             	sub    $0xb,%edx
    39db:	0f 88 bf 00 00 00    	js     3aa0 <mpz_get_d+0x130>
    39e1:	48 85 ff             	test   %rdi,%rdi
    39e4:	0f 88 8e 00 00 00    	js     3a78 <mpz_get_d+0x108>
    39ea:	66 0f ef c0          	pxor   %xmm0,%xmm0
    39ee:	f2 48 0f 2a c7       	cvtsi2sd %rdi,%xmm0
    39f3:	83 ee 02             	sub    $0x2,%esi
    39f6:	48 63 c6             	movslq %esi,%rax
    39f9:	83 fe ff             	cmp    $0xffffffff,%esi
    39fc:	0f 84 be 00 00 00    	je     3ac0 <mpz_get_d+0x150>
    3a02:	f2 0f 10 15 00 00 00 	movsd  0x0(%rip),%xmm2        # 3a0a <mpz_get_d+0x9a>
    3a09:	00 
    3a0a:	48 c7 c7 ff ff ff ff 	mov    $0xffffffffffffffff,%rdi
    3a11:	eb 1c                	jmp    3a2f <mpz_get_d+0xbf>
    3a13:	0f 1f 44 00 00       	nopl   0x0(%rax,%rax,1)
    3a18:	66 0f ef c9          	pxor   %xmm1,%xmm1
    3a1c:	f2 48 0f 2a ce       	cvtsi2sd %rsi,%xmm1
    3a21:	f2 0f 58 c1          	addsd  %xmm1,%xmm0
    3a25:	48 83 e8 01          	sub    $0x1,%rax
    3a29:	0f 82 91 00 00 00    	jb     3ac0 <mpz_get_d+0x150>
    3a2f:	f2 0f 59 c2          	mulsd  %xmm2,%xmm0
    3a33:	85 d2                	test   %edx,%edx
    3a35:	7e ee                	jle    3a25 <mpz_get_d+0xb5>
    3a37:	49 8b 34 c1          	mov    (%r9,%rax,8),%rsi
    3a3b:	83 ea 40             	sub    $0x40,%edx
    3a3e:	79 0d                	jns    3a4d <mpz_get_d+0xdd>
    3a40:	89 d1                	mov    %edx,%ecx
    3a42:	49 89 fa             	mov    %rdi,%r10
    3a45:	f7 d9                	neg    %ecx
    3a47:	49 d3 e2             	shl    %cl,%r10
    3a4a:	4c 21 d6             	and    %r10,%rsi
    3a4d:	48 85 f6             	test   %rsi,%rsi
    3a50:	79 c6                	jns    3a18 <mpz_get_d+0xa8>
    3a52:	48 89 f1             	mov    %rsi,%rcx
    3a55:	83 e6 01             	and    $0x1,%esi
    3a58:	66 0f ef c9          	pxor   %xmm1,%xmm1
    3a5c:	48 d1 e9             	shr    %rcx
    3a5f:	48 09 f1             	or     %rsi,%rcx
    3a62:	f2 48 0f 2a c9       	cvtsi2sd %rcx,%xmm1
    3a67:	f2 0f 58 c9          	addsd  %xmm1,%xmm1
    3a6b:	eb b4                	jmp    3a21 <mpz_get_d+0xb1>
    3a6d:	0f 1f 00             	nopl   (%rax)
    3a70:	c3                   	ret    
    3a71:	0f 1f 80 00 00 00 00 	nopl   0x0(%rax)
    3a78:	48 89 f8             	mov    %rdi,%rax
    3a7b:	83 e7 01             	and    $0x1,%edi
    3a7e:	66 0f ef c0          	pxor   %xmm0,%xmm0
    3a82:	48 d1 e8             	shr    %rax
    3a85:	48 09 f8             	or     %rdi,%rax
    3a88:	f2 48 0f 2a c0       	cvtsi2sd %rax,%xmm0
    3a8d:	f2 0f 58 c0          	addsd  %xmm0,%xmm0
    3a91:	e9 5d ff ff ff       	jmp    39f3 <mpz_get_d+0x83>
    3a96:	66 2e 0f 1f 84 00 00 	cs nopw 0x0(%rax,%rax,1)
    3a9d:	00 00 00 
    3aa0:	89 d1                	mov    %edx,%ecx
    3aa2:	48 c7 c0 ff ff ff ff 	mov    $0xffffffffffffffff,%rax
    3aa9:	f7 d9                	neg    %ecx
    3aab:	48 d3 e0             	shl    %cl,%rax
    3aae:	48 21 c7             	and    %rax,%rdi
    3ab1:	48 85 ff             	test   %rdi,%rdi
    3ab4:	0f 89 30 ff ff ff    	jns    39ea <mpz_get_d+0x7a>
    3aba:	eb bc                	jmp    3a78 <mpz_get_d+0x108>
    3abc:	0f 1f 40 00          	nopl   0x0(%rax)
    3ac0:	45 85 c0             	test   %r8d,%r8d
    3ac3:	79 ab                	jns    3a70 <mpz_get_d+0x100>
    3ac5:	66 0f 57 05 00 00 00 	xorpd  0x0(%rip),%xmm0        # 3acd <mpz_get_d+0x15d>
    3acc:	00 
    3acd:	c3                   	ret    
    3ace:	66 90                	xchg   %ax,%ax
    3ad0:	48 85 ff             	test   %rdi,%rdi
    3ad3:	0f 89 f7 fe ff ff    	jns    39d0 <mpz_get_d+0x60>
    3ad9:	48 c7 c0 00 f8 ff ff 	mov    $0xfffffffffffff800,%rax
    3ae0:	ba f5 ff ff ff       	mov    $0xfffffff5,%edx
    3ae5:	eb c7                	jmp    3aae <mpz_get_d+0x13e>
    3ae7:	66 0f 1f 84 00 00 00 	nopw   0x0(%rax,%rax,1)
    3aee:	00 00 

0000000000003af0 <mpz_cmpabs_d>:
    3af0:	f3 0f 1e fa          	endbr64 
    3af4:	66 0f ef e4          	pxor   %xmm4,%xmm4
    3af8:	8b 47 04             	mov    0x4(%rdi),%eax
    3afb:	66 0f 2f c4          	comisd %xmm4,%xmm0
    3aff:	73 08                	jae    3b09 <mpz_cmpabs_d+0x19>
    3b01:	66 0f 57 05 00 00 00 	xorpd  0x0(%rip),%xmm0        # 3b09 <mpz_cmpabs_d+0x19>
    3b08:	00 
    3b09:	85 c0                	test   %eax,%eax
    3b0b:	0f 84 af 00 00 00    	je     3bc0 <mpz_cmpabs_d+0xd0>
    3b11:	89 c2                	mov    %eax,%edx
    3b13:	f7 da                	neg    %edx
    3b15:	0f 49 c2             	cmovns %edx,%eax
    3b18:	89 c2                	mov    %eax,%edx
    3b1a:	83 f8 01             	cmp    $0x1,%eax
    3b1d:	74 1e                	je     3b3d <mpz_cmpabs_d+0x4d>
    3b1f:	f2 0f 10 0d 00 00 00 	movsd  0x0(%rip),%xmm1        # 3b27 <mpz_cmpabs_d+0x37>
    3b26:	00 
    3b27:	b8 01 00 00 00       	mov    $0x1,%eax
    3b2c:	0f 1f 40 00          	nopl   0x0(%rax)
    3b30:	f2 0f 59 c1          	mulsd  %xmm1,%xmm0
    3b34:	48 83 c0 01          	add    $0x1,%rax
    3b38:	48 39 c2             	cmp    %rax,%rdx
    3b3b:	75 f3                	jne    3b30 <mpz_cmpabs_d+0x40>
    3b3d:	f2 0f 10 1d 00 00 00 	movsd  0x0(%rip),%xmm3        # 3b45 <mpz_cmpabs_d+0x55>
    3b44:	00 
    3b45:	66 0f 2f c3          	comisd %xmm3,%xmm0
    3b49:	0f 83 a1 00 00 00    	jae    3bf0 <mpz_cmpabs_d+0x100>
    3b4f:	48 8b 77 08          	mov    0x8(%rdi),%rsi
    3b53:	f2 0f 10 15 00 00 00 	movsd  0x0(%rip),%xmm2        # 3b5b <mpz_cmpabs_d+0x6b>
    3b5a:	00 
    3b5b:	48 83 ea 01          	sub    $0x1,%rdx
    3b5f:	48 bf 00 00 00 00 00 	movabs $0x8000000000000000,%rdi
    3b66:	00 00 80 
    3b69:	eb 2e                	jmp    3b99 <mpz_cmpabs_d+0xa9>
    3b6b:	0f 1f 44 00 00       	nopl   0x0(%rax,%rax,1)
    3b70:	f2 48 0f 2c c0       	cvttsd2si %xmm0,%rax
    3b75:	48 3b 04 d6          	cmp    (%rsi,%rdx,8),%rax
    3b79:	72 3a                	jb     3bb5 <mpz_cmpabs_d+0xc5>
    3b7b:	77 73                	ja     3bf0 <mpz_cmpabs_d+0x100>
    3b7d:	48 85 c0             	test   %rax,%rax
    3b80:	78 4e                	js     3bd0 <mpz_cmpabs_d+0xe0>
    3b82:	66 0f ef c9          	pxor   %xmm1,%xmm1
    3b86:	f2 48 0f 2a c8       	cvtsi2sd %rax,%xmm1
    3b8b:	f2 0f 5c c1          	subsd  %xmm1,%xmm0
    3b8f:	f2 0f 59 c3          	mulsd  %xmm3,%xmm0
    3b93:	48 83 ea 01          	sub    $0x1,%rdx
    3b97:	72 27                	jb     3bc0 <mpz_cmpabs_d+0xd0>
    3b99:	66 0f 2f c2          	comisd %xmm2,%xmm0
    3b9d:	72 d1                	jb     3b70 <mpz_cmpabs_d+0x80>
    3b9f:	66 0f 28 c8          	movapd %xmm0,%xmm1
    3ba3:	f2 0f 5c ca          	subsd  %xmm2,%xmm1
    3ba7:	f2 48 0f 2c c1       	cvttsd2si %xmm1,%rax
    3bac:	48 31 f8             	xor    %rdi,%rax
    3baf:	48 3b 04 d6          	cmp    (%rsi,%rdx,8),%rax
    3bb3:	73 c6                	jae    3b7b <mpz_cmpabs_d+0x8b>
    3bb5:	b8 01 00 00 00       	mov    $0x1,%eax
    3bba:	c3                   	ret    
    3bbb:	0f 1f 44 00 00       	nopl   0x0(%rax,%rax,1)
    3bc0:	31 c0                	xor    %eax,%eax
    3bc2:	66 0f 2f c4          	comisd %xmm4,%xmm0
    3bc6:	0f 97 c0             	seta   %al
    3bc9:	f7 d8                	neg    %eax
    3bcb:	c3                   	ret    
    3bcc:	0f 1f 40 00          	nopl   0x0(%rax)
    3bd0:	48 89 c1             	mov    %rax,%rcx
    3bd3:	83 e0 01             	and    $0x1,%eax
    3bd6:	66 0f ef c9          	pxor   %xmm1,%xmm1
    3bda:	48 d1 e9             	shr    %rcx
    3bdd:	48 09 c1             	or     %rax,%rcx
    3be0:	f2 48 0f 2a c9       	cvtsi2sd %rcx,%xmm1
    3be5:	f2 0f 58 c9          	addsd  %xmm1,%xmm1
    3be9:	eb a0                	jmp    3b8b <mpz_cmpabs_d+0x9b>
    3beb:	0f 1f 44 00 00       	nopl   0x0(%rax,%rax,1)
    3bf0:	b8 ff ff ff ff       	mov    $0xffffffff,%eax
    3bf5:	c3                   	ret    
    3bf6:	66 2e 0f 1f 84 00 00 	cs nopw 0x0(%rax,%rax,1)
    3bfd:	00 00 00 

0000000000003c00 <mpz_cmp_d>:
    3c00:	f3 0f 1e fa          	endbr64 
    3c04:	8b 47 04             	mov    0x4(%rdi),%eax
    3c07:	85 c0                	test   %eax,%eax
    3c09:	78 25                	js     3c30 <mpz_cmp_d+0x30>
    3c0b:	66 0f ef c9          	pxor   %xmm1,%xmm1
    3c0f:	66 0f 2f c8          	comisd %xmm0,%xmm1
    3c13:	77 0b                	ja     3c20 <mpz_cmp_d+0x20>
    3c15:	e9 d6 fe ff ff       	jmp    3af0 <mpz_cmpabs_d>
    3c1a:	66 0f 1f 44 00 00    	nopw   0x0(%rax,%rax,1)
    3c20:	b8 01 00 00 00       	mov    $0x1,%eax
    3c25:	c3                   	ret    
    3c26:	66 2e 0f 1f 84 00 00 	cs nopw 0x0(%rax,%rax,1)
    3c2d:	00 00 00 
    3c30:	66 0f 2f 05 00 00 00 	comisd 0x0(%rip),%xmm0        # 3c38 <mpz_cmp_d+0x38>
    3c37:	00 
    3c38:	73 0e                	jae    3c48 <mpz_cmp_d+0x48>
    3c3a:	e8 00 00 00 00       	call   3c3f <mpz_cmp_d+0x3f>
    3c3f:	f7 d8                	neg    %eax
    3c41:	c3                   	ret    
    3c42:	66 0f 1f 44 00 00    	nopw   0x0(%rax,%rax,1)
    3c48:	b8 ff ff ff ff       	mov    $0xffffffff,%eax
    3c4d:	c3                   	ret    
    3c4e:	66 90                	xchg   %ax,%ax

0000000000003c50 <mpz_sgn>:
    3c50:	f3 0f 1e fa          	endbr64 
    3c54:	8b 57 04             	mov    0x4(%rdi),%edx
    3c57:	31 c0                	xor    %eax,%eax
    3c59:	85 d2                	test   %edx,%edx
    3c5b:	0f 9f c0             	setg   %al
    3c5e:	c1 ea 1f             	shr    $0x1f,%edx
    3c61:	29 d0                	sub    %edx,%eax
    3c63:	c3                   	ret    
    3c64:	66 66 2e 0f 1f 84 00 	data16 cs nopw 0x0(%rax,%rax,1)
    3c6b:	00 00 00 00 
    3c6f:	90                   	nop

0000000000003c70 <mpz_cmp_si>:
    3c70:	f3 0f 1e fa          	endbr64 
    3c74:	8b 57 04             	mov    0x4(%rdi),%edx
    3c77:	48 85 f6             	test   %rsi,%rsi
    3c7a:	79 34                	jns    3cb0 <mpz_cmp_si+0x40>
    3c7c:	b8 01 00 00 00       	mov    $0x1,%eax
    3c81:	85 d2                	test   %edx,%edx
    3c83:	78 0b                	js     3c90 <mpz_cmp_si+0x20>
    3c85:	c3                   	ret    
    3c86:	66 2e 0f 1f 84 00 00 	cs nopw 0x0(%rax,%rax,1)
    3c8d:	00 00 00 
    3c90:	b8 ff ff ff ff       	mov    $0xffffffff,%eax
    3c95:	83 fa ff             	cmp    $0xffffffff,%edx
    3c98:	75 eb                	jne    3c85 <mpz_cmp_si+0x15>
    3c9a:	48 8b 47 08          	mov    0x8(%rdi),%rax
    3c9e:	48 f7 de             	neg    %rsi
    3ca1:	48 3b 30             	cmp    (%rax),%rsi
    3ca4:	0f 97 c0             	seta   %al
    3ca7:	0f b6 c0             	movzbl %al,%eax
    3caa:	83 d8 00             	sbb    $0x0,%eax
    3cad:	c3                   	ret    
    3cae:	66 90                	xchg   %ax,%ax
    3cb0:	85 d2                	test   %edx,%edx
    3cb2:	78 2c                	js     3ce0 <mpz_cmp_si+0x70>
    3cb4:	b8 01 00 00 00       	mov    $0x1,%eax
    3cb9:	83 fa 01             	cmp    $0x1,%edx
    3cbc:	7f c7                	jg     3c85 <mpz_cmp_si+0x15>
    3cbe:	31 c0                	xor    %eax,%eax
    3cc0:	85 d2                	test   %edx,%edx
    3cc2:	74 0f                	je     3cd3 <mpz_cmp_si+0x63>
    3cc4:	48 8b 47 08          	mov    0x8(%rdi),%rax
    3cc8:	31 d2                	xor    %edx,%edx
    3cca:	48 8b 00             	mov    (%rax),%rax
    3ccd:	48 39 c6             	cmp    %rax,%rsi
    3cd0:	0f 92 c2             	setb   %dl
    3cd3:	31 c9                	xor    %ecx,%ecx
    3cd5:	48 39 c6             	cmp    %rax,%rsi
    3cd8:	89 d0                	mov    %edx,%eax
    3cda:	0f 97 c1             	seta   %cl
    3cdd:	29 c8                	sub    %ecx,%eax
    3cdf:	c3                   	ret    
    3ce0:	b8 ff ff ff ff       	mov    $0xffffffff,%eax
    3ce5:	c3                   	ret    
    3ce6:	66 2e 0f 1f 84 00 00 	cs nopw 0x0(%rax,%rax,1)
    3ced:	00 00 00 

0000000000003cf0 <mpz_cmp_ui>:
    3cf0:	f3 0f 1e fa          	endbr64 
    3cf4:	8b 47 04             	mov    0x4(%rdi),%eax
    3cf7:	85 c0                	test   %eax,%eax
    3cf9:	78 45                	js     3d40 <mpz_cmp_ui+0x50>
    3cfb:	41 b8 01 00 00 00    	mov    $0x1,%r8d
    3d01:	83 f8 01             	cmp    $0x1,%eax
    3d04:	7e 0a                	jle    3d10 <mpz_cmp_ui+0x20>
    3d06:	44 89 c0             	mov    %r8d,%eax
    3d09:	c3                   	ret    
    3d0a:	66 0f 1f 44 00 00    	nopw   0x0(%rax,%rax,1)
    3d10:	31 d2                	xor    %edx,%edx
    3d12:	85 c0                	test   %eax,%eax
    3d14:	74 0f                	je     3d25 <mpz_cmp_ui+0x35>
    3d16:	48 8b 47 08          	mov    0x8(%rdi),%rax
    3d1a:	48 8b 10             	mov    (%rax),%rdx
    3d1d:	31 c0                	xor    %eax,%eax
    3d1f:	48 39 d6             	cmp    %rdx,%rsi
    3d22:	0f 92 c0             	setb   %al
    3d25:	48 39 d6             	cmp    %rdx,%rsi
    3d28:	0f 97 c2             	seta   %dl
    3d2b:	0f b6 d2             	movzbl %dl,%edx
    3d2e:	29 d0                	sub    %edx,%eax
    3d30:	41 89 c0             	mov    %eax,%r8d
    3d33:	44 89 c0             	mov    %r8d,%eax
    3d36:	c3                   	ret    
    3d37:	66 0f 1f 84 00 00 00 	nopw   0x0(%rax,%rax,1)
    3d3e:	00 00 
    3d40:	41 b8 ff ff ff ff    	mov    $0xffffffff,%r8d
    3d46:	eb be                	jmp    3d06 <mpz_cmp_ui+0x16>
    3d48:	0f 1f 84 00 00 00 00 	nopl   0x0(%rax,%rax,1)
    3d4f:	00 

0000000000003d50 <mpz_cmp>:
    3d50:	f3 0f 1e fa          	endbr64 
    3d54:	48 63 47 04          	movslq 0x4(%rdi),%rax
    3d58:	48 63 56 04          	movslq 0x4(%rsi),%rdx
    3d5c:	48 39 d0             	cmp    %rdx,%rax
    3d5f:	74 0f                	je     3d70 <mpz_cmp+0x20>
    3d61:	0f 9d c0             	setge  %al
    3d64:	0f b6 c0             	movzbl %al,%eax
    3d67:	8d 44 00 ff          	lea    -0x1(%rax,%rax,1),%eax
    3d6b:	c3                   	ret    
    3d6c:	0f 1f 40 00          	nopl   0x0(%rax)
    3d70:	48 8b 7f 08          	mov    0x8(%rdi),%rdi
    3d74:	48 8b 76 08          	mov    0x8(%rsi),%rsi
    3d78:	48 85 c0             	test   %rax,%rax
    3d7b:	79 30                	jns    3dad <mpz_cmp+0x5d>
    3d7d:	48 f7 d0             	not    %rax
    3d80:	48 8b 14 c6          	mov    (%rsi,%rax,8),%rdx
    3d84:	48 8b 0c c7          	mov    (%rdi,%rax,8),%rcx
    3d88:	48 39 ca             	cmp    %rcx,%rdx
    3d8b:	75 2b                	jne    3db8 <mpz_cmp+0x68>
    3d8d:	48 83 e8 01          	sub    $0x1,%rax
    3d91:	73 ed                	jae    3d80 <mpz_cmp+0x30>
    3d93:	31 c0                	xor    %eax,%eax
    3d95:	c3                   	ret    
    3d96:	66 2e 0f 1f 84 00 00 	cs nopw 0x0(%rax,%rax,1)
    3d9d:	00 00 00 
    3da0:	48 8b 14 c7          	mov    (%rdi,%rax,8),%rdx
    3da4:	48 8b 0c c6          	mov    (%rsi,%rax,8),%rcx
    3da8:	48 39 ca             	cmp    %rcx,%rdx
    3dab:	75 0b                	jne    3db8 <mpz_cmp+0x68>
    3dad:	48 83 e8 01          	sub    $0x1,%rax
    3db1:	73 ed                	jae    3da0 <mpz_cmp+0x50>
    3db3:	eb de                	jmp    3d93 <mpz_cmp+0x43>
    3db5:	0f 1f 00             	nopl   (%rax)
    3db8:	48 39 d1             	cmp    %rdx,%rcx
    3dbb:	19 c0                	sbb    %eax,%eax
    3dbd:	83 e0 02             	and    $0x2,%eax
    3dc0:	83 e8 01             	sub    $0x1,%eax
    3dc3:	c3                   	ret    
    3dc4:	66 66 2e 0f 1f 84 00 	data16 cs nopw 0x0(%rax,%rax,1)
    3dcb:	00 00 00 00 
    3dcf:	90                   	nop

0000000000003dd0 <mpz_cmpabs_ui>:
    3dd0:	f3 0f 1e fa          	endbr64 
    3dd4:	8b 47 04             	mov    0x4(%rdi),%eax
    3dd7:	41 b8 01 00 00 00    	mov    $0x1,%r8d
    3ddd:	89 c2                	mov    %eax,%edx
    3ddf:	f7 da                	neg    %edx
    3de1:	0f 48 d0             	cmovs  %eax,%edx
    3de4:	83 fa 01             	cmp    $0x1,%edx
    3de7:	7e 07                	jle    3df0 <mpz_cmpabs_ui+0x20>
    3de9:	44 89 c0             	mov    %r8d,%eax
    3dec:	c3                   	ret    
    3ded:	0f 1f 00             	nopl   (%rax)
    3df0:	31 d2                	xor    %edx,%edx
    3df2:	85 c0                	test   %eax,%eax
    3df4:	74 0f                	je     3e05 <mpz_cmpabs_ui+0x35>
    3df6:	48 8b 47 08          	mov    0x8(%rdi),%rax
    3dfa:	48 8b 10             	mov    (%rax),%rdx
    3dfd:	31 c0                	xor    %eax,%eax
    3dff:	48 39 d6             	cmp    %rdx,%rsi
    3e02:	0f 92 c0             	setb   %al
    3e05:	48 39 d6             	cmp    %rdx,%rsi
    3e08:	0f 97 c2             	seta   %dl
    3e0b:	0f b6 d2             	movzbl %dl,%edx
    3e0e:	29 d0                	sub    %edx,%eax
    3e10:	41 89 c0             	mov    %eax,%r8d
    3e13:	44 89 c0             	mov    %r8d,%eax
    3e16:	c3                   	ret    
    3e17:	66 0f 1f 84 00 00 00 	nopw   0x0(%rax,%rax,1)
    3e1e:	00 00 

0000000000003e20 <mpz_cmpabs>:
    3e20:	f3 0f 1e fa          	endbr64 
    3e24:	8b 46 04             	mov    0x4(%rsi),%eax
    3e27:	8b 4f 04             	mov    0x4(%rdi),%ecx
    3e2a:	89 c2                	mov    %eax,%edx
    3e2c:	f7 da                	neg    %edx
    3e2e:	0f 48 d0             	cmovs  %eax,%edx
    3e31:	89 c8                	mov    %ecx,%eax
    3e33:	f7 d8                	neg    %eax
    3e35:	0f 48 c1             	cmovs  %ecx,%eax
    3e38:	48 63 d2             	movslq %edx,%rdx
    3e3b:	48 98                	cltq   
    3e3d:	48 39 c2             	cmp    %rax,%rdx
    3e40:	74 0e                	je     3e50 <mpz_cmpabs+0x30>
    3e42:	0f 9e c0             	setle  %al
    3e45:	0f b6 c0             	movzbl %al,%eax
    3e48:	8d 44 00 ff          	lea    -0x1(%rax,%rax,1),%eax
    3e4c:	c3                   	ret    
    3e4d:	0f 1f 00             	nopl   (%rax)
    3e50:	4c 8b 46 08          	mov    0x8(%rsi),%r8
    3e54:	48 8b 77 08          	mov    0x8(%rdi),%rsi
    3e58:	eb 13                	jmp    3e6d <mpz_cmpabs+0x4d>
    3e5a:	66 0f 1f 44 00 00    	nopw   0x0(%rax,%rax,1)
    3e60:	48 8b 14 c6          	mov    (%rsi,%rax,8),%rdx
    3e64:	49 8b 0c c0          	mov    (%r8,%rax,8),%rcx
    3e68:	48 39 ca             	cmp    %rcx,%rdx
    3e6b:	75 13                	jne    3e80 <mpz_cmpabs+0x60>
    3e6d:	48 83 e8 01          	sub    $0x1,%rax
    3e71:	73 ed                	jae    3e60 <mpz_cmpabs+0x40>
    3e73:	31 c0                	xor    %eax,%eax
    3e75:	c3                   	ret    
    3e76:	66 2e 0f 1f 84 00 00 	cs nopw 0x0(%rax,%rax,1)
    3e7d:	00 00 00 
    3e80:	48 39 d1             	cmp    %rdx,%rcx
    3e83:	19 c0                	sbb    %eax,%eax
    3e85:	83 e0 02             	and    $0x2,%eax
    3e88:	83 e8 01             	sub    $0x1,%eax
    3e8b:	c3                   	ret    
    3e8c:	0f 1f 40 00          	nopl   0x0(%rax)

0000000000003e90 <mpz_abs>:
    3e90:	f3 0f 1e fa          	endbr64 
    3e94:	53                   	push   %rbx
    3e95:	48 89 fb             	mov    %rdi,%rbx
    3e98:	e8 00 00 00 00       	call   3e9d <mpz_abs+0xd>
    3e9d:	8b 53 04             	mov    0x4(%rbx),%edx
    3ea0:	89 d0                	mov    %edx,%eax
    3ea2:	f7 d8                	neg    %eax
    3ea4:	0f 48 c2             	cmovs  %edx,%eax
    3ea7:	89 43 04             	mov    %eax,0x4(%rbx)
    3eaa:	5b                   	pop    %rbx
    3eab:	c3                   	ret    
    3eac:	0f 1f 40 00          	nopl   0x0(%rax)

0000000000003eb0 <mpz_neg>:
    3eb0:	f3 0f 1e fa          	endbr64 
    3eb4:	53                   	push   %rbx
    3eb5:	48 89 fb             	mov    %rdi,%rbx
    3eb8:	e8 00 00 00 00       	call   3ebd <mpz_neg+0xd>
    3ebd:	f7 5b 04             	negl   0x4(%rbx)
    3ec0:	5b                   	pop    %rbx
    3ec1:	c3                   	ret    
    3ec2:	66 66 2e 0f 1f 84 00 	data16 cs nopw 0x0(%rax,%rax,1)
    3ec9:	00 00 00 00 
    3ecd:	0f 1f 00             	nopl   (%rax)

0000000000003ed0 <mpz_swap>:
    3ed0:	f3 0f 1e fa          	endbr64 
    3ed4:	8b 07                	mov    (%rdi),%eax
    3ed6:	8b 16                	mov    (%rsi),%edx
    3ed8:	89 17                	mov    %edx,(%rdi)
    3eda:	48 8b 56 08          	mov    0x8(%rsi),%rdx
    3ede:	89 06                	mov    %eax,(%rsi)
    3ee0:	48 8b 47 08          	mov    0x8(%rdi),%rax
    3ee4:	48 89 57 08          	mov    %rdx,0x8(%rdi)
    3ee8:	8b 56 04             	mov    0x4(%rsi),%edx
    3eeb:	48 89 46 08          	mov    %rax,0x8(%rsi)
    3eef:	8b 47 04             	mov    0x4(%rdi),%eax
    3ef2:	89 57 04             	mov    %edx,0x4(%rdi)
    3ef5:	89 46 04             	mov    %eax,0x4(%rsi)
    3ef8:	c3                   	ret    
    3ef9:	0f 1f 80 00 00 00 00 	nopl   0x0(%rax)

0000000000003f00 <mpz_add_ui>:
    3f00:	f3 0f 1e fa          	endbr64 
    3f04:	41 55                	push   %r13
    3f06:	41 54                	push   %r12
    3f08:	55                   	push   %rbp
    3f09:	48 89 fd             	mov    %rdi,%rbp
    3f0c:	53                   	push   %rbx
    3f0d:	48 89 f3             	mov    %rsi,%rbx
    3f10:	48 83 ec 28          	sub    $0x28,%rsp
    3f14:	64 48 8b 04 25 28 00 	mov    %fs:0x28,%rax
    3f1b:	00 00 
    3f1d:	48 89 44 24 18       	mov    %rax,0x18(%rsp)
    3f22:	31 c0                	xor    %eax,%eax
    3f24:	48 8d 05 00 00 00 00 	lea    0x0(%rip),%rax        # 3f2b <mpz_add_ui+0x2b>
    3f2b:	48 c7 04 24 00 00 00 	movq   $0x0,(%rsp)
    3f32:	00 
    3f33:	48 89 44 24 08       	mov    %rax,0x8(%rsp)
    3f38:	48 85 d2             	test   %rdx,%rdx
    3f3b:	74 7b                	je     3fb8 <mpz_add_ui+0xb8>
    3f3d:	49 89 e5             	mov    %rsp,%r13
    3f40:	be 01 00 00 00       	mov    $0x1,%esi
    3f45:	49 89 d4             	mov    %rdx,%r12
    3f48:	c7 44 24 04 01 00 00 	movl   $0x1,0x4(%rsp)
    3f4f:	00 
    3f50:	4c 89 ef             	mov    %r13,%rdi
    3f53:	e8 58 c4 ff ff       	call   3b0 <mpz_realloc>
    3f58:	4c 89 ea             	mov    %r13,%rdx
    3f5b:	48 89 de             	mov    %rbx,%rsi
    3f5e:	48 89 ef             	mov    %rbp,%rdi
    3f61:	4c 89 20             	mov    %r12,(%rax)
    3f64:	8b 44 24 04          	mov    0x4(%rsp),%eax
    3f68:	33 43 04             	xor    0x4(%rbx),%eax
    3f6b:	78 5e                	js     3fcb <mpz_add_ui+0xcb>
    3f6d:	e8 ee ca ff ff       	call   a60 <mpz_abs_add>
    3f72:	89 c2                	mov    %eax,%edx
    3f74:	8b 43 04             	mov    0x4(%rbx),%eax
    3f77:	85 c0                	test   %eax,%eax
    3f79:	79 02                	jns    3f7d <mpz_add_ui+0x7d>
    3f7b:	f7 da                	neg    %edx
    3f7d:	48 63 34 24          	movslq (%rsp),%rsi
    3f81:	89 55 04             	mov    %edx,0x4(%rbp)
    3f84:	85 f6                	test   %esi,%esi
    3f86:	74 0f                	je     3f97 <mpz_add_ui+0x97>
    3f88:	48 8b 7c 24 08       	mov    0x8(%rsp),%rdi
    3f8d:	48 c1 e6 03          	shl    $0x3,%rsi
    3f91:	ff 15 00 00 00 00    	call   *0x0(%rip)        # 3f97 <mpz_add_ui+0x97>
    3f97:	48 8b 44 24 18       	mov    0x18(%rsp),%rax
    3f9c:	64 48 2b 04 25 28 00 	sub    %fs:0x28,%rax
    3fa3:	00 00 
    3fa5:	75 2b                	jne    3fd2 <mpz_add_ui+0xd2>
    3fa7:	48 83 c4 28          	add    $0x28,%rsp
    3fab:	5b                   	pop    %rbx
    3fac:	5d                   	pop    %rbp
    3fad:	41 5c                	pop    %r12
    3faf:	41 5d                	pop    %r13
    3fb1:	c3                   	ret    
    3fb2:	66 0f 1f 44 00 00    	nopw   0x0(%rax,%rax,1)
    3fb8:	31 c0                	xor    %eax,%eax
    3fba:	49 89 e5             	mov    %rsp,%r13
    3fbd:	33 43 04             	xor    0x4(%rbx),%eax
    3fc0:	48 89 de             	mov    %rbx,%rsi
    3fc3:	4c 89 ea             	mov    %r13,%rdx
    3fc6:	48 89 ef             	mov    %rbp,%rdi
    3fc9:	79 a2                	jns    3f6d <mpz_add_ui+0x6d>
    3fcb:	e8 50 cc ff ff       	call   c20 <mpz_abs_sub>
    3fd0:	eb a0                	jmp    3f72 <mpz_add_ui+0x72>
    3fd2:	e8 00 00 00 00       	call   3fd7 <mpz_add_ui+0xd7>
    3fd7:	66 0f 1f 84 00 00 00 	nopw   0x0(%rax,%rax,1)
    3fde:	00 00 

0000000000003fe0 <mpz_sub_ui>:
    3fe0:	f3 0f 1e fa          	endbr64 
    3fe4:	41 54                	push   %r12
    3fe6:	55                   	push   %rbp
    3fe7:	48 89 d5             	mov    %rdx,%rbp
    3fea:	53                   	push   %rbx
    3feb:	48 89 fb             	mov    %rdi,%rbx
    3fee:	48 83 ec 20          	sub    $0x20,%rsp
    3ff2:	64 48 8b 04 25 28 00 	mov    %fs:0x28,%rax
    3ff9:	00 00 
    3ffb:	48 89 44 24 18       	mov    %rax,0x18(%rsp)
    4000:	31 c0                	xor    %eax,%eax
    4002:	49 89 e4             	mov    %rsp,%r12
    4005:	e8 00 00 00 00       	call   400a <mpz_sub_ui+0x2a>
    400a:	8b 43 04             	mov    0x4(%rbx),%eax
    400d:	48 8d 0d 00 00 00 00 	lea    0x0(%rip),%rcx        # 4014 <mpz_sub_ui+0x34>
    4014:	48 c7 04 24 00 00 00 	movq   $0x0,(%rsp)
    401b:	00 
    401c:	48 89 4c 24 08       	mov    %rcx,0x8(%rsp)
    4021:	f7 d8                	neg    %eax
    4023:	89 43 04             	mov    %eax,0x4(%rbx)
    4026:	48 85 ed             	test   %rbp,%rbp
    4029:	74 1f                	je     404a <mpz_sub_ui+0x6a>
    402b:	be 01 00 00 00       	mov    $0x1,%esi
    4030:	4c 89 e7             	mov    %r12,%rdi
    4033:	c7 44 24 04 01 00 00 	movl   $0x1,0x4(%rsp)
    403a:	00 
    403b:	e8 70 c3 ff ff       	call   3b0 <mpz_realloc>
    4040:	48 89 28             	mov    %rbp,(%rax)
    4043:	8b 44 24 04          	mov    0x4(%rsp),%eax
    4047:	33 43 04             	xor    0x4(%rbx),%eax
    404a:	4c 89 e2             	mov    %r12,%rdx
    404d:	48 89 de             	mov    %rbx,%rsi
    4050:	48 89 df             	mov    %rbx,%rdi
    4053:	85 c0                	test   %eax,%eax
    4055:	78 59                	js     40b0 <mpz_sub_ui+0xd0>
    4057:	e8 04 ca ff ff       	call   a60 <mpz_abs_add>
    405c:	89 c2                	mov    %eax,%edx
    405e:	8b 43 04             	mov    0x4(%rbx),%eax
    4061:	85 c0                	test   %eax,%eax
    4063:	79 02                	jns    4067 <mpz_sub_ui+0x87>
    4065:	f7 da                	neg    %edx
    4067:	48 63 34 24          	movslq (%rsp),%rsi
    406b:	89 53 04             	mov    %edx,0x4(%rbx)
    406e:	85 f6                	test   %esi,%esi
    4070:	74 0f                	je     4081 <mpz_sub_ui+0xa1>
    4072:	48 8b 7c 24 08       	mov    0x8(%rsp),%rdi
    4077:	48 c1 e6 03          	shl    $0x3,%rsi
    407b:	ff 15 00 00 00 00    	call   *0x0(%rip)        # 4081 <mpz_sub_ui+0xa1>
    4081:	48 89 de             	mov    %rbx,%rsi
    4084:	48 89 df             	mov    %rbx,%rdi
    4087:	e8 00 00 00 00       	call   408c <mpz_sub_ui+0xac>
    408c:	f7 5b 04             	negl   0x4(%rbx)
    408f:	48 8b 44 24 18       	mov    0x18(%rsp),%rax
    4094:	64 48 2b 04 25 28 00 	sub    %fs:0x28,%rax
    409b:	00 00 
    409d:	75 18                	jne    40b7 <mpz_sub_ui+0xd7>
    409f:	48 83 c4 20          	add    $0x20,%rsp
    40a3:	5b                   	pop    %rbx
    40a4:	5d                   	pop    %rbp
    40a5:	41 5c                	pop    %r12
    40a7:	c3                   	ret    
    40a8:	0f 1f 84 00 00 00 00 	nopl   0x0(%rax,%rax,1)
    40af:	00 
    40b0:	e8 6b cb ff ff       	call   c20 <mpz_abs_sub>
    40b5:	eb a5                	jmp    405c <mpz_sub_ui+0x7c>
    40b7:	e8 00 00 00 00       	call   40bc <mpz_sub_ui+0xdc>
    40bc:	0f 1f 40 00          	nopl   0x0(%rax)

00000000000040c0 <mpz_div_qr>:
    40c0:	41 57                	push   %r15
    40c2:	41 56                	push   %r14
    40c4:	41 55                	push   %r13
    40c6:	41 54                	push   %r12
    40c8:	49 89 f4             	mov    %rsi,%r12
    40cb:	48 89 d6             	mov    %rdx,%rsi
    40ce:	55                   	push   %rbp
    40cf:	53                   	push   %rbx
    40d0:	48 81 ec b8 00 00 00 	sub    $0xb8,%rsp
    40d7:	4c 63 7a 04          	movslq 0x4(%rdx),%r15
    40db:	8b 51 04             	mov    0x4(%rcx),%edx
    40de:	44 89 44 24 08       	mov    %r8d,0x8(%rsp)
    40e3:	64 48 8b 04 25 28 00 	mov    %fs:0x28,%rax
    40ea:	00 00 
    40ec:	48 89 84 24 a8 00 00 	mov    %rax,0xa8(%rsp)
    40f3:	00 
    40f4:	31 c0                	xor    %eax,%eax
    40f6:	85 d2                	test   %edx,%edx
    40f8:	0f 84 f5 05 00 00    	je     46f3 <mpz_div_qr+0x633>
    40fe:	48 89 fd             	mov    %rdi,%rbp
    4101:	4d 85 ff             	test   %r15,%r15
    4104:	0f 84 ee 02 00 00    	je     43f8 <mpz_div_qr+0x338>
    410a:	45 89 fe             	mov    %r15d,%r14d
    410d:	41 89 d0             	mov    %edx,%r8d
    4110:	4c 89 f8             	mov    %r15,%rax
    4113:	49 89 cd             	mov    %rcx,%r13
    4116:	41 f7 de             	neg    %r14d
    4119:	45 0f 48 f7          	cmovs  %r15d,%r14d
    411d:	41 f7 d8             	neg    %r8d
    4120:	44 0f 48 c2          	cmovs  %edx,%r8d
    4124:	31 d0                	xor    %edx,%eax
    4126:	48 98                	cltq   
    4128:	45 89 f6             	mov    %r14d,%r14d
    412b:	45 89 c0             	mov    %r8d,%r8d
    412e:	48 89 44 24 10       	mov    %rax,0x10(%rsp)
    4133:	4c 89 c3             	mov    %r8,%rbx
    4136:	4d 39 c6             	cmp    %r8,%r14
    4139:	7d 75                	jge    41b0 <mpz_div_qr+0xf0>
    413b:	83 7c 24 08 01       	cmpl   $0x1,0x8(%rsp)
    4140:	0f 85 5a 02 00 00    	jne    43a0 <mpz_div_qr+0x2e0>
    4146:	48 85 c0             	test   %rax,%rax
    4149:	0f 88 51 02 00 00    	js     43a0 <mpz_div_qr+0x2e0>
    414f:	4d 85 e4             	test   %r12,%r12
    4152:	74 27                	je     417b <mpz_div_qr+0xbb>
    4154:	48 89 ca             	mov    %rcx,%rdx
    4157:	4c 89 e7             	mov    %r12,%rdi
    415a:	48 89 74 24 08       	mov    %rsi,0x8(%rsp)
    415f:	e8 bc ca ff ff       	call   c20 <mpz_abs_sub>
    4164:	48 8b 74 24 08       	mov    0x8(%rsp),%rsi
    4169:	89 c2                	mov    %eax,%edx
    416b:	44 8b 56 04          	mov    0x4(%rsi),%r10d
    416f:	45 85 d2             	test   %r10d,%r10d
    4172:	79 02                	jns    4176 <mpz_div_qr+0xb6>
    4174:	f7 da                	neg    %edx
    4176:	41 89 54 24 04       	mov    %edx,0x4(%r12)
    417b:	48 85 ed             	test   %rbp,%rbp
    417e:	0f 84 3f 02 00 00    	je     43c3 <mpz_div_qr+0x303>
    4184:	44 8b 4d 00          	mov    0x0(%rbp),%r9d
    4188:	c7 45 04 01 00 00 00 	movl   $0x1,0x4(%rbp)
    418f:	45 85 c9             	test   %r9d,%r9d
    4192:	0f 8e d7 02 00 00    	jle    446f <mpz_div_qr+0x3af>
    4198:	48 8b 45 08          	mov    0x8(%rbp),%rax
    419c:	48 c7 00 01 00 00 00 	movq   $0x1,(%rax)
    41a3:	41 be 01 00 00 00    	mov    $0x1,%r14d
    41a9:	e9 1b 02 00 00       	jmp    43c9 <mpz_div_qr+0x309>
    41ae:	66 90                	xchg   %ax,%ax
    41b0:	48 8d 05 00 00 00 00 	lea    0x0(%rip),%rax        # 41b7 <mpz_div_qr+0xf7>
    41b7:	4c 89 44 24 18       	mov    %r8,0x18(%rsp)
    41bc:	48 89 84 24 98 00 00 	mov    %rax,0x98(%rsp)
    41c3:	00 
    41c4:	48 8d 84 24 90 00 00 	lea    0x90(%rsp),%rax
    41cb:	00 
    41cc:	48 89 c7             	mov    %rax,%rdi
    41cf:	48 89 44 24 48       	mov    %rax,0x48(%rsp)
    41d4:	48 c7 84 24 90 00 00 	movq   $0x0,0x90(%rsp)
    41db:	00 00 00 00 00 
    41e0:	e8 00 00 00 00       	call   41e5 <mpz_div_qr+0x125>
    41e5:	4c 8b 44 24 18       	mov    0x18(%rsp),%r8
    41ea:	4c 89 f0             	mov    %r14,%rax
    41ed:	48 c7 44 24 18 00 00 	movq   $0x0,0x18(%rsp)
    41f4:	00 00 
    41f6:	4c 8b 94 24 98 00 00 	mov    0x98(%rsp),%r10
    41fd:	00 
    41fe:	4c 29 c0             	sub    %r8,%rax
    4201:	48 83 c0 01          	add    $0x1,%rax
    4205:	48 89 44 24 40       	mov    %rax,0x40(%rsp)
    420a:	48 85 ed             	test   %rbp,%rbp
    420d:	74 55                	je     4264 <mpz_div_qr+0x1a4>
    420f:	48 c1 e0 06          	shl    $0x6,%rax
    4213:	4c 89 44 24 28       	mov    %r8,0x28(%rsp)
    4218:	48 89 c7             	mov    %rax,%rdi
    421b:	0f 95 c0             	setne  %al
    421e:	4c 89 54 24 20       	mov    %r10,0x20(%rsp)
    4223:	c7 84 24 84 00 00 00 	movl   $0x0,0x84(%rsp)
    422a:	00 00 00 00 
    422e:	0f b6 c0             	movzbl %al,%eax
    4231:	48 29 c7             	sub    %rax,%rdi
    4234:	48 c1 ef 06          	shr    $0x6,%rdi
    4238:	48 83 c7 01          	add    $0x1,%rdi
    423c:	89 bc 24 80 00 00 00 	mov    %edi,0x80(%rsp)
    4243:	48 c1 e7 03          	shl    $0x3,%rdi
    4247:	ff 15 00 00 00 00    	call   *0x0(%rip)        # 424d <mpz_div_qr+0x18d>
    424d:	4c 8b 44 24 28       	mov    0x28(%rsp),%r8
    4252:	4c 8b 54 24 20       	mov    0x20(%rsp),%r10
    4257:	48 89 44 24 18       	mov    %rax,0x18(%rsp)
    425c:	48 89 84 24 88 00 00 	mov    %rax,0x88(%rsp)
    4263:	00 
    4264:	4c 8d 4c 24 60       	lea    0x60(%rsp),%r9
    4269:	49 8b 75 08          	mov    0x8(%r13),%rsi
    426d:	4c 89 c2             	mov    %r8,%rdx
    4270:	4c 89 54 24 38       	mov    %r10,0x38(%rsp)
    4275:	4c 89 cf             	mov    %r9,%rdi
    4278:	4c 89 44 24 30       	mov    %r8,0x30(%rsp)
    427d:	48 89 74 24 28       	mov    %rsi,0x28(%rsp)
    4282:	4c 89 4c 24 20       	mov    %r9,0x20(%rsp)
    4287:	e8 d4 e6 ff ff       	call   2960 <mpn_div_qr_invert>
    428c:	4c 8b 44 24 30       	mov    0x30(%rsp),%r8
    4291:	4c 8b 4c 24 20       	mov    0x20(%rsp),%r9
    4296:	48 8b 74 24 28       	mov    0x28(%rsp),%rsi
    429b:	4c 8b 54 24 38       	mov    0x38(%rsp),%r10
    42a0:	49 83 f8 02          	cmp    $0x2,%r8
    42a4:	7e 0c                	jle    42b2 <mpz_div_qr+0x1f2>
    42a6:	8b 4c 24 60          	mov    0x60(%rsp),%ecx
    42aa:	85 c9                	test   %ecx,%ecx
    42ac:	0f 85 de 02 00 00    	jne    4590 <mpz_div_qr+0x4d0>
    42b2:	48 8b 7c 24 18       	mov    0x18(%rsp),%rdi
    42b7:	48 89 f1             	mov    %rsi,%rcx
    42ba:	4c 89 f2             	mov    %r14,%rdx
    42bd:	4c 89 d6             	mov    %r10,%rsi
    42c0:	4c 89 54 24 20       	mov    %r10,0x20(%rsp)
    42c5:	e8 46 d8 ff ff       	call   1b10 <mpn_div_qr_preinv>
    42ca:	4c 8b 54 24 20       	mov    0x20(%rsp),%r10
    42cf:	48 8b 4c 24 18       	mov    0x18(%rsp),%rcx
    42d4:	48 85 c9             	test   %rcx,%rcx
    42d7:	74 27                	je     4300 <mpz_div_qr+0x240>
    42d9:	48 8b 44 24 40       	mov    0x40(%rsp),%rax
    42de:	48 83 7c c1 f8 01    	cmpq   $0x1,-0x8(%rcx,%rax,8)
    42e4:	48 83 d8 00          	sbb    $0x0,%rax
    42e8:	89 c2                	mov    %eax,%edx
    42ea:	f7 da                	neg    %edx
    42ec:	48 83 7c 24 10 00    	cmpq   $0x0,0x10(%rsp)
    42f2:	0f 48 c2             	cmovs  %edx,%eax
    42f5:	89 84 24 84 00 00 00 	mov    %eax,0x84(%rsp)
    42fc:	0f 1f 40 00          	nopl   0x0(%rax)
    4300:	49 83 7c da f8 00    	cmpq   $0x0,-0x8(%r10,%rbx,8)
    4306:	0f 85 6c 02 00 00    	jne    4578 <mpz_div_qr+0x4b8>
    430c:	48 83 eb 01          	sub    $0x1,%rbx
    4310:	75 ee                	jne    4300 <mpz_div_qr+0x240>
    4312:	45 31 f6             	xor    %r14d,%r14d
    4315:	31 c9                	xor    %ecx,%ecx
    4317:	89 d8                	mov    %ebx,%eax
    4319:	8b 54 24 08          	mov    0x8(%rsp),%edx
    431d:	f7 d8                	neg    %eax
    431f:	4d 85 ff             	test   %r15,%r15
    4322:	0f 49 c3             	cmovns %ebx,%eax
    4325:	89 84 24 94 00 00 00 	mov    %eax,0x94(%rsp)
    432c:	85 d2                	test   %edx,%edx
    432e:	0f 85 54 01 00 00    	jne    4488 <mpz_div_qr+0x3c8>
    4334:	48 83 7c 24 10 00    	cmpq   $0x0,0x10(%rsp)
    433a:	0f 89 48 01 00 00    	jns    4488 <mpz_div_qr+0x3c8>
    4340:	48 85 db             	test   %rbx,%rbx
    4343:	0f 84 61 01 00 00    	je     44aa <mpz_div_qr+0x3ea>
    4349:	48 85 ed             	test   %rbp,%rbp
    434c:	0f 84 6e 03 00 00    	je     46c0 <mpz_div_qr+0x600>
    4352:	48 8d bc 24 80 00 00 	lea    0x80(%rsp),%rdi
    4359:	00 
    435a:	ba 01 00 00 00       	mov    $0x1,%edx
    435f:	48 89 fe             	mov    %rdi,%rsi
    4362:	e8 00 00 00 00       	call   4367 <mpz_div_qr+0x2a7>
    4367:	4d 85 e4             	test   %r12,%r12
    436a:	0f 84 3f 01 00 00    	je     44af <mpz_div_qr+0x3ef>
    4370:	8b 84 24 94 00 00 00 	mov    0x94(%rsp),%eax
    4377:	48 8b 7c 24 48       	mov    0x48(%rsp),%rdi
    437c:	41 33 45 04          	xor    0x4(%r13),%eax
    4380:	4c 89 ea             	mov    %r13,%rdx
    4383:	48 89 fe             	mov    %rdi,%rsi
    4386:	0f 88 ff 02 00 00    	js     468b <mpz_div_qr+0x5cb>
    438c:	e8 cf c6 ff ff       	call   a60 <mpz_abs_add>
    4391:	e9 fa 02 00 00       	jmp    4690 <mpz_div_qr+0x5d0>
    4396:	66 2e 0f 1f 84 00 00 	cs nopw 0x0(%rax,%rax,1)
    439d:	00 00 00 
    43a0:	44 8b 44 24 08       	mov    0x8(%rsp),%r8d
    43a5:	45 85 c0             	test   %r8d,%r8d
    43a8:	74 76                	je     4420 <mpz_div_qr+0x360>
    43aa:	4d 85 e4             	test   %r12,%r12
    43ad:	74 08                	je     43b7 <mpz_div_qr+0x2f7>
    43af:	4c 89 e7             	mov    %r12,%rdi
    43b2:	e8 00 00 00 00       	call   43b7 <mpz_div_qr+0x2f7>
    43b7:	48 85 ed             	test   %rbp,%rbp
    43ba:	74 07                	je     43c3 <mpz_div_qr+0x303>
    43bc:	c7 45 04 00 00 00 00 	movl   $0x0,0x4(%rbp)
    43c3:	41 be 01 00 00 00    	mov    $0x1,%r14d
    43c9:	48 8b 84 24 a8 00 00 	mov    0xa8(%rsp),%rax
    43d0:	00 
    43d1:	64 48 2b 04 25 28 00 	sub    %fs:0x28,%rax
    43d8:	00 00 
    43da:	0f 85 0e 03 00 00    	jne    46ee <mpz_div_qr+0x62e>
    43e0:	48 81 c4 b8 00 00 00 	add    $0xb8,%rsp
    43e7:	44 89 f0             	mov    %r14d,%eax
    43ea:	5b                   	pop    %rbx
    43eb:	5d                   	pop    %rbp
    43ec:	41 5c                	pop    %r12
    43ee:	41 5d                	pop    %r13
    43f0:	41 5e                	pop    %r14
    43f2:	41 5f                	pop    %r15
    43f4:	c3                   	ret    
    43f5:	0f 1f 00             	nopl   (%rax)
    43f8:	48 85 ff             	test   %rdi,%rdi
    43fb:	74 07                	je     4404 <mpz_div_qr+0x344>
    43fd:	c7 47 04 00 00 00 00 	movl   $0x0,0x4(%rdi)
    4404:	45 31 f6             	xor    %r14d,%r14d
    4407:	4d 85 e4             	test   %r12,%r12
    440a:	74 bd                	je     43c9 <mpz_div_qr+0x309>
    440c:	41 c7 44 24 04 00 00 	movl   $0x0,0x4(%r12)
    4413:	00 00 
    4415:	eb b2                	jmp    43c9 <mpz_div_qr+0x309>
    4417:	66 0f 1f 84 00 00 00 	nopw   0x0(%rax,%rax,1)
    441e:	00 00 
    4420:	48 83 7c 24 10 00    	cmpq   $0x0,0x10(%rsp)
    4426:	79 82                	jns    43aa <mpz_div_qr+0x2ea>
    4428:	4d 85 e4             	test   %r12,%r12
    442b:	74 27                	je     4454 <mpz_div_qr+0x394>
    442d:	4c 89 ea             	mov    %r13,%rdx
    4430:	4c 89 e7             	mov    %r12,%rdi
    4433:	48 89 74 24 08       	mov    %rsi,0x8(%rsp)
    4438:	e8 e3 c7 ff ff       	call   c20 <mpz_abs_sub>
    443d:	48 8b 74 24 08       	mov    0x8(%rsp),%rsi
    4442:	89 c2                	mov    %eax,%edx
    4444:	8b 7e 04             	mov    0x4(%rsi),%edi
    4447:	85 ff                	test   %edi,%edi
    4449:	0f 88 91 02 00 00    	js     46e0 <mpz_div_qr+0x620>
    444f:	41 89 54 24 04       	mov    %edx,0x4(%r12)
    4454:	48 85 ed             	test   %rbp,%rbp
    4457:	0f 84 66 ff ff ff    	je     43c3 <mpz_div_qr+0x303>
    445d:	8b 75 00             	mov    0x0(%rbp),%esi
    4460:	c7 45 04 ff ff ff ff 	movl   $0xffffffff,0x4(%rbp)
    4467:	85 f6                	test   %esi,%esi
    4469:	0f 8f 29 fd ff ff    	jg     4198 <mpz_div_qr+0xd8>
    446f:	be 01 00 00 00       	mov    $0x1,%esi
    4474:	48 89 ef             	mov    %rbp,%rdi
    4477:	e8 34 bf ff ff       	call   3b0 <mpz_realloc>
    447c:	e9 1b fd ff ff       	jmp    419c <mpz_div_qr+0xdc>
    4481:	0f 1f 80 00 00 00 00 	nopl   0x0(%rax)
    4488:	48 8b 54 24 10       	mov    0x10(%rsp),%rdx
    448d:	83 7c 24 08 01       	cmpl   $0x1,0x8(%rsp)
    4492:	40 0f 94 c6          	sete   %sil
    4496:	48 f7 d2             	not    %rdx
    4499:	48 c1 ea 3f          	shr    $0x3f,%rdx
    449d:	40 84 d6             	test   %dl,%sil
    44a0:	74 08                	je     44aa <mpz_div_qr+0x3ea>
    44a2:	84 c9                	test   %cl,%cl
    44a4:	0f 85 9e 01 00 00    	jne    4648 <mpz_div_qr+0x588>
    44aa:	48 85 ed             	test   %rbp,%rbp
    44ad:	74 53                	je     4502 <mpz_div_qr+0x442>
    44af:	8b 94 24 80 00 00 00 	mov    0x80(%rsp),%edx
    44b6:	48 63 45 00          	movslq 0x0(%rbp),%rax
    44ba:	48 8b 7d 08          	mov    0x8(%rbp),%rdi
    44be:	8b 4d 04             	mov    0x4(%rbp),%ecx
    44c1:	89 55 00             	mov    %edx,0x0(%rbp)
    44c4:	48 8b 94 24 88 00 00 	mov    0x88(%rsp),%rdx
    44cb:	00 
    44cc:	89 84 24 80 00 00 00 	mov    %eax,0x80(%rsp)
    44d3:	48 89 55 08          	mov    %rdx,0x8(%rbp)
    44d7:	8b 94 24 84 00 00 00 	mov    0x84(%rsp),%edx
    44de:	48 89 bc 24 88 00 00 	mov    %rdi,0x88(%rsp)
    44e5:	00 
    44e6:	89 8c 24 84 00 00 00 	mov    %ecx,0x84(%rsp)
    44ed:	89 55 04             	mov    %edx,0x4(%rbp)
    44f0:	85 c0                	test   %eax,%eax
    44f2:	74 0e                	je     4502 <mpz_div_qr+0x442>
    44f4:	48 8d 34 c5 00 00 00 	lea    0x0(,%rax,8),%rsi
    44fb:	00 
    44fc:	ff 15 00 00 00 00    	call   *0x0(%rip)        # 4502 <mpz_div_qr+0x442>
    4502:	8b 94 24 90 00 00 00 	mov    0x90(%rsp),%edx
    4509:	48 63 c2             	movslq %edx,%rax
    450c:	4d 85 e4             	test   %r12,%r12
    450f:	74 41                	je     4552 <mpz_div_qr+0x492>
    4511:	49 8b 4c 24 08       	mov    0x8(%r12),%rcx
    4516:	49 63 04 24          	movslq (%r12),%rax
    451a:	41 89 14 24          	mov    %edx,(%r12)
    451e:	48 8b 94 24 98 00 00 	mov    0x98(%rsp),%rdx
    4525:	00 
    4526:	48 89 8c 24 98 00 00 	mov    %rcx,0x98(%rsp)
    452d:	00 
    452e:	41 8b 4c 24 04       	mov    0x4(%r12),%ecx
    4533:	49 89 54 24 08       	mov    %rdx,0x8(%r12)
    4538:	8b 94 24 94 00 00 00 	mov    0x94(%rsp),%edx
    453f:	89 84 24 90 00 00 00 	mov    %eax,0x90(%rsp)
    4546:	89 8c 24 94 00 00 00 	mov    %ecx,0x94(%rsp)
    454d:	41 89 54 24 04       	mov    %edx,0x4(%r12)
    4552:	85 c0                	test   %eax,%eax
    4554:	0f 84 6f fe ff ff    	je     43c9 <mpz_div_qr+0x309>
    455a:	48 8b bc 24 98 00 00 	mov    0x98(%rsp),%rdi
    4561:	00 
    4562:	48 8d 34 c5 00 00 00 	lea    0x0(,%rax,8),%rsi
    4569:	00 
    456a:	ff 15 00 00 00 00    	call   *0x0(%rip)        # 4570 <mpz_div_qr+0x4b0>
    4570:	e9 54 fe ff ff       	jmp    43c9 <mpz_div_qr+0x309>
    4575:	0f 1f 00             	nopl   (%rax)
    4578:	41 be 01 00 00 00    	mov    $0x1,%r14d
    457e:	b9 01 00 00 00       	mov    $0x1,%ecx
    4583:	e9 8f fd ff ff       	jmp    4317 <mpz_div_qr+0x257>
    4588:	0f 1f 84 00 00 00 00 	nopl   0x0(%rax,%rax,1)
    458f:	00 
    4590:	4a 8d 04 c5 00 00 00 	lea    0x0(,%r8,8),%rax
    4597:	00 
    4598:	4c 89 4c 24 58       	mov    %r9,0x58(%rsp)
    459d:	4c 89 54 24 50       	mov    %r10,0x50(%rsp)
    45a2:	48 89 c7             	mov    %rax,%rdi
    45a5:	48 89 74 24 38       	mov    %rsi,0x38(%rsp)
    45aa:	4c 89 44 24 20       	mov    %r8,0x20(%rsp)
    45af:	48 89 44 24 30       	mov    %rax,0x30(%rsp)
    45b4:	ff 15 00 00 00 00    	call   *0x0(%rip)        # 45ba <mpz_div_qr+0x4fa>
    45ba:	4c 8b 44 24 20       	mov    0x20(%rsp),%r8
    45bf:	8b 4c 24 60          	mov    0x60(%rsp),%ecx
    45c3:	48 8b 74 24 38       	mov    0x38(%rsp),%rsi
    45c8:	48 89 c7             	mov    %rax,%rdi
    45cb:	48 89 44 24 20       	mov    %rax,0x20(%rsp)
    45d0:	4c 89 c2             	mov    %r8,%rdx
    45d3:	4c 89 44 24 28       	mov    %r8,0x28(%rsp)
    45d8:	e8 00 00 00 00       	call   45dd <mpz_div_qr+0x51d>
    45dd:	4c 8b 5c 24 20       	mov    0x20(%rsp),%r11
    45e2:	4c 8b 44 24 28       	mov    0x28(%rsp),%r8
    45e7:	48 85 c0             	test   %rax,%rax
    45ea:	4c 8b 54 24 50       	mov    0x50(%rsp),%r10
    45ef:	4c 8b 4c 24 58       	mov    0x58(%rsp),%r9
    45f4:	0f 85 05 01 00 00    	jne    46ff <mpz_div_qr+0x63f>
    45fa:	48 8b 7c 24 18       	mov    0x18(%rsp),%rdi
    45ff:	4c 89 d9             	mov    %r11,%rcx
    4602:	4c 89 d6             	mov    %r10,%rsi
    4605:	4c 89 f2             	mov    %r14,%rdx
    4608:	4c 89 5c 24 28       	mov    %r11,0x28(%rsp)
    460d:	4c 89 54 24 20       	mov    %r10,0x20(%rsp)
    4612:	e8 f9 d4 ff ff       	call   1b10 <mpn_div_qr_preinv>
    4617:	4c 8b 5c 24 28       	mov    0x28(%rsp),%r11
    461c:	4c 8b 54 24 20       	mov    0x20(%rsp),%r10
    4621:	4d 85 db             	test   %r11,%r11
    4624:	0f 84 a5 fc ff ff    	je     42cf <mpz_div_qr+0x20f>
    462a:	48 8b 74 24 30       	mov    0x30(%rsp),%rsi
    462f:	4c 89 df             	mov    %r11,%rdi
    4632:	ff 15 00 00 00 00    	call   *0x0(%rip)        # 4638 <mpz_div_qr+0x578>
    4638:	4c 8b 54 24 20       	mov    0x20(%rsp),%r10
    463d:	e9 8d fc ff ff       	jmp    42cf <mpz_div_qr+0x20f>
    4642:	66 0f 1f 44 00 00    	nopw   0x0(%rax,%rax,1)
    4648:	48 85 ed             	test   %rbp,%rbp
    464b:	0f 84 96 00 00 00    	je     46e7 <mpz_div_qr+0x627>
    4651:	48 8d bc 24 80 00 00 	lea    0x80(%rsp),%rdi
    4658:	00 
    4659:	ba 01 00 00 00       	mov    $0x1,%edx
    465e:	48 89 fe             	mov    %rdi,%rsi
    4661:	e8 00 00 00 00       	call   4666 <mpz_div_qr+0x5a6>
    4666:	4d 85 e4             	test   %r12,%r12
    4669:	0f 84 40 fe ff ff    	je     44af <mpz_div_qr+0x3ef>
    466f:	8b 84 24 94 00 00 00 	mov    0x94(%rsp),%eax
    4676:	48 8b 7c 24 48       	mov    0x48(%rsp),%rdi
    467b:	41 33 45 04          	xor    0x4(%r13),%eax
    467f:	4c 89 ea             	mov    %r13,%rdx
    4682:	48 89 fe             	mov    %rdi,%rsi
    4685:	0f 88 01 fd ff ff    	js     438c <mpz_div_qr+0x2cc>
    468b:	e8 90 c5 ff ff       	call   c20 <mpz_abs_sub>
    4690:	89 c2                	mov    %eax,%edx
    4692:	8b 84 24 94 00 00 00 	mov    0x94(%rsp),%eax
    4699:	85 c0                	test   %eax,%eax
    469b:	79 02                	jns    469f <mpz_div_qr+0x5df>
    469d:	f7 da                	neg    %edx
    469f:	89 94 24 94 00 00 00 	mov    %edx,0x94(%rsp)
    46a6:	48 85 ed             	test   %rbp,%rbp
    46a9:	0f 85 00 fe ff ff    	jne    44af <mpz_div_qr+0x3ef>
    46af:	8b 94 24 90 00 00 00 	mov    0x90(%rsp),%edx
    46b6:	e9 56 fe ff ff       	jmp    4511 <mpz_div_qr+0x451>
    46bb:	0f 1f 44 00 00       	nopl   0x0(%rax,%rax,1)
    46c0:	4d 85 e4             	test   %r12,%r12
    46c3:	0f 85 ae fc ff ff    	jne    4377 <mpz_div_qr+0x2b7>
    46c9:	48 63 84 24 90 00 00 	movslq 0x90(%rsp),%rax
    46d0:	00 
    46d1:	e9 7c fe ff ff       	jmp    4552 <mpz_div_qr+0x492>
    46d6:	66 2e 0f 1f 84 00 00 	cs nopw 0x0(%rax,%rax,1)
    46dd:	00 00 00 
    46e0:	f7 da                	neg    %edx
    46e2:	e9 68 fd ff ff       	jmp    444f <mpz_div_qr+0x38f>
    46e7:	4d 85 e4             	test   %r12,%r12
    46ea:	75 8a                	jne    4676 <mpz_div_qr+0x5b6>
    46ec:	eb db                	jmp    46c9 <mpz_div_qr+0x609>
    46ee:	e8 00 00 00 00       	call   46f3 <mpz_div_qr+0x633>
    46f3:	48 8d 3d 00 00 00 00 	lea    0x0(%rip),%rdi        # 46fa <mpz_div_qr+0x63a>
    46fa:	e8 51 ba ff ff       	call   150 <gmp_die>
    46ff:	48 8d 0d 00 00 00 00 	lea    0x0(%rip),%rcx        # 4706 <mpz_div_qr+0x646>
    4706:	ba 8c 04 00 00       	mov    $0x48c,%edx
    470b:	48 8d 35 00 00 00 00 	lea    0x0(%rip),%rsi        # 4712 <mpz_div_qr+0x652>
    4712:	48 8d 3d 00 00 00 00 	lea    0x0(%rip),%rdi        # 4719 <mpz_div_qr+0x659>
    4719:	e8 00 00 00 00       	call   471e <mpz_div_qr+0x65e>
    471e:	66 90                	xchg   %ax,%ax

0000000000004720 <mpz_div_qr_ui>:
    4720:	41 57                	push   %r15
    4722:	41 56                	push   %r14
    4724:	45 89 c6             	mov    %r8d,%r14d
    4727:	41 55                	push   %r13
    4729:	49 89 d5             	mov    %rdx,%r13
    472c:	41 54                	push   %r12
    472e:	49 89 fc             	mov    %rdi,%r12
    4731:	55                   	push   %rbp
    4732:	53                   	push   %rbx
    4733:	48 89 f3             	mov    %rsi,%rbx
    4736:	48 83 ec 38          	sub    $0x38,%rsp
    473a:	64 48 8b 04 25 28 00 	mov    %fs:0x28,%rax
    4741:	00 00 
    4743:	48 89 44 24 28       	mov    %rax,0x28(%rsp)
    4748:	31 c0                	xor    %eax,%eax
    474a:	48 8d 05 00 00 00 00 	lea    0x0(%rip),%rax        # 4751 <mpz_div_qr_ui+0x31>
    4751:	4c 8d 7c 24 10       	lea    0x10(%rsp),%r15
    4756:	48 c7 04 24 00 00 00 	movq   $0x0,(%rsp)
    475d:	00 
    475e:	48 89 44 24 08       	mov    %rax,0x8(%rsp)
    4763:	48 c7 44 24 10 00 00 	movq   $0x0,0x10(%rsp)
    476a:	00 00 
    476c:	48 89 44 24 18       	mov    %rax,0x18(%rsp)
    4771:	48 85 c9             	test   %rcx,%rcx
    4774:	74 1b                	je     4791 <mpz_div_qr_ui+0x71>
    4776:	be 01 00 00 00       	mov    $0x1,%esi
    477b:	4c 89 ff             	mov    %r15,%rdi
    477e:	48 89 cd             	mov    %rcx,%rbp
    4781:	c7 44 24 14 01 00 00 	movl   $0x1,0x14(%rsp)
    4788:	00 
    4789:	e8 22 bc ff ff       	call   3b0 <mpz_realloc>
    478e:	48 89 28             	mov    %rbp,(%rax)
    4791:	48 89 e6             	mov    %rsp,%rsi
    4794:	45 89 f0             	mov    %r14d,%r8d
    4797:	4c 89 f9             	mov    %r15,%rcx
    479a:	4c 89 ea             	mov    %r13,%rdx
    479d:	4c 89 e7             	mov    %r12,%rdi
    47a0:	e8 1b f9 ff ff       	call   40c0 <mpz_div_qr>
    47a5:	48 63 74 24 10       	movslq 0x10(%rsp),%rsi
    47aa:	85 f6                	test   %esi,%esi
    47ac:	74 0f                	je     47bd <mpz_div_qr_ui+0x9d>
    47ae:	48 8b 7c 24 18       	mov    0x18(%rsp),%rdi
    47b3:	48 c1 e6 03          	shl    $0x3,%rsi
    47b7:	ff 15 00 00 00 00    	call   *0x0(%rip)        # 47bd <mpz_div_qr_ui+0x9d>
    47bd:	8b 44 24 04          	mov    0x4(%rsp),%eax
    47c1:	45 31 e4             	xor    %r12d,%r12d
    47c4:	85 c0                	test   %eax,%eax
    47c6:	74 08                	je     47d0 <mpz_div_qr_ui+0xb0>
    47c8:	48 8b 54 24 08       	mov    0x8(%rsp),%rdx
    47cd:	4c 8b 22             	mov    (%rdx),%r12
    47d0:	48 63 34 24          	movslq (%rsp),%rsi
    47d4:	89 f2                	mov    %esi,%edx
    47d6:	48 85 db             	test   %rbx,%rbx
    47d9:	74 24                	je     47ff <mpz_div_qr_ui+0xdf>
    47db:	48 63 33             	movslq (%rbx),%rsi
    47de:	48 8b 4c 24 08       	mov    0x8(%rsp),%rcx
    47e3:	89 13                	mov    %edx,(%rbx)
    47e5:	48 8b 53 08          	mov    0x8(%rbx),%rdx
    47e9:	89 34 24             	mov    %esi,(%rsp)
    47ec:	48 89 54 24 08       	mov    %rdx,0x8(%rsp)
    47f1:	8b 53 04             	mov    0x4(%rbx),%edx
    47f4:	48 89 4b 08          	mov    %rcx,0x8(%rbx)
    47f8:	89 43 04             	mov    %eax,0x4(%rbx)
    47fb:	89 54 24 04          	mov    %edx,0x4(%rsp)
    47ff:	85 f6                	test   %esi,%esi
    4801:	74 0f                	je     4812 <mpz_div_qr_ui+0xf2>
    4803:	48 8b 7c 24 08       	mov    0x8(%rsp),%rdi
    4808:	48 c1 e6 03          	shl    $0x3,%rsi
    480c:	ff 15 00 00 00 00    	call   *0x0(%rip)        # 4812 <mpz_div_qr_ui+0xf2>
    4812:	48 8b 44 24 28       	mov    0x28(%rsp),%rax
    4817:	64 48 2b 04 25 28 00 	sub    %fs:0x28,%rax
    481e:	00 00 
    4820:	75 12                	jne    4834 <mpz_div_qr_ui+0x114>
    4822:	48 83 c4 38          	add    $0x38,%rsp
    4826:	4c 89 e0             	mov    %r12,%rax
    4829:	5b                   	pop    %rbx
    482a:	5d                   	pop    %rbp
    482b:	41 5c                	pop    %r12
    482d:	41 5d                	pop    %r13
    482f:	41 5e                	pop    %r14
    4831:	41 5f                	pop    %r15
    4833:	c3                   	ret    
    4834:	e8 00 00 00 00       	call   4839 <mpz_div_qr_ui+0x119>
    4839:	0f 1f 80 00 00 00 00 	nopl   0x0(%rax)

0000000000004840 <mpz_ui_sub>:
    4840:	f3 0f 1e fa          	endbr64 
    4844:	41 54                	push   %r12
    4846:	55                   	push   %rbp
    4847:	48 89 f5             	mov    %rsi,%rbp
    484a:	48 89 d6             	mov    %rdx,%rsi
    484d:	53                   	push   %rbx
    484e:	48 89 fb             	mov    %rdi,%rbx
    4851:	48 83 ec 20          	sub    $0x20,%rsp
    4855:	64 48 8b 04 25 28 00 	mov    %fs:0x28,%rax
    485c:	00 00 
    485e:	48 89 44 24 18       	mov    %rax,0x18(%rsp)
    4863:	31 c0                	xor    %eax,%eax
    4865:	49 89 e4             	mov    %rsp,%r12
    4868:	e8 00 00 00 00       	call   486d <mpz_ui_sub+0x2d>
    486d:	8b 43 04             	mov    0x4(%rbx),%eax
    4870:	48 8d 0d 00 00 00 00 	lea    0x0(%rip),%rcx        # 4877 <mpz_ui_sub+0x37>
    4877:	48 c7 04 24 00 00 00 	movq   $0x0,(%rsp)
    487e:	00 
    487f:	48 89 4c 24 08       	mov    %rcx,0x8(%rsp)
    4884:	f7 d8                	neg    %eax
    4886:	89 43 04             	mov    %eax,0x4(%rbx)
    4889:	48 85 ed             	test   %rbp,%rbp
    488c:	74 1f                	je     48ad <mpz_ui_sub+0x6d>
    488e:	be 01 00 00 00       	mov    $0x1,%esi
    4893:	4c 89 e7             	mov    %r12,%rdi
    4896:	c7 44 24 04 01 00 00 	movl   $0x1,0x4(%rsp)
    489d:	00 
    489e:	e8 0d bb ff ff       	call   3b0 <mpz_realloc>
    48a3:	48 89 28             	mov    %rbp,(%rax)
    48a6:	8b 44 24 04          	mov    0x4(%rsp),%eax
    48aa:	33 43 04             	xor    0x4(%rbx),%eax
    48ad:	4c 89 e2             	mov    %r12,%rdx
    48b0:	48 89 de             	mov    %rbx,%rsi
    48b3:	48 89 df             	mov    %rbx,%rdi
    48b6:	85 c0                	test   %eax,%eax
    48b8:	78 46                	js     4900 <mpz_ui_sub+0xc0>
    48ba:	e8 a1 c1 ff ff       	call   a60 <mpz_abs_add>
    48bf:	89 c2                	mov    %eax,%edx
    48c1:	8b 43 04             	mov    0x4(%rbx),%eax
    48c4:	85 c0                	test   %eax,%eax
    48c6:	79 02                	jns    48ca <mpz_ui_sub+0x8a>
    48c8:	f7 da                	neg    %edx
    48ca:	48 63 34 24          	movslq (%rsp),%rsi
    48ce:	89 53 04             	mov    %edx,0x4(%rbx)
    48d1:	85 f6                	test   %esi,%esi
    48d3:	74 0f                	je     48e4 <mpz_ui_sub+0xa4>
    48d5:	48 8b 7c 24 08       	mov    0x8(%rsp),%rdi
    48da:	48 c1 e6 03          	shl    $0x3,%rsi
    48de:	ff 15 00 00 00 00    	call   *0x0(%rip)        # 48e4 <mpz_ui_sub+0xa4>
    48e4:	48 8b 44 24 18       	mov    0x18(%rsp),%rax
    48e9:	64 48 2b 04 25 28 00 	sub    %fs:0x28,%rax
    48f0:	00 00 
    48f2:	75 13                	jne    4907 <mpz_ui_sub+0xc7>
    48f4:	48 83 c4 20          	add    $0x20,%rsp
    48f8:	5b                   	pop    %rbx
    48f9:	5d                   	pop    %rbp
    48fa:	41 5c                	pop    %r12
    48fc:	c3                   	ret    
    48fd:	0f 1f 00             	nopl   (%rax)
    4900:	e8 1b c3 ff ff       	call   c20 <mpz_abs_sub>
    4905:	eb b8                	jmp    48bf <mpz_ui_sub+0x7f>
    4907:	e8 00 00 00 00       	call   490c <mpz_ui_sub+0xcc>
    490c:	0f 1f 40 00          	nopl   0x0(%rax)

0000000000004910 <mpz_add>:
    4910:	f3 0f 1e fa          	endbr64 
    4914:	55                   	push   %rbp
    4915:	48 89 fd             	mov    %rdi,%rbp
    4918:	53                   	push   %rbx
    4919:	48 89 f3             	mov    %rsi,%rbx
    491c:	48 83 ec 08          	sub    $0x8,%rsp
    4920:	8b 46 04             	mov    0x4(%rsi),%eax
    4923:	33 42 04             	xor    0x4(%rdx),%eax
    4926:	78 20                	js     4948 <mpz_add+0x38>
    4928:	e8 33 c1 ff ff       	call   a60 <mpz_abs_add>
    492d:	89 c2                	mov    %eax,%edx
    492f:	8b 43 04             	mov    0x4(%rbx),%eax
    4932:	85 c0                	test   %eax,%eax
    4934:	79 02                	jns    4938 <mpz_add+0x28>
    4936:	f7 da                	neg    %edx
    4938:	89 55 04             	mov    %edx,0x4(%rbp)
    493b:	48 83 c4 08          	add    $0x8,%rsp
    493f:	5b                   	pop    %rbx
    4940:	5d                   	pop    %rbp
    4941:	c3                   	ret    
    4942:	66 0f 1f 44 00 00    	nopw   0x0(%rax,%rax,1)
    4948:	e8 d3 c2 ff ff       	call   c20 <mpz_abs_sub>
    494d:	eb de                	jmp    492d <mpz_add+0x1d>
    494f:	90                   	nop

0000000000004950 <mpz_sub>:
    4950:	f3 0f 1e fa          	endbr64 
    4954:	55                   	push   %rbp
    4955:	48 89 fd             	mov    %rdi,%rbp
    4958:	53                   	push   %rbx
    4959:	48 89 f3             	mov    %rsi,%rbx
    495c:	48 83 ec 08          	sub    $0x8,%rsp
    4960:	8b 46 04             	mov    0x4(%rsi),%eax
    4963:	33 42 04             	xor    0x4(%rdx),%eax
    4966:	78 20                	js     4988 <mpz_sub+0x38>
    4968:	e8 b3 c2 ff ff       	call   c20 <mpz_abs_sub>
    496d:	89 c2                	mov    %eax,%edx
    496f:	8b 43 04             	mov    0x4(%rbx),%eax
    4972:	85 c0                	test   %eax,%eax
    4974:	79 02                	jns    4978 <mpz_sub+0x28>
    4976:	f7 da                	neg    %edx
    4978:	89 55 04             	mov    %edx,0x4(%rbp)
    497b:	48 83 c4 08          	add    $0x8,%rsp
    497f:	5b                   	pop    %rbx
    4980:	5d                   	pop    %rbp
    4981:	c3                   	ret    
    4982:	66 0f 1f 44 00 00    	nopw   0x0(%rax,%rax,1)
    4988:	e8 d3 c0 ff ff       	call   a60 <mpz_abs_add>
    498d:	eb de                	jmp    496d <mpz_sub+0x1d>
    498f:	90                   	nop

0000000000004990 <mpz_mul>:
    4990:	f3 0f 1e fa          	endbr64 
    4994:	41 57                	push   %r15
    4996:	41 56                	push   %r14
    4998:	41 55                	push   %r13
    499a:	41 54                	push   %r12
    499c:	55                   	push   %rbp
    499d:	53                   	push   %rbx
    499e:	48 89 fb             	mov    %rdi,%rbx
    49a1:	48 83 ec 28          	sub    $0x28,%rsp
    49a5:	8b 46 04             	mov    0x4(%rsi),%eax
    49a8:	8b 4a 04             	mov    0x4(%rdx),%ecx
    49ab:	85 c0                	test   %eax,%eax
    49ad:	0f 84 d5 00 00 00    	je     4a88 <mpz_mul+0xf8>
    49b3:	85 c9                	test   %ecx,%ecx
    49b5:	0f 84 cd 00 00 00    	je     4a88 <mpz_mul+0xf8>
    49bb:	89 c7                	mov    %eax,%edi
    49bd:	48 89 d5             	mov    %rdx,%rbp
    49c0:	89 c2                	mov    %eax,%edx
    49c2:	41 89 c9             	mov    %ecx,%r9d
    49c5:	31 cf                	xor    %ecx,%edi
    49c7:	f7 da                	neg    %edx
    49c9:	49 89 f4             	mov    %rsi,%r12
    49cc:	0f 48 d0             	cmovs  %eax,%edx
    49cf:	41 f7 d9             	neg    %r9d
    49d2:	89 7c 24 0c          	mov    %edi,0xc(%rsp)
    49d6:	44 0f 48 c9          	cmovs  %ecx,%r9d
    49da:	89 d2                	mov    %edx,%edx
    49dc:	45 89 c9             	mov    %r9d,%r9d
    49df:	48 89 54 24 10       	mov    %rdx,0x10(%rsp)
    49e4:	4e 8d 2c 0a          	lea    (%rdx,%r9,1),%r13
    49e8:	4c 89 4c 24 18       	mov    %r9,0x18(%rsp)
    49ed:	4d 89 ee             	mov    %r13,%r14
    49f0:	49 c1 e6 06          	shl    $0x6,%r14
    49f4:	49 83 ee 01          	sub    $0x1,%r14
    49f8:	49 c1 ee 06          	shr    $0x6,%r14
    49fc:	49 83 c6 01          	add    $0x1,%r14
    4a00:	4a 8d 3c f5 00 00 00 	lea    0x0(,%r14,8),%rdi
    4a07:	00 
    4a08:	ff 15 00 00 00 00    	call   *0x0(%rip)        # 4a0e <mpz_mul+0x7e>
    4a0e:	48 8b 54 24 10       	mov    0x10(%rsp),%rdx
    4a13:	4c 8b 4c 24 18       	mov    0x18(%rsp),%r9
    4a18:	49 89 c7             	mov    %rax,%r15
    4a1b:	4c 39 ca             	cmp    %r9,%rdx
    4a1e:	0f 8c 7c 00 00 00    	jl     4aa0 <mpz_mul+0x110>
    4a24:	48 8b 4d 08          	mov    0x8(%rbp),%rcx
    4a28:	49 8b 74 24 08       	mov    0x8(%r12),%rsi
    4a2d:	4d 89 c8             	mov    %r9,%r8
    4a30:	48 89 c7             	mov    %rax,%rdi
    4a33:	e8 00 00 00 00       	call   4a38 <mpz_mul+0xa8>
    4a38:	4b 83 7c ef f8 01    	cmpq   $0x1,-0x8(%r15,%r13,8)
    4a3e:	8b 54 24 0c          	mov    0xc(%rsp),%edx
    4a42:	49 83 dd 00          	sbb    $0x0,%r13
    4a46:	48 63 33             	movslq (%rbx),%rsi
    4a49:	4c 8b 43 08          	mov    0x8(%rbx),%r8
    4a4d:	44 89 33             	mov    %r14d,(%rbx)
    4a50:	44 89 e8             	mov    %r13d,%eax
    4a53:	4c 89 7b 08          	mov    %r15,0x8(%rbx)
    4a57:	f7 d8                	neg    %eax
    4a59:	85 d2                	test   %edx,%edx
    4a5b:	44 0f 48 e8          	cmovs  %eax,%r13d
    4a5f:	44 89 6b 04          	mov    %r13d,0x4(%rbx)
    4a63:	85 f6                	test   %esi,%esi
    4a65:	74 28                	je     4a8f <mpz_mul+0xff>
    4a67:	48 83 c4 28          	add    $0x28,%rsp
    4a6b:	48 c1 e6 03          	shl    $0x3,%rsi
    4a6f:	4c 89 c7             	mov    %r8,%rdi
    4a72:	5b                   	pop    %rbx
    4a73:	5d                   	pop    %rbp
    4a74:	41 5c                	pop    %r12
    4a76:	41 5d                	pop    %r13
    4a78:	41 5e                	pop    %r14
    4a7a:	41 5f                	pop    %r15
    4a7c:	ff 25 00 00 00 00    	jmp    *0x0(%rip)        # 4a82 <mpz_mul+0xf2>
    4a82:	66 0f 1f 44 00 00    	nopw   0x0(%rax,%rax,1)
    4a88:	c7 43 04 00 00 00 00 	movl   $0x0,0x4(%rbx)
    4a8f:	48 83 c4 28          	add    $0x28,%rsp
    4a93:	5b                   	pop    %rbx
    4a94:	5d                   	pop    %rbp
    4a95:	41 5c                	pop    %r12
    4a97:	41 5d                	pop    %r13
    4a99:	41 5e                	pop    %r14
    4a9b:	41 5f                	pop    %r15
    4a9d:	c3                   	ret    
    4a9e:	66 90                	xchg   %ax,%ax
    4aa0:	49 8b 4c 24 08       	mov    0x8(%r12),%rcx
    4aa5:	48 8b 75 08          	mov    0x8(%rbp),%rsi
    4aa9:	49 89 d0             	mov    %rdx,%r8
    4aac:	48 89 c7             	mov    %rax,%rdi
    4aaf:	4c 89 ca             	mov    %r9,%rdx
    4ab2:	e8 00 00 00 00       	call   4ab7 <mpz_mul+0x127>
    4ab7:	e9 7c ff ff ff       	jmp    4a38 <mpz_mul+0xa8>
    4abc:	0f 1f 40 00          	nopl   0x0(%rax)

0000000000004ac0 <mpz_mul_ui>:
    4ac0:	f3 0f 1e fa          	endbr64 
    4ac4:	41 55                	push   %r13
    4ac6:	41 54                	push   %r12
    4ac8:	49 89 f4             	mov    %rsi,%r12
    4acb:	55                   	push   %rbp
    4acc:	48 89 fd             	mov    %rdi,%rbp
    4acf:	53                   	push   %rbx
    4ad0:	48 83 ec 28          	sub    $0x28,%rsp
    4ad4:	64 48 8b 04 25 28 00 	mov    %fs:0x28,%rax
    4adb:	00 00 
    4add:	48 89 44 24 18       	mov    %rax,0x18(%rsp)
    4ae2:	31 c0                	xor    %eax,%eax
    4ae4:	48 8d 05 00 00 00 00 	lea    0x0(%rip),%rax        # 4aeb <mpz_mul_ui+0x2b>
    4aeb:	49 89 e5             	mov    %rsp,%r13
    4aee:	48 c7 04 24 00 00 00 	movq   $0x0,(%rsp)
    4af5:	00 
    4af6:	48 89 44 24 08       	mov    %rax,0x8(%rsp)
    4afb:	48 85 d2             	test   %rdx,%rdx
    4afe:	74 1b                	je     4b1b <mpz_mul_ui+0x5b>
    4b00:	be 01 00 00 00       	mov    $0x1,%esi
    4b05:	4c 89 ef             	mov    %r13,%rdi
    4b08:	48 89 d3             	mov    %rdx,%rbx
    4b0b:	c7 44 24 04 01 00 00 	movl   $0x1,0x4(%rsp)
    4b12:	00 
    4b13:	e8 98 b8 ff ff       	call   3b0 <mpz_realloc>
    4b18:	48 89 18             	mov    %rbx,(%rax)
    4b1b:	4c 89 e6             	mov    %r12,%rsi
    4b1e:	4c 89 ea             	mov    %r13,%rdx
    4b21:	48 89 ef             	mov    %rbp,%rdi
    4b24:	e8 00 00 00 00       	call   4b29 <mpz_mul_ui+0x69>
    4b29:	48 63 34 24          	movslq (%rsp),%rsi
    4b2d:	85 f6                	test   %esi,%esi
    4b2f:	74 2f                	je     4b60 <mpz_mul_ui+0xa0>
    4b31:	48 8b 44 24 18       	mov    0x18(%rsp),%rax
    4b36:	64 48 2b 04 25 28 00 	sub    %fs:0x28,%rax
    4b3d:	00 00 
    4b3f:	75 3a                	jne    4b7b <mpz_mul_ui+0xbb>
    4b41:	48 8b 7c 24 08       	mov    0x8(%rsp),%rdi
    4b46:	48 83 c4 28          	add    $0x28,%rsp
    4b4a:	48 c1 e6 03          	shl    $0x3,%rsi
    4b4e:	5b                   	pop    %rbx
    4b4f:	5d                   	pop    %rbp
    4b50:	41 5c                	pop    %r12
    4b52:	41 5d                	pop    %r13
    4b54:	ff 25 00 00 00 00    	jmp    *0x0(%rip)        # 4b5a <mpz_mul_ui+0x9a>
    4b5a:	66 0f 1f 44 00 00    	nopw   0x0(%rax,%rax,1)
    4b60:	48 8b 44 24 18       	mov    0x18(%rsp),%rax
    4b65:	64 48 2b 04 25 28 00 	sub    %fs:0x28,%rax
    4b6c:	00 00 
    4b6e:	75 0b                	jne    4b7b <mpz_mul_ui+0xbb>
    4b70:	48 83 c4 28          	add    $0x28,%rsp
    4b74:	5b                   	pop    %rbx
    4b75:	5d                   	pop    %rbp
    4b76:	41 5c                	pop    %r12
    4b78:	41 5d                	pop    %r13
    4b7a:	c3                   	ret    
    4b7b:	e8 00 00 00 00       	call   4b80 <gmp_lucas_step_k_2k>

0000000000004b80 <gmp_lucas_step_k_2k>:
    4b80:	41 56                	push   %r14
    4b82:	48 89 d1             	mov    %rdx,%rcx
    4b85:	41 55                	push   %r13
    4b87:	49 89 d5             	mov    %rdx,%r13
    4b8a:	41 54                	push   %r12
    4b8c:	49 89 f4             	mov    %rsi,%r12
    4b8f:	55                   	push   %rbp
    4b90:	48 89 fd             	mov    %rdi,%rbp
    4b93:	31 ff                	xor    %edi,%edi
    4b95:	48 83 ec 28          	sub    $0x28,%rsp
    4b99:	44 8b 42 04          	mov    0x4(%rdx),%r8d
    4b9d:	48 89 f2             	mov    %rsi,%rdx
    4ba0:	64 48 8b 04 25 28 00 	mov    %fs:0x28,%rax
    4ba7:	00 00 
    4ba9:	48 89 44 24 18       	mov    %rax,0x18(%rsp)
    4bae:	31 c0                	xor    %eax,%eax
    4bb0:	49 89 e6             	mov    %rsp,%r14
    4bb3:	41 c1 e8 1f          	shr    $0x1f,%r8d
    4bb7:	e8 04 f5 ff ff       	call   40c0 <mpz_div_qr>
    4bbc:	48 89 ea             	mov    %rbp,%rdx
    4bbf:	48 89 ee             	mov    %rbp,%rsi
    4bc2:	48 89 ef             	mov    %rbp,%rdi
    4bc5:	e8 00 00 00 00       	call   4bca <gmp_lucas_step_k_2k+0x4a>
    4bca:	48 8d 05 00 00 00 00 	lea    0x0(%rip),%rax        # 4bd1 <gmp_lucas_step_k_2k+0x51>
    4bd1:	be 01 00 00 00       	mov    $0x1,%esi
    4bd6:	4c 89 f7             	mov    %r14,%rdi
    4bd9:	48 89 44 24 08       	mov    %rax,0x8(%rsp)
    4bde:	48 b8 00 00 00 00 01 	movabs $0x100000000,%rax
    4be5:	00 00 00 
    4be8:	48 89 04 24          	mov    %rax,(%rsp)
    4bec:	e8 bf b7 ff ff       	call   3b0 <mpz_realloc>
    4bf1:	4c 89 f2             	mov    %r14,%rdx
    4bf4:	4c 89 e6             	mov    %r12,%rsi
    4bf7:	4c 89 f7             	mov    %r14,%rdi
    4bfa:	48 c7 00 02 00 00 00 	movq   $0x2,(%rax)
    4c01:	e8 00 00 00 00       	call   4c06 <gmp_lucas_step_k_2k+0x86>
    4c06:	8b 45 04             	mov    0x4(%rbp),%eax
    4c09:	33 44 24 04          	xor    0x4(%rsp),%eax
    4c0d:	4c 89 f2             	mov    %r14,%rdx
    4c10:	48 89 ee             	mov    %rbp,%rsi
    4c13:	48 89 ef             	mov    %rbp,%rdi
    4c16:	78 70                	js     4c88 <gmp_lucas_step_k_2k+0x108>
    4c18:	e8 03 c0 ff ff       	call   c20 <mpz_abs_sub>
    4c1d:	89 c2                	mov    %eax,%edx
    4c1f:	8b 45 04             	mov    0x4(%rbp),%eax
    4c22:	85 c0                	test   %eax,%eax
    4c24:	79 02                	jns    4c28 <gmp_lucas_step_k_2k+0xa8>
    4c26:	f7 da                	neg    %edx
    4c28:	48 63 34 24          	movslq (%rsp),%rsi
    4c2c:	89 55 04             	mov    %edx,0x4(%rbp)
    4c2f:	85 f6                	test   %esi,%esi
    4c31:	74 0f                	je     4c42 <gmp_lucas_step_k_2k+0xc2>
    4c33:	48 8b 7c 24 08       	mov    0x8(%rsp),%rdi
    4c38:	48 c1 e6 03          	shl    $0x3,%rsi
    4c3c:	ff 15 00 00 00 00    	call   *0x0(%rip)        # 4c42 <gmp_lucas_step_k_2k+0xc2>
    4c42:	31 ff                	xor    %edi,%edi
    4c44:	41 b8 02 00 00 00    	mov    $0x2,%r8d
    4c4a:	4c 89 e9             	mov    %r13,%rcx
    4c4d:	48 89 ea             	mov    %rbp,%rdx
    4c50:	48 89 ee             	mov    %rbp,%rsi
    4c53:	e8 68 f4 ff ff       	call   40c0 <mpz_div_qr>
    4c58:	48 8b 44 24 18       	mov    0x18(%rsp),%rax
    4c5d:	64 48 2b 04 25 28 00 	sub    %fs:0x28,%rax
    4c64:	00 00 
    4c66:	75 27                	jne    4c8f <gmp_lucas_step_k_2k+0x10f>
    4c68:	48 83 c4 28          	add    $0x28,%rsp
    4c6c:	4c 89 e2             	mov    %r12,%rdx
    4c6f:	4c 89 e6             	mov    %r12,%rsi
    4c72:	4c 89 e7             	mov    %r12,%rdi
    4c75:	5d                   	pop    %rbp
    4c76:	41 5c                	pop    %r12
    4c78:	41 5d                	pop    %r13
    4c7a:	41 5e                	pop    %r14
    4c7c:	e9 0f fd ff ff       	jmp    4990 <mpz_mul>
    4c81:	0f 1f 80 00 00 00 00 	nopl   0x0(%rax)
    4c88:	e8 d3 bd ff ff       	call   a60 <mpz_abs_add>
    4c8d:	eb 8e                	jmp    4c1d <gmp_lucas_step_k_2k+0x9d>
    4c8f:	e8 00 00 00 00       	call   4c94 <gmp_lucas_step_k_2k+0x114>
    4c94:	66 66 2e 0f 1f 84 00 	data16 cs nopw 0x0(%rax,%rax,1)
    4c9b:	00 00 00 00 
    4c9f:	90                   	nop

0000000000004ca0 <mpz_mul_si>:
    4ca0:	f3 0f 1e fa          	endbr64 
    4ca4:	41 55                	push   %r13
    4ca6:	41 54                	push   %r12
    4ca8:	49 89 f4             	mov    %rsi,%r12
    4cab:	55                   	push   %rbp
    4cac:	48 89 fd             	mov    %rdi,%rbp
    4caf:	53                   	push   %rbx
    4cb0:	48 89 d3             	mov    %rdx,%rbx
    4cb3:	48 83 ec 28          	sub    $0x28,%rsp
    4cb7:	64 48 8b 04 25 28 00 	mov    %fs:0x28,%rax
    4cbe:	00 00 
    4cc0:	48 89 44 24 18       	mov    %rax,0x18(%rsp)
    4cc5:	31 c0                	xor    %eax,%eax
    4cc7:	48 85 d2             	test   %rdx,%rdx
    4cca:	78 7c                	js     4d48 <mpz_mul_si+0xa8>
    4ccc:	48 8d 05 00 00 00 00 	lea    0x0(%rip),%rax        # 4cd3 <mpz_mul_si+0x33>
    4cd3:	48 c7 04 24 00 00 00 	movq   $0x0,(%rsp)
    4cda:	00 
    4cdb:	49 89 e5             	mov    %rsp,%r13
    4cde:	48 89 44 24 08       	mov    %rax,0x8(%rsp)
    4ce3:	74 18                	je     4cfd <mpz_mul_si+0x5d>
    4ce5:	be 01 00 00 00       	mov    $0x1,%esi
    4cea:	4c 89 ef             	mov    %r13,%rdi
    4ced:	c7 44 24 04 01 00 00 	movl   $0x1,0x4(%rsp)
    4cf4:	00 
    4cf5:	e8 b6 b6 ff ff       	call   3b0 <mpz_realloc>
    4cfa:	48 89 18             	mov    %rbx,(%rax)
    4cfd:	4c 89 e6             	mov    %r12,%rsi
    4d00:	4c 89 ea             	mov    %r13,%rdx
    4d03:	48 89 ef             	mov    %rbp,%rdi
    4d06:	e8 00 00 00 00       	call   4d0b <mpz_mul_si+0x6b>
    4d0b:	48 63 34 24          	movslq (%rsp),%rsi
    4d0f:	85 f6                	test   %esi,%esi
    4d11:	0f 84 94 00 00 00    	je     4dab <mpz_mul_si+0x10b>
    4d17:	48 8b 44 24 18       	mov    0x18(%rsp),%rax
    4d1c:	64 48 2b 04 25 28 00 	sub    %fs:0x28,%rax
    4d23:	00 00 
    4d25:	0f 85 9b 00 00 00    	jne    4dc6 <mpz_mul_si+0x126>
    4d2b:	48 8b 7c 24 08       	mov    0x8(%rsp),%rdi
    4d30:	48 83 c4 28          	add    $0x28,%rsp
    4d34:	48 c1 e6 03          	shl    $0x3,%rsi
    4d38:	5b                   	pop    %rbx
    4d39:	5d                   	pop    %rbp
    4d3a:	41 5c                	pop    %r12
    4d3c:	41 5d                	pop    %r13
    4d3e:	ff 25 00 00 00 00    	jmp    *0x0(%rip)        # 4d44 <mpz_mul_si+0xa4>
    4d44:	0f 1f 40 00          	nopl   0x0(%rax)
    4d48:	48 8d 05 00 00 00 00 	lea    0x0(%rip),%rax        # 4d4f <mpz_mul_si+0xaf>
    4d4f:	49 89 e5             	mov    %rsp,%r13
    4d52:	be 01 00 00 00       	mov    $0x1,%esi
    4d57:	48 f7 db             	neg    %rbx
    4d5a:	48 89 44 24 08       	mov    %rax,0x8(%rsp)
    4d5f:	4c 89 ef             	mov    %r13,%rdi
    4d62:	48 b8 00 00 00 00 01 	movabs $0x100000000,%rax
    4d69:	00 00 00 
    4d6c:	48 89 04 24          	mov    %rax,(%rsp)
    4d70:	e8 3b b6 ff ff       	call   3b0 <mpz_realloc>
    4d75:	4c 89 e6             	mov    %r12,%rsi
    4d78:	4c 89 ea             	mov    %r13,%rdx
    4d7b:	48 89 ef             	mov    %rbp,%rdi
    4d7e:	48 89 18             	mov    %rbx,(%rax)
    4d81:	e8 00 00 00 00       	call   4d86 <mpz_mul_si+0xe6>
    4d86:	48 63 34 24          	movslq (%rsp),%rsi
    4d8a:	85 f6                	test   %esi,%esi
    4d8c:	74 0f                	je     4d9d <mpz_mul_si+0xfd>
    4d8e:	48 8b 7c 24 08       	mov    0x8(%rsp),%rdi
    4d93:	48 c1 e6 03          	shl    $0x3,%rsi
    4d97:	ff 15 00 00 00 00    	call   *0x0(%rip)        # 4d9d <mpz_mul_si+0xfd>
    4d9d:	48 89 ee             	mov    %rbp,%rsi
    4da0:	48 89 ef             	mov    %rbp,%rdi
    4da3:	e8 00 00 00 00       	call   4da8 <mpz_mul_si+0x108>
    4da8:	f7 5d 04             	negl   0x4(%rbp)
    4dab:	48 8b 44 24 18       	mov    0x18(%rsp),%rax
    4db0:	64 48 2b 04 25 28 00 	sub    %fs:0x28,%rax
    4db7:	00 00 
    4db9:	75 0b                	jne    4dc6 <mpz_mul_si+0x126>
    4dbb:	48 83 c4 28          	add    $0x28,%rsp
    4dbf:	5b                   	pop    %rbx
    4dc0:	5d                   	pop    %rbp
    4dc1:	41 5c                	pop    %r12
    4dc3:	41 5d                	pop    %r13
    4dc5:	c3                   	ret    
    4dc6:	e8 00 00 00 00       	call   4dcb <mpz_mul_si+0x12b>
    4dcb:	0f 1f 44 00 00       	nopl   0x0(%rax,%rax,1)

0000000000004dd0 <mpz_mul_2exp>:
    4dd0:	f3 0f 1e fa          	endbr64 
    4dd4:	41 57                	push   %r15
    4dd6:	41 56                	push   %r14
    4dd8:	41 55                	push   %r13
    4dda:	41 54                	push   %r12
    4ddc:	55                   	push   %rbp
    4ddd:	48 89 fd             	mov    %rdi,%rbp
    4de0:	53                   	push   %rbx
    4de1:	48 83 ec 18          	sub    $0x18,%rsp
    4de5:	8b 46 04             	mov    0x4(%rsi),%eax
    4de8:	85 c0                	test   %eax,%eax
    4dea:	0f 84 87 00 00 00    	je     4e77 <mpz_mul_2exp+0xa7>
    4df0:	41 89 c5             	mov    %eax,%r13d
    4df3:	49 89 d7             	mov    %rdx,%r15
    4df6:	41 89 d4             	mov    %edx,%r12d
    4df9:	48 89 f3             	mov    %rsi,%rbx
    4dfc:	41 f7 dd             	neg    %r13d
    4dff:	44 0f 48 e8          	cmovs  %eax,%r13d
    4e03:	49 c1 ef 06          	shr    $0x6,%r15
    4e07:	31 c0                	xor    %eax,%eax
    4e09:	41 83 e4 3f          	and    $0x3f,%r12d
    4e0d:	0f 95 c0             	setne  %al
    4e10:	4d 63 ed             	movslq %r13d,%r13
    4e13:	4f 8d 74 3d 00       	lea    0x0(%r13,%r15,1),%r14
    4e18:	49 01 c6             	add    %rax,%r14
    4e1b:	48 63 07             	movslq (%rdi),%rax
    4e1e:	4c 39 f0             	cmp    %r14,%rax
    4e21:	7c 6d                	jl     4e90 <mpz_mul_2exp+0xc0>
    4e23:	4c 8b 47 08          	mov    0x8(%rdi),%r8
    4e27:	4e 8d 0c fd 00 00 00 	lea    0x0(,%r15,8),%r9
    4e2e:	00 
    4e2f:	48 8b 73 08          	mov    0x8(%rbx),%rsi
    4e33:	49 8d 45 ff          	lea    -0x1(%r13),%rax
    4e37:	4b 8d 3c 08          	lea    (%r8,%r9,1),%rdi
    4e3b:	45 85 e4             	test   %r12d,%r12d
    4e3e:	75 60                	jne    4ea0 <mpz_mul_2exp+0xd0>
    4e40:	48 8b 14 c6          	mov    (%rsi,%rax,8),%rdx
    4e44:	48 89 14 c7          	mov    %rdx,(%rdi,%rax,8)
    4e48:	48 83 e8 01          	sub    $0x1,%rax
    4e4c:	73 f2                	jae    4e40 <mpz_mul_2exp+0x70>
    4e4e:	49 8d 47 ff          	lea    -0x1(%r15),%rax
    4e52:	4d 85 ff             	test   %r15,%r15
    4e55:	74 12                	je     4e69 <mpz_mul_2exp+0x99>
    4e57:	4c 29 f8             	sub    %r15,%rax
    4e5a:	4c 89 ca             	mov    %r9,%rdx
    4e5d:	31 f6                	xor    %esi,%esi
    4e5f:	49 8d 7c c0 08       	lea    0x8(%r8,%rax,8),%rdi
    4e64:	e8 00 00 00 00       	call   4e69 <mpz_mul_2exp+0x99>
    4e69:	8b 53 04             	mov    0x4(%rbx),%edx
    4e6c:	44 89 f0             	mov    %r14d,%eax
    4e6f:	f7 d8                	neg    %eax
    4e71:	85 d2                	test   %edx,%edx
    4e73:	41 0f 49 c6          	cmovns %r14d,%eax
    4e77:	89 45 04             	mov    %eax,0x4(%rbp)
    4e7a:	48 83 c4 18          	add    $0x18,%rsp
    4e7e:	5b                   	pop    %rbx
    4e7f:	5d                   	pop    %rbp
    4e80:	41 5c                	pop    %r12
    4e82:	41 5d                	pop    %r13
    4e84:	41 5e                	pop    %r14
    4e86:	41 5f                	pop    %r15
    4e88:	c3                   	ret    
    4e89:	0f 1f 80 00 00 00 00 	nopl   0x0(%rax)
    4e90:	4c 89 f6             	mov    %r14,%rsi
    4e93:	e8 18 b5 ff ff       	call   3b0 <mpz_realloc>
    4e98:	49 89 c0             	mov    %rax,%r8
    4e9b:	eb 8a                	jmp    4e27 <mpz_mul_2exp+0x57>
    4e9d:	0f 1f 00             	nopl   (%rax)
    4ea0:	44 89 e1             	mov    %r12d,%ecx
    4ea3:	4c 89 ea             	mov    %r13,%rdx
    4ea6:	4c 89 4c 24 08       	mov    %r9,0x8(%rsp)
    4eab:	4c 89 04 24          	mov    %r8,(%rsp)
    4eaf:	e8 00 00 00 00       	call   4eb4 <mpz_mul_2exp+0xe4>
    4eb4:	4c 8b 04 24          	mov    (%rsp),%r8
    4eb8:	4c 8b 4c 24 08       	mov    0x8(%rsp),%r9
    4ebd:	48 83 f8 01          	cmp    $0x1,%rax
    4ec1:	4b 89 44 f0 f8       	mov    %rax,-0x8(%r8,%r14,8)
    4ec6:	49 83 de 00          	sbb    $0x0,%r14
    4eca:	eb 82                	jmp    4e4e <mpz_mul_2exp+0x7e>
    4ecc:	0f 1f 40 00          	nopl   0x0(%rax)

0000000000004ed0 <mpz_addmul_ui>:
    4ed0:	f3 0f 1e fa          	endbr64 
    4ed4:	41 55                	push   %r13
    4ed6:	49 89 f5             	mov    %rsi,%r13
    4ed9:	41 54                	push   %r12
    4edb:	55                   	push   %rbp
    4edc:	53                   	push   %rbx
    4edd:	48 89 fb             	mov    %rdi,%rbx
    4ee0:	48 83 ec 28          	sub    $0x28,%rsp
    4ee4:	64 48 8b 04 25 28 00 	mov    %fs:0x28,%rax
    4eeb:	00 00 
    4eed:	48 89 44 24 18       	mov    %rax,0x18(%rsp)
    4ef2:	31 c0                	xor    %eax,%eax
    4ef4:	48 8d 05 00 00 00 00 	lea    0x0(%rip),%rax        # 4efb <mpz_addmul_ui+0x2b>
    4efb:	49 89 e4             	mov    %rsp,%r12
    4efe:	48 c7 04 24 00 00 00 	movq   $0x0,(%rsp)
    4f05:	00 
    4f06:	48 89 44 24 08       	mov    %rax,0x8(%rsp)
    4f0b:	48 85 d2             	test   %rdx,%rdx
    4f0e:	74 1b                	je     4f2b <mpz_addmul_ui+0x5b>
    4f10:	be 01 00 00 00       	mov    $0x1,%esi
    4f15:	4c 89 e7             	mov    %r12,%rdi
    4f18:	48 89 d5             	mov    %rdx,%rbp
    4f1b:	c7 44 24 04 01 00 00 	movl   $0x1,0x4(%rsp)
    4f22:	00 
    4f23:	e8 88 b4 ff ff       	call   3b0 <mpz_realloc>
    4f28:	48 89 28             	mov    %rbp,(%rax)
    4f2b:	4c 89 e2             	mov    %r12,%rdx
    4f2e:	4c 89 ee             	mov    %r13,%rsi
    4f31:	4c 89 e7             	mov    %r12,%rdi
    4f34:	e8 00 00 00 00       	call   4f39 <mpz_addmul_ui+0x69>
    4f39:	8b 43 04             	mov    0x4(%rbx),%eax
    4f3c:	33 44 24 04          	xor    0x4(%rsp),%eax
    4f40:	4c 89 e2             	mov    %r12,%rdx
    4f43:	48 89 de             	mov    %rbx,%rsi
    4f46:	48 89 df             	mov    %rbx,%rdi
    4f49:	78 45                	js     4f90 <mpz_addmul_ui+0xc0>
    4f4b:	e8 10 bb ff ff       	call   a60 <mpz_abs_add>
    4f50:	89 c2                	mov    %eax,%edx
    4f52:	8b 43 04             	mov    0x4(%rbx),%eax
    4f55:	85 c0                	test   %eax,%eax
    4f57:	79 02                	jns    4f5b <mpz_addmul_ui+0x8b>
    4f59:	f7 da                	neg    %edx
    4f5b:	48 63 34 24          	movslq (%rsp),%rsi
    4f5f:	89 53 04             	mov    %edx,0x4(%rbx)
    4f62:	85 f6                	test   %esi,%esi
    4f64:	74 0f                	je     4f75 <mpz_addmul_ui+0xa5>
    4f66:	48 8b 7c 24 08       	mov    0x8(%rsp),%rdi
    4f6b:	48 c1 e6 03          	shl    $0x3,%rsi
    4f6f:	ff 15 00 00 00 00    	call   *0x0(%rip)        # 4f75 <mpz_addmul_ui+0xa5>
    4f75:	48 8b 44 24 18       	mov    0x18(%rsp),%rax
    4f7a:	64 48 2b 04 25 28 00 	sub    %fs:0x28,%rax
    4f81:	00 00 
    4f83:	75 12                	jne    4f97 <mpz_addmul_ui+0xc7>
    4f85:	48 83 c4 28          	add    $0x28,%rsp
    4f89:	5b                   	pop    %rbx
    4f8a:	5d                   	pop    %rbp
    4f8b:	41 5c                	pop    %r12
    4f8d:	41 5d                	pop    %r13
    4f8f:	c3                   	ret    
    4f90:	e8 8b bc ff ff       	call   c20 <mpz_abs_sub>
    4f95:	eb b9                	jmp    4f50 <mpz_addmul_ui+0x80>
    4f97:	e8 00 00 00 00       	call   4f9c <mpz_addmul_ui+0xcc>
    4f9c:	0f 1f 40 00          	nopl   0x0(%rax)

0000000000004fa0 <mpz_submul_ui>:
    4fa0:	f3 0f 1e fa          	endbr64 
    4fa4:	41 55                	push   %r13
    4fa6:	49 89 f5             	mov    %rsi,%r13
    4fa9:	41 54                	push   %r12
    4fab:	55                   	push   %rbp
    4fac:	53                   	push   %rbx
    4fad:	48 89 fb             	mov    %rdi,%rbx
    4fb0:	48 83 ec 28          	sub    $0x28,%rsp
    4fb4:	64 48 8b 04 25 28 00 	mov    %fs:0x28,%rax
    4fbb:	00 00 
    4fbd:	48 89 44 24 18       	mov    %rax,0x18(%rsp)
    4fc2:	31 c0                	xor    %eax,%eax
    4fc4:	48 8d 05 00 00 00 00 	lea    0x0(%rip),%rax        # 4fcb <mpz_submul_ui+0x2b>
    4fcb:	49 89 e4             	mov    %rsp,%r12
    4fce:	48 c7 04 24 00 00 00 	movq   $0x0,(%rsp)
    4fd5:	00 
    4fd6:	48 89 44 24 08       	mov    %rax,0x8(%rsp)
    4fdb:	48 85 d2             	test   %rdx,%rdx
    4fde:	74 1b                	je     4ffb <mpz_submul_ui+0x5b>
    4fe0:	be 01 00 00 00       	mov    $0x1,%esi
    4fe5:	4c 89 e7             	mov    %r12,%rdi
    4fe8:	48 89 d5             	mov    %rdx,%rbp
    4feb:	c7 44 24 04 01 00 00 	movl   $0x1,0x4(%rsp)
    4ff2:	00 
    4ff3:	e8 b8 b3 ff ff       	call   3b0 <mpz_realloc>
    4ff8:	48 89 28             	mov    %rbp,(%rax)
    4ffb:	4c 89 e2             	mov    %r12,%rdx
    4ffe:	4c 89 ee             	mov    %r13,%rsi
    5001:	4c 89 e7             	mov    %r12,%rdi
    5004:	e8 00 00 00 00       	call   5009 <mpz_submul_ui+0x69>
    5009:	8b 43 04             	mov    0x4(%rbx),%eax
    500c:	33 44 24 04          	xor    0x4(%rsp),%eax
    5010:	4c 89 e2             	mov    %r12,%rdx
    5013:	48 89 de             	mov    %rbx,%rsi
    5016:	48 89 df             	mov    %rbx,%rdi
    5019:	78 45                	js     5060 <mpz_submul_ui+0xc0>
    501b:	e8 00 bc ff ff       	call   c20 <mpz_abs_sub>
    5020:	89 c2                	mov    %eax,%edx
    5022:	8b 43 04             	mov    0x4(%rbx),%eax
    5025:	85 c0                	test   %eax,%eax
    5027:	79 02                	jns    502b <mpz_submul_ui+0x8b>
    5029:	f7 da                	neg    %edx
    502b:	48 63 34 24          	movslq (%rsp),%rsi
    502f:	89 53 04             	mov    %edx,0x4(%rbx)
    5032:	85 f6                	test   %esi,%esi
    5034:	74 0f                	je     5045 <mpz_submul_ui+0xa5>
    5036:	48 8b 7c 24 08       	mov    0x8(%rsp),%rdi
    503b:	48 c1 e6 03          	shl    $0x3,%rsi
    503f:	ff 15 00 00 00 00    	call   *0x0(%rip)        # 5045 <mpz_submul_ui+0xa5>
    5045:	48 8b 44 24 18       	mov    0x18(%rsp),%rax
    504a:	64 48 2b 04 25 28 00 	sub    %fs:0x28,%rax
    5051:	00 00 
    5053:	75 12                	jne    5067 <mpz_submul_ui+0xc7>
    5055:	48 83 c4 28          	add    $0x28,%rsp
    5059:	5b                   	pop    %rbx
    505a:	5d                   	pop    %rbp
    505b:	41 5c                	pop    %r12
    505d:	41 5d                	pop    %r13
    505f:	c3                   	ret    
    5060:	e8 fb b9 ff ff       	call   a60 <mpz_abs_add>
    5065:	eb b9                	jmp    5020 <mpz_submul_ui+0x80>
    5067:	e8 00 00 00 00       	call   506c <mpz_submul_ui+0xcc>
    506c:	0f 1f 40 00          	nopl   0x0(%rax)

0000000000005070 <mpz_addmul>:
    5070:	f3 0f 1e fa          	endbr64 
    5074:	41 54                	push   %r12
    5076:	53                   	push   %rbx
    5077:	48 89 fb             	mov    %rdi,%rbx
    507a:	48 83 ec 28          	sub    $0x28,%rsp
    507e:	64 48 8b 04 25 28 00 	mov    %fs:0x28,%rax
    5085:	00 00 
    5087:	48 89 44 24 18       	mov    %rax,0x18(%rsp)
    508c:	31 c0                	xor    %eax,%eax
    508e:	49 89 e4             	mov    %rsp,%r12
    5091:	48 8d 05 00 00 00 00 	lea    0x0(%rip),%rax        # 5098 <mpz_addmul+0x28>
    5098:	48 c7 04 24 00 00 00 	movq   $0x0,(%rsp)
    509f:	00 
    50a0:	4c 89 e7             	mov    %r12,%rdi
    50a3:	48 89 44 24 08       	mov    %rax,0x8(%rsp)
    50a8:	e8 00 00 00 00       	call   50ad <mpz_addmul+0x3d>
    50ad:	8b 43 04             	mov    0x4(%rbx),%eax
    50b0:	33 44 24 04          	xor    0x4(%rsp),%eax
    50b4:	4c 89 e2             	mov    %r12,%rdx
    50b7:	48 89 de             	mov    %rbx,%rsi
    50ba:	48 89 df             	mov    %rbx,%rdi
    50bd:	78 49                	js     5108 <mpz_addmul+0x98>
    50bf:	e8 9c b9 ff ff       	call   a60 <mpz_abs_add>
    50c4:	89 c2                	mov    %eax,%edx
    50c6:	8b 43 04             	mov    0x4(%rbx),%eax
    50c9:	85 c0                	test   %eax,%eax
    50cb:	79 02                	jns    50cf <mpz_addmul+0x5f>
    50cd:	f7 da                	neg    %edx
    50cf:	48 63 34 24          	movslq (%rsp),%rsi
    50d3:	89 53 04             	mov    %edx,0x4(%rbx)
    50d6:	85 f6                	test   %esi,%esi
    50d8:	74 0f                	je     50e9 <mpz_addmul+0x79>
    50da:	48 8b 7c 24 08       	mov    0x8(%rsp),%rdi
    50df:	48 c1 e6 03          	shl    $0x3,%rsi
    50e3:	ff 15 00 00 00 00    	call   *0x0(%rip)        # 50e9 <mpz_addmul+0x79>
    50e9:	48 8b 44 24 18       	mov    0x18(%rsp),%rax
    50ee:	64 48 2b 04 25 28 00 	sub    %fs:0x28,%rax
    50f5:	00 00 
    50f7:	75 16                	jne    510f <mpz_addmul+0x9f>
    50f9:	48 83 c4 28          	add    $0x28,%rsp
    50fd:	5b                   	pop    %rbx
    50fe:	41 5c                	pop    %r12
    5100:	c3                   	ret    
    5101:	0f 1f 80 00 00 00 00 	nopl   0x0(%rax)
    5108:	e8 13 bb ff ff       	call   c20 <mpz_abs_sub>
    510d:	eb b5                	jmp    50c4 <mpz_addmul+0x54>
    510f:	e8 00 00 00 00       	call   5114 <mpz_addmul+0xa4>
    5114:	66 66 2e 0f 1f 84 00 	data16 cs nopw 0x0(%rax,%rax,1)
    511b:	00 00 00 00 
    511f:	90                   	nop

0000000000005120 <mpz_submul>:
    5120:	f3 0f 1e fa          	endbr64 
    5124:	41 54                	push   %r12
    5126:	53                   	push   %rbx
    5127:	48 89 fb             	mov    %rdi,%rbx
    512a:	48 83 ec 28          	sub    $0x28,%rsp
    512e:	64 48 8b 04 25 28 00 	mov    %fs:0x28,%rax
    5135:	00 00 
    5137:	48 89 44 24 18       	mov    %rax,0x18(%rsp)
    513c:	31 c0                	xor    %eax,%eax
    513e:	49 89 e4             	mov    %rsp,%r12
    5141:	48 8d 05 00 00 00 00 	lea    0x0(%rip),%rax        # 5148 <mpz_submul+0x28>
    5148:	48 c7 04 24 00 00 00 	movq   $0x0,(%rsp)
    514f:	00 
    5150:	4c 89 e7             	mov    %r12,%rdi
    5153:	48 89 44 24 08       	mov    %rax,0x8(%rsp)
    5158:	e8 00 00 00 00       	call   515d <mpz_submul+0x3d>
    515d:	8b 43 04             	mov    0x4(%rbx),%eax
    5160:	33 44 24 04          	xor    0x4(%rsp),%eax
    5164:	4c 89 e2             	mov    %r12,%rdx
    5167:	48 89 de             	mov    %rbx,%rsi
    516a:	48 89 df             	mov    %rbx,%rdi
    516d:	78 49                	js     51b8 <mpz_submul+0x98>
    516f:	e8 ac ba ff ff       	call   c20 <mpz_abs_sub>
    5174:	89 c2                	mov    %eax,%edx
    5176:	8b 43 04             	mov    0x4(%rbx),%eax
    5179:	85 c0                	test   %eax,%eax
    517b:	79 02                	jns    517f <mpz_submul+0x5f>
    517d:	f7 da                	neg    %edx
    517f:	48 63 34 24          	movslq (%rsp),%rsi
    5183:	89 53 04             	mov    %edx,0x4(%rbx)
    5186:	85 f6                	test   %esi,%esi
    5188:	74 0f                	je     5199 <mpz_submul+0x79>
    518a:	48 8b 7c 24 08       	mov    0x8(%rsp),%rdi
    518f:	48 c1 e6 03          	shl    $0x3,%rsi
    5193:	ff 15 00 00 00 00    	call   *0x0(%rip)        # 5199 <mpz_submul+0x79>
    5199:	48 8b 44 24 18       	mov    0x18(%rsp),%rax
    519e:	64 48 2b 04 25 28 00 	sub    %fs:0x28,%rax
    51a5:	00 00 
    51a7:	75 16                	jne    51bf <mpz_submul+0x9f>
    51a9:	48 83 c4 28          	add    $0x28,%rsp
    51ad:	5b                   	pop    %rbx
    51ae:	41 5c                	pop    %r12
    51b0:	c3                   	ret    
    51b1:	0f 1f 80 00 00 00 00 	nopl   0x0(%rax)
    51b8:	e8 a3 b8 ff ff       	call   a60 <mpz_abs_add>
    51bd:	eb b5                	jmp    5174 <mpz_submul+0x54>
    51bf:	e8 00 00 00 00       	call   51c4 <mpz_submul+0xa4>
    51c4:	66 66 2e 0f 1f 84 00 	data16 cs nopw 0x0(%rax,%rax,1)
    51cb:	00 00 00 00 
    51cf:	90                   	nop

00000000000051d0 <mpz_cdiv_qr>:
    51d0:	f3 0f 1e fa          	endbr64 
    51d4:	41 b8 01 00 00 00    	mov    $0x1,%r8d
    51da:	e9 e1 ee ff ff       	jmp    40c0 <mpz_div_qr>
    51df:	90                   	nop

00000000000051e0 <mpz_fdiv_qr>:
    51e0:	f3 0f 1e fa          	endbr64 
    51e4:	45 31 c0             	xor    %r8d,%r8d
    51e7:	e9 d4 ee ff ff       	jmp    40c0 <mpz_div_qr>
    51ec:	0f 1f 40 00          	nopl   0x0(%rax)

00000000000051f0 <mpz_tdiv_qr>:
    51f0:	f3 0f 1e fa          	endbr64 
    51f4:	41 b8 02 00 00 00    	mov    $0x2,%r8d
    51fa:	e9 c1 ee ff ff       	jmp    40c0 <mpz_div_qr>
    51ff:	90                   	nop

0000000000005200 <mpz_cdiv_q>:
    5200:	f3 0f 1e fa          	endbr64 
    5204:	48 89 d1             	mov    %rdx,%rcx
    5207:	41 b8 01 00 00 00    	mov    $0x1,%r8d
    520d:	48 89 f2             	mov    %rsi,%rdx
    5210:	31 f6                	xor    %esi,%esi
    5212:	e9 a9 ee ff ff       	jmp    40c0 <mpz_div_qr>
    5217:	66 0f 1f 84 00 00 00 	nopw   0x0(%rax,%rax,1)
    521e:	00 00 

0000000000005220 <mpz_fdiv_q>:
    5220:	f3 0f 1e fa          	endbr64 
    5224:	48 89 d1             	mov    %rdx,%rcx
    5227:	45 31 c0             	xor    %r8d,%r8d
    522a:	48 89 f2             	mov    %rsi,%rdx
    522d:	31 f6                	xor    %esi,%esi
    522f:	e9 8c ee ff ff       	jmp    40c0 <mpz_div_qr>
    5234:	66 66 2e 0f 1f 84 00 	data16 cs nopw 0x0(%rax,%rax,1)
    523b:	00 00 00 00 
    523f:	90                   	nop

0000000000005240 <mpz_tdiv_q>:
    5240:	f3 0f 1e fa          	endbr64 
    5244:	48 89 d1             	mov    %rdx,%rcx
    5247:	41 b8 02 00 00 00    	mov    $0x2,%r8d
    524d:	48 89 f2             	mov    %rsi,%rdx
    5250:	31 f6                	xor    %esi,%esi
    5252:	e9 69 ee ff ff       	jmp    40c0 <mpz_div_qr>
    5257:	66 0f 1f 84 00 00 00 	nopw   0x0(%rax,%rax,1)
    525e:	00 00 

0000000000005260 <mpz_cdiv_r>:
    5260:	f3 0f 1e fa          	endbr64 
    5264:	48 89 d1             	mov    %rdx,%rcx
    5267:	41 b8 01 00 00 00    	mov    $0x1,%r8d
    526d:	48 89 f2             	mov    %rsi,%rdx
    5270:	48 89 fe             	mov    %rdi,%rsi
    5273:	31 ff                	xor    %edi,%edi
    5275:	e9 46 ee ff ff       	jmp    40c0 <mpz_div_qr>
    527a:	66 0f 1f 44 00 00    	nopw   0x0(%rax,%rax,1)

0000000000005280 <mpz_fdiv_r>:
    5280:	f3 0f 1e fa          	endbr64 
    5284:	48 89 d1             	mov    %rdx,%rcx
    5287:	45 31 c0             	xor    %r8d,%r8d
    528a:	48 89 f2             	mov    %rsi,%rdx
    528d:	48 89 fe             	mov    %rdi,%rsi
    5290:	31 ff                	xor    %edi,%edi
    5292:	e9 29 ee ff ff       	jmp    40c0 <mpz_div_qr>
    5297:	66 0f 1f 84 00 00 00 	nopw   0x0(%rax,%rax,1)
    529e:	00 00 

00000000000052a0 <mpz_tdiv_r>:
    52a0:	f3 0f 1e fa          	endbr64 
    52a4:	48 89 d1             	mov    %rdx,%rcx
    52a7:	41 b8 02 00 00 00    	mov    $0x2,%r8d
    52ad:	48 89 f2             	mov    %rsi,%rdx
    52b0:	48 89 fe             	mov    %rdi,%rsi
    52b3:	31 ff                	xor    %edi,%edi
    52b5:	e9 06 ee ff ff       	jmp    40c0 <mpz_div_qr>
    52ba:	66 0f 1f 44 00 00    	nopw   0x0(%rax,%rax,1)

00000000000052c0 <mpz_mod>:
    52c0:	f3 0f 1e fa          	endbr64 
    52c4:	44 8b 42 04          	mov    0x4(%rdx),%r8d
    52c8:	48 89 d1             	mov    %rdx,%rcx
    52cb:	48 89 f2             	mov    %rsi,%rdx
    52ce:	48 89 fe             	mov    %rdi,%rsi
    52d1:	31 ff                	xor    %edi,%edi
    52d3:	41 c1 e8 1f          	shr    $0x1f,%r8d
    52d7:	e9 e4 ed ff ff       	jmp    40c0 <mpz_div_qr>
    52dc:	0f 1f 40 00          	nopl   0x0(%rax)

00000000000052e0 <mpz_cdiv_q_2exp>:
    52e0:	f3 0f 1e fa          	endbr64 
    52e4:	b9 01 00 00 00       	mov    $0x1,%ecx
    52e9:	e9 f2 db ff ff       	jmp    2ee0 <mpz_div_q_2exp>
    52ee:	66 90                	xchg   %ax,%ax

00000000000052f0 <mpz_fdiv_q_2exp>:
    52f0:	f3 0f 1e fa          	endbr64 
    52f4:	31 c9                	xor    %ecx,%ecx
    52f6:	e9 e5 db ff ff       	jmp    2ee0 <mpz_div_q_2exp>
    52fb:	0f 1f 44 00 00       	nopl   0x0(%rax,%rax,1)

0000000000005300 <mpz_tdiv_q_2exp>:
    5300:	f3 0f 1e fa          	endbr64 
    5304:	b9 02 00 00 00       	mov    $0x2,%ecx
    5309:	e9 d2 db ff ff       	jmp    2ee0 <mpz_div_q_2exp>
    530e:	66 90                	xchg   %ax,%ax

0000000000005310 <mpz_cdiv_r_2exp>:
    5310:	f3 0f 1e fa          	endbr64 
    5314:	b9 01 00 00 00       	mov    $0x1,%ecx
    5319:	e9 82 d0 ff ff       	jmp    23a0 <mpz_div_r_2exp>
    531e:	66 90                	xchg   %ax,%ax

0000000000005320 <mpz_fdiv_r_2exp>:
    5320:	f3 0f 1e fa          	endbr64 
    5324:	31 c9                	xor    %ecx,%ecx
    5326:	e9 75 d0 ff ff       	jmp    23a0 <mpz_div_r_2exp>
    532b:	0f 1f 44 00 00       	nopl   0x0(%rax,%rax,1)

0000000000005330 <mpz_tdiv_r_2exp>:
    5330:	f3 0f 1e fa          	endbr64 
    5334:	b9 02 00 00 00       	mov    $0x2,%ecx
    5339:	e9 62 d0 ff ff       	jmp    23a0 <mpz_div_r_2exp>
    533e:	66 90                	xchg   %ax,%ax

0000000000005340 <mpz_divexact>:
    5340:	f3 0f 1e fa          	endbr64 
    5344:	48 83 ec 08          	sub    $0x8,%rsp
    5348:	48 89 d1             	mov    %rdx,%rcx
    534b:	41 b8 02 00 00 00    	mov    $0x2,%r8d
    5351:	48 89 f2             	mov    %rsi,%rdx
    5354:	31 f6                	xor    %esi,%esi
    5356:	e8 65 ed ff ff       	call   40c0 <mpz_div_qr>
    535b:	85 c0                	test   %eax,%eax
    535d:	75 05                	jne    5364 <mpz_divexact+0x24>
    535f:	48 83 c4 08          	add    $0x8,%rsp
    5363:	c3                   	ret    
    5364:	48 8d 0d 00 00 00 00 	lea    0x0(%rip),%rcx        # 536b <mpz_divexact+0x2b>
    536b:	ba e1 09 00 00       	mov    $0x9e1,%edx
    5370:	48 8d 35 00 00 00 00 	lea    0x0(%rip),%rsi        # 5377 <mpz_divexact+0x37>
    5377:	48 8d 3d 00 00 00 00 	lea    0x0(%rip),%rdi        # 537e <mpz_divexact+0x3e>
    537e:	e8 00 00 00 00       	call   5383 <mpz_divexact+0x43>
    5383:	66 66 2e 0f 1f 84 00 	data16 cs nopw 0x0(%rax,%rax,1)
    538a:	00 00 00 00 
    538e:	66 90                	xchg   %ax,%ax

0000000000005390 <mpz_divisible_p>:
    5390:	f3 0f 1e fa          	endbr64 
    5394:	48 83 ec 08          	sub    $0x8,%rsp
    5398:	48 89 fa             	mov    %rdi,%rdx
    539b:	48 89 f1             	mov    %rsi,%rcx
    539e:	31 ff                	xor    %edi,%edi
    53a0:	31 f6                	xor    %esi,%esi
    53a2:	41 b8 02 00 00 00    	mov    $0x2,%r8d
    53a8:	e8 13 ed ff ff       	call   40c0 <mpz_div_qr>
    53ad:	85 c0                	test   %eax,%eax
    53af:	0f 94 c0             	sete   %al
    53b2:	48 83 c4 08          	add    $0x8,%rsp
    53b6:	0f b6 c0             	movzbl %al,%eax
    53b9:	c3                   	ret    
    53ba:	66 0f 1f 44 00 00    	nopw   0x0(%rax,%rax,1)

00000000000053c0 <mpz_congruent_p>:
    53c0:	f3 0f 1e fa          	endbr64 
    53c4:	41 55                	push   %r13
    53c6:	41 54                	push   %r12
    53c8:	49 89 d4             	mov    %rdx,%r12
    53cb:	55                   	push   %rbp
    53cc:	48 89 fd             	mov    %rdi,%rbp
    53cf:	48 83 ec 20          	sub    $0x20,%rsp
    53d3:	64 48 8b 04 25 28 00 	mov    %fs:0x28,%rax
    53da:	00 00 
    53dc:	48 89 44 24 18       	mov    %rax,0x18(%rsp)
    53e1:	8b 42 04             	mov    0x4(%rdx),%eax
    53e4:	85 c0                	test   %eax,%eax
    53e6:	0f 9f c2             	setg   %dl
    53e9:	c1 e8 1f             	shr    $0x1f,%eax
    53ec:	38 c2                	cmp    %al,%dl
    53ee:	0f 84 9c 00 00 00    	je     5490 <mpz_congruent_p+0xd0>
    53f4:	48 8d 05 00 00 00 00 	lea    0x0(%rip),%rax        # 53fb <mpz_congruent_p+0x3b>
    53fb:	49 89 e5             	mov    %rsp,%r13
    53fe:	48 89 f2             	mov    %rsi,%rdx
    5401:	48 c7 04 24 00 00 00 	movq   $0x0,(%rsp)
    5408:	00 
    5409:	48 89 44 24 08       	mov    %rax,0x8(%rsp)
    540e:	8b 47 04             	mov    0x4(%rdi),%eax
    5411:	33 46 04             	xor    0x4(%rsi),%eax
    5414:	48 89 fe             	mov    %rdi,%rsi
    5417:	4c 89 ef             	mov    %r13,%rdi
    541a:	78 6c                	js     5488 <mpz_congruent_p+0xc8>
    541c:	e8 ff b7 ff ff       	call   c20 <mpz_abs_sub>
    5421:	89 c2                	mov    %eax,%edx
    5423:	8b 45 04             	mov    0x4(%rbp),%eax
    5426:	85 c0                	test   %eax,%eax
    5428:	79 02                	jns    542c <mpz_congruent_p+0x6c>
    542a:	f7 da                	neg    %edx
    542c:	31 f6                	xor    %esi,%esi
    542e:	89 54 24 04          	mov    %edx,0x4(%rsp)
    5432:	4c 89 e1             	mov    %r12,%rcx
    5435:	31 ff                	xor    %edi,%edi
    5437:	41 b8 02 00 00 00    	mov    $0x2,%r8d
    543d:	4c 89 ea             	mov    %r13,%rdx
    5440:	45 31 e4             	xor    %r12d,%r12d
    5443:	e8 78 ec ff ff       	call   40c0 <mpz_div_qr>
    5448:	48 63 34 24          	movslq (%rsp),%rsi
    544c:	85 c0                	test   %eax,%eax
    544e:	41 0f 94 c4          	sete   %r12b
    5452:	85 f6                	test   %esi,%esi
    5454:	74 0f                	je     5465 <mpz_congruent_p+0xa5>
    5456:	48 8b 7c 24 08       	mov    0x8(%rsp),%rdi
    545b:	48 c1 e6 03          	shl    $0x3,%rsi
    545f:	ff 15 00 00 00 00    	call   *0x0(%rip)        # 5465 <mpz_congruent_p+0xa5>
    5465:	48 8b 44 24 18       	mov    0x18(%rsp),%rax
    546a:	64 48 2b 04 25 28 00 	sub    %fs:0x28,%rax
    5471:	00 00 
    5473:	75 2b                	jne    54a0 <mpz_congruent_p+0xe0>
    5475:	48 83 c4 20          	add    $0x20,%rsp
    5479:	44 89 e0             	mov    %r12d,%eax
    547c:	5d                   	pop    %rbp
    547d:	41 5c                	pop    %r12
    547f:	41 5d                	pop    %r13
    5481:	c3                   	ret    
    5482:	66 0f 1f 44 00 00    	nopw   0x0(%rax,%rax,1)
    5488:	e8 d3 b5 ff ff       	call   a60 <mpz_abs_add>
    548d:	eb 92                	jmp    5421 <mpz_congruent_p+0x61>
    548f:	90                   	nop
    5490:	e8 00 00 00 00       	call   5495 <mpz_congruent_p+0xd5>
    5495:	45 31 e4             	xor    %r12d,%r12d
    5498:	85 c0                	test   %eax,%eax
    549a:	41 0f 94 c4          	sete   %r12b
    549e:	eb c5                	jmp    5465 <mpz_congruent_p+0xa5>
    54a0:	e8 00 00 00 00       	call   54a5 <mpz_congruent_p+0xe5>
    54a5:	66 66 2e 0f 1f 84 00 	data16 cs nopw 0x0(%rax,%rax,1)
    54ac:	00 00 00 00 

00000000000054b0 <mpz_cdiv_qr_ui>:
    54b0:	f3 0f 1e fa          	endbr64 
    54b4:	41 b8 01 00 00 00    	mov    $0x1,%r8d
    54ba:	e9 61 f2 ff ff       	jmp    4720 <mpz_div_qr_ui>
    54bf:	90                   	nop

00000000000054c0 <mpz_fdiv_qr_ui>:
    54c0:	f3 0f 1e fa          	endbr64 
    54c4:	45 31 c0             	xor    %r8d,%r8d
    54c7:	e9 54 f2 ff ff       	jmp    4720 <mpz_div_qr_ui>
    54cc:	0f 1f 40 00          	nopl   0x0(%rax)

00000000000054d0 <mpz_tdiv_qr_ui>:
    54d0:	f3 0f 1e fa          	endbr64 
    54d4:	41 b8 02 00 00 00    	mov    $0x2,%r8d
    54da:	e9 41 f2 ff ff       	jmp    4720 <mpz_div_qr_ui>
    54df:	90                   	nop

00000000000054e0 <mpz_cdiv_q_ui>:
    54e0:	f3 0f 1e fa          	endbr64 
    54e4:	48 89 d1             	mov    %rdx,%rcx
    54e7:	41 b8 01 00 00 00    	mov    $0x1,%r8d
    54ed:	48 89 f2             	mov    %rsi,%rdx
    54f0:	31 f6                	xor    %esi,%esi
    54f2:	e9 29 f2 ff ff       	jmp    4720 <mpz_div_qr_ui>
    54f7:	66 0f 1f 84 00 00 00 	nopw   0x0(%rax,%rax,1)
    54fe:	00 00 

0000000000005500 <mpz_fdiv_q_ui>:
    5500:	f3 0f 1e fa          	endbr64 
    5504:	48 89 d1             	mov    %rdx,%rcx
    5507:	45 31 c0             	xor    %r8d,%r8d
    550a:	48 89 f2             	mov    %rsi,%rdx
    550d:	31 f6                	xor    %esi,%esi
    550f:	e9 0c f2 ff ff       	jmp    4720 <mpz_div_qr_ui>
    5514:	66 66 2e 0f 1f 84 00 	data16 cs nopw 0x0(%rax,%rax,1)
    551b:	00 00 00 00 
    551f:	90                   	nop

0000000000005520 <mpz_tdiv_q_ui>:
    5520:	f3 0f 1e fa          	endbr64 
    5524:	48 89 d1             	mov    %rdx,%rcx
    5527:	41 b8 02 00 00 00    	mov    $0x2,%r8d
    552d:	48 89 f2             	mov    %rsi,%rdx
    5530:	31 f6                	xor    %esi,%esi
    5532:	e9 e9 f1 ff ff       	jmp    4720 <mpz_div_qr_ui>
    5537:	66 0f 1f 84 00 00 00 	nopw   0x0(%rax,%rax,1)
    553e:	00 00 

0000000000005540 <mpz_cdiv_r_ui>:
    5540:	f3 0f 1e fa          	endbr64 
    5544:	48 89 d1             	mov    %rdx,%rcx
    5547:	41 b8 01 00 00 00    	mov    $0x1,%r8d
    554d:	48 89 f2             	mov    %rsi,%rdx
    5550:	48 89 fe             	mov    %rdi,%rsi
    5553:	31 ff                	xor    %edi,%edi
    5555:	e9 c6 f1 ff ff       	jmp    4720 <mpz_div_qr_ui>
    555a:	66 0f 1f 44 00 00    	nopw   0x0(%rax,%rax,1)

0000000000005560 <mpz_fdiv_r_ui>:
    5560:	f3 0f 1e fa          	endbr64 
    5564:	48 89 d1             	mov    %rdx,%rcx
    5567:	45 31 c0             	xor    %r8d,%r8d
    556a:	48 89 f2             	mov    %rsi,%rdx
    556d:	48 89 fe             	mov    %rdi,%rsi
    5570:	31 ff                	xor    %edi,%edi
    5572:	e9 a9 f1 ff ff       	jmp    4720 <mpz_div_qr_ui>
    5577:	66 0f 1f 84 00 00 00 	nopw   0x0(%rax,%rax,1)
    557e:	00 00 

0000000000005580 <mpz_tdiv_r_ui>:
    5580:	f3 0f 1e fa          	endbr64 
    5584:	48 89 d1             	mov    %rdx,%rcx
    5587:	41 b8 02 00 00 00    	mov    $0x2,%r8d
    558d:	48 89 f2             	mov    %rsi,%rdx
    5590:	48 89 fe             	mov    %rdi,%rsi
    5593:	31 ff                	xor    %edi,%edi
    5595:	e9 86 f1 ff ff       	jmp    4720 <mpz_div_qr_ui>
    559a:	66 0f 1f 44 00 00    	nopw   0x0(%rax,%rax,1)

00000000000055a0 <mpz_cdiv_ui>:
    55a0:	f3 0f 1e fa          	endbr64 
    55a4:	48 89 fa             	mov    %rdi,%rdx
    55a7:	48 89 f1             	mov    %rsi,%rcx
    55aa:	41 b8 01 00 00 00    	mov    $0x1,%r8d
    55b0:	31 f6                	xor    %esi,%esi
    55b2:	31 ff                	xor    %edi,%edi
    55b4:	e9 67 f1 ff ff       	jmp    4720 <mpz_div_qr_ui>
    55b9:	0f 1f 80 00 00 00 00 	nopl   0x0(%rax)

00000000000055c0 <mpz_fdiv_ui>:
    55c0:	f3 0f 1e fa          	endbr64 
    55c4:	48 89 fa             	mov    %rdi,%rdx
    55c7:	48 89 f1             	mov    %rsi,%rcx
    55ca:	45 31 c0             	xor    %r8d,%r8d
    55cd:	31 f6                	xor    %esi,%esi
    55cf:	31 ff                	xor    %edi,%edi
    55d1:	e9 4a f1 ff ff       	jmp    4720 <mpz_div_qr_ui>
    55d6:	66 2e 0f 1f 84 00 00 	cs nopw 0x0(%rax,%rax,1)
    55dd:	00 00 00 

00000000000055e0 <mpz_tdiv_ui>:
    55e0:	f3 0f 1e fa          	endbr64 
    55e4:	48 89 fa             	mov    %rdi,%rdx
    55e7:	48 89 f1             	mov    %rsi,%rcx
    55ea:	41 b8 02 00 00 00    	mov    $0x2,%r8d
    55f0:	31 f6                	xor    %esi,%esi
    55f2:	31 ff                	xor    %edi,%edi
    55f4:	e9 27 f1 ff ff       	jmp    4720 <mpz_div_qr_ui>
    55f9:	0f 1f 80 00 00 00 00 	nopl   0x0(%rax)

0000000000005600 <mpz_mod_ui>:
    5600:	f3 0f 1e fa          	endbr64 
    5604:	48 89 d1             	mov    %rdx,%rcx
    5607:	45 31 c0             	xor    %r8d,%r8d
    560a:	48 89 f2             	mov    %rsi,%rdx
    560d:	48 89 fe             	mov    %rdi,%rsi
    5610:	31 ff                	xor    %edi,%edi
    5612:	e9 09 f1 ff ff       	jmp    4720 <mpz_div_qr_ui>
    5617:	66 0f 1f 84 00 00 00 	nopw   0x0(%rax,%rax,1)
    561e:	00 00 

0000000000005620 <mpz_divexact_ui>:
    5620:	f3 0f 1e fa          	endbr64 
    5624:	48 83 ec 08          	sub    $0x8,%rsp
    5628:	48 89 d1             	mov    %rdx,%rcx
    562b:	41 b8 02 00 00 00    	mov    $0x2,%r8d
    5631:	48 89 f2             	mov    %rsi,%rdx
    5634:	31 f6                	xor    %esi,%esi
    5636:	e8 e5 f0 ff ff       	call   4720 <mpz_div_qr_ui>
    563b:	48 85 c0             	test   %rax,%rax
    563e:	75 05                	jne    5645 <mpz_divexact_ui+0x25>
    5640:	48 83 c4 08          	add    $0x8,%rsp
    5644:	c3                   	ret    
    5645:	48 8d 0d 00 00 00 00 	lea    0x0(%rip),%rcx        # 564c <mpz_divexact_ui+0x2c>
    564c:	ba 5f 0a 00 00       	mov    $0xa5f,%edx
    5651:	48 8d 35 00 00 00 00 	lea    0x0(%rip),%rsi        # 5658 <mpz_divexact_ui+0x38>
    5658:	48 8d 3d 00 00 00 00 	lea    0x0(%rip),%rdi        # 565f <mpz_divexact_ui+0x3f>
    565f:	e8 00 00 00 00       	call   5664 <mpz_divexact_ui+0x44>
    5664:	66 66 2e 0f 1f 84 00 	data16 cs nopw 0x0(%rax,%rax,1)
    566b:	00 00 00 00 
    566f:	90                   	nop

0000000000005670 <mpz_divisible_ui_p>:
    5670:	f3 0f 1e fa          	endbr64 
    5674:	48 83 ec 08          	sub    $0x8,%rsp
    5678:	48 89 fa             	mov    %rdi,%rdx
    567b:	48 89 f1             	mov    %rsi,%rcx
    567e:	31 ff                	xor    %edi,%edi
    5680:	31 f6                	xor    %esi,%esi
    5682:	41 b8 02 00 00 00    	mov    $0x2,%r8d
    5688:	e8 93 f0 ff ff       	call   4720 <mpz_div_qr_ui>
    568d:	48 85 c0             	test   %rax,%rax
    5690:	0f 94 c0             	sete   %al
    5693:	48 83 c4 08          	add    $0x8,%rsp
    5697:	0f b6 c0             	movzbl %al,%eax
    569a:	c3                   	ret    
    569b:	0f 1f 44 00 00       	nopl   0x0(%rax,%rax,1)

00000000000056a0 <mpz_gcd>:
    56a0:	f3 0f 1e fa          	endbr64 
    56a4:	41 57                	push   %r15
    56a6:	49 89 d7             	mov    %rdx,%r15
    56a9:	41 56                	push   %r14
    56ab:	41 55                	push   %r13
    56ad:	41 54                	push   %r12
    56af:	49 89 fc             	mov    %rdi,%r12
    56b2:	55                   	push   %rbp
    56b3:	48 83 ec 30          	sub    $0x30,%rsp
    56b7:	44 8b 46 04          	mov    0x4(%rsi),%r8d
    56bb:	64 48 8b 04 25 28 00 	mov    %fs:0x28,%rax
    56c2:	00 00 
    56c4:	48 89 44 24 28       	mov    %rax,0x28(%rsp)
    56c9:	31 c0                	xor    %eax,%eax
    56cb:	45 85 c0             	test   %r8d,%r8d
    56ce:	0f 84 ec 01 00 00    	je     58c0 <mpz_gcd+0x220>
    56d4:	8b 7a 04             	mov    0x4(%rdx),%edi
    56d7:	85 ff                	test   %edi,%edi
    56d9:	0f 84 e4 01 00 00    	je     58c3 <mpz_gcd+0x223>
    56df:	48 89 e5             	mov    %rsp,%rbp
    56e2:	48 8d 05 00 00 00 00 	lea    0x0(%rip),%rax        # 56e9 <mpz_gcd+0x49>
    56e9:	48 c7 04 24 00 00 00 	movq   $0x0,(%rsp)
    56f0:	00 
    56f1:	4c 8d 74 24 10       	lea    0x10(%rsp),%r14
    56f6:	48 89 ef             	mov    %rbp,%rdi
    56f9:	48 89 44 24 08       	mov    %rax,0x8(%rsp)
    56fe:	48 89 44 24 18       	mov    %rax,0x18(%rsp)
    5703:	48 c7 44 24 10 00 00 	movq   $0x0,0x10(%rsp)
    570a:	00 00 
    570c:	e8 00 00 00 00       	call   5711 <mpz_gcd+0x71>
    5711:	8b 54 24 04          	mov    0x4(%rsp),%edx
    5715:	48 89 ef             	mov    %rbp,%rdi
    5718:	89 d0                	mov    %edx,%eax
    571a:	f7 d8                	neg    %eax
    571c:	0f 48 c2             	cmovs  %edx,%eax
    571f:	89 44 24 04          	mov    %eax,0x4(%rsp)
    5723:	e8 38 da ff ff       	call   3160 <mpz_make_odd>
    5728:	4c 89 fe             	mov    %r15,%rsi
    572b:	4c 89 f7             	mov    %r14,%rdi
    572e:	49 89 c5             	mov    %rax,%r13
    5731:	e8 00 00 00 00       	call   5736 <mpz_gcd+0x96>
    5736:	8b 54 24 14          	mov    0x14(%rsp),%edx
    573a:	4c 89 f7             	mov    %r14,%rdi
    573d:	89 d0                	mov    %edx,%eax
    573f:	f7 d8                	neg    %eax
    5741:	0f 48 c2             	cmovs  %edx,%eax
    5744:	89 44 24 14          	mov    %eax,0x14(%rsp)
    5748:	e8 13 da ff ff       	call   3160 <mpz_make_odd>
    574d:	49 39 c5             	cmp    %rax,%r13
    5750:	4c 0f 47 e8          	cmova  %rax,%r13
    5754:	8b 44 24 14          	mov    0x14(%rsp),%eax
    5758:	39 44 24 04          	cmp    %eax,0x4(%rsp)
    575c:	7d 26                	jge    5784 <mpz_gcd+0xe4>
    575e:	48 8b 54 24 08       	mov    0x8(%rsp),%rdx
    5763:	48 8b 04 24          	mov    (%rsp),%rax
    5767:	48 8b 4c 24 18       	mov    0x18(%rsp),%rcx
    576c:	48 89 54 24 18       	mov    %rdx,0x18(%rsp)
    5771:	48 8b 54 24 10       	mov    0x10(%rsp),%rdx
    5776:	48 89 4c 24 08       	mov    %rcx,0x8(%rsp)
    577b:	48 89 14 24          	mov    %rdx,(%rsp)
    577f:	48 89 44 24 10       	mov    %rax,0x10(%rsp)
    5784:	4c 89 f1             	mov    %r14,%rcx
    5787:	41 b8 02 00 00 00    	mov    $0x2,%r8d
    578d:	48 89 ea             	mov    %rbp,%rdx
    5790:	48 89 ee             	mov    %rbp,%rsi
    5793:	31 ff                	xor    %edi,%edi
    5795:	e8 26 e9 ff ff       	call   40c0 <mpz_div_qr>
    579a:	8b 4c 24 04          	mov    0x4(%rsp),%ecx
    579e:	85 c9                	test   %ecx,%ecx
    57a0:	0f 85 af 00 00 00    	jne    5855 <mpz_gcd+0x1b5>
    57a6:	41 8b 04 24          	mov    (%r12),%eax
    57aa:	8b 54 24 10          	mov    0x10(%rsp),%edx
    57ae:	48 63 34 24          	movslq (%rsp),%rsi
    57b2:	41 89 14 24          	mov    %edx,(%r12)
    57b6:	48 8b 54 24 18       	mov    0x18(%rsp),%rdx
    57bb:	89 44 24 10          	mov    %eax,0x10(%rsp)
    57bf:	49 8b 44 24 08       	mov    0x8(%r12),%rax
    57c4:	49 89 54 24 08       	mov    %rdx,0x8(%r12)
    57c9:	8b 54 24 14          	mov    0x14(%rsp),%edx
    57cd:	48 89 44 24 18       	mov    %rax,0x18(%rsp)
    57d2:	41 8b 44 24 04       	mov    0x4(%r12),%eax
    57d7:	41 89 54 24 04       	mov    %edx,0x4(%r12)
    57dc:	89 44 24 14          	mov    %eax,0x14(%rsp)
    57e0:	85 f6                	test   %esi,%esi
    57e2:	74 0f                	je     57f3 <mpz_gcd+0x153>
    57e4:	48 8b 7c 24 08       	mov    0x8(%rsp),%rdi
    57e9:	48 c1 e6 03          	shl    $0x3,%rsi
    57ed:	ff 15 00 00 00 00    	call   *0x0(%rip)        # 57f3 <mpz_gcd+0x153>
    57f3:	48 63 74 24 10       	movslq 0x10(%rsp),%rsi
    57f8:	85 f6                	test   %esi,%esi
    57fa:	74 0f                	je     580b <mpz_gcd+0x16b>
    57fc:	48 8b 7c 24 18       	mov    0x18(%rsp),%rdi
    5801:	48 c1 e6 03          	shl    $0x3,%rsi
    5805:	ff 15 00 00 00 00    	call   *0x0(%rip)        # 580b <mpz_gcd+0x16b>
    580b:	4c 89 ea             	mov    %r13,%rdx
    580e:	4c 89 e6             	mov    %r12,%rsi
    5811:	4c 89 e7             	mov    %r12,%rdi
    5814:	e8 00 00 00 00       	call   5819 <mpz_gcd+0x179>
    5819:	48 8b 44 24 28       	mov    0x28(%rsp),%rax
    581e:	64 48 2b 04 25 28 00 	sub    %fs:0x28,%rax
    5825:	00 00 
    5827:	0f 85 40 02 00 00    	jne    5a6d <mpz_gcd+0x3cd>
    582d:	48 83 c4 30          	add    $0x30,%rsp
    5831:	5d                   	pop    %rbp
    5832:	41 5c                	pop    %r12
    5834:	41 5d                	pop    %r13
    5836:	41 5e                	pop    %r14
    5838:	41 5f                	pop    %r15
    583a:	c3                   	ret    
    583b:	0f 1f 44 00 00       	nopl   0x0(%rax,%rax,1)
    5840:	e8 db b3 ff ff       	call   c20 <mpz_abs_sub>
    5845:	89 c2                	mov    %eax,%edx
    5847:	8b 44 24 04          	mov    0x4(%rsp),%eax
    584b:	85 c0                	test   %eax,%eax
    584d:	79 02                	jns    5851 <mpz_gcd+0x1b1>
    584f:	f7 da                	neg    %edx
    5851:	89 54 24 04          	mov    %edx,0x4(%rsp)
    5855:	48 89 ef             	mov    %rbp,%rdi
    5858:	e8 03 d9 ff ff       	call   3160 <mpz_make_odd>
    585d:	4c 89 f6             	mov    %r14,%rsi
    5860:	48 89 ef             	mov    %rbp,%rdi
    5863:	e8 00 00 00 00       	call   5868 <mpz_gcd+0x1c8>
    5868:	85 c0                	test   %eax,%eax
    586a:	74 7c                	je     58e8 <mpz_gcd+0x248>
    586c:	8b 54 24 14          	mov    0x14(%rsp),%edx
    5870:	79 2c                	jns    589e <mpz_gcd+0x1fe>
    5872:	8b 14 24             	mov    (%rsp),%edx
    5875:	48 8b 44 24 10       	mov    0x10(%rsp),%rax
    587a:	48 8b 4c 24 18       	mov    0x18(%rsp),%rcx
    587f:	89 54 24 10          	mov    %edx,0x10(%rsp)
    5883:	48 8b 54 24 08       	mov    0x8(%rsp),%rdx
    5888:	48 89 4c 24 08       	mov    %rcx,0x8(%rsp)
    588d:	48 89 54 24 18       	mov    %rdx,0x18(%rsp)
    5892:	8b 54 24 04          	mov    0x4(%rsp),%edx
    5896:	48 89 04 24          	mov    %rax,(%rsp)
    589a:	89 54 24 14          	mov    %edx,0x14(%rsp)
    589e:	83 fa 01             	cmp    $0x1,%edx
    58a1:	0f 84 81 00 00 00    	je     5928 <mpz_gcd+0x288>
    58a7:	33 54 24 04          	xor    0x4(%rsp),%edx
    58ab:	48 89 ee             	mov    %rbp,%rsi
    58ae:	4c 89 f2             	mov    %r14,%rdx
    58b1:	48 89 ef             	mov    %rbp,%rdi
    58b4:	79 8a                	jns    5840 <mpz_gcd+0x1a0>
    58b6:	e8 a5 b1 ff ff       	call   a60 <mpz_abs_add>
    58bb:	eb 88                	jmp    5845 <mpz_gcd+0x1a5>
    58bd:	0f 1f 00             	nopl   (%rax)
    58c0:	48 89 d6             	mov    %rdx,%rsi
    58c3:	4c 89 e7             	mov    %r12,%rdi
    58c6:	e8 00 00 00 00       	call   58cb <mpz_gcd+0x22b>
    58cb:	41 8b 54 24 04       	mov    0x4(%r12),%edx
    58d0:	89 d0                	mov    %edx,%eax
    58d2:	f7 d8                	neg    %eax
    58d4:	0f 48 c2             	cmovs  %edx,%eax
    58d7:	41 89 44 24 04       	mov    %eax,0x4(%r12)
    58dc:	e9 38 ff ff ff       	jmp    5819 <mpz_gcd+0x179>
    58e1:	0f 1f 80 00 00 00 00 	nopl   0x0(%rax)
    58e8:	8b 04 24             	mov    (%rsp),%eax
    58eb:	48 8b 54 24 08       	mov    0x8(%rsp),%rdx
    58f0:	49 63 34 24          	movslq (%r12),%rsi
    58f4:	41 89 04 24          	mov    %eax,(%r12)
    58f8:	49 8b 44 24 08       	mov    0x8(%r12),%rax
    58fd:	49 89 54 24 08       	mov    %rdx,0x8(%r12)
    5902:	8b 54 24 04          	mov    0x4(%rsp),%edx
    5906:	48 89 44 24 08       	mov    %rax,0x8(%rsp)
    590b:	41 8b 44 24 04       	mov    0x4(%r12),%eax
    5910:	89 34 24             	mov    %esi,(%rsp)
    5913:	41 89 54 24 04       	mov    %edx,0x4(%r12)
    5918:	89 44 24 04          	mov    %eax,0x4(%rsp)
    591c:	e9 bf fe ff ff       	jmp    57e0 <mpz_gcd+0x140>
    5921:	0f 1f 80 00 00 00 00 	nopl   0x0(%rax)
    5928:	48 89 ea             	mov    %rbp,%rdx
    592b:	41 b8 02 00 00 00    	mov    $0x2,%r8d
    5931:	4c 89 f1             	mov    %r14,%rcx
    5934:	48 89 ee             	mov    %rbp,%rsi
    5937:	31 ff                	xor    %edi,%edi
    5939:	e8 82 e7 ff ff       	call   40c0 <mpz_div_qr>
    593e:	41 8b 14 24          	mov    (%r12),%edx
    5942:	85 d2                	test   %edx,%edx
    5944:	0f 8e 06 01 00 00    	jle    5a50 <mpz_gcd+0x3b0>
    594a:	4d 8b 44 24 08       	mov    0x8(%r12),%r8
    594f:	48 8b 44 24 18       	mov    0x18(%rsp),%rax
    5954:	48 8b 54 24 08       	mov    0x8(%rsp),%rdx
    5959:	48 8b 00             	mov    (%rax),%rax
    595c:	48 8b 12             	mov    (%rdx),%rdx
    595f:	48 89 c6             	mov    %rax,%rsi
    5962:	48 09 d6             	or     %rdx,%rsi
    5965:	0f 84 07 01 00 00    	je     5a72 <mpz_gcd+0x3d2>
    596b:	48 85 d2             	test   %rdx,%rdx
    596e:	0f 84 aa 00 00 00    	je     5a1e <mpz_gcd+0x37e>
    5974:	48 85 c0             	test   %rax,%rax
    5977:	0f 84 eb 00 00 00    	je     5a68 <mpz_gcd+0x3c8>
    597d:	48 bf 00 00 00 00 00 	movabs $0xff00000000000000,%rdi
    5984:	00 00 ff 
    5987:	48 89 f1             	mov    %rsi,%rcx
    598a:	48 f7 d9             	neg    %rcx
    598d:	48 21 f1             	and    %rsi,%rcx
    5990:	31 f6                	xor    %esi,%esi
    5992:	48 85 f9             	test   %rdi,%rcx
    5995:	75 15                	jne    59ac <mpz_gcd+0x30c>
    5997:	66 0f 1f 84 00 00 00 	nopw   0x0(%rax,%rax,1)
    599e:	00 00 
    59a0:	48 c1 e1 08          	shl    $0x8,%rcx
    59a4:	83 c6 08             	add    $0x8,%esi
    59a7:	48 85 f9             	test   %rdi,%rcx
    59aa:	74 f4                	je     59a0 <mpz_gcd+0x300>
    59ac:	48 85 c9             	test   %rcx,%rcx
    59af:	78 0f                	js     59c0 <mpz_gcd+0x320>
    59b1:	0f 1f 80 00 00 00 00 	nopl   0x0(%rax)
    59b8:	83 c6 01             	add    $0x1,%esi
    59bb:	48 01 c9             	add    %rcx,%rcx
    59be:	79 f8                	jns    59b8 <mpz_gcd+0x318>
    59c0:	b9 3f 00 00 00       	mov    $0x3f,%ecx
    59c5:	29 f1                	sub    %esi,%ecx
    59c7:	48 d3 ea             	shr    %cl,%rdx
    59ca:	48 d3 e8             	shr    %cl,%rax
    59cd:	f6 c2 01             	test   $0x1,%dl
    59d0:	75 6e                	jne    5a40 <mpz_gcd+0x3a0>
    59d2:	66 0f 1f 44 00 00    	nopw   0x0(%rax,%rax,1)
    59d8:	48 d1 ea             	shr    %rdx
    59db:	f6 c2 01             	test   $0x1,%dl
    59de:	74 f8                	je     59d8 <mpz_gcd+0x338>
    59e0:	48 39 d0             	cmp    %rdx,%rax
    59e3:	74 33                	je     5a18 <mpz_gcd+0x378>
    59e5:	48 39 c2             	cmp    %rax,%rdx
    59e8:	73 16                	jae    5a00 <mpz_gcd+0x360>
    59ea:	48 29 d0             	sub    %rdx,%rax
    59ed:	0f 1f 00             	nopl   (%rax)
    59f0:	48 d1 e8             	shr    %rax
    59f3:	a8 01                	test   $0x1,%al
    59f5:	74 f9                	je     59f0 <mpz_gcd+0x350>
    59f7:	eb e7                	jmp    59e0 <mpz_gcd+0x340>
    59f9:	0f 1f 80 00 00 00 00 	nopl   0x0(%rax)
    5a00:	48 29 c2             	sub    %rax,%rdx
    5a03:	0f 1f 44 00 00       	nopl   0x0(%rax,%rax,1)
    5a08:	48 d1 ea             	shr    %rdx
    5a0b:	f6 c2 01             	test   $0x1,%dl
    5a0e:	74 f8                	je     5a08 <mpz_gcd+0x368>
    5a10:	eb ce                	jmp    59e0 <mpz_gcd+0x340>
    5a12:	66 0f 1f 44 00 00    	nopw   0x0(%rax,%rax,1)
    5a18:	48 89 d0             	mov    %rdx,%rax
    5a1b:	48 d3 e0             	shl    %cl,%rax
    5a1e:	48 85 c0             	test   %rax,%rax
    5a21:	49 89 00             	mov    %rax,(%r8)
    5a24:	48 63 34 24          	movslq (%rsp),%rsi
    5a28:	0f 95 c0             	setne  %al
    5a2b:	0f b6 c0             	movzbl %al,%eax
    5a2e:	41 89 44 24 04       	mov    %eax,0x4(%r12)
    5a33:	e9 a8 fd ff ff       	jmp    57e0 <mpz_gcd+0x140>
    5a38:	0f 1f 84 00 00 00 00 	nopl   0x0(%rax,%rax,1)
    5a3f:	00 
    5a40:	48 89 d6             	mov    %rdx,%rsi
    5a43:	a8 01                	test   $0x1,%al
    5a45:	48 89 c2             	mov    %rax,%rdx
    5a48:	48 89 f0             	mov    %rsi,%rax
    5a4b:	74 8b                	je     59d8 <mpz_gcd+0x338>
    5a4d:	eb 91                	jmp    59e0 <mpz_gcd+0x340>
    5a4f:	90                   	nop
    5a50:	be 01 00 00 00       	mov    $0x1,%esi
    5a55:	4c 89 e7             	mov    %r12,%rdi
    5a58:	e8 53 a9 ff ff       	call   3b0 <mpz_realloc>
    5a5d:	49 89 c0             	mov    %rax,%r8
    5a60:	e9 ea fe ff ff       	jmp    594f <mpz_gcd+0x2af>
    5a65:	0f 1f 00             	nopl   (%rax)
    5a68:	48 89 d0             	mov    %rdx,%rax
    5a6b:	eb b1                	jmp    5a1e <mpz_gcd+0x37e>
    5a6d:	e8 00 00 00 00       	call   5a72 <mpz_gcd+0x3d2>
    5a72:	48 8d 0d 00 00 00 00 	lea    0x0(%rip),%rcx        # 5a79 <mpz_gcd+0x3d9>
    5a79:	ba 6f 0a 00 00       	mov    $0xa6f,%edx
    5a7e:	48 8d 35 00 00 00 00 	lea    0x0(%rip),%rsi        # 5a85 <mpz_gcd+0x3e5>
    5a85:	48 8d 3d 00 00 00 00 	lea    0x0(%rip),%rdi        # 5a8c <mpz_gcd+0x3ec>
    5a8c:	e8 00 00 00 00       	call   5a91 <mpz_gcd+0x3f1>
    5a91:	66 66 2e 0f 1f 84 00 	data16 cs nopw 0x0(%rax,%rax,1)
    5a98:	00 00 00 00 
    5a9c:	0f 1f 40 00          	nopl   0x0(%rax)

0000000000005aa0 <mpz_gcd_ui>:
    5aa0:	f3 0f 1e fa          	endbr64 
    5aa4:	41 55                	push   %r13
    5aa6:	41 54                	push   %r12
    5aa8:	49 89 f4             	mov    %rsi,%r12
    5aab:	55                   	push   %rbp
    5aac:	53                   	push   %rbx
    5aad:	48 89 fb             	mov    %rdi,%rbx
    5ab0:	48 83 ec 28          	sub    $0x28,%rsp
    5ab4:	64 48 8b 04 25 28 00 	mov    %fs:0x28,%rax
    5abb:	00 00 
    5abd:	48 89 44 24 18       	mov    %rax,0x18(%rsp)
    5ac2:	31 c0                	xor    %eax,%eax
    5ac4:	48 8d 05 00 00 00 00 	lea    0x0(%rip),%rax        # 5acb <mpz_gcd_ui+0x2b>
    5acb:	48 c7 04 24 00 00 00 	movq   $0x0,(%rsp)
    5ad2:	00 
    5ad3:	48 89 44 24 08       	mov    %rax,0x8(%rsp)
    5ad8:	48 85 d2             	test   %rdx,%rdx
    5adb:	0f 84 9f 00 00 00    	je     5b80 <mpz_gcd_ui+0xe0>
    5ae1:	49 89 e5             	mov    %rsp,%r13
    5ae4:	be 01 00 00 00       	mov    $0x1,%esi
    5ae9:	48 89 d5             	mov    %rdx,%rbp
    5aec:	c7 44 24 04 01 00 00 	movl   $0x1,0x4(%rsp)
    5af3:	00 
    5af4:	4c 89 ef             	mov    %r13,%rdi
    5af7:	e8 b4 a8 ff ff       	call   3b0 <mpz_realloc>
    5afc:	4c 89 e6             	mov    %r12,%rsi
    5aff:	4c 89 ea             	mov    %r13,%rdx
    5b02:	4c 89 ef             	mov    %r13,%rdi
    5b05:	48 89 28             	mov    %rbp,(%rax)
    5b08:	45 31 e4             	xor    %r12d,%r12d
    5b0b:	e8 00 00 00 00       	call   5b10 <mpz_gcd_ui+0x70>
    5b10:	8b 44 24 04          	mov    0x4(%rsp),%eax
    5b14:	85 c0                	test   %eax,%eax
    5b16:	75 78                	jne    5b90 <mpz_gcd_ui+0xf0>
    5b18:	48 63 34 24          	movslq (%rsp),%rsi
    5b1c:	89 f0                	mov    %esi,%eax
    5b1e:	48 85 db             	test   %rbx,%rbx
    5b21:	74 28                	je     5b4b <mpz_gcd_ui+0xab>
    5b23:	48 8b 53 08          	mov    0x8(%rbx),%rdx
    5b27:	48 63 33             	movslq (%rbx),%rsi
    5b2a:	89 03                	mov    %eax,(%rbx)
    5b2c:	48 8b 44 24 08       	mov    0x8(%rsp),%rax
    5b31:	48 89 54 24 08       	mov    %rdx,0x8(%rsp)
    5b36:	8b 53 04             	mov    0x4(%rbx),%edx
    5b39:	48 89 43 08          	mov    %rax,0x8(%rbx)
    5b3d:	8b 44 24 04          	mov    0x4(%rsp),%eax
    5b41:	89 34 24             	mov    %esi,(%rsp)
    5b44:	89 54 24 04          	mov    %edx,0x4(%rsp)
    5b48:	89 43 04             	mov    %eax,0x4(%rbx)
    5b4b:	85 f6                	test   %esi,%esi
    5b4d:	74 0f                	je     5b5e <mpz_gcd_ui+0xbe>
    5b4f:	48 8b 7c 24 08       	mov    0x8(%rsp),%rdi
    5b54:	48 c1 e6 03          	shl    $0x3,%rsi
    5b58:	ff 15 00 00 00 00    	call   *0x0(%rip)        # 5b5e <mpz_gcd_ui+0xbe>
    5b5e:	48 8b 44 24 18       	mov    0x18(%rsp),%rax
    5b63:	64 48 2b 04 25 28 00 	sub    %fs:0x28,%rax
    5b6a:	00 00 
    5b6c:	75 2f                	jne    5b9d <mpz_gcd_ui+0xfd>
    5b6e:	48 83 c4 28          	add    $0x28,%rsp
    5b72:	4c 89 e0             	mov    %r12,%rax
    5b75:	5b                   	pop    %rbx
    5b76:	5d                   	pop    %rbp
    5b77:	41 5c                	pop    %r12
    5b79:	41 5d                	pop    %r13
    5b7b:	c3                   	ret    
    5b7c:	0f 1f 40 00          	nopl   0x0(%rax)
    5b80:	48 89 e7             	mov    %rsp,%rdi
    5b83:	45 31 e4             	xor    %r12d,%r12d
    5b86:	48 89 fa             	mov    %rdi,%rdx
    5b89:	e8 00 00 00 00       	call   5b8e <mpz_gcd_ui+0xee>
    5b8e:	eb 88                	jmp    5b18 <mpz_gcd_ui+0x78>
    5b90:	48 8b 44 24 08       	mov    0x8(%rsp),%rax
    5b95:	4c 8b 20             	mov    (%rax),%r12
    5b98:	e9 7b ff ff ff       	jmp    5b18 <mpz_gcd_ui+0x78>
    5b9d:	e8 00 00 00 00       	call   5ba2 <mpz_gcd_ui+0x102>
    5ba2:	66 66 2e 0f 1f 84 00 	data16 cs nopw 0x0(%rax,%rax,1)
    5ba9:	00 00 00 00 
    5bad:	0f 1f 00             	nopl   (%rax)

0000000000005bb0 <mpz_lcm>:
    5bb0:	f3 0f 1e fa          	endbr64 
    5bb4:	41 55                	push   %r13
    5bb6:	41 54                	push   %r12
    5bb8:	55                   	push   %rbp
    5bb9:	53                   	push   %rbx
    5bba:	48 89 fb             	mov    %rdi,%rbx
    5bbd:	48 83 ec 28          	sub    $0x28,%rsp
    5bc1:	64 48 8b 04 25 28 00 	mov    %fs:0x28,%rax
    5bc8:	00 00 
    5bca:	48 89 44 24 18       	mov    %rax,0x18(%rsp)
    5bcf:	8b 46 04             	mov    0x4(%rsi),%eax
    5bd2:	85 c0                	test   %eax,%eax
    5bd4:	74 0a                	je     5be0 <mpz_lcm+0x30>
    5bd6:	8b 42 04             	mov    0x4(%rdx),%eax
    5bd9:	49 89 d5             	mov    %rdx,%r13
    5bdc:	85 c0                	test   %eax,%eax
    5bde:	75 28                	jne    5c08 <mpz_lcm+0x58>
    5be0:	89 43 04             	mov    %eax,0x4(%rbx)
    5be3:	48 8b 44 24 18       	mov    0x18(%rsp),%rax
    5be8:	64 48 2b 04 25 28 00 	sub    %fs:0x28,%rax
    5bef:	00 00 
    5bf1:	0f 85 8c 00 00 00    	jne    5c83 <mpz_lcm+0xd3>
    5bf7:	48 83 c4 28          	add    $0x28,%rsp
    5bfb:	5b                   	pop    %rbx
    5bfc:	5d                   	pop    %rbp
    5bfd:	41 5c                	pop    %r12
    5bff:	41 5d                	pop    %r13
    5c01:	c3                   	ret    
    5c02:	66 0f 1f 44 00 00    	nopw   0x0(%rax,%rax,1)
    5c08:	48 89 e5             	mov    %rsp,%rbp
    5c0b:	49 89 f4             	mov    %rsi,%r12
    5c0e:	48 8d 05 00 00 00 00 	lea    0x0(%rip),%rax        # 5c15 <mpz_lcm+0x65>
    5c15:	48 c7 04 24 00 00 00 	movq   $0x0,(%rsp)
    5c1c:	00 
    5c1d:	48 89 ef             	mov    %rbp,%rdi
    5c20:	48 89 44 24 08       	mov    %rax,0x8(%rsp)
    5c25:	e8 00 00 00 00       	call   5c2a <mpz_lcm+0x7a>
    5c2a:	31 f6                	xor    %esi,%esi
    5c2c:	41 b8 02 00 00 00    	mov    $0x2,%r8d
    5c32:	48 89 e9             	mov    %rbp,%rcx
    5c35:	4c 89 e2             	mov    %r12,%rdx
    5c38:	48 89 ef             	mov    %rbp,%rdi
    5c3b:	e8 80 e4 ff ff       	call   40c0 <mpz_div_qr>
    5c40:	85 c0                	test   %eax,%eax
    5c42:	75 44                	jne    5c88 <mpz_lcm+0xd8>
    5c44:	48 89 ee             	mov    %rbp,%rsi
    5c47:	4c 89 ea             	mov    %r13,%rdx
    5c4a:	48 89 df             	mov    %rbx,%rdi
    5c4d:	e8 00 00 00 00       	call   5c52 <mpz_lcm+0xa2>
    5c52:	48 63 34 24          	movslq (%rsp),%rsi
    5c56:	85 f6                	test   %esi,%esi
    5c58:	74 0f                	je     5c69 <mpz_lcm+0xb9>
    5c5a:	48 8b 7c 24 08       	mov    0x8(%rsp),%rdi
    5c5f:	48 c1 e6 03          	shl    $0x3,%rsi
    5c63:	ff 15 00 00 00 00    	call   *0x0(%rip)        # 5c69 <mpz_lcm+0xb9>
    5c69:	48 89 de             	mov    %rbx,%rsi
    5c6c:	48 89 df             	mov    %rbx,%rdi
    5c6f:	e8 00 00 00 00       	call   5c74 <mpz_lcm+0xc4>
    5c74:	8b 53 04             	mov    0x4(%rbx),%edx
    5c77:	89 d0                	mov    %edx,%eax
    5c79:	f7 d8                	neg    %eax
    5c7b:	0f 48 c2             	cmovs  %edx,%eax
    5c7e:	e9 5d ff ff ff       	jmp    5be0 <mpz_lcm+0x30>
    5c83:	e8 00 00 00 00       	call   5c88 <mpz_lcm+0xd8>
    5c88:	48 8d 0d 00 00 00 00 	lea    0x0(%rip),%rcx        # 5c8f <mpz_lcm+0xdf>
    5c8f:	ba e1 09 00 00       	mov    $0x9e1,%edx
    5c94:	48 8d 35 00 00 00 00 	lea    0x0(%rip),%rsi        # 5c9b <mpz_lcm+0xeb>
    5c9b:	48 8d 3d 00 00 00 00 	lea    0x0(%rip),%rdi        # 5ca2 <mpz_lcm+0xf2>
    5ca2:	e8 00 00 00 00       	call   5ca7 <mpz_lcm+0xf7>
    5ca7:	66 0f 1f 84 00 00 00 	nopw   0x0(%rax,%rax,1)
    5cae:	00 00 

0000000000005cb0 <mpz_lcm_ui>:
    5cb0:	f3 0f 1e fa          	endbr64 
    5cb4:	41 56                	push   %r14
    5cb6:	41 55                	push   %r13
    5cb8:	41 54                	push   %r12
    5cba:	55                   	push   %rbp
    5cbb:	53                   	push   %rbx
    5cbc:	48 89 fb             	mov    %rdi,%rbx
    5cbf:	48 83 ec 20          	sub    $0x20,%rsp
    5cc3:	64 48 8b 04 25 28 00 	mov    %fs:0x28,%rax
    5cca:	00 00 
    5ccc:	48 89 44 24 18       	mov    %rax,0x18(%rsp)
    5cd1:	31 c0                	xor    %eax,%eax
    5cd3:	48 85 d2             	test   %rdx,%rdx
    5cd6:	74 0a                	je     5ce2 <mpz_lcm_ui+0x32>
    5cd8:	8b 46 04             	mov    0x4(%rsi),%eax
    5cdb:	48 89 f5             	mov    %rsi,%rbp
    5cde:	85 c0                	test   %eax,%eax
    5ce0:	75 2e                	jne    5d10 <mpz_lcm_ui+0x60>
    5ce2:	89 43 04             	mov    %eax,0x4(%rbx)
    5ce5:	48 8b 44 24 18       	mov    0x18(%rsp),%rax
    5cea:	64 48 2b 04 25 28 00 	sub    %fs:0x28,%rax
    5cf1:	00 00 
    5cf3:	0f 85 a2 00 00 00    	jne    5d9b <mpz_lcm_ui+0xeb>
    5cf9:	48 83 c4 20          	add    $0x20,%rsp
    5cfd:	5b                   	pop    %rbx
    5cfe:	5d                   	pop    %rbp
    5cff:	41 5c                	pop    %r12
    5d01:	41 5d                	pop    %r13
    5d03:	41 5e                	pop    %r14
    5d05:	c3                   	ret    
    5d06:	66 2e 0f 1f 84 00 00 	cs nopw 0x0(%rax,%rax,1)
    5d0d:	00 00 00 
    5d10:	31 ff                	xor    %edi,%edi
    5d12:	49 89 d4             	mov    %rdx,%r12
    5d15:	49 89 e6             	mov    %rsp,%r14
    5d18:	e8 00 00 00 00       	call   5d1d <mpz_lcm_ui+0x6d>
    5d1d:	48 c7 04 24 00 00 00 	movq   $0x0,(%rsp)
    5d24:	00 
    5d25:	49 89 c5             	mov    %rax,%r13
    5d28:	48 8d 05 00 00 00 00 	lea    0x0(%rip),%rax        # 5d2f <mpz_lcm_ui+0x7f>
    5d2f:	48 89 44 24 08       	mov    %rax,0x8(%rsp)
    5d34:	4d 39 ec             	cmp    %r13,%r12
    5d37:	72 23                	jb     5d5c <mpz_lcm_ui+0xac>
    5d39:	be 01 00 00 00       	mov    $0x1,%esi
    5d3e:	4c 89 f7             	mov    %r14,%rdi
    5d41:	c7 44 24 04 01 00 00 	movl   $0x1,0x4(%rsp)
    5d48:	00 
    5d49:	e8 62 a6 ff ff       	call   3b0 <mpz_realloc>
    5d4e:	31 d2                	xor    %edx,%edx
    5d50:	49 89 c0             	mov    %rax,%r8
    5d53:	4c 89 e0             	mov    %r12,%rax
    5d56:	49 f7 f5             	div    %r13
    5d59:	49 89 00             	mov    %rax,(%r8)
    5d5c:	48 89 ee             	mov    %rbp,%rsi
    5d5f:	4c 89 f2             	mov    %r14,%rdx
    5d62:	48 89 df             	mov    %rbx,%rdi
    5d65:	e8 00 00 00 00       	call   5d6a <mpz_lcm_ui+0xba>
    5d6a:	48 63 34 24          	movslq (%rsp),%rsi
    5d6e:	85 f6                	test   %esi,%esi
    5d70:	74 0f                	je     5d81 <mpz_lcm_ui+0xd1>
    5d72:	48 8b 7c 24 08       	mov    0x8(%rsp),%rdi
    5d77:	48 c1 e6 03          	shl    $0x3,%rsi
    5d7b:	ff 15 00 00 00 00    	call   *0x0(%rip)        # 5d81 <mpz_lcm_ui+0xd1>
    5d81:	48 89 de             	mov    %rbx,%rsi
    5d84:	48 89 df             	mov    %rbx,%rdi
    5d87:	e8 00 00 00 00       	call   5d8c <mpz_lcm_ui+0xdc>
    5d8c:	8b 53 04             	mov    0x4(%rbx),%edx
    5d8f:	89 d0                	mov    %edx,%eax
    5d91:	f7 d8                	neg    %eax
    5d93:	0f 48 c2             	cmovs  %edx,%eax
    5d96:	e9 47 ff ff ff       	jmp    5ce2 <mpz_lcm_ui+0x32>
    5d9b:	e8 00 00 00 00       	call   5da0 <mpz_pow_ui>

0000000000005da0 <mpz_pow_ui>:
    5da0:	f3 0f 1e fa          	endbr64 
    5da4:	41 57                	push   %r15
    5da6:	49 89 ff             	mov    %rdi,%r15
    5da9:	41 56                	push   %r14
    5dab:	49 89 f6             	mov    %rsi,%r14
    5dae:	be 01 00 00 00       	mov    $0x1,%esi
    5db3:	41 55                	push   %r13
    5db5:	49 89 d5             	mov    %rdx,%r13
    5db8:	41 54                	push   %r12
    5dba:	41 bc 40 00 00 00    	mov    $0x40,%r12d
    5dc0:	55                   	push   %rbp
    5dc1:	48 bd 00 00 00 00 00 	movabs $0x8000000000000000,%rbp
    5dc8:	00 00 80 
    5dcb:	53                   	push   %rbx
    5dcc:	48 83 ec 28          	sub    $0x28,%rsp
    5dd0:	64 48 8b 04 25 28 00 	mov    %fs:0x28,%rax
    5dd7:	00 00 
    5dd9:	48 89 44 24 18       	mov    %rax,0x18(%rsp)
    5dde:	48 8d 05 00 00 00 00 	lea    0x0(%rip),%rax        # 5de5 <mpz_pow_ui+0x45>
    5de5:	48 89 e3             	mov    %rsp,%rbx
    5de8:	48 89 df             	mov    %rbx,%rdi
    5deb:	48 89 44 24 08       	mov    %rax,0x8(%rsp)
    5df0:	48 b8 00 00 00 00 01 	movabs $0x100000000,%rax
    5df7:	00 00 00 
    5dfa:	48 89 04 24          	mov    %rax,(%rsp)
    5dfe:	e8 ad a5 ff ff       	call   3b0 <mpz_realloc>
    5e03:	48 c7 00 01 00 00 00 	movq   $0x1,(%rax)
    5e0a:	eb 0d                	jmp    5e19 <mpz_pow_ui+0x79>
    5e0c:	0f 1f 40 00          	nopl   0x0(%rax)
    5e10:	48 d1 ed             	shr    %rbp
    5e13:	41 83 ec 01          	sub    $0x1,%r12d
    5e17:	74 2a                	je     5e43 <mpz_pow_ui+0xa3>
    5e19:	48 89 da             	mov    %rbx,%rdx
    5e1c:	48 89 de             	mov    %rbx,%rsi
    5e1f:	48 89 df             	mov    %rbx,%rdi
    5e22:	e8 00 00 00 00       	call   5e27 <mpz_pow_ui+0x87>
    5e27:	4c 85 ed             	test   %r13,%rbp
    5e2a:	74 e4                	je     5e10 <mpz_pow_ui+0x70>
    5e2c:	4c 89 f2             	mov    %r14,%rdx
    5e2f:	48 89 de             	mov    %rbx,%rsi
    5e32:	48 89 df             	mov    %rbx,%rdi
    5e35:	48 d1 ed             	shr    %rbp
    5e38:	e8 00 00 00 00       	call   5e3d <mpz_pow_ui+0x9d>
    5e3d:	41 83 ec 01          	sub    $0x1,%r12d
    5e41:	75 d6                	jne    5e19 <mpz_pow_ui+0x79>
    5e43:	48 8b 14 24          	mov    (%rsp),%rdx
    5e47:	49 63 07             	movslq (%r15),%rax
    5e4a:	49 8b 7f 08          	mov    0x8(%r15),%rdi
    5e4e:	49 89 17             	mov    %rdx,(%r15)
    5e51:	48 8b 54 24 08       	mov    0x8(%rsp),%rdx
    5e56:	49 89 57 08          	mov    %rdx,0x8(%r15)
    5e5a:	85 c0                	test   %eax,%eax
    5e5c:	74 2c                	je     5e8a <mpz_pow_ui+0xea>
    5e5e:	48 8b 54 24 18       	mov    0x18(%rsp),%rdx
    5e63:	64 48 2b 14 25 28 00 	sub    %fs:0x28,%rdx
    5e6a:	00 00 
    5e6c:	75 3b                	jne    5ea9 <mpz_pow_ui+0x109>
    5e6e:	48 83 c4 28          	add    $0x28,%rsp
    5e72:	48 8d 34 c5 00 00 00 	lea    0x0(,%rax,8),%rsi
    5e79:	00 
    5e7a:	5b                   	pop    %rbx
    5e7b:	5d                   	pop    %rbp
    5e7c:	41 5c                	pop    %r12
    5e7e:	41 5d                	pop    %r13
    5e80:	41 5e                	pop    %r14
    5e82:	41 5f                	pop    %r15
    5e84:	ff 25 00 00 00 00    	jmp    *0x0(%rip)        # 5e8a <mpz_pow_ui+0xea>
    5e8a:	48 8b 44 24 18       	mov    0x18(%rsp),%rax
    5e8f:	64 48 2b 04 25 28 00 	sub    %fs:0x28,%rax
    5e96:	00 00 
    5e98:	75 0f                	jne    5ea9 <mpz_pow_ui+0x109>
    5e9a:	48 83 c4 28          	add    $0x28,%rsp
    5e9e:	5b                   	pop    %rbx
    5e9f:	5d                   	pop    %rbp
    5ea0:	41 5c                	pop    %r12
    5ea2:	41 5d                	pop    %r13
    5ea4:	41 5e                	pop    %r14
    5ea6:	41 5f                	pop    %r15
    5ea8:	c3                   	ret    
    5ea9:	e8 00 00 00 00       	call   5eae <mpz_pow_ui+0x10e>
    5eae:	66 90                	xchg   %ax,%ax

0000000000005eb0 <mpz_ui_pow_ui>:
    5eb0:	f3 0f 1e fa          	endbr64 
    5eb4:	41 55                	push   %r13
    5eb6:	41 54                	push   %r12
    5eb8:	49 89 d4             	mov    %rdx,%r12
    5ebb:	55                   	push   %rbp
    5ebc:	48 89 fd             	mov    %rdi,%rbp
    5ebf:	53                   	push   %rbx
    5ec0:	48 83 ec 28          	sub    $0x28,%rsp
    5ec4:	64 48 8b 04 25 28 00 	mov    %fs:0x28,%rax
    5ecb:	00 00 
    5ecd:	48 89 44 24 18       	mov    %rax,0x18(%rsp)
    5ed2:	31 c0                	xor    %eax,%eax
    5ed4:	48 8d 05 00 00 00 00 	lea    0x0(%rip),%rax        # 5edb <mpz_ui_pow_ui+0x2b>
    5edb:	49 89 e5             	mov    %rsp,%r13
    5ede:	48 c7 04 24 00 00 00 	movq   $0x0,(%rsp)
    5ee5:	00 
    5ee6:	48 89 44 24 08       	mov    %rax,0x8(%rsp)
    5eeb:	48 85 f6             	test   %rsi,%rsi
    5eee:	74 1b                	je     5f0b <mpz_ui_pow_ui+0x5b>
    5ef0:	48 89 f3             	mov    %rsi,%rbx
    5ef3:	4c 89 ef             	mov    %r13,%rdi
    5ef6:	be 01 00 00 00       	mov    $0x1,%esi
    5efb:	c7 44 24 04 01 00 00 	movl   $0x1,0x4(%rsp)
    5f02:	00 
    5f03:	e8 a8 a4 ff ff       	call   3b0 <mpz_realloc>
    5f08:	48 89 18             	mov    %rbx,(%rax)
    5f0b:	4c 89 ee             	mov    %r13,%rsi
    5f0e:	4c 89 e2             	mov    %r12,%rdx
    5f11:	48 89 ef             	mov    %rbp,%rdi
    5f14:	e8 00 00 00 00       	call   5f19 <mpz_ui_pow_ui+0x69>
    5f19:	48 63 34 24          	movslq (%rsp),%rsi
    5f1d:	85 f6                	test   %esi,%esi
    5f1f:	74 2f                	je     5f50 <mpz_ui_pow_ui+0xa0>
    5f21:	48 8b 44 24 18       	mov    0x18(%rsp),%rax
    5f26:	64 48 2b 04 25 28 00 	sub    %fs:0x28,%rax
    5f2d:	00 00 
    5f2f:	75 3a                	jne    5f6b <mpz_ui_pow_ui+0xbb>
    5f31:	48 8b 7c 24 08       	mov    0x8(%rsp),%rdi
    5f36:	48 83 c4 28          	add    $0x28,%rsp
    5f3a:	48 c1 e6 03          	shl    $0x3,%rsi
    5f3e:	5b                   	pop    %rbx
    5f3f:	5d                   	pop    %rbp
    5f40:	41 5c                	pop    %r12
    5f42:	41 5d                	pop    %r13
    5f44:	ff 25 00 00 00 00    	jmp    *0x0(%rip)        # 5f4a <mpz_ui_pow_ui+0x9a>
    5f4a:	66 0f 1f 44 00 00    	nopw   0x0(%rax,%rax,1)
    5f50:	48 8b 44 24 18       	mov    0x18(%rsp),%rax
    5f55:	64 48 2b 04 25 28 00 	sub    %fs:0x28,%rax
    5f5c:	00 00 
    5f5e:	75 0b                	jne    5f6b <mpz_ui_pow_ui+0xbb>
    5f60:	48 83 c4 28          	add    $0x28,%rsp
    5f64:	5b                   	pop    %rbx
    5f65:	5d                   	pop    %rbp
    5f66:	41 5c                	pop    %r12
    5f68:	41 5d                	pop    %r13
    5f6a:	c3                   	ret    
    5f6b:	e8 00 00 00 00       	call   5f70 <mpz_mfac_uiui>

0000000000005f70 <mpz_mfac_uiui>:
    5f70:	f3 0f 1e fa          	endbr64 
    5f74:	41 57                	push   %r15
    5f76:	41 56                	push   %r14
    5f78:	41 55                	push   %r13
    5f7a:	49 89 f5             	mov    %rsi,%r13
    5f7d:	41 54                	push   %r12
    5f7f:	49 89 d4             	mov    %rdx,%r12
    5f82:	55                   	push   %rbp
    5f83:	48 89 fd             	mov    %rdi,%rbp
    5f86:	53                   	push   %rbx
    5f87:	48 89 f3             	mov    %rsi,%rbx
    5f8a:	48 83 ec 28          	sub    $0x28,%rsp
    5f8e:	64 48 8b 04 25 28 00 	mov    %fs:0x28,%rax
    5f95:	00 00 
    5f97:	48 89 44 24 18       	mov    %rax,0x18(%rsp)
    5f9c:	31 c0                	xor    %eax,%eax
    5f9e:	48 83 fe 01          	cmp    $0x1,%rsi
    5fa2:	49 83 d5 00          	adc    $0x0,%r13
    5fa6:	4d 85 ed             	test   %r13,%r13
    5fa9:	0f 84 d1 00 00 00    	je     6080 <mpz_mfac_uiui+0x110>
    5faf:	8b 07                	mov    (%rdi),%eax
    5fb1:	c7 47 04 01 00 00 00 	movl   $0x1,0x4(%rdi)
    5fb8:	85 c0                	test   %eax,%eax
    5fba:	0f 8e d0 00 00 00    	jle    6090 <mpz_mfac_uiui+0x120>
    5fc0:	48 8b 47 08          	mov    0x8(%rdi),%rax
    5fc4:	4c 89 28             	mov    %r13,(%rax)
    5fc7:	4d 8d 74 24 01       	lea    0x1(%r12),%r14
    5fcc:	49 83 fe 01          	cmp    $0x1,%r14
    5fd0:	0f 86 8a 00 00 00    	jbe    6060 <mpz_mfac_uiui+0xf0>
    5fd6:	49 39 de             	cmp    %rbx,%r14
    5fd9:	0f 83 81 00 00 00    	jae    6060 <mpz_mfac_uiui+0xf0>
    5fdf:	4c 8d 3d 00 00 00 00 	lea    0x0(%rip),%r15        # 5fe6 <mpz_mfac_uiui+0x76>
    5fe6:	49 89 e5             	mov    %rsp,%r13
    5fe9:	eb 38                	jmp    6023 <mpz_mfac_uiui+0xb3>
    5feb:	0f 1f 44 00 00       	nopl   0x0(%rax,%rax,1)
    5ff0:	be 01 00 00 00       	mov    $0x1,%esi
    5ff5:	4c 89 ef             	mov    %r13,%rdi
    5ff8:	c7 44 24 04 01 00 00 	movl   $0x1,0x4(%rsp)
    5fff:	00 
    6000:	e8 ab a3 ff ff       	call   3b0 <mpz_realloc>
    6005:	48 89 ee             	mov    %rbp,%rsi
    6008:	4c 89 ea             	mov    %r13,%rdx
    600b:	48 89 ef             	mov    %rbp,%rdi
    600e:	48 89 18             	mov    %rbx,(%rax)
    6011:	e8 00 00 00 00       	call   6016 <mpz_mfac_uiui+0xa6>
    6016:	48 63 34 24          	movslq (%rsp),%rsi
    601a:	85 f6                	test   %esi,%esi
    601c:	75 2d                	jne    604b <mpz_mfac_uiui+0xdb>
    601e:	49 39 de             	cmp    %rbx,%r14
    6021:	73 3d                	jae    6060 <mpz_mfac_uiui+0xf0>
    6023:	48 c7 04 24 00 00 00 	movq   $0x0,(%rsp)
    602a:	00 
    602b:	4c 89 7c 24 08       	mov    %r15,0x8(%rsp)
    6030:	4c 29 e3             	sub    %r12,%rbx
    6033:	75 bb                	jne    5ff0 <mpz_mfac_uiui+0x80>
    6035:	48 89 ee             	mov    %rbp,%rsi
    6038:	4c 89 ea             	mov    %r13,%rdx
    603b:	48 89 ef             	mov    %rbp,%rdi
    603e:	e8 00 00 00 00       	call   6043 <mpz_mfac_uiui+0xd3>
    6043:	48 63 34 24          	movslq (%rsp),%rsi
    6047:	85 f6                	test   %esi,%esi
    6049:	74 15                	je     6060 <mpz_mfac_uiui+0xf0>
    604b:	48 8b 7c 24 08       	mov    0x8(%rsp),%rdi
    6050:	48 c1 e6 03          	shl    $0x3,%rsi
    6054:	ff 15 00 00 00 00    	call   *0x0(%rip)        # 605a <mpz_mfac_uiui+0xea>
    605a:	eb c2                	jmp    601e <mpz_mfac_uiui+0xae>
    605c:	0f 1f 40 00          	nopl   0x0(%rax)
    6060:	48 8b 44 24 18       	mov    0x18(%rsp),%rax
    6065:	64 48 2b 04 25 28 00 	sub    %fs:0x28,%rax
    606c:	00 00 
    606e:	75 2f                	jne    609f <mpz_mfac_uiui+0x12f>
    6070:	48 83 c4 28          	add    $0x28,%rsp
    6074:	5b                   	pop    %rbx
    6075:	5d                   	pop    %rbp
    6076:	41 5c                	pop    %r12
    6078:	41 5d                	pop    %r13
    607a:	41 5e                	pop    %r14
    607c:	41 5f                	pop    %r15
    607e:	c3                   	ret    
    607f:	90                   	nop
    6080:	c7 47 04 00 00 00 00 	movl   $0x0,0x4(%rdi)
    6087:	e9 3b ff ff ff       	jmp    5fc7 <mpz_mfac_uiui+0x57>
    608c:	0f 1f 40 00          	nopl   0x0(%rax)
    6090:	be 01 00 00 00       	mov    $0x1,%esi
    6095:	e8 16 a3 ff ff       	call   3b0 <mpz_realloc>
    609a:	e9 25 ff ff ff       	jmp    5fc4 <mpz_mfac_uiui+0x54>
    609f:	e8 00 00 00 00       	call   60a4 <mpz_mfac_uiui+0x134>
    60a4:	66 66 2e 0f 1f 84 00 	data16 cs nopw 0x0(%rax,%rax,1)
    60ab:	00 00 00 00 
    60af:	90                   	nop

00000000000060b0 <mpz_2fac_ui>:
    60b0:	f3 0f 1e fa          	endbr64 
    60b4:	41 56                	push   %r14
    60b6:	41 55                	push   %r13
    60b8:	41 54                	push   %r12
    60ba:	49 89 f4             	mov    %rsi,%r12
    60bd:	55                   	push   %rbp
    60be:	48 89 fd             	mov    %rdi,%rbp
    60c1:	53                   	push   %rbx
    60c2:	48 89 f3             	mov    %rsi,%rbx
    60c5:	48 83 ec 20          	sub    $0x20,%rsp
    60c9:	64 48 8b 04 25 28 00 	mov    %fs:0x28,%rax
    60d0:	00 00 
    60d2:	48 89 44 24 18       	mov    %rax,0x18(%rsp)
    60d7:	31 c0                	xor    %eax,%eax
    60d9:	48 83 fe 01          	cmp    $0x1,%rsi
    60dd:	49 83 d4 00          	adc    $0x0,%r12
    60e1:	4d 85 e4             	test   %r12,%r12
    60e4:	0f 84 9e 00 00 00    	je     6188 <mpz_2fac_ui+0xd8>
    60ea:	8b 07                	mov    (%rdi),%eax
    60ec:	c7 47 04 01 00 00 00 	movl   $0x1,0x4(%rdi)
    60f3:	85 c0                	test   %eax,%eax
    60f5:	0f 8e 9d 00 00 00    	jle    6198 <mpz_2fac_ui+0xe8>
    60fb:	48 8b 47 08          	mov    0x8(%rdi),%rax
    60ff:	4c 89 20             	mov    %r12,(%rax)
    6102:	48 83 fb 03          	cmp    $0x3,%rbx
    6106:	76 60                	jbe    6168 <mpz_2fac_ui+0xb8>
    6108:	4c 8d 35 00 00 00 00 	lea    0x0(%rip),%r14        # 610f <mpz_2fac_ui+0x5f>
    610f:	49 89 e4             	mov    %rsp,%r12
    6112:	49 bd 00 00 00 00 01 	movabs $0x100000000,%r13
    6119:	00 00 00 
    611c:	0f 1f 40 00          	nopl   0x0(%rax)
    6120:	be 01 00 00 00       	mov    $0x1,%esi
    6125:	4c 89 e7             	mov    %r12,%rdi
    6128:	4c 89 2c 24          	mov    %r13,(%rsp)
    612c:	48 83 eb 02          	sub    $0x2,%rbx
    6130:	4c 89 74 24 08       	mov    %r14,0x8(%rsp)
    6135:	e8 76 a2 ff ff       	call   3b0 <mpz_realloc>
    613a:	48 89 ee             	mov    %rbp,%rsi
    613d:	4c 89 e2             	mov    %r12,%rdx
    6140:	48 89 ef             	mov    %rbp,%rdi
    6143:	48 89 18             	mov    %rbx,(%rax)
    6146:	e8 00 00 00 00       	call   614b <mpz_2fac_ui+0x9b>
    614b:	48 63 34 24          	movslq (%rsp),%rsi
    614f:	85 f6                	test   %esi,%esi
    6151:	74 0f                	je     6162 <mpz_2fac_ui+0xb2>
    6153:	48 8b 7c 24 08       	mov    0x8(%rsp),%rdi
    6158:	48 c1 e6 03          	shl    $0x3,%rsi
    615c:	ff 15 00 00 00 00    	call   *0x0(%rip)        # 6162 <mpz_2fac_ui+0xb2>
    6162:	48 83 fb 03          	cmp    $0x3,%rbx
    6166:	77 b8                	ja     6120 <mpz_2fac_ui+0x70>
    6168:	48 8b 44 24 18       	mov    0x18(%rsp),%rax
    616d:	64 48 2b 04 25 28 00 	sub    %fs:0x28,%rax
    6174:	00 00 
    6176:	75 2f                	jne    61a7 <mpz_2fac_ui+0xf7>
    6178:	48 83 c4 20          	add    $0x20,%rsp
    617c:	5b                   	pop    %rbx
    617d:	5d                   	pop    %rbp
    617e:	41 5c                	pop    %r12
    6180:	41 5d                	pop    %r13
    6182:	41 5e                	pop    %r14
    6184:	c3                   	ret    
    6185:	0f 1f 00             	nopl   (%rax)
    6188:	c7 47 04 00 00 00 00 	movl   $0x0,0x4(%rdi)
    618f:	e9 6e ff ff ff       	jmp    6102 <mpz_2fac_ui+0x52>
    6194:	0f 1f 40 00          	nopl   0x0(%rax)
    6198:	be 01 00 00 00       	mov    $0x1,%esi
    619d:	e8 0e a2 ff ff       	call   3b0 <mpz_realloc>
    61a2:	e9 58 ff ff ff       	jmp    60ff <mpz_2fac_ui+0x4f>
    61a7:	e8 00 00 00 00       	call   61ac <mpz_2fac_ui+0xfc>
    61ac:	0f 1f 40 00          	nopl   0x0(%rax)

00000000000061b0 <mpz_fac_ui>:
    61b0:	f3 0f 1e fa          	endbr64 
    61b4:	41 56                	push   %r14
    61b6:	41 55                	push   %r13
    61b8:	41 54                	push   %r12
    61ba:	49 89 f4             	mov    %rsi,%r12
    61bd:	55                   	push   %rbp
    61be:	48 89 fd             	mov    %rdi,%rbp
    61c1:	53                   	push   %rbx
    61c2:	48 89 f3             	mov    %rsi,%rbx
    61c5:	48 83 ec 20          	sub    $0x20,%rsp
    61c9:	64 48 8b 04 25 28 00 	mov    %fs:0x28,%rax
    61d0:	00 00 
    61d2:	48 89 44 24 18       	mov    %rax,0x18(%rsp)
    61d7:	31 c0                	xor    %eax,%eax
    61d9:	48 83 fe 01          	cmp    $0x1,%rsi
    61dd:	49 83 d4 00          	adc    $0x0,%r12
    61e1:	4d 85 e4             	test   %r12,%r12
    61e4:	0f 84 9e 00 00 00    	je     6288 <mpz_fac_ui+0xd8>
    61ea:	8b 07                	mov    (%rdi),%eax
    61ec:	c7 47 04 01 00 00 00 	movl   $0x1,0x4(%rdi)
    61f3:	85 c0                	test   %eax,%eax
    61f5:	0f 8e 9d 00 00 00    	jle    6298 <mpz_fac_ui+0xe8>
    61fb:	48 8b 47 08          	mov    0x8(%rdi),%rax
    61ff:	4c 89 20             	mov    %r12,(%rax)
    6202:	48 83 fb 02          	cmp    $0x2,%rbx
    6206:	76 60                	jbe    6268 <mpz_fac_ui+0xb8>
    6208:	4c 8d 35 00 00 00 00 	lea    0x0(%rip),%r14        # 620f <mpz_fac_ui+0x5f>
    620f:	49 89 e4             	mov    %rsp,%r12
    6212:	49 bd 00 00 00 00 01 	movabs $0x100000000,%r13
    6219:	00 00 00 
    621c:	0f 1f 40 00          	nopl   0x0(%rax)
    6220:	be 01 00 00 00       	mov    $0x1,%esi
    6225:	4c 89 e7             	mov    %r12,%rdi
    6228:	4c 89 2c 24          	mov    %r13,(%rsp)
    622c:	48 83 eb 01          	sub    $0x1,%rbx
    6230:	4c 89 74 24 08       	mov    %r14,0x8(%rsp)
    6235:	e8 76 a1 ff ff       	call   3b0 <mpz_realloc>
    623a:	48 89 ee             	mov    %rbp,%rsi
    623d:	4c 89 e2             	mov    %r12,%rdx
    6240:	48 89 ef             	mov    %rbp,%rdi
    6243:	48 89 18             	mov    %rbx,(%rax)
    6246:	e8 00 00 00 00       	call   624b <mpz_fac_ui+0x9b>
    624b:	48 63 34 24          	movslq (%rsp),%rsi
    624f:	85 f6                	test   %esi,%esi
    6251:	74 0f                	je     6262 <mpz_fac_ui+0xb2>
    6253:	48 8b 7c 24 08       	mov    0x8(%rsp),%rdi
    6258:	48 c1 e6 03          	shl    $0x3,%rsi
    625c:	ff 15 00 00 00 00    	call   *0x0(%rip)        # 6262 <mpz_fac_ui+0xb2>
    6262:	48 83 fb 02          	cmp    $0x2,%rbx
    6266:	75 b8                	jne    6220 <mpz_fac_ui+0x70>
    6268:	48 8b 44 24 18       	mov    0x18(%rsp),%rax
    626d:	64 48 2b 04 25 28 00 	sub    %fs:0x28,%rax
    6274:	00 00 
    6276:	75 2f                	jne    62a7 <mpz_fac_ui+0xf7>
    6278:	48 83 c4 20          	add    $0x20,%rsp
    627c:	5b                   	pop    %rbx
    627d:	5d                   	pop    %rbp
    627e:	41 5c                	pop    %r12
    6280:	41 5d                	pop    %r13
    6282:	41 5e                	pop    %r14
    6284:	c3                   	ret    
    6285:	0f 1f 00             	nopl   (%rax)
    6288:	c7 47 04 00 00 00 00 	movl   $0x0,0x4(%rdi)
    628f:	e9 6e ff ff ff       	jmp    6202 <mpz_fac_ui+0x52>
    6294:	0f 1f 40 00          	nopl   0x0(%rax)
    6298:	be 01 00 00 00       	mov    $0x1,%esi
    629d:	e8 0e a1 ff ff       	call   3b0 <mpz_realloc>
    62a2:	e9 58 ff ff ff       	jmp    61ff <mpz_fac_ui+0x4f>
    62a7:	e8 00 00 00 00       	call   62ac <mpz_fac_ui+0xfc>
    62ac:	0f 1f 40 00          	nopl   0x0(%rax)

00000000000062b0 <mpz_bin_uiui>:
    62b0:	f3 0f 1e fa          	endbr64 
    62b4:	41 57                	push   %r15
    62b6:	41 56                	push   %r14
    62b8:	41 55                	push   %r13
    62ba:	49 89 d5             	mov    %rdx,%r13
    62bd:	41 54                	push   %r12
    62bf:	49 89 fc             	mov    %rdi,%r12
    62c2:	55                   	push   %rbp
    62c3:	53                   	push   %rbx
    62c4:	48 89 f3             	mov    %rsi,%rbx
    62c7:	48 d1 eb             	shr    %rbx
    62ca:	48 83 ec 48          	sub    $0x48,%rsp
    62ce:	48 89 74 24 08       	mov    %rsi,0x8(%rsp)
    62d3:	64 48 8b 04 25 28 00 	mov    %fs:0x28,%rax
    62da:	00 00 
    62dc:	48 89 44 24 38       	mov    %rax,0x38(%rsp)
    62e1:	31 c0                	xor    %eax,%eax
    62e3:	48 39 f2             	cmp    %rsi,%rdx
    62e6:	0f 87 94 01 00 00    	ja     6480 <mpz_bin_uiui+0x1d0>
    62ec:	8b 07                	mov    (%rdi),%eax
    62ee:	c7 47 04 01 00 00 00 	movl   $0x1,0x4(%rdi)
    62f5:	85 c0                	test   %eax,%eax
    62f7:	0f 8e f3 01 00 00    	jle    64f0 <mpz_bin_uiui+0x240>
    62fd:	48 8b 47 08          	mov    0x8(%rdi),%rax
    6301:	48 c7 00 01 00 00 00 	movq   $0x1,(%rax)
    6308:	48 8b 44 24 08       	mov    0x8(%rsp),%rax
    630d:	4c 29 e8             	sub    %r13,%rax
    6310:	49 39 dd             	cmp    %rbx,%r13
    6313:	4c 0f 47 e8          	cmova  %rax,%r13
    6317:	49 83 fd 01          	cmp    $0x1,%r13
    631b:	4c 89 eb             	mov    %r13,%rbx
    631e:	48 c7 44 24 10 00 00 	movq   $0x0,0x10(%rsp)
    6325:	00 00 
    6327:	4c 8d 35 00 00 00 00 	lea    0x0(%rip),%r14        # 632e <mpz_bin_uiui+0x7e>
    632e:	48 83 d3 00          	adc    $0x0,%rbx
    6332:	4c 8d 7c 24 10       	lea    0x10(%rsp),%r15
    6337:	4c 89 74 24 18       	mov    %r14,0x18(%rsp)
    633c:	48 85 db             	test   %rbx,%rbx
    633f:	74 18                	je     6359 <mpz_bin_uiui+0xa9>
    6341:	be 01 00 00 00       	mov    $0x1,%esi
    6346:	4c 89 ff             	mov    %r15,%rdi
    6349:	c7 44 24 14 01 00 00 	movl   $0x1,0x14(%rsp)
    6350:	00 
    6351:	e8 5a a0 ff ff       	call   3b0 <mpz_realloc>
    6356:	48 89 18             	mov    %rbx,(%rax)
    6359:	49 83 fd 02          	cmp    $0x2,%r13
    635d:	0f 86 9c 01 00 00    	jbe    64ff <mpz_bin_uiui+0x24f>
    6363:	4c 89 ed             	mov    %r13,%rbp
    6366:	48 8d 5c 24 20       	lea    0x20(%rsp),%rbx
    636b:	0f 1f 44 00 00       	nopl   0x0(%rax,%rax,1)
    6370:	be 01 00 00 00       	mov    $0x1,%esi
    6375:	48 89 df             	mov    %rbx,%rdi
    6378:	4c 89 74 24 28       	mov    %r14,0x28(%rsp)
    637d:	48 b8 00 00 00 00 01 	movabs $0x100000000,%rax
    6384:	00 00 00 
    6387:	48 89 44 24 20       	mov    %rax,0x20(%rsp)
    638c:	48 83 ed 01          	sub    $0x1,%rbp
    6390:	e8 1b a0 ff ff       	call   3b0 <mpz_realloc>
    6395:	4c 89 fe             	mov    %r15,%rsi
    6398:	48 89 da             	mov    %rbx,%rdx
    639b:	4c 89 ff             	mov    %r15,%rdi
    639e:	48 89 28             	mov    %rbp,(%rax)
    63a1:	e8 00 00 00 00       	call   63a6 <mpz_bin_uiui+0xf6>
    63a6:	48 63 74 24 20       	movslq 0x20(%rsp),%rsi
    63ab:	85 f6                	test   %esi,%esi
    63ad:	74 0f                	je     63be <mpz_bin_uiui+0x10e>
    63af:	48 8b 7c 24 28       	mov    0x28(%rsp),%rdi
    63b4:	48 c1 e6 03          	shl    $0x3,%rsi
    63b8:	ff 15 00 00 00 00    	call   *0x0(%rip)        # 63be <mpz_bin_uiui+0x10e>
    63be:	48 83 fd 02          	cmp    $0x2,%rbp
    63c2:	75 ac                	jne    6370 <mpz_bin_uiui+0xc0>
    63c4:	48 8b 6c 24 08       	mov    0x8(%rsp),%rbp
    63c9:	49 29 ed             	sub    %rbp,%r13
    63cc:	0f 1f 40 00          	nopl   0x0(%rax)
    63d0:	48 c7 44 24 20 00 00 	movq   $0x0,0x20(%rsp)
    63d7:	00 00 
    63d9:	4c 89 74 24 28       	mov    %r14,0x28(%rsp)
    63de:	48 85 ed             	test   %rbp,%rbp
    63e1:	74 18                	je     63fb <mpz_bin_uiui+0x14b>
    63e3:	be 01 00 00 00       	mov    $0x1,%esi
    63e8:	48 89 df             	mov    %rbx,%rdi
    63eb:	c7 44 24 24 01 00 00 	movl   $0x1,0x24(%rsp)
    63f2:	00 
    63f3:	e8 b8 9f ff ff       	call   3b0 <mpz_realloc>
    63f8:	48 89 28             	mov    %rbp,(%rax)
    63fb:	4c 89 e6             	mov    %r12,%rsi
    63fe:	48 89 da             	mov    %rbx,%rdx
    6401:	4c 89 e7             	mov    %r12,%rdi
    6404:	e8 00 00 00 00       	call   6409 <mpz_bin_uiui+0x159>
    6409:	48 63 74 24 20       	movslq 0x20(%rsp),%rsi
    640e:	85 f6                	test   %esi,%esi
    6410:	74 0f                	je     6421 <mpz_bin_uiui+0x171>
    6412:	48 8b 7c 24 28       	mov    0x28(%rsp),%rdi
    6417:	48 c1 e6 03          	shl    $0x3,%rsi
    641b:	ff 15 00 00 00 00    	call   *0x0(%rip)        # 6421 <mpz_bin_uiui+0x171>
    6421:	48 83 ed 01          	sub    $0x1,%rbp
    6425:	4c 89 e8             	mov    %r13,%rax
    6428:	48 01 e8             	add    %rbp,%rax
    642b:	75 a3                	jne    63d0 <mpz_bin_uiui+0x120>
    642d:	31 f6                	xor    %esi,%esi
    642f:	41 b8 02 00 00 00    	mov    $0x2,%r8d
    6435:	4c 89 f9             	mov    %r15,%rcx
    6438:	4c 89 e2             	mov    %r12,%rdx
    643b:	4c 89 e7             	mov    %r12,%rdi
    643e:	e8 7d dc ff ff       	call   40c0 <mpz_div_qr>
    6443:	85 c0                	test   %eax,%eax
    6445:	0f 85 cc 00 00 00    	jne    6517 <mpz_bin_uiui+0x267>
    644b:	48 63 44 24 10       	movslq 0x10(%rsp),%rax
    6450:	85 c0                	test   %eax,%eax
    6452:	75 7c                	jne    64d0 <mpz_bin_uiui+0x220>
    6454:	48 8b 44 24 38       	mov    0x38(%rsp),%rax
    6459:	64 48 2b 04 25 28 00 	sub    %fs:0x28,%rax
    6460:	00 00 
    6462:	0f 85 aa 00 00 00    	jne    6512 <mpz_bin_uiui+0x262>
    6468:	48 83 c4 48          	add    $0x48,%rsp
    646c:	5b                   	pop    %rbx
    646d:	5d                   	pop    %rbp
    646e:	41 5c                	pop    %r12
    6470:	41 5d                	pop    %r13
    6472:	41 5e                	pop    %r14
    6474:	41 5f                	pop    %r15
    6476:	c3                   	ret    
    6477:	66 0f 1f 84 00 00 00 	nopw   0x0(%rax,%rax,1)
    647e:	00 00 
    6480:	c7 47 04 00 00 00 00 	movl   $0x0,0x4(%rdi)
    6487:	48 39 da             	cmp    %rbx,%rdx
    648a:	0f 86 87 fe ff ff    	jbe    6317 <mpz_bin_uiui+0x67>
    6490:	48 8d 05 00 00 00 00 	lea    0x0(%rip),%rax        # 6497 <mpz_bin_uiui+0x1e7>
    6497:	4c 8d 7c 24 10       	lea    0x10(%rsp),%r15
    649c:	be 01 00 00 00       	mov    $0x1,%esi
    64a1:	48 89 44 24 18       	mov    %rax,0x18(%rsp)
    64a6:	4c 89 ff             	mov    %r15,%rdi
    64a9:	48 b8 00 00 00 00 01 	movabs $0x100000000,%rax
    64b0:	00 00 00 
    64b3:	48 89 44 24 10       	mov    %rax,0x10(%rsp)
    64b8:	e8 f3 9e ff ff       	call   3b0 <mpz_realloc>
    64bd:	48 c7 00 01 00 00 00 	movq   $0x1,(%rax)
    64c4:	e9 64 ff ff ff       	jmp    642d <mpz_bin_uiui+0x17d>
    64c9:	0f 1f 80 00 00 00 00 	nopl   0x0(%rax)
    64d0:	48 8b 7c 24 18       	mov    0x18(%rsp),%rdi
    64d5:	48 8d 34 c5 00 00 00 	lea    0x0(,%rax,8),%rsi
    64dc:	00 
    64dd:	ff 15 00 00 00 00    	call   *0x0(%rip)        # 64e3 <mpz_bin_uiui+0x233>
    64e3:	e9 6c ff ff ff       	jmp    6454 <mpz_bin_uiui+0x1a4>
    64e8:	0f 1f 84 00 00 00 00 	nopl   0x0(%rax,%rax,1)
    64ef:	00 
    64f0:	be 01 00 00 00       	mov    $0x1,%esi
    64f5:	e8 b6 9e ff ff       	call   3b0 <mpz_realloc>
    64fa:	e9 02 fe ff ff       	jmp    6301 <mpz_bin_uiui+0x51>
    64ff:	48 8d 5c 24 20       	lea    0x20(%rsp),%rbx
    6504:	4d 85 ed             	test   %r13,%r13
    6507:	0f 84 20 ff ff ff    	je     642d <mpz_bin_uiui+0x17d>
    650d:	e9 b2 fe ff ff       	jmp    63c4 <mpz_bin_uiui+0x114>
    6512:	e8 00 00 00 00       	call   6517 <mpz_bin_uiui+0x267>
    6517:	48 8d 0d 00 00 00 00 	lea    0x0(%rip),%rcx        # 651e <mpz_bin_uiui+0x26e>
    651e:	ba e1 09 00 00       	mov    $0x9e1,%edx
    6523:	48 8d 35 00 00 00 00 	lea    0x0(%rip),%rsi        # 652a <mpz_bin_uiui+0x27a>
    652a:	48 8d 3d 00 00 00 00 	lea    0x0(%rip),%rdi        # 6531 <mpz_bin_uiui+0x281>
    6531:	e8 00 00 00 00       	call   6536 <mpz_bin_uiui+0x286>
    6536:	66 2e 0f 1f 84 00 00 	cs nopw 0x0(%rax,%rax,1)
    653d:	00 00 00 

0000000000006540 <mpz_tstbit>:
    6540:	f3 0f 1e fa          	endbr64 
    6544:	4c 63 4f 04          	movslq 0x4(%rdi),%r9
    6548:	49 89 f0             	mov    %rsi,%r8
    654b:	48 89 f1             	mov    %rsi,%rcx
    654e:	49 c1 e8 06          	shr    $0x6,%r8
    6552:	44 89 c8             	mov    %r9d,%eax
    6555:	4c 89 c2             	mov    %r8,%rdx
    6558:	f7 d8                	neg    %eax
    655a:	41 0f 48 c1          	cmovs  %r9d,%eax
    655e:	89 c0                	mov    %eax,%eax
    6560:	4c 39 c0             	cmp    %r8,%rax
    6563:	7e 5b                	jle    65c0 <mpz_tstbit+0x80>
    6565:	48 8b 77 08          	mov    0x8(%rdi),%rsi
    6569:	41 89 ca             	mov    %ecx,%r10d
    656c:	41 83 e2 3f          	and    $0x3f,%r10d
    6570:	4a 8b 3c c6          	mov    (%rsi,%r8,8),%rdi
    6574:	48 89 f8             	mov    %rdi,%rax
    6577:	48 d3 e8             	shr    %cl,%rax
    657a:	83 e0 01             	and    $0x1,%eax
    657d:	4d 85 c9             	test   %r9,%r9
    6580:	78 06                	js     6588 <mpz_tstbit+0x48>
    6582:	c3                   	ret    
    6583:	0f 1f 44 00 00       	nopl   0x0(%rax,%rax,1)
    6588:	45 85 d2             	test   %r10d,%r10d
    658b:	74 22                	je     65af <mpz_tstbit+0x6f>
    658d:	b9 40 00 00 00       	mov    $0x40,%ecx
    6592:	44 29 d1             	sub    %r10d,%ecx
    6595:	48 d3 e7             	shl    %cl,%rdi
    6598:	48 85 ff             	test   %rdi,%rdi
    659b:	74 12                	je     65af <mpz_tstbit+0x6f>
    659d:	83 f0 01             	xor    $0x1,%eax
    65a0:	c3                   	ret    
    65a1:	0f 1f 80 00 00 00 00 	nopl   0x0(%rax)
    65a8:	48 83 3c d6 00       	cmpq   $0x0,(%rsi,%rdx,8)
    65ad:	75 ee                	jne    659d <mpz_tstbit+0x5d>
    65af:	48 83 ea 01          	sub    $0x1,%rdx
    65b3:	73 f3                	jae    65a8 <mpz_tstbit+0x68>
    65b5:	c3                   	ret    
    65b6:	66 2e 0f 1f 84 00 00 	cs nopw 0x0(%rax,%rax,1)
    65bd:	00 00 00 
    65c0:	49 c1 e9 3f          	shr    $0x3f,%r9
    65c4:	4c 89 c8             	mov    %r9,%rax
    65c7:	c3                   	ret    
    65c8:	0f 1f 84 00 00 00 00 	nopl   0x0(%rax,%rax,1)
    65cf:	00 

00000000000065d0 <mpz_rootrem>:
    65d0:	f3 0f 1e fa          	endbr64 
    65d4:	41 57                	push   %r15
    65d6:	41 56                	push   %r14
    65d8:	41 55                	push   %r13
    65da:	41 54                	push   %r12
    65dc:	49 89 d4             	mov    %rdx,%r12
    65df:	55                   	push   %rbp
    65e0:	53                   	push   %rbx
    65e1:	48 83 ec 78          	sub    $0x78,%rsp
    65e5:	48 89 7c 24 18       	mov    %rdi,0x18(%rsp)
    65ea:	48 89 74 24 10       	mov    %rsi,0x10(%rsp)
    65ef:	64 48 8b 04 25 28 00 	mov    %fs:0x28,%rax
    65f6:	00 00 
    65f8:	48 89 44 24 68       	mov    %rax,0x68(%rsp)
    65fd:	31 c0                	xor    %eax,%eax
    65ff:	48 63 42 04          	movslq 0x4(%rdx),%rax
    6603:	48 89 ca             	mov    %rcx,%rdx
    6606:	48 f7 d2             	not    %rdx
    6609:	48 89 c3             	mov    %rax,%rbx
    660c:	48 c1 e8 3f          	shr    $0x3f,%rax
    6610:	48 85 c2             	test   %rax,%rdx
    6613:	0f 85 3f 05 00 00    	jne    6b58 <mpz_rootrem+0x588>
    6619:	49 89 cd             	mov    %rcx,%r13
    661c:	48 85 c9             	test   %rcx,%rcx
    661f:	0f 84 27 05 00 00    	je     6b4c <mpz_rootrem+0x57c>
    6625:	89 d8                	mov    %ebx,%eax
    6627:	49 8b 54 24 08       	mov    0x8(%r12),%rdx
    662c:	f7 d8                	neg    %eax
    662e:	0f 48 c3             	cmovs  %ebx,%eax
    6631:	83 f8 01             	cmp    $0x1,%eax
    6634:	0f 8e c6 03 00 00    	jle    6a00 <mpz_rootrem+0x430>
    663a:	48 8d 0d 00 00 00 00 	lea    0x0(%rip),%rcx        # 6641 <mpz_rootrem+0x71>
    6641:	41 bb 01 00 00 00    	mov    $0x1,%r11d
    6647:	48 c7 44 24 30 00 00 	movq   $0x0,0x30(%rsp)
    664e:	00 00 
    6650:	48 89 4c 24 08       	mov    %rcx,0x8(%rsp)
    6655:	48 89 4c 24 38       	mov    %rcx,0x38(%rsp)
    665a:	48 c7 44 24 20 00 00 	movq   $0x0,0x20(%rsp)
    6661:	00 00 
    6663:	48 89 4c 24 28       	mov    %rcx,0x28(%rsp)
    6668:	85 db                	test   %ebx,%ebx
    666a:	0f 85 d8 03 00 00    	jne    6a48 <mpz_rootrem+0x478>
    6670:	4c 8d 7c 24 20       	lea    0x20(%rsp),%r15
    6675:	4c 89 de             	mov    %r11,%rsi
    6678:	4c 89 ff             	mov    %r15,%rdi
    667b:	e8 00 00 00 00       	call   6680 <mpz_rootrem+0xb0>
    6680:	85 c0                	test   %eax,%eax
    6682:	0f 84 78 02 00 00    	je     6900 <mpz_rootrem+0x330>
    6688:	49 83 fd 02          	cmp    $0x2,%r13
    668c:	0f 84 83 02 00 00    	je     6915 <mpz_rootrem+0x345>
    6692:	48 c7 44 24 40 00 00 	movq   $0x0,0x40(%rsp)
    6699:	00 00 
    669b:	48 8b 44 24 08       	mov    0x8(%rsp),%rax
    66a0:	48 89 44 24 48       	mov    %rax,0x48(%rsp)
    66a5:	85 db                	test   %ebx,%ebx
    66a7:	0f 88 72 04 00 00    	js     6b1f <mpz_rootrem+0x54f>
    66ad:	8b 4c 24 24          	mov    0x24(%rsp),%ecx
    66b1:	48 8d 44 24 50       	lea    0x50(%rsp),%rax
    66b6:	4c 8b 44 24 38       	mov    0x38(%rsp),%r8
    66bb:	8b 74 24 34          	mov    0x34(%rsp),%esi
    66bf:	49 8d 5d ff          	lea    -0x1(%r13),%rbx
    66c3:	48 89 04 24          	mov    %rax,(%rsp)
    66c7:	48 8b 7c 24 28       	mov    0x28(%rsp),%rdi
    66cc:	4c 89 f8             	mov    %r15,%rax
    66cf:	48 8d 6c 24 30       	lea    0x30(%rsp),%rbp
    66d4:	4d 89 ef             	mov    %r13,%r15
    66d7:	4c 8d 74 24 40       	lea    0x40(%rsp),%r14
    66dc:	4d 89 e5             	mov    %r12,%r13
    66df:	49 89 c4             	mov    %rax,%r12
    66e2:	8b 54 24 20          	mov    0x20(%rsp),%edx
    66e6:	8b 44 24 30          	mov    0x30(%rsp),%eax
    66ea:	48 89 7c 24 38       	mov    %rdi,0x38(%rsp)
    66ef:	4c 89 e7             	mov    %r12,%rdi
    66f2:	89 74 24 24          	mov    %esi,0x24(%rsp)
    66f6:	48 89 ee             	mov    %rbp,%rsi
    66f9:	89 54 24 30          	mov    %edx,0x30(%rsp)
    66fd:	48 89 da             	mov    %rbx,%rdx
    6700:	89 44 24 20          	mov    %eax,0x20(%rsp)
    6704:	4c 89 44 24 28       	mov    %r8,0x28(%rsp)
    6709:	89 4c 24 34          	mov    %ecx,0x34(%rsp)
    670d:	e8 00 00 00 00       	call   6712 <mpz_rootrem+0x142>
    6712:	41 b8 02 00 00 00    	mov    $0x2,%r8d
    6718:	4c 89 e1             	mov    %r12,%rcx
    671b:	31 f6                	xor    %esi,%esi
    671d:	4c 89 ea             	mov    %r13,%rdx
    6720:	4c 89 e7             	mov    %r12,%rdi
    6723:	e8 98 d9 ff ff       	call   40c0 <mpz_div_qr>
    6728:	48 8b 44 24 08       	mov    0x8(%rsp),%rax
    672d:	48 c7 44 24 50 00 00 	movq   $0x0,0x50(%rsp)
    6734:	00 00 
    6736:	48 89 44 24 58       	mov    %rax,0x58(%rsp)
    673b:	48 85 db             	test   %rbx,%rbx
    673e:	74 19                	je     6759 <mpz_rootrem+0x189>
    6740:	48 8b 3c 24          	mov    (%rsp),%rdi
    6744:	be 01 00 00 00       	mov    $0x1,%esi
    6749:	c7 44 24 54 01 00 00 	movl   $0x1,0x54(%rsp)
    6750:	00 
    6751:	e8 5a 9c ff ff       	call   3b0 <mpz_realloc>
    6756:	48 89 18             	mov    %rbx,(%rax)
    6759:	48 8b 14 24          	mov    (%rsp),%rdx
    675d:	48 89 ee             	mov    %rbp,%rsi
    6760:	4c 89 f7             	mov    %r14,%rdi
    6763:	e8 00 00 00 00       	call   6768 <mpz_rootrem+0x198>
    6768:	48 63 74 24 50       	movslq 0x50(%rsp),%rsi
    676d:	85 f6                	test   %esi,%esi
    676f:	74 0f                	je     6780 <mpz_rootrem+0x1b0>
    6771:	48 8b 7c 24 58       	mov    0x58(%rsp),%rdi
    6776:	48 c1 e6 03          	shl    $0x3,%rsi
    677a:	ff 15 00 00 00 00    	call   *0x0(%rip)        # 6780 <mpz_rootrem+0x1b0>
    6780:	8b 44 24 24          	mov    0x24(%rsp),%eax
    6784:	33 44 24 44          	xor    0x44(%rsp),%eax
    6788:	4c 89 f2             	mov    %r14,%rdx
    678b:	4c 89 e6             	mov    %r12,%rsi
    678e:	4c 89 e7             	mov    %r12,%rdi
    6791:	0f 88 19 03 00 00    	js     6ab0 <mpz_rootrem+0x4e0>
    6797:	e8 c4 a2 ff ff       	call   a60 <mpz_abs_add>
    679c:	8b 4c 24 24          	mov    0x24(%rsp),%ecx
    67a0:	89 c2                	mov    %eax,%edx
    67a2:	85 c9                	test   %ecx,%ecx
    67a4:	79 02                	jns    67a8 <mpz_rootrem+0x1d8>
    67a6:	f7 da                	neg    %edx
    67a8:	31 f6                	xor    %esi,%esi
    67aa:	89 54 24 24          	mov    %edx,0x24(%rsp)
    67ae:	41 b8 02 00 00 00    	mov    $0x2,%r8d
    67b4:	4c 89 f9             	mov    %r15,%rcx
    67b7:	4c 89 e2             	mov    %r12,%rdx
    67ba:	4c 89 e7             	mov    %r12,%rdi
    67bd:	e8 5e df ff ff       	call   4720 <mpz_div_qr_ui>
    67c2:	8b 74 24 34          	mov    0x34(%rsp),%esi
    67c6:	8b 4c 24 24          	mov    0x24(%rsp),%ecx
    67ca:	4c 8b 44 24 38       	mov    0x38(%rsp),%r8
    67cf:	48 8b 7c 24 28       	mov    0x28(%rsp),%rdi
    67d4:	89 f2                	mov    %esi,%edx
    67d6:	89 c8                	mov    %ecx,%eax
    67d8:	f7 da                	neg    %edx
    67da:	0f 48 d6             	cmovs  %esi,%edx
    67dd:	f7 d8                	neg    %eax
    67df:	0f 48 c1             	cmovs  %ecx,%eax
    67e2:	48 63 d2             	movslq %edx,%rdx
    67e5:	48 98                	cltq   
    67e7:	48 39 c2             	cmp    %rax,%rdx
    67ea:	0f 84 f0 01 00 00    	je     69e0 <mpz_rootrem+0x410>
    67f0:	0f 8f ec fe ff ff    	jg     66e2 <mpz_rootrem+0x112>
    67f6:	4c 89 e0             	mov    %r12,%rax
    67f9:	4d 89 ec             	mov    %r13,%r12
    67fc:	4d 89 fd             	mov    %r15,%r13
    67ff:	49 89 c7             	mov    %rax,%r15
    6802:	48 63 44 24 40       	movslq 0x40(%rsp),%rax
    6807:	85 c0                	test   %eax,%eax
    6809:	74 15                	je     6820 <mpz_rootrem+0x250>
    680b:	48 8b 7c 24 48       	mov    0x48(%rsp),%rdi
    6810:	48 8d 34 c5 00 00 00 	lea    0x0(,%rax,8),%rsi
    6817:	00 
    6818:	ff 15 00 00 00 00    	call   *0x0(%rip)        # 681e <mpz_rootrem+0x24e>
    681e:	66 90                	xchg   %ax,%ax
    6820:	48 8b 5c 24 10       	mov    0x10(%rsp),%rbx
    6825:	48 85 db             	test   %rbx,%rbx
    6828:	74 40                	je     686a <mpz_rootrem+0x29a>
    682a:	4c 89 ea             	mov    %r13,%rdx
    682d:	48 89 ee             	mov    %rbp,%rsi
    6830:	4c 89 ff             	mov    %r15,%rdi
    6833:	e8 00 00 00 00       	call   6838 <mpz_rootrem+0x268>
    6838:	41 8b 44 24 04       	mov    0x4(%r12),%eax
    683d:	4c 89 fa             	mov    %r15,%rdx
    6840:	4c 89 e6             	mov    %r12,%rsi
    6843:	33 44 24 24          	xor    0x24(%rsp),%eax
    6847:	0f 88 eb 02 00 00    	js     6b38 <mpz_rootrem+0x568>
    684d:	48 89 df             	mov    %rbx,%rdi
    6850:	e8 cb a3 ff ff       	call   c20 <mpz_abs_sub>
    6855:	89 c2                	mov    %eax,%edx
    6857:	41 8b 44 24 04       	mov    0x4(%r12),%eax
    685c:	85 c0                	test   %eax,%eax
    685e:	79 02                	jns    6862 <mpz_rootrem+0x292>
    6860:	f7 da                	neg    %edx
    6862:	48 8b 44 24 10       	mov    0x10(%rsp),%rax
    6867:	89 50 04             	mov    %edx,0x4(%rax)
    686a:	48 63 44 24 30       	movslq 0x30(%rsp),%rax
    686f:	48 8b 5c 24 18       	mov    0x18(%rsp),%rbx
    6874:	89 c2                	mov    %eax,%edx
    6876:	48 85 db             	test   %rbx,%rbx
    6879:	74 29                	je     68a4 <mpz_rootrem+0x2d4>
    687b:	48 8b 4c 24 38       	mov    0x38(%rsp),%rcx
    6880:	48 63 03             	movslq (%rbx),%rax
    6883:	89 13                	mov    %edx,(%rbx)
    6885:	48 8b 53 08          	mov    0x8(%rbx),%rdx
    6889:	48 89 4b 08          	mov    %rcx,0x8(%rbx)
    688d:	8b 4c 24 34          	mov    0x34(%rsp),%ecx
    6891:	48 89 54 24 38       	mov    %rdx,0x38(%rsp)
    6896:	8b 53 04             	mov    0x4(%rbx),%edx
    6899:	89 44 24 30          	mov    %eax,0x30(%rsp)
    689d:	89 4b 04             	mov    %ecx,0x4(%rbx)
    68a0:	89 54 24 34          	mov    %edx,0x34(%rsp)
    68a4:	85 c0                	test   %eax,%eax
    68a6:	74 13                	je     68bb <mpz_rootrem+0x2eb>
    68a8:	48 8b 7c 24 38       	mov    0x38(%rsp),%rdi
    68ad:	48 8d 34 c5 00 00 00 	lea    0x0(,%rax,8),%rsi
    68b4:	00 
    68b5:	ff 15 00 00 00 00    	call   *0x0(%rip)        # 68bb <mpz_rootrem+0x2eb>
    68bb:	48 63 44 24 20       	movslq 0x20(%rsp),%rax
    68c0:	85 c0                	test   %eax,%eax
    68c2:	74 13                	je     68d7 <mpz_rootrem+0x307>
    68c4:	48 8b 7c 24 28       	mov    0x28(%rsp),%rdi
    68c9:	48 8d 34 c5 00 00 00 	lea    0x0(,%rax,8),%rsi
    68d0:	00 
    68d1:	ff 15 00 00 00 00    	call   *0x0(%rip)        # 68d7 <mpz_rootrem+0x307>
    68d7:	48 8b 44 24 68       	mov    0x68(%rsp),%rax
    68dc:	64 48 2b 04 25 28 00 	sub    %fs:0x28,%rax
    68e3:	00 00 
    68e5:	0f 85 5c 02 00 00    	jne    6b47 <mpz_rootrem+0x577>
    68eb:	48 83 c4 78          	add    $0x78,%rsp
    68ef:	5b                   	pop    %rbx
    68f0:	5d                   	pop    %rbp
    68f1:	41 5c                	pop    %r12
    68f3:	41 5d                	pop    %r13
    68f5:	41 5e                	pop    %r14
    68f7:	41 5f                	pop    %r15
    68f9:	c3                   	ret    
    68fa:	66 0f 1f 44 00 00    	nopw   0x0(%rax,%rax,1)
    6900:	4c 89 de             	mov    %r11,%rsi
    6903:	4c 89 ff             	mov    %r15,%rdi
    6906:	e8 85 9d ff ff       	call   690 <mpz_abs_add_bit>
    690b:	49 83 fd 02          	cmp    $0x2,%r13
    690f:	0f 85 7d fd ff ff    	jne    6692 <mpz_rootrem+0xc2>
    6915:	4c 8b 44 24 38       	mov    0x38(%rsp),%r8
    691a:	48 8b 7c 24 28       	mov    0x28(%rsp),%rdi
    691f:	48 8d 6c 24 30       	lea    0x30(%rsp),%rbp
    6924:	8b 74 24 34          	mov    0x34(%rsp),%esi
    6928:	8b 4c 24 24          	mov    0x24(%rsp),%ecx
    692c:	8b 54 24 20          	mov    0x20(%rsp),%edx
    6930:	8b 44 24 30          	mov    0x30(%rsp),%eax
    6934:	48 89 7c 24 38       	mov    %rdi,0x38(%rsp)
    6939:	4c 89 ff             	mov    %r15,%rdi
    693c:	4c 89 44 24 28       	mov    %r8,0x28(%rsp)
    6941:	41 b8 02 00 00 00    	mov    $0x2,%r8d
    6947:	89 54 24 30          	mov    %edx,0x30(%rsp)
    694b:	4c 89 e2             	mov    %r12,%rdx
    694e:	89 4c 24 34          	mov    %ecx,0x34(%rsp)
    6952:	48 89 e9             	mov    %rbp,%rcx
    6955:	89 74 24 24          	mov    %esi,0x24(%rsp)
    6959:	31 f6                	xor    %esi,%esi
    695b:	89 44 24 20          	mov    %eax,0x20(%rsp)
    695f:	e8 5c d7 ff ff       	call   40c0 <mpz_div_qr>
    6964:	8b 44 24 24          	mov    0x24(%rsp),%eax
    6968:	33 44 24 34          	xor    0x34(%rsp),%eax
    696c:	48 89 ea             	mov    %rbp,%rdx
    696f:	4c 89 fe             	mov    %r15,%rsi
    6972:	4c 89 ff             	mov    %r15,%rdi
    6975:	0f 88 65 01 00 00    	js     6ae0 <mpz_rootrem+0x510>
    697b:	e8 e0 a0 ff ff       	call   a60 <mpz_abs_add>
    6980:	8b 74 24 24          	mov    0x24(%rsp),%esi
    6984:	89 c2                	mov    %eax,%edx
    6986:	85 f6                	test   %esi,%esi
    6988:	79 02                	jns    698c <mpz_rootrem+0x3bc>
    698a:	f7 da                	neg    %edx
    698c:	89 54 24 24          	mov    %edx,0x24(%rsp)
    6990:	b9 02 00 00 00       	mov    $0x2,%ecx
    6995:	4c 89 fe             	mov    %r15,%rsi
    6998:	4c 89 ff             	mov    %r15,%rdi
    699b:	ba 01 00 00 00       	mov    $0x1,%edx
    69a0:	e8 3b c5 ff ff       	call   2ee0 <mpz_div_q_2exp>
    69a5:	8b 74 24 34          	mov    0x34(%rsp),%esi
    69a9:	8b 4c 24 24          	mov    0x24(%rsp),%ecx
    69ad:	4c 8b 44 24 38       	mov    0x38(%rsp),%r8
    69b2:	48 8b 7c 24 28       	mov    0x28(%rsp),%rdi
    69b7:	89 f2                	mov    %esi,%edx
    69b9:	89 c8                	mov    %ecx,%eax
    69bb:	f7 da                	neg    %edx
    69bd:	0f 48 d6             	cmovs  %esi,%edx
    69c0:	f7 d8                	neg    %eax
    69c2:	0f 48 c1             	cmovs  %ecx,%eax
    69c5:	48 63 d2             	movslq %edx,%rdx
    69c8:	48 98                	cltq   
    69ca:	48 39 c2             	cmp    %rax,%rdx
    69cd:	0f 84 ed 00 00 00    	je     6ac0 <mpz_rootrem+0x4f0>
    69d3:	0f 8f 53 ff ff ff    	jg     692c <mpz_rootrem+0x35c>
    69d9:	e9 42 fe ff ff       	jmp    6820 <mpz_rootrem+0x250>
    69de:	66 90                	xchg   %ax,%ax
    69e0:	48 83 e8 01          	sub    $0x1,%rax
    69e4:	0f 82 0c fe ff ff    	jb     67f6 <mpz_rootrem+0x226>
    69ea:	49 8b 14 c0          	mov    (%r8,%rax,8),%rdx
    69ee:	48 39 14 c7          	cmp    %rdx,(%rdi,%rax,8)
    69f2:	74 ec                	je     69e0 <mpz_rootrem+0x410>
    69f4:	0f 87 fc fd ff ff    	ja     67f6 <mpz_rootrem+0x226>
    69fa:	e9 e3 fc ff ff       	jmp    66e2 <mpz_rootrem+0x112>
    69ff:	90                   	nop
    6a00:	85 db                	test   %ebx,%ebx
    6a02:	0f 84 e8 00 00 00    	je     6af0 <mpz_rootrem+0x520>
    6a08:	48 8b 32             	mov    (%rdx),%rsi
    6a0b:	31 c9                	xor    %ecx,%ecx
    6a0d:	48 83 fe 01          	cmp    $0x1,%rsi
    6a11:	0f 97 c1             	seta   %cl
    6a14:	83 d9 00             	sbb    $0x0,%ecx
    6a17:	83 f9 01             	cmp    $0x1,%ecx
    6a1a:	0f 85 d0 00 00 00    	jne    6af0 <mpz_rootrem+0x520>
    6a20:	48 c7 44 24 30 00 00 	movq   $0x0,0x30(%rsp)
    6a27:	00 00 
    6a29:	48 8d 0d 00 00 00 00 	lea    0x0(%rip),%rcx        # 6a30 <mpz_rootrem+0x460>
    6a30:	48 89 4c 24 08       	mov    %rcx,0x8(%rsp)
    6a35:	48 89 4c 24 38       	mov    %rcx,0x38(%rsp)
    6a3a:	48 c7 44 24 20 00 00 	movq   $0x0,0x20(%rsp)
    6a41:	00 00 
    6a43:	48 89 4c 24 28       	mov    %rcx,0x28(%rsp)
    6a48:	48 63 c8             	movslq %eax,%rcx
    6a4b:	48 8b 44 ca f8       	mov    -0x8(%rdx,%rcx,8),%rax
    6a50:	48 85 c0             	test   %rax,%rax
    6a53:	0f 84 0b 01 00 00    	je     6b64 <mpz_rootrem+0x594>
    6a59:	48 be 00 00 00 00 00 	movabs $0xff00000000000000,%rsi
    6a60:	00 00 ff 
    6a63:	31 d2                	xor    %edx,%edx
    6a65:	48 85 f0             	test   %rsi,%rax
    6a68:	75 12                	jne    6a7c <mpz_rootrem+0x4ac>
    6a6a:	66 0f 1f 44 00 00    	nopw   0x0(%rax,%rax,1)
    6a70:	48 c1 e0 08          	shl    $0x8,%rax
    6a74:	83 c2 08             	add    $0x8,%edx
    6a77:	48 85 f0             	test   %rsi,%rax
    6a7a:	74 f4                	je     6a70 <mpz_rootrem+0x4a0>
    6a7c:	48 85 c0             	test   %rax,%rax
    6a7f:	78 0f                	js     6a90 <mpz_rootrem+0x4c0>
    6a81:	0f 1f 80 00 00 00 00 	nopl   0x0(%rax)
    6a88:	83 c2 01             	add    $0x1,%edx
    6a8b:	48 01 c0             	add    %rax,%rax
    6a8e:	79 f8                	jns    6a88 <mpz_rootrem+0x4b8>
    6a90:	48 c1 e1 06          	shl    $0x6,%rcx
    6a94:	48 8d 41 ff          	lea    -0x1(%rcx),%rax
    6a98:	48 29 d0             	sub    %rdx,%rax
    6a9b:	31 d2                	xor    %edx,%edx
    6a9d:	49 f7 f5             	div    %r13
    6aa0:	4c 8d 58 01          	lea    0x1(%rax),%r11
    6aa4:	e9 c7 fb ff ff       	jmp    6670 <mpz_rootrem+0xa0>
    6aa9:	0f 1f 80 00 00 00 00 	nopl   0x0(%rax)
    6ab0:	e8 6b a1 ff ff       	call   c20 <mpz_abs_sub>
    6ab5:	e9 e2 fc ff ff       	jmp    679c <mpz_rootrem+0x1cc>
    6aba:	66 0f 1f 44 00 00    	nopw   0x0(%rax,%rax,1)
    6ac0:	48 83 e8 01          	sub    $0x1,%rax
    6ac4:	0f 82 56 fd ff ff    	jb     6820 <mpz_rootrem+0x250>
    6aca:	49 8b 1c c0          	mov    (%r8,%rax,8),%rbx
    6ace:	48 39 1c c7          	cmp    %rbx,(%rdi,%rax,8)
    6ad2:	74 ec                	je     6ac0 <mpz_rootrem+0x4f0>
    6ad4:	0f 87 46 fd ff ff    	ja     6820 <mpz_rootrem+0x250>
    6ada:	e9 4d fe ff ff       	jmp    692c <mpz_rootrem+0x35c>
    6adf:	90                   	nop
    6ae0:	e8 3b a1 ff ff       	call   c20 <mpz_abs_sub>
    6ae5:	e9 96 fe ff ff       	jmp    6980 <mpz_rootrem+0x3b0>
    6aea:	66 0f 1f 44 00 00    	nopw   0x0(%rax,%rax,1)
    6af0:	48 8b 44 24 18       	mov    0x18(%rsp),%rax
    6af5:	48 85 c0             	test   %rax,%rax
    6af8:	74 0b                	je     6b05 <mpz_rootrem+0x535>
    6afa:	4c 89 e6             	mov    %r12,%rsi
    6afd:	48 89 c7             	mov    %rax,%rdi
    6b00:	e8 00 00 00 00       	call   6b05 <mpz_rootrem+0x535>
    6b05:	48 8b 44 24 10       	mov    0x10(%rsp),%rax
    6b0a:	48 85 c0             	test   %rax,%rax
    6b0d:	0f 84 c4 fd ff ff    	je     68d7 <mpz_rootrem+0x307>
    6b13:	c7 40 04 00 00 00 00 	movl   $0x0,0x4(%rax)
    6b1a:	e9 b8 fd ff ff       	jmp    68d7 <mpz_rootrem+0x307>
    6b1f:	4c 89 fe             	mov    %r15,%rsi
    6b22:	4c 89 ff             	mov    %r15,%rdi
    6b25:	e8 00 00 00 00       	call   6b2a <mpz_rootrem+0x55a>
    6b2a:	8b 4c 24 24          	mov    0x24(%rsp),%ecx
    6b2e:	f7 d9                	neg    %ecx
    6b30:	e9 7c fb ff ff       	jmp    66b1 <mpz_rootrem+0xe1>
    6b35:	0f 1f 00             	nopl   (%rax)
    6b38:	48 8b 7c 24 10       	mov    0x10(%rsp),%rdi
    6b3d:	e8 1e 9f ff ff       	call   a60 <mpz_abs_add>
    6b42:	e9 0e fd ff ff       	jmp    6855 <mpz_rootrem+0x285>
    6b47:	e8 00 00 00 00       	call   6b4c <mpz_rootrem+0x57c>
    6b4c:	48 8d 3d 00 00 00 00 	lea    0x0(%rip),%rdi        # 6b53 <mpz_rootrem+0x583>
    6b53:	e8 f8 95 ff ff       	call   150 <gmp_die>
    6b58:	48 8d 3d 00 00 00 00 	lea    0x0(%rip),%rdi        # 6b5f <mpz_rootrem+0x58f>
    6b5f:	e8 ec 95 ff ff       	call   150 <gmp_die>
    6b64:	e8 17 99 ff ff       	call   480 <mpn_limb_size_in_base_2.part.0>
    6b69:	0f 1f 80 00 00 00 00 	nopl   0x0(%rax)

0000000000006b70 <mpz_root>:
    6b70:	f3 0f 1e fa          	endbr64 
    6b74:	41 54                	push   %r12
    6b76:	49 89 f0             	mov    %rsi,%r8
    6b79:	48 89 d1             	mov    %rdx,%rcx
    6b7c:	45 31 e4             	xor    %r12d,%r12d
    6b7f:	4c 89 c2             	mov    %r8,%rdx
    6b82:	48 83 ec 20          	sub    $0x20,%rsp
    6b86:	64 48 8b 04 25 28 00 	mov    %fs:0x28,%rax
    6b8d:	00 00 
    6b8f:	48 89 44 24 18       	mov    %rax,0x18(%rsp)
    6b94:	31 c0                	xor    %eax,%eax
    6b96:	48 89 e6             	mov    %rsp,%rsi
    6b99:	48 8d 05 00 00 00 00 	lea    0x0(%rip),%rax        # 6ba0 <mpz_root+0x30>
    6ba0:	48 c7 04 24 00 00 00 	movq   $0x0,(%rsp)
    6ba7:	00 
    6ba8:	48 89 44 24 08       	mov    %rax,0x8(%rsp)
    6bad:	e8 00 00 00 00       	call   6bb2 <mpz_root+0x42>
    6bb2:	8b 44 24 04          	mov    0x4(%rsp),%eax
    6bb6:	48 63 34 24          	movslq (%rsp),%rsi
    6bba:	85 c0                	test   %eax,%eax
    6bbc:	41 0f 94 c4          	sete   %r12b
    6bc0:	85 f6                	test   %esi,%esi
    6bc2:	74 0f                	je     6bd3 <mpz_root+0x63>
    6bc4:	48 8b 7c 24 08       	mov    0x8(%rsp),%rdi
    6bc9:	48 c1 e6 03          	shl    $0x3,%rsi
    6bcd:	ff 15 00 00 00 00    	call   *0x0(%rip)        # 6bd3 <mpz_root+0x63>
    6bd3:	48 8b 44 24 18       	mov    0x18(%rsp),%rax
    6bd8:	64 48 2b 04 25 28 00 	sub    %fs:0x28,%rax
    6bdf:	00 00 
    6be1:	75 0a                	jne    6bed <mpz_root+0x7d>
    6be3:	48 83 c4 20          	add    $0x20,%rsp
    6be7:	44 89 e0             	mov    %r12d,%eax
    6bea:	41 5c                	pop    %r12
    6bec:	c3                   	ret    
    6bed:	e8 00 00 00 00       	call   6bf2 <mpz_root+0x82>
    6bf2:	66 66 2e 0f 1f 84 00 	data16 cs nopw 0x0(%rax,%rax,1)
    6bf9:	00 00 00 00 
    6bfd:	0f 1f 00             	nopl   (%rax)

0000000000006c00 <mpz_sqrtrem>:
    6c00:	f3 0f 1e fa          	endbr64 
    6c04:	b9 02 00 00 00       	mov    $0x2,%ecx
    6c09:	e9 c2 f9 ff ff       	jmp    65d0 <mpz_rootrem>
    6c0e:	66 90                	xchg   %ax,%ax

0000000000006c10 <mpz_sqrt>:
    6c10:	f3 0f 1e fa          	endbr64 
    6c14:	48 89 f2             	mov    %rsi,%rdx
    6c17:	b9 02 00 00 00       	mov    $0x2,%ecx
    6c1c:	31 f6                	xor    %esi,%esi
    6c1e:	e9 ad f9 ff ff       	jmp    65d0 <mpz_rootrem>
    6c23:	66 66 2e 0f 1f 84 00 	data16 cs nopw 0x0(%rax,%rax,1)
    6c2a:	00 00 00 00 
    6c2e:	66 90                	xchg   %ax,%ax

0000000000006c30 <mpn_sqrtrem>:
    6c30:	f3 0f 1e fa          	endbr64 
    6c34:	41 55                	push   %r13
    6c36:	41 54                	push   %r12
    6c38:	55                   	push   %rbp
    6c39:	53                   	push   %rbx
    6c3a:	48 83 ec 48          	sub    $0x48,%rsp
    6c3e:	64 48 8b 04 25 28 00 	mov    %fs:0x28,%rax
    6c45:	00 00 
    6c47:	48 89 44 24 38       	mov    %rax,0x38(%rsp)
    6c4c:	31 c0                	xor    %eax,%eax
    6c4e:	48 85 c9             	test   %rcx,%rcx
    6c51:	0f 8e 62 01 00 00    	jle    6db9 <mpn_sqrtrem+0x189>
    6c57:	48 83 7c ca f8 00    	cmpq   $0x0,-0x8(%rdx,%rcx,8)
    6c5d:	48 89 cd             	mov    %rcx,%rbp
    6c60:	0f 84 34 01 00 00    	je     6d9a <mpn_sqrtrem+0x16a>
    6c66:	48 89 54 24 28       	mov    %rdx,0x28(%rsp)
    6c6b:	48 89 fb             	mov    %rdi,%rbx
    6c6e:	49 89 f4             	mov    %rsi,%r12
    6c71:	48 8d 54 24 20       	lea    0x20(%rsp),%rdx
    6c76:	89 4c 24 24          	mov    %ecx,0x24(%rsp)
    6c7a:	48 8d 74 24 10       	lea    0x10(%rsp),%rsi
    6c7f:	48 89 e7             	mov    %rsp,%rdi
    6c82:	48 83 c5 01          	add    $0x1,%rbp
    6c86:	48 8d 05 00 00 00 00 	lea    0x0(%rip),%rax        # 6c8d <mpn_sqrtrem+0x5d>
    6c8d:	b9 02 00 00 00       	mov    $0x2,%ecx
    6c92:	48 d1 fd             	sar    %rbp
    6c95:	48 c7 44 24 10 00 00 	movq   $0x0,0x10(%rsp)
    6c9c:	00 00 
    6c9e:	48 89 44 24 18       	mov    %rax,0x18(%rsp)
    6ca3:	48 89 44 24 08       	mov    %rax,0x8(%rsp)
    6ca8:	48 c7 04 24 00 00 00 	movq   $0x0,(%rsp)
    6caf:	00 
    6cb0:	c7 44 24 20 00 00 00 	movl   $0x0,0x20(%rsp)
    6cb7:	00 
    6cb8:	e8 00 00 00 00       	call   6cbd <mpn_sqrtrem+0x8d>
    6cbd:	48 63 44 24 04       	movslq 0x4(%rsp),%rax
    6cc2:	48 39 e8             	cmp    %rbp,%rax
    6cc5:	0f 85 b0 00 00 00    	jne    6d7b <mpn_sqrtrem+0x14b>
    6ccb:	48 8b 7c 24 08       	mov    0x8(%rsp),%rdi
    6cd0:	48 83 e8 01          	sub    $0x1,%rax
    6cd4:	0f 1f 40 00          	nopl   0x0(%rax)
    6cd8:	48 8b 14 c7          	mov    (%rdi,%rax,8),%rdx
    6cdc:	48 89 14 c3          	mov    %rdx,(%rbx,%rax,8)
    6ce0:	48 83 e8 01          	sub    $0x1,%rax
    6ce4:	73 f2                	jae    6cd8 <mpn_sqrtrem+0xa8>
    6ce6:	48 63 04 24          	movslq (%rsp),%rax
    6cea:	85 c0                	test   %eax,%eax
    6cec:	75 7a                	jne    6d68 <mpn_sqrtrem+0x138>
    6cee:	4c 63 6c 24 14       	movslq 0x14(%rsp),%r13
    6cf3:	4d 85 e4             	test   %r12,%r12
    6cf6:	74 26                	je     6d1e <mpn_sqrtrem+0xee>
    6cf8:	4c 89 e8             	mov    %r13,%rax
    6cfb:	48 8b 4c 24 18       	mov    0x18(%rsp),%rcx
    6d00:	48 83 e8 01          	sub    $0x1,%rax
    6d04:	78 18                	js     6d1e <mpn_sqrtrem+0xee>
    6d06:	66 2e 0f 1f 84 00 00 	cs nopw 0x0(%rax,%rax,1)
    6d0d:	00 00 00 
    6d10:	48 8b 14 c1          	mov    (%rcx,%rax,8),%rdx
    6d14:	49 89 14 c4          	mov    %rdx,(%r12,%rax,8)
    6d18:	48 83 e8 01          	sub    $0x1,%rax
    6d1c:	73 f2                	jae    6d10 <mpn_sqrtrem+0xe0>
    6d1e:	48 63 44 24 10       	movslq 0x10(%rsp),%rax
    6d23:	85 c0                	test   %eax,%eax
    6d25:	75 29                	jne    6d50 <mpn_sqrtrem+0x120>
    6d27:	48 8b 44 24 38       	mov    0x38(%rsp),%rax
    6d2c:	64 48 2b 04 25 28 00 	sub    %fs:0x28,%rax
    6d33:	00 00 
    6d35:	0f 85 9d 00 00 00    	jne    6dd8 <mpn_sqrtrem+0x1a8>
    6d3b:	48 83 c4 48          	add    $0x48,%rsp
    6d3f:	4c 89 e8             	mov    %r13,%rax
    6d42:	5b                   	pop    %rbx
    6d43:	5d                   	pop    %rbp
    6d44:	41 5c                	pop    %r12
    6d46:	41 5d                	pop    %r13
    6d48:	c3                   	ret    
    6d49:	0f 1f 80 00 00 00 00 	nopl   0x0(%rax)
    6d50:	48 8b 7c 24 18       	mov    0x18(%rsp),%rdi
    6d55:	48 8d 34 c5 00 00 00 	lea    0x0(,%rax,8),%rsi
    6d5c:	00 
    6d5d:	ff 15 00 00 00 00    	call   *0x0(%rip)        # 6d63 <mpn_sqrtrem+0x133>
    6d63:	eb c2                	jmp    6d27 <mpn_sqrtrem+0xf7>
    6d65:	0f 1f 00             	nopl   (%rax)
    6d68:	48 8d 34 c5 00 00 00 	lea    0x0(,%rax,8),%rsi
    6d6f:	00 
    6d70:	ff 15 00 00 00 00    	call   *0x0(%rip)        # 6d76 <mpn_sqrtrem+0x146>
    6d76:	e9 73 ff ff ff       	jmp    6cee <mpn_sqrtrem+0xbe>
    6d7b:	48 8d 0d 00 00 00 00 	lea    0x0(%rip),%rcx        # 6d82 <mpn_sqrtrem+0x152>
    6d82:	ba 00 0d 00 00       	mov    $0xd00,%edx
    6d87:	48 8d 35 00 00 00 00 	lea    0x0(%rip),%rsi        # 6d8e <mpn_sqrtrem+0x15e>
    6d8e:	48 8d 3d 00 00 00 00 	lea    0x0(%rip),%rdi        # 6d95 <mpn_sqrtrem+0x165>
    6d95:	e8 00 00 00 00       	call   6d9a <mpn_sqrtrem+0x16a>
    6d9a:	48 8d 0d 00 00 00 00 	lea    0x0(%rip),%rcx        # 6da1 <mpn_sqrtrem+0x171>
    6da1:	ba fa 0c 00 00       	mov    $0xcfa,%edx
    6da6:	48 8d 35 00 00 00 00 	lea    0x0(%rip),%rsi        # 6dad <mpn_sqrtrem+0x17d>
    6dad:	48 8d 3d 00 00 00 00 	lea    0x0(%rip),%rdi        # 6db4 <mpn_sqrtrem+0x184>
    6db4:	e8 00 00 00 00       	call   6db9 <mpn_sqrtrem+0x189>
    6db9:	48 8d 0d 00 00 00 00 	lea    0x0(%rip),%rcx        # 6dc0 <mpn_sqrtrem+0x190>
    6dc0:	ba f9 0c 00 00       	mov    $0xcf9,%edx
    6dc5:	48 8d 35 00 00 00 00 	lea    0x0(%rip),%rsi        # 6dcc <mpn_sqrtrem+0x19c>
    6dcc:	48 8d 3d 00 00 00 00 	lea    0x0(%rip),%rdi        # 6dd3 <mpn_sqrtrem+0x1a3>
    6dd3:	e8 00 00 00 00       	call   6dd8 <mpn_sqrtrem+0x1a8>
    6dd8:	e8 00 00 00 00       	call   6ddd <mpn_sqrtrem+0x1ad>
    6ddd:	0f 1f 00             	nopl   (%rax)

0000000000006de0 <mpn_perfect_square_p>:
    6de0:	f3 0f 1e fa          	endbr64 
    6de4:	41 54                	push   %r12
    6de6:	48 83 ec 30          	sub    $0x30,%rsp
    6dea:	64 48 8b 04 25 28 00 	mov    %fs:0x28,%rax
    6df1:	00 00 
    6df3:	48 89 44 24 28       	mov    %rax,0x28(%rsp)
    6df8:	31 c0                	xor    %eax,%eax
    6dfa:	48 85 f6             	test   %rsi,%rsi
    6dfd:	0f 8e a5 00 00 00    	jle    6ea8 <mpn_perfect_square_p+0xc8>
    6e03:	48 83 7c f7 f8 00    	cmpq   $0x0,-0x8(%rdi,%rsi,8)
    6e09:	74 7e                	je     6e89 <mpn_perfect_square_p+0xa9>
    6e0b:	48 89 7c 24 08       	mov    %rdi,0x8(%rsp)
    6e10:	48 89 e2             	mov    %rsp,%rdx
    6e13:	31 ff                	xor    %edi,%edi
    6e15:	b9 02 00 00 00       	mov    $0x2,%ecx
    6e1a:	48 8d 05 00 00 00 00 	lea    0x0(%rip),%rax        # 6e21 <mpn_perfect_square_p+0x41>
    6e21:	89 74 24 04          	mov    %esi,0x4(%rsp)
    6e25:	45 31 e4             	xor    %r12d,%r12d
    6e28:	48 8d 74 24 10       	lea    0x10(%rsp),%rsi
    6e2d:	48 89 44 24 18       	mov    %rax,0x18(%rsp)
    6e32:	c7 04 24 00 00 00 00 	movl   $0x0,(%rsp)
    6e39:	48 c7 44 24 10 00 00 	movq   $0x0,0x10(%rsp)
    6e40:	00 00 
    6e42:	e8 00 00 00 00       	call   6e47 <mpn_perfect_square_p+0x67>
    6e47:	8b 44 24 14          	mov    0x14(%rsp),%eax
    6e4b:	48 63 74 24 10       	movslq 0x10(%rsp),%rsi
    6e50:	85 c0                	test   %eax,%eax
    6e52:	41 0f 94 c4          	sete   %r12b
    6e56:	85 f6                	test   %esi,%esi
    6e58:	75 1e                	jne    6e78 <mpn_perfect_square_p+0x98>
    6e5a:	48 8b 44 24 28       	mov    0x28(%rsp),%rax
    6e5f:	64 48 2b 04 25 28 00 	sub    %fs:0x28,%rax
    6e66:	00 00 
    6e68:	75 5d                	jne    6ec7 <mpn_perfect_square_p+0xe7>
    6e6a:	48 83 c4 30          	add    $0x30,%rsp
    6e6e:	44 89 e0             	mov    %r12d,%eax
    6e71:	41 5c                	pop    %r12
    6e73:	c3                   	ret    
    6e74:	0f 1f 40 00          	nopl   0x0(%rax)
    6e78:	48 8b 7c 24 18       	mov    0x18(%rsp),%rdi
    6e7d:	48 c1 e6 03          	shl    $0x3,%rsi
    6e81:	ff 15 00 00 00 00    	call   *0x0(%rip)        # 6e87 <mpn_perfect_square_p+0xa7>
    6e87:	eb d1                	jmp    6e5a <mpn_perfect_square_p+0x7a>
    6e89:	48 8d 0d 00 00 00 00 	lea    0x0(%rip),%rcx        # 6e90 <mpn_perfect_square_p+0xb0>
    6e90:	ba ef 0c 00 00       	mov    $0xcef,%edx
    6e95:	48 8d 35 00 00 00 00 	lea    0x0(%rip),%rsi        # 6e9c <mpn_perfect_square_p+0xbc>
    6e9c:	48 8d 3d 00 00 00 00 	lea    0x0(%rip),%rdi        # 6ea3 <mpn_perfect_square_p+0xc3>
    6ea3:	e8 00 00 00 00       	call   6ea8 <mpn_perfect_square_p+0xc8>
    6ea8:	48 8d 0d 00 00 00 00 	lea    0x0(%rip),%rcx        # 6eaf <mpn_perfect_square_p+0xcf>
    6eaf:	ba ee 0c 00 00       	mov    $0xcee,%edx
    6eb4:	48 8d 35 00 00 00 00 	lea    0x0(%rip),%rsi        # 6ebb <mpn_perfect_square_p+0xdb>
    6ebb:	48 8d 3d 00 00 00 00 	lea    0x0(%rip),%rdi        # 6ec2 <mpn_perfect_square_p+0xe2>
    6ec2:	e8 00 00 00 00       	call   6ec7 <mpn_perfect_square_p+0xe7>
    6ec7:	e8 00 00 00 00       	call   6ecc <mpn_perfect_square_p+0xec>
    6ecc:	0f 1f 40 00          	nopl   0x0(%rax)

0000000000006ed0 <mpz_perfect_square_p>:
    6ed0:	f3 0f 1e fa          	endbr64 
    6ed4:	48 83 ec 38          	sub    $0x38,%rsp
    6ed8:	8b 4f 04             	mov    0x4(%rdi),%ecx
    6edb:	64 48 8b 04 25 28 00 	mov    %fs:0x28,%rax
    6ee2:	00 00 
    6ee4:	48 89 44 24 28       	mov    %rax,0x28(%rsp)
    6ee9:	31 c0                	xor    %eax,%eax
    6eeb:	85 c9                	test   %ecx,%ecx
    6eed:	7f 21                	jg     6f10 <mpz_perfect_square_p+0x40>
    6eef:	0f 94 c0             	sete   %al
    6ef2:	0f b6 c0             	movzbl %al,%eax
    6ef5:	48 8b 54 24 28       	mov    0x28(%rsp),%rdx
    6efa:	64 48 2b 14 25 28 00 	sub    %fs:0x28,%rdx
    6f01:	00 00 
    6f03:	75 61                	jne    6f66 <mpz_perfect_square_p+0x96>
    6f05:	48 83 c4 38          	add    $0x38,%rsp
    6f09:	c3                   	ret    
    6f0a:	66 0f 1f 44 00 00    	nopw   0x0(%rax,%rax,1)
    6f10:	48 89 fa             	mov    %rdi,%rdx
    6f13:	48 8d 05 00 00 00 00 	lea    0x0(%rip),%rax        # 6f1a <mpz_perfect_square_p+0x4a>
    6f1a:	48 8d 74 24 10       	lea    0x10(%rsp),%rsi
    6f1f:	31 ff                	xor    %edi,%edi
    6f21:	b9 02 00 00 00       	mov    $0x2,%ecx
    6f26:	48 89 44 24 18       	mov    %rax,0x18(%rsp)
    6f2b:	48 c7 44 24 10 00 00 	movq   $0x0,0x10(%rsp)
    6f32:	00 00 
    6f34:	e8 00 00 00 00       	call   6f39 <mpz_perfect_square_p+0x69>
    6f39:	8b 54 24 14          	mov    0x14(%rsp),%edx
    6f3d:	48 63 74 24 10       	movslq 0x10(%rsp),%rsi
    6f42:	31 c0                	xor    %eax,%eax
    6f44:	85 d2                	test   %edx,%edx
    6f46:	0f 94 c0             	sete   %al
    6f49:	85 f6                	test   %esi,%esi
    6f4b:	74 a8                	je     6ef5 <mpz_perfect_square_p+0x25>
    6f4d:	89 44 24 0c          	mov    %eax,0xc(%rsp)
    6f51:	48 8b 7c 24 18       	mov    0x18(%rsp),%rdi
    6f56:	48 c1 e6 03          	shl    $0x3,%rsi
    6f5a:	ff 15 00 00 00 00    	call   *0x0(%rip)        # 6f60 <mpz_perfect_square_p+0x90>
    6f60:	8b 44 24 0c          	mov    0xc(%rsp),%eax
    6f64:	eb 8f                	jmp    6ef5 <mpz_perfect_square_p+0x25>
    6f66:	e8 00 00 00 00       	call   6f6b <mpz_perfect_square_p+0x9b>
    6f6b:	0f 1f 44 00 00       	nopl   0x0(%rax,%rax,1)

0000000000006f70 <mpz_gcdext>:
    6f70:	f3 0f 1e fa          	endbr64 
    6f74:	41 57                	push   %r15
    6f76:	41 56                	push   %r14
    6f78:	41 55                	push   %r13
    6f7a:	41 54                	push   %r12
    6f7c:	55                   	push   %rbp
    6f7d:	53                   	push   %rbx
    6f7e:	48 81 ec b8 00 00 00 	sub    $0xb8,%rsp
    6f85:	8b 59 04             	mov    0x4(%rcx),%ebx
    6f88:	41 8b 68 04          	mov    0x4(%r8),%ebp
    6f8c:	48 89 7c 24 30       	mov    %rdi,0x30(%rsp)
    6f91:	48 89 74 24 28       	mov    %rsi,0x28(%rsp)
    6f96:	48 89 54 24 20       	mov    %rdx,0x20(%rsp)
    6f9b:	48 89 4c 24 08       	mov    %rcx,0x8(%rsp)
    6fa0:	4c 89 44 24 10       	mov    %r8,0x10(%rsp)
    6fa5:	64 48 8b 04 25 28 00 	mov    %fs:0x28,%rax
    6fac:	00 00 
    6fae:	48 89 84 24 a8 00 00 	mov    %rax,0xa8(%rsp)
    6fb5:	00 
    6fb6:	31 c0                	xor    %eax,%eax
    6fb8:	85 db                	test   %ebx,%ebx
    6fba:	0f 84 f8 08 00 00    	je     78b8 <mpz_gcdext+0x948>
    6fc0:	85 ed                	test   %ebp,%ebp
    6fc2:	0f 84 c8 07 00 00    	je     7790 <mpz_gcdext+0x820>
    6fc8:	4c 8b 64 24 08       	mov    0x8(%rsp),%r12
    6fcd:	48 8d 5c 24 40       	lea    0x40(%rsp),%rbx
    6fd2:	48 8d 05 00 00 00 00 	lea    0x0(%rip),%rax        # 6fd9 <mpz_gcdext+0x69>
    6fd9:	48 c7 44 24 40 00 00 	movq   $0x0,0x40(%rsp)
    6fe0:	00 00 
    6fe2:	48 89 df             	mov    %rbx,%rdi
    6fe5:	48 89 44 24 48       	mov    %rax,0x48(%rsp)
    6fea:	4c 8d 74 24 50       	lea    0x50(%rsp),%r14
    6fef:	4c 89 e6             	mov    %r12,%rsi
    6ff2:	48 89 44 24 58       	mov    %rax,0x58(%rsp)
    6ff7:	48 89 44 24 68       	mov    %rax,0x68(%rsp)
    6ffc:	48 89 44 24 78       	mov    %rax,0x78(%rsp)
    7001:	48 89 84 24 88 00 00 	mov    %rax,0x88(%rsp)
    7008:	00 
    7009:	48 89 84 24 98 00 00 	mov    %rax,0x98(%rsp)
    7010:	00 
    7011:	48 c7 44 24 50 00 00 	movq   $0x0,0x50(%rsp)
    7018:	00 00 
    701a:	48 c7 44 24 60 00 00 	movq   $0x0,0x60(%rsp)
    7021:	00 00 
    7023:	48 c7 44 24 70 00 00 	movq   $0x0,0x70(%rsp)
    702a:	00 00 
    702c:	48 c7 84 24 80 00 00 	movq   $0x0,0x80(%rsp)
    7033:	00 00 00 00 00 
    7038:	48 c7 84 24 90 00 00 	movq   $0x0,0x90(%rsp)
    703f:	00 00 00 00 00 
    7044:	e8 00 00 00 00       	call   7049 <mpz_gcdext+0xd9>
    7049:	8b 54 24 44          	mov    0x44(%rsp),%edx
    704d:	48 89 df             	mov    %rbx,%rdi
    7050:	89 d0                	mov    %edx,%eax
    7052:	f7 d8                	neg    %eax
    7054:	0f 48 c2             	cmovs  %edx,%eax
    7057:	89 44 24 44          	mov    %eax,0x44(%rsp)
    705b:	e8 00 c1 ff ff       	call   3160 <mpz_make_odd>
    7060:	4c 8b 6c 24 10       	mov    0x10(%rsp),%r13
    7065:	4c 89 f7             	mov    %r14,%rdi
    7068:	49 89 c7             	mov    %rax,%r15
    706b:	4c 89 ee             	mov    %r13,%rsi
    706e:	e8 00 00 00 00       	call   7073 <mpz_gcdext+0x103>
    7073:	8b 54 24 54          	mov    0x54(%rsp),%edx
    7077:	4c 89 f7             	mov    %r14,%rdi
    707a:	89 d0                	mov    %edx,%eax
    707c:	f7 d8                	neg    %eax
    707e:	0f 48 c2             	cmovs  %edx,%eax
    7081:	89 44 24 54          	mov    %eax,0x54(%rsp)
    7085:	e8 d6 c0 ff ff       	call   3160 <mpz_make_odd>
    708a:	4d 89 f9             	mov    %r15,%r9
    708d:	49 39 c7             	cmp    %rax,%r15
    7090:	48 89 c7             	mov    %rax,%rdi
    7093:	48 89 c5             	mov    %rax,%rbp
    7096:	8b 44 24 54          	mov    0x54(%rsp),%eax
    709a:	49 0f 46 ff          	cmovbe %r15,%rdi
    709e:	49 29 f9             	sub    %rdi,%r9
    70a1:	48 89 7c 24 38       	mov    %rdi,0x38(%rsp)
    70a6:	48 29 fd             	sub    %rdi,%rbp
    70a9:	4c 89 4c 24 18       	mov    %r9,0x18(%rsp)
    70ae:	39 44 24 44          	cmp    %eax,0x44(%rsp)
    70b2:	7d 4e                	jge    7102 <mpz_gcdext+0x192>
    70b4:	48 8b 44 24 40       	mov    0x40(%rsp),%rax
    70b9:	48 8b 54 24 48       	mov    0x48(%rsp),%rdx
    70be:	4c 89 6c 24 08       	mov    %r13,0x8(%rsp)
    70c3:	48 8b 4c 24 58       	mov    0x58(%rsp),%rcx
    70c8:	48 8b 74 24 20       	mov    0x20(%rsp),%rsi
    70cd:	4c 89 64 24 10       	mov    %r12,0x10(%rsp)
    70d2:	48 89 54 24 58       	mov    %rdx,0x58(%rsp)
    70d7:	48 8b 54 24 50       	mov    0x50(%rsp),%rdx
    70dc:	48 89 44 24 50       	mov    %rax,0x50(%rsp)
    70e1:	48 8b 44 24 28       	mov    0x28(%rsp),%rax
    70e6:	48 89 4c 24 48       	mov    %rcx,0x48(%rsp)
    70eb:	48 89 54 24 40       	mov    %rdx,0x40(%rsp)
    70f0:	48 89 74 24 28       	mov    %rsi,0x28(%rsp)
    70f5:	48 89 44 24 20       	mov    %rax,0x20(%rsp)
    70fa:	48 89 6c 24 18       	mov    %rbp,0x18(%rsp)
    70ff:	4c 89 cd             	mov    %r9,%rbp
    7102:	41 b8 02 00 00 00    	mov    $0x2,%r8d
    7108:	4c 89 f1             	mov    %r14,%rcx
    710b:	48 89 da             	mov    %rbx,%rdx
    710e:	48 89 de             	mov    %rbx,%rsi
    7111:	4c 8d ac 24 90 00 00 	lea    0x90(%rsp),%r13
    7118:	00 
    7119:	4c 8d 64 24 70       	lea    0x70(%rsp),%r12
    711e:	4c 89 ef             	mov    %r13,%rdi
    7121:	e8 9a cf ff ff       	call   40c0 <mpz_div_qr>
    7126:	48 8b 54 24 18       	mov    0x18(%rsp),%rdx
    712b:	4c 89 ee             	mov    %r13,%rsi
    712e:	4c 89 ef             	mov    %r13,%rdi
    7131:	e8 00 00 00 00       	call   7136 <mpz_gcdext+0x1c6>
    7136:	48 89 ee             	mov    %rbp,%rsi
    7139:	4c 89 e7             	mov    %r12,%rdi
    713c:	e8 00 00 00 00       	call   7141 <mpz_gcdext+0x1d1>
    7141:	85 c0                	test   %eax,%eax
    7143:	75 19                	jne    715e <mpz_gcdext+0x1ee>
    7145:	44 8b 44 24 74       	mov    0x74(%rsp),%r8d
    714a:	48 89 ee             	mov    %rbp,%rsi
    714d:	4c 89 e7             	mov    %r12,%rdi
    7150:	45 85 c0             	test   %r8d,%r8d
    7153:	0f 88 0f 08 00 00    	js     7968 <mpz_gcdext+0x9f8>
    7159:	e8 32 95 ff ff       	call   690 <mpz_abs_add_bit>
    715e:	4c 8b 7c 24 18       	mov    0x18(%rsp),%r15
    7163:	8b 4c 24 44          	mov    0x44(%rsp),%ecx
    7167:	4c 01 fd             	add    %r15,%rbp
    716a:	48 89 2c 24          	mov    %rbp,(%rsp)
    716e:	85 c9                	test   %ecx,%ecx
    7170:	0f 8e ea 01 00 00    	jle    7360 <mpz_gcdext+0x3f0>
    7176:	48 89 df             	mov    %rbx,%rdi
    7179:	48 8d ac 24 80 00 00 	lea    0x80(%rsp),%rbp
    7180:	00 
    7181:	e8 da bf ff ff       	call   3160 <mpz_make_odd>
    7186:	48 89 ef             	mov    %rbp,%rdi
    7189:	49 01 c7             	add    %rax,%r15
    718c:	48 89 44 24 18       	mov    %rax,0x18(%rsp)
    7191:	4c 89 fe             	mov    %r15,%rsi
    7194:	e8 00 00 00 00       	call   7199 <mpz_gcdext+0x229>
    7199:	85 c0                	test   %eax,%eax
    719b:	0f 84 8f 07 00 00    	je     7930 <mpz_gcdext+0x9c0>
    71a1:	48 8b 74 24 18       	mov    0x18(%rsp),%rsi
    71a6:	4c 8d 7c 24 60       	lea    0x60(%rsp),%r15
    71ab:	48 01 34 24          	add    %rsi,(%rsp)
    71af:	e9 c4 00 00 00       	jmp    7278 <mpz_gcdext+0x308>
    71b4:	0f 1f 40 00          	nopl   0x0(%rax)
    71b8:	85 d2                	test   %edx,%edx
    71ba:	48 89 de             	mov    %rbx,%rsi
    71bd:	4c 89 f2             	mov    %r14,%rdx
    71c0:	48 89 df             	mov    %rbx,%rdi
    71c3:	0f 88 87 03 00 00    	js     7550 <mpz_gcdext+0x5e0>
    71c9:	e8 52 9a ff ff       	call   c20 <mpz_abs_sub>
    71ce:	89 c2                	mov    %eax,%edx
    71d0:	8b 44 24 44          	mov    0x44(%rsp),%eax
    71d4:	85 c0                	test   %eax,%eax
    71d6:	79 02                	jns    71da <mpz_gcdext+0x26a>
    71d8:	f7 da                	neg    %edx
    71da:	8b 84 24 84 00 00 00 	mov    0x84(%rsp),%eax
    71e1:	33 84 24 94 00 00 00 	xor    0x94(%rsp),%eax
    71e8:	48 89 ee             	mov    %rbp,%rsi
    71eb:	4c 89 ef             	mov    %r13,%rdi
    71ee:	89 54 24 44          	mov    %edx,0x44(%rsp)
    71f2:	4c 89 ea             	mov    %r13,%rdx
    71f5:	0f 88 45 03 00 00    	js     7540 <mpz_gcdext+0x5d0>
    71fb:	e8 60 98 ff ff       	call   a60 <mpz_abs_add>
    7200:	89 c2                	mov    %eax,%edx
    7202:	8b 84 24 84 00 00 00 	mov    0x84(%rsp),%eax
    7209:	85 c0                	test   %eax,%eax
    720b:	79 02                	jns    720f <mpz_gcdext+0x29f>
    720d:	f7 da                	neg    %edx
    720f:	8b 44 24 64          	mov    0x64(%rsp),%eax
    7213:	33 44 24 74          	xor    0x74(%rsp),%eax
    7217:	4c 89 fe             	mov    %r15,%rsi
    721a:	4c 89 e7             	mov    %r12,%rdi
    721d:	89 94 24 94 00 00 00 	mov    %edx,0x94(%rsp)
    7224:	4c 89 e2             	mov    %r12,%rdx
    7227:	0f 88 33 03 00 00    	js     7560 <mpz_gcdext+0x5f0>
    722d:	e8 2e 98 ff ff       	call   a60 <mpz_abs_add>
    7232:	44 8b 5c 24 64       	mov    0x64(%rsp),%r11d
    7237:	89 c2                	mov    %eax,%edx
    7239:	45 85 db             	test   %r11d,%r11d
    723c:	79 02                	jns    7240 <mpz_gcdext+0x2d0>
    723e:	f7 da                	neg    %edx
    7240:	48 89 df             	mov    %rbx,%rdi
    7243:	89 54 24 74          	mov    %edx,0x74(%rsp)
    7247:	e8 14 bf ff ff       	call   3160 <mpz_make_odd>
    724c:	48 89 ee             	mov    %rbp,%rsi
    724f:	48 89 ef             	mov    %rbp,%rdi
    7252:	48 89 c2             	mov    %rax,%rdx
    7255:	48 89 44 24 18       	mov    %rax,0x18(%rsp)
    725a:	e8 00 00 00 00       	call   725f <mpz_gcdext+0x2ef>
    725f:	48 8b 54 24 18       	mov    0x18(%rsp),%rdx
    7264:	4c 89 fe             	mov    %r15,%rsi
    7267:	4c 89 ff             	mov    %r15,%rdi
    726a:	e8 00 00 00 00       	call   726f <mpz_gcdext+0x2ff>
    726f:	48 8b 44 24 18       	mov    0x18(%rsp),%rax
    7274:	48 01 04 24          	add    %rax,(%rsp)
    7278:	4c 89 f6             	mov    %r14,%rsi
    727b:	48 89 df             	mov    %rbx,%rdi
    727e:	e8 00 00 00 00       	call   7283 <mpz_gcdext+0x313>
    7283:	85 c0                	test   %eax,%eax
    7285:	0f 84 fa 00 00 00    	je     7385 <mpz_gcdext+0x415>
    728b:	8b 54 24 44          	mov    0x44(%rsp),%edx
    728f:	33 54 24 54          	xor    0x54(%rsp),%edx
    7293:	85 c0                	test   %eax,%eax
    7295:	0f 89 1d ff ff ff    	jns    71b8 <mpz_gcdext+0x248>
    729b:	85 d2                	test   %edx,%edx
    729d:	4c 89 f6             	mov    %r14,%rsi
    72a0:	48 89 da             	mov    %rbx,%rdx
    72a3:	4c 89 f7             	mov    %r14,%rdi
    72a6:	0f 88 d4 04 00 00    	js     7780 <mpz_gcdext+0x810>
    72ac:	e8 6f 99 ff ff       	call   c20 <mpz_abs_sub>
    72b1:	89 c2                	mov    %eax,%edx
    72b3:	8b 44 24 54          	mov    0x54(%rsp),%eax
    72b7:	85 c0                	test   %eax,%eax
    72b9:	79 02                	jns    72bd <mpz_gcdext+0x34d>
    72bb:	f7 da                	neg    %edx
    72bd:	8b 84 24 84 00 00 00 	mov    0x84(%rsp),%eax
    72c4:	33 84 24 94 00 00 00 	xor    0x94(%rsp),%eax
    72cb:	48 89 ee             	mov    %rbp,%rsi
    72ce:	48 89 ef             	mov    %rbp,%rdi
    72d1:	89 54 24 54          	mov    %edx,0x54(%rsp)
    72d5:	4c 89 ea             	mov    %r13,%rdx
    72d8:	0f 88 92 04 00 00    	js     7770 <mpz_gcdext+0x800>
    72de:	e8 7d 97 ff ff       	call   a60 <mpz_abs_add>
    72e3:	89 c2                	mov    %eax,%edx
    72e5:	8b 84 24 84 00 00 00 	mov    0x84(%rsp),%eax
    72ec:	85 c0                	test   %eax,%eax
    72ee:	79 02                	jns    72f2 <mpz_gcdext+0x382>
    72f0:	f7 da                	neg    %edx
    72f2:	8b 44 24 64          	mov    0x64(%rsp),%eax
    72f6:	33 44 24 74          	xor    0x74(%rsp),%eax
    72fa:	4c 89 fe             	mov    %r15,%rsi
    72fd:	4c 89 ff             	mov    %r15,%rdi
    7300:	89 94 24 84 00 00 00 	mov    %edx,0x84(%rsp)
    7307:	4c 89 e2             	mov    %r12,%rdx
    730a:	0f 88 50 04 00 00    	js     7760 <mpz_gcdext+0x7f0>
    7310:	e8 4b 97 ff ff       	call   a60 <mpz_abs_add>
    7315:	89 c2                	mov    %eax,%edx
    7317:	8b 44 24 64          	mov    0x64(%rsp),%eax
    731b:	85 c0                	test   %eax,%eax
    731d:	79 02                	jns    7321 <mpz_gcdext+0x3b1>
    731f:	f7 da                	neg    %edx
    7321:	4c 89 f7             	mov    %r14,%rdi
    7324:	89 54 24 64          	mov    %edx,0x64(%rsp)
    7328:	e8 33 be ff ff       	call   3160 <mpz_make_odd>
    732d:	4c 89 ee             	mov    %r13,%rsi
    7330:	4c 89 ef             	mov    %r13,%rdi
    7333:	48 89 c2             	mov    %rax,%rdx
    7336:	48 89 44 24 18       	mov    %rax,0x18(%rsp)
    733b:	e8 00 00 00 00       	call   7340 <mpz_gcdext+0x3d0>
    7340:	48 8b 54 24 18       	mov    0x18(%rsp),%rdx
    7345:	4c 89 e6             	mov    %r12,%rsi
    7348:	4c 89 e7             	mov    %r12,%rdi
    734b:	e8 00 00 00 00       	call   7350 <mpz_gcdext+0x3e0>
    7350:	48 8b 44 24 18       	mov    0x18(%rsp),%rax
    7355:	e9 1a ff ff ff       	jmp    7274 <mpz_gcdext+0x304>
    735a:	66 0f 1f 44 00 00    	nopw   0x0(%rax,%rax,1)
    7360:	48 8b 5c 24 18       	mov    0x18(%rsp),%rbx
    7365:	48 8d ac 24 80 00 00 	lea    0x80(%rsp),%rbp
    736c:	00 
    736d:	4c 8d 7c 24 60       	lea    0x60(%rsp),%r15
    7372:	48 89 ef             	mov    %rbp,%rdi
    7375:	48 89 de             	mov    %rbx,%rsi
    7378:	e8 00 00 00 00       	call   737d <mpz_gcdext+0x40d>
    737d:	85 c0                	test   %eax,%eax
    737f:	0f 84 c6 05 00 00    	je     794b <mpz_gcdext+0x9db>
    7385:	48 8b 54 24 38       	mov    0x38(%rsp),%rdx
    738a:	4c 89 f6             	mov    %r14,%rsi
    738d:	4c 89 f7             	mov    %r14,%rdi
    7390:	e8 00 00 00 00       	call   7395 <mpz_gcdext+0x425>
    7395:	4c 89 fe             	mov    %r15,%rsi
    7398:	4c 89 ff             	mov    %r15,%rdi
    739b:	e8 00 00 00 00       	call   73a0 <mpz_gcdext+0x430>
    73a0:	48 8b 54 24 10       	mov    0x10(%rsp),%rdx
    73a5:	31 f6                	xor    %esi,%esi
    73a7:	4c 89 f1             	mov    %r14,%rcx
    73aa:	41 b8 02 00 00 00    	mov    $0x2,%r8d
    73b0:	4c 89 e7             	mov    %r12,%rdi
    73b3:	f7 5c 24 64          	negl   0x64(%rsp)
    73b7:	e8 04 cd ff ff       	call   40c0 <mpz_div_qr>
    73bc:	85 c0                	test   %eax,%eax
    73be:	0f 85 f3 05 00 00    	jne    79b7 <mpz_gcdext+0xa47>
    73c4:	4c 89 e6             	mov    %r12,%rsi
    73c7:	4c 89 e7             	mov    %r12,%rdi
    73ca:	e8 00 00 00 00       	call   73cf <mpz_gcdext+0x45f>
    73cf:	8b 54 24 74          	mov    0x74(%rsp),%edx
    73d3:	4c 89 f1             	mov    %r14,%rcx
    73d6:	4c 89 ef             	mov    %r13,%rdi
    73d9:	41 b8 02 00 00 00    	mov    $0x2,%r8d
    73df:	89 d0                	mov    %edx,%eax
    73e1:	f7 d8                	neg    %eax
    73e3:	0f 48 c2             	cmovs  %edx,%eax
    73e6:	48 8b 54 24 08       	mov    0x8(%rsp),%rdx
    73eb:	31 f6                	xor    %esi,%esi
    73ed:	89 44 24 74          	mov    %eax,0x74(%rsp)
    73f1:	e8 ca cc ff ff       	call   40c0 <mpz_div_qr>
    73f6:	85 c0                	test   %eax,%eax
    73f8:	0f 85 b9 05 00 00    	jne    79b7 <mpz_gcdext+0xa47>
    73fe:	4c 89 ee             	mov    %r13,%rsi
    7401:	4c 89 ef             	mov    %r13,%rdi
    7404:	e8 00 00 00 00       	call   7409 <mpz_gcdext+0x499>
    7409:	8b 94 24 94 00 00 00 	mov    0x94(%rsp),%edx
    7410:	89 d0                	mov    %edx,%eax
    7412:	f7 d8                	neg    %eax
    7414:	0f 48 c2             	cmovs  %edx,%eax
    7417:	89 84 24 94 00 00 00 	mov    %eax,0x94(%rsp)
    741e:	48 8b 04 24          	mov    (%rsp),%rax
    7422:	48 8d 58 ff          	lea    -0x1(%rax),%rbx
    7426:	48 85 c0             	test   %rax,%rax
    7429:	0f 85 87 00 00 00    	jne    74b6 <mpz_gcdext+0x546>
    742f:	e9 3c 01 00 00       	jmp    7570 <mpz_gcdext+0x600>
    7434:	0f 1f 40 00          	nopl   0x0(%rax)
    7438:	e8 23 96 ff ff       	call   a60 <mpz_abs_add>
    743d:	8b bc 24 84 00 00 00 	mov    0x84(%rsp),%edi
    7444:	89 c2                	mov    %eax,%edx
    7446:	85 ff                	test   %edi,%edi
    7448:	79 02                	jns    744c <mpz_gcdext+0x4dc>
    744a:	f7 da                	neg    %edx
    744c:	31 c0                	xor    %eax,%eax
    744e:	89 94 24 84 00 00 00 	mov    %edx,0x84(%rsp)
    7455:	85 d2                	test   %edx,%edx
    7457:	48 8b 94 24 88 00 00 	mov    0x88(%rsp),%rdx
    745e:	00 
    745f:	0f 95 c0             	setne  %al
    7462:	23 02                	and    (%rdx),%eax
    7464:	0f 85 2e 05 00 00    	jne    7998 <mpz_gcdext+0xa28>
    746a:	8b 74 24 64          	mov    0x64(%rsp),%esi
    746e:	48 8b 54 24 68       	mov    0x68(%rsp),%rdx
    7473:	31 c0                	xor    %eax,%eax
    7475:	85 f6                	test   %esi,%esi
    7477:	0f 95 c0             	setne  %al
    747a:	23 02                	and    (%rdx),%eax
    747c:	0f 85 16 05 00 00    	jne    7998 <mpz_gcdext+0xa28>
    7482:	b9 02 00 00 00       	mov    $0x2,%ecx
    7487:	ba 01 00 00 00       	mov    $0x1,%edx
    748c:	4c 89 fe             	mov    %r15,%rsi
    748f:	4c 89 ff             	mov    %r15,%rdi
    7492:	e8 49 ba ff ff       	call   2ee0 <mpz_div_q_2exp>
    7497:	b9 02 00 00 00       	mov    $0x2,%ecx
    749c:	48 89 ee             	mov    %rbp,%rsi
    749f:	48 89 ef             	mov    %rbp,%rdi
    74a2:	ba 01 00 00 00       	mov    $0x1,%edx
    74a7:	e8 34 ba ff ff       	call   2ee0 <mpz_div_q_2exp>
    74ac:	48 83 eb 01          	sub    $0x1,%rbx
    74b0:	0f 82 ba 00 00 00    	jb     7570 <mpz_gcdext+0x600>
    74b6:	8b 54 24 64          	mov    0x64(%rsp),%edx
    74ba:	48 8b 4c 24 68       	mov    0x68(%rsp),%rcx
    74bf:	31 c0                	xor    %eax,%eax
    74c1:	85 d2                	test   %edx,%edx
    74c3:	0f 95 c0             	setne  %al
    74c6:	23 01                	and    (%rcx),%eax
    74c8:	75 1c                	jne    74e6 <mpz_gcdext+0x576>
    74ca:	44 8b 8c 24 84 00 00 	mov    0x84(%rsp),%r9d
    74d1:	00 
    74d2:	48 8b 8c 24 88 00 00 	mov    0x88(%rsp),%rcx
    74d9:	00 
    74da:	31 c0                	xor    %eax,%eax
    74dc:	45 85 c9             	test   %r9d,%r9d
    74df:	0f 95 c0             	setne  %al
    74e2:	23 01                	and    (%rcx),%eax
    74e4:	74 9c                	je     7482 <mpz_gcdext+0x512>
    74e6:	33 54 24 74          	xor    0x74(%rsp),%edx
    74ea:	4c 89 fe             	mov    %r15,%rsi
    74ed:	4c 89 e2             	mov    %r12,%rdx
    74f0:	4c 89 ff             	mov    %r15,%rdi
    74f3:	78 43                	js     7538 <mpz_gcdext+0x5c8>
    74f5:	e8 26 97 ff ff       	call   c20 <mpz_abs_sub>
    74fa:	44 8b 44 24 64       	mov    0x64(%rsp),%r8d
    74ff:	89 c2                	mov    %eax,%edx
    7501:	45 85 c0             	test   %r8d,%r8d
    7504:	79 02                	jns    7508 <mpz_gcdext+0x598>
    7506:	f7 da                	neg    %edx
    7508:	8b 84 24 84 00 00 00 	mov    0x84(%rsp),%eax
    750f:	33 84 24 94 00 00 00 	xor    0x94(%rsp),%eax
    7516:	48 89 ee             	mov    %rbp,%rsi
    7519:	48 89 ef             	mov    %rbp,%rdi
    751c:	89 54 24 64          	mov    %edx,0x64(%rsp)
    7520:	4c 89 ea             	mov    %r13,%rdx
    7523:	0f 89 0f ff ff ff    	jns    7438 <mpz_gcdext+0x4c8>
    7529:	e8 f2 96 ff ff       	call   c20 <mpz_abs_sub>
    752e:	e9 0a ff ff ff       	jmp    743d <mpz_gcdext+0x4cd>
    7533:	0f 1f 44 00 00       	nopl   0x0(%rax,%rax,1)
    7538:	e8 23 95 ff ff       	call   a60 <mpz_abs_add>
    753d:	eb bb                	jmp    74fa <mpz_gcdext+0x58a>
    753f:	90                   	nop
    7540:	e8 db 96 ff ff       	call   c20 <mpz_abs_sub>
    7545:	e9 b6 fc ff ff       	jmp    7200 <mpz_gcdext+0x290>
    754a:	66 0f 1f 44 00 00    	nopw   0x0(%rax,%rax,1)
    7550:	e8 0b 95 ff ff       	call   a60 <mpz_abs_add>
    7555:	e9 74 fc ff ff       	jmp    71ce <mpz_gcdext+0x25e>
    755a:	66 0f 1f 44 00 00    	nopw   0x0(%rax,%rax,1)
    7560:	e8 bb 96 ff ff       	call   c20 <mpz_abs_sub>
    7565:	e9 c8 fc ff ff       	jmp    7232 <mpz_gcdext+0x2c2>
    756a:	66 0f 1f 44 00 00    	nopw   0x0(%rax,%rax,1)
    7570:	8b 44 24 64          	mov    0x64(%rsp),%eax
    7574:	33 44 24 74          	xor    0x74(%rsp),%eax
    7578:	0f 88 22 03 00 00    	js     78a0 <mpz_gcdext+0x930>
    757e:	4c 89 e2             	mov    %r12,%rdx
    7581:	4c 89 fe             	mov    %r15,%rsi
    7584:	4c 89 e7             	mov    %r12,%rdi
    7587:	e8 d4 94 ff ff       	call   a60 <mpz_abs_add>
    758c:	44 8b 5c 24 64       	mov    0x64(%rsp),%r11d
    7591:	89 c2                	mov    %eax,%edx
    7593:	4c 89 e6             	mov    %r12,%rsi
    7596:	4c 89 ff             	mov    %r15,%rdi
    7599:	f7 da                	neg    %edx
    759b:	45 85 db             	test   %r11d,%r11d
    759e:	0f 49 d0             	cmovns %eax,%edx
    75a1:	89 54 24 74          	mov    %edx,0x74(%rsp)
    75a5:	41 89 d2             	mov    %edx,%r10d
    75a8:	e8 00 00 00 00       	call   75ad <mpz_gcdext+0x63d>
    75ad:	85 c0                	test   %eax,%eax
    75af:	0f 8f 3b 02 00 00    	jg     77f0 <mpz_gcdext+0x880>
    75b5:	48 8b 44 24 08       	mov    0x8(%rsp),%rax
    75ba:	8b 50 04             	mov    0x4(%rax),%edx
    75bd:	85 d2                	test   %edx,%edx
    75bf:	0f 88 a1 02 00 00    	js     7866 <mpz_gcdext+0x8f6>
    75c5:	48 8b 44 24 10       	mov    0x10(%rsp),%rax
    75ca:	8b 40 04             	mov    0x4(%rax),%eax
    75cd:	85 c0                	test   %eax,%eax
    75cf:	0f 88 b0 02 00 00    	js     7885 <mpz_gcdext+0x915>
    75d5:	48 8b 5c 24 30       	mov    0x30(%rsp),%rbx
    75da:	8b 44 24 50          	mov    0x50(%rsp),%eax
    75de:	48 8b 54 24 58       	mov    0x58(%rsp),%rdx
    75e3:	48 63 33             	movslq (%rbx),%rsi
    75e6:	89 03                	mov    %eax,(%rbx)
    75e8:	48 8b 43 08          	mov    0x8(%rbx),%rax
    75ec:	48 89 53 08          	mov    %rdx,0x8(%rbx)
    75f0:	8b 54 24 54          	mov    0x54(%rsp),%edx
    75f4:	89 74 24 50          	mov    %esi,0x50(%rsp)
    75f8:	48 89 44 24 58       	mov    %rax,0x58(%rsp)
    75fd:	8b 43 04             	mov    0x4(%rbx),%eax
    7600:	89 53 04             	mov    %edx,0x4(%rbx)
    7603:	48 8b 5c 24 28       	mov    0x28(%rsp),%rbx
    7608:	89 44 24 54          	mov    %eax,0x54(%rsp)
    760c:	48 85 db             	test   %rbx,%rbx
    760f:	74 2c                	je     763d <mpz_gcdext+0x6cd>
    7611:	8b 03                	mov    (%rbx),%eax
    7613:	8b 54 24 60          	mov    0x60(%rsp),%edx
    7617:	89 44 24 60          	mov    %eax,0x60(%rsp)
    761b:	48 8b 43 08          	mov    0x8(%rbx),%rax
    761f:	89 13                	mov    %edx,(%rbx)
    7621:	48 8b 54 24 68       	mov    0x68(%rsp),%rdx
    7626:	48 89 44 24 68       	mov    %rax,0x68(%rsp)
    762b:	8b 43 04             	mov    0x4(%rbx),%eax
    762e:	48 89 53 08          	mov    %rdx,0x8(%rbx)
    7632:	8b 54 24 64          	mov    0x64(%rsp),%edx
    7636:	89 44 24 64          	mov    %eax,0x64(%rsp)
    763a:	89 53 04             	mov    %edx,0x4(%rbx)
    763d:	48 8b 5c 24 20       	mov    0x20(%rsp),%rbx
    7642:	48 85 db             	test   %rbx,%rbx
    7645:	74 3e                	je     7685 <mpz_gcdext+0x715>
    7647:	8b 03                	mov    (%rbx),%eax
    7649:	8b 94 24 80 00 00 00 	mov    0x80(%rsp),%edx
    7650:	89 84 24 80 00 00 00 	mov    %eax,0x80(%rsp)
    7657:	48 8b 43 08          	mov    0x8(%rbx),%rax
    765b:	89 13                	mov    %edx,(%rbx)
    765d:	48 8b 94 24 88 00 00 	mov    0x88(%rsp),%rdx
    7664:	00 
    7665:	48 89 84 24 88 00 00 	mov    %rax,0x88(%rsp)
    766c:	00 
    766d:	8b 43 04             	mov    0x4(%rbx),%eax
    7670:	48 89 53 08          	mov    %rdx,0x8(%rbx)
    7674:	8b 94 24 84 00 00 00 	mov    0x84(%rsp),%edx
    767b:	89 84 24 84 00 00 00 	mov    %eax,0x84(%rsp)
    7682:	89 53 04             	mov    %edx,0x4(%rbx)
    7685:	48 63 44 24 40       	movslq 0x40(%rsp),%rax
    768a:	85 c0                	test   %eax,%eax
    768c:	74 18                	je     76a6 <mpz_gcdext+0x736>
    768e:	48 8d 34 c5 00 00 00 	lea    0x0(,%rax,8),%rsi
    7695:	00 
    7696:	48 8b 7c 24 48       	mov    0x48(%rsp),%rdi
    769b:	ff 15 00 00 00 00    	call   *0x0(%rip)        # 76a1 <mpz_gcdext+0x731>
    76a1:	48 63 74 24 50       	movslq 0x50(%rsp),%rsi
    76a6:	85 f6                	test   %esi,%esi
    76a8:	74 0f                	je     76b9 <mpz_gcdext+0x749>
    76aa:	48 8b 7c 24 58       	mov    0x58(%rsp),%rdi
    76af:	48 c1 e6 03          	shl    $0x3,%rsi
    76b3:	ff 15 00 00 00 00    	call   *0x0(%rip)        # 76b9 <mpz_gcdext+0x749>
    76b9:	48 63 44 24 60       	movslq 0x60(%rsp),%rax
    76be:	85 c0                	test   %eax,%eax
    76c0:	74 13                	je     76d5 <mpz_gcdext+0x765>
    76c2:	48 8b 7c 24 68       	mov    0x68(%rsp),%rdi
    76c7:	48 8d 34 c5 00 00 00 	lea    0x0(,%rax,8),%rsi
    76ce:	00 
    76cf:	ff 15 00 00 00 00    	call   *0x0(%rip)        # 76d5 <mpz_gcdext+0x765>
    76d5:	48 63 44 24 70       	movslq 0x70(%rsp),%rax
    76da:	85 c0                	test   %eax,%eax
    76dc:	74 13                	je     76f1 <mpz_gcdext+0x781>
    76de:	48 8b 7c 24 78       	mov    0x78(%rsp),%rdi
    76e3:	48 8d 34 c5 00 00 00 	lea    0x0(,%rax,8),%rsi
    76ea:	00 
    76eb:	ff 15 00 00 00 00    	call   *0x0(%rip)        # 76f1 <mpz_gcdext+0x781>
    76f1:	48 63 84 24 80 00 00 	movslq 0x80(%rsp),%rax
    76f8:	00 
    76f9:	85 c0                	test   %eax,%eax
    76fb:	74 16                	je     7713 <mpz_gcdext+0x7a3>
    76fd:	48 8b bc 24 88 00 00 	mov    0x88(%rsp),%rdi
    7704:	00 
    7705:	48 8d 34 c5 00 00 00 	lea    0x0(,%rax,8),%rsi
    770c:	00 
    770d:	ff 15 00 00 00 00    	call   *0x0(%rip)        # 7713 <mpz_gcdext+0x7a3>
    7713:	48 63 84 24 90 00 00 	movslq 0x90(%rsp),%rax
    771a:	00 
    771b:	85 c0                	test   %eax,%eax
    771d:	74 16                	je     7735 <mpz_gcdext+0x7c5>
    771f:	48 8b bc 24 98 00 00 	mov    0x98(%rsp),%rdi
    7726:	00 
    7727:	48 8d 34 c5 00 00 00 	lea    0x0(,%rax,8),%rsi
    772e:	00 
    772f:	ff 15 00 00 00 00    	call   *0x0(%rip)        # 7735 <mpz_gcdext+0x7c5>
    7735:	48 8b 84 24 a8 00 00 	mov    0xa8(%rsp),%rax
    773c:	00 
    773d:	64 48 2b 04 25 28 00 	sub    %fs:0x28,%rax
    7744:	00 00 
    7746:	0f 85 8a 02 00 00    	jne    79d6 <mpz_gcdext+0xa66>
    774c:	48 81 c4 b8 00 00 00 	add    $0xb8,%rsp
    7753:	5b                   	pop    %rbx
    7754:	5d                   	pop    %rbp
    7755:	41 5c                	pop    %r12
    7757:	41 5d                	pop    %r13
    7759:	41 5e                	pop    %r14
    775b:	41 5f                	pop    %r15
    775d:	c3                   	ret    
    775e:	66 90                	xchg   %ax,%ax
    7760:	e8 bb 94 ff ff       	call   c20 <mpz_abs_sub>
    7765:	e9 ab fb ff ff       	jmp    7315 <mpz_gcdext+0x3a5>
    776a:	66 0f 1f 44 00 00    	nopw   0x0(%rax,%rax,1)
    7770:	e8 ab 94 ff ff       	call   c20 <mpz_abs_sub>
    7775:	e9 69 fb ff ff       	jmp    72e3 <mpz_gcdext+0x373>
    777a:	66 0f 1f 44 00 00    	nopw   0x0(%rax,%rax,1)
    7780:	e8 db 92 ff ff       	call   a60 <mpz_abs_add>
    7785:	e9 27 fb ff ff       	jmp    72b1 <mpz_gcdext+0x341>
    778a:	66 0f 1f 44 00 00    	nopw   0x0(%rax,%rax,1)
    7790:	4c 8b 74 24 30       	mov    0x30(%rsp),%r14
    7795:	48 8b 74 24 08       	mov    0x8(%rsp),%rsi
    779a:	4c 89 f7             	mov    %r14,%rdi
    779d:	e8 00 00 00 00       	call   77a2 <mpz_gcdext+0x832>
    77a2:	41 8b 56 04          	mov    0x4(%r14),%edx
    77a6:	48 8b 7c 24 28       	mov    0x28(%rsp),%rdi
    77ab:	89 d0                	mov    %edx,%eax
    77ad:	f7 d8                	neg    %eax
    77af:	0f 48 c2             	cmovs  %edx,%eax
    77b2:	41 89 46 04          	mov    %eax,0x4(%r14)
    77b6:	48 85 ff             	test   %rdi,%rdi
    77b9:	74 15                	je     77d0 <mpz_gcdext+0x860>
    77bb:	31 f6                	xor    %esi,%esi
    77bd:	85 db                	test   %ebx,%ebx
    77bf:	40 0f 9f c6          	setg   %sil
    77c3:	c1 eb 1f             	shr    $0x1f,%ebx
    77c6:	29 de                	sub    %ebx,%esi
    77c8:	48 63 f6             	movslq %esi,%rsi
    77cb:	e8 00 00 00 00       	call   77d0 <mpz_gcdext+0x860>
    77d0:	48 8b 44 24 20       	mov    0x20(%rsp),%rax
    77d5:	48 85 c0             	test   %rax,%rax
    77d8:	0f 84 57 ff ff ff    	je     7735 <mpz_gcdext+0x7c5>
    77de:	c7 40 04 00 00 00 00 	movl   $0x0,0x4(%rax)
    77e5:	e9 4b ff ff ff       	jmp    7735 <mpz_gcdext+0x7c5>
    77ea:	66 0f 1f 44 00 00    	nopw   0x0(%rax,%rax,1)
    77f0:	8b 44 24 60          	mov    0x60(%rsp),%eax
    77f4:	8b 54 24 70          	mov    0x70(%rsp),%edx
    77f8:	44 89 54 24 64       	mov    %r10d,0x64(%rsp)
    77fd:	48 89 ee             	mov    %rbp,%rsi
    7800:	44 89 5c 24 74       	mov    %r11d,0x74(%rsp)
    7805:	48 89 ef             	mov    %rbp,%rdi
    7808:	89 44 24 70          	mov    %eax,0x70(%rsp)
    780c:	48 8b 44 24 68       	mov    0x68(%rsp),%rax
    7811:	89 54 24 60          	mov    %edx,0x60(%rsp)
    7815:	48 8b 54 24 78       	mov    0x78(%rsp),%rdx
    781a:	48 89 44 24 78       	mov    %rax,0x78(%rsp)
    781f:	8b 84 24 84 00 00 00 	mov    0x84(%rsp),%eax
    7826:	33 84 24 94 00 00 00 	xor    0x94(%rsp),%eax
    782d:	48 89 54 24 68       	mov    %rdx,0x68(%rsp)
    7832:	4c 89 ea             	mov    %r13,%rdx
    7835:	0f 88 37 01 00 00    	js     7972 <mpz_gcdext+0xa02>
    783b:	e8 e0 93 ff ff       	call   c20 <mpz_abs_sub>
    7840:	8b 8c 24 84 00 00 00 	mov    0x84(%rsp),%ecx
    7847:	89 c2                	mov    %eax,%edx
    7849:	85 c9                	test   %ecx,%ecx
    784b:	79 02                	jns    784f <mpz_gcdext+0x8df>
    784d:	f7 da                	neg    %edx
    784f:	48 8b 44 24 08       	mov    0x8(%rsp),%rax
    7854:	89 94 24 84 00 00 00 	mov    %edx,0x84(%rsp)
    785b:	8b 50 04             	mov    0x4(%rax),%edx
    785e:	85 d2                	test   %edx,%edx
    7860:	0f 89 5f fd ff ff    	jns    75c5 <mpz_gcdext+0x655>
    7866:	4c 89 fe             	mov    %r15,%rsi
    7869:	4c 89 ff             	mov    %r15,%rdi
    786c:	e8 00 00 00 00       	call   7871 <mpz_gcdext+0x901>
    7871:	48 8b 44 24 10       	mov    0x10(%rsp),%rax
    7876:	f7 5c 24 64          	negl   0x64(%rsp)
    787a:	8b 40 04             	mov    0x4(%rax),%eax
    787d:	85 c0                	test   %eax,%eax
    787f:	0f 89 50 fd ff ff    	jns    75d5 <mpz_gcdext+0x665>
    7885:	48 89 ee             	mov    %rbp,%rsi
    7888:	48 89 ef             	mov    %rbp,%rdi
    788b:	e8 00 00 00 00       	call   7890 <mpz_gcdext+0x920>
    7890:	f7 9c 24 84 00 00 00 	negl   0x84(%rsp)
    7897:	e9 39 fd ff ff       	jmp    75d5 <mpz_gcdext+0x665>
    789c:	0f 1f 40 00          	nopl   0x0(%rax)
    78a0:	4c 89 e2             	mov    %r12,%rdx
    78a3:	4c 89 fe             	mov    %r15,%rsi
    78a6:	4c 89 e7             	mov    %r12,%rdi
    78a9:	e8 72 93 ff ff       	call   c20 <mpz_abs_sub>
    78ae:	e9 d9 fc ff ff       	jmp    758c <mpz_gcdext+0x61c>
    78b3:	0f 1f 44 00 00       	nopl   0x0(%rax,%rax,1)
    78b8:	48 89 fb             	mov    %rdi,%rbx
    78bb:	4c 89 c6             	mov    %r8,%rsi
    78be:	e8 00 00 00 00       	call   78c3 <mpz_gcdext+0x953>
    78c3:	8b 53 04             	mov    0x4(%rbx),%edx
    78c6:	89 d0                	mov    %edx,%eax
    78c8:	f7 d8                	neg    %eax
    78ca:	0f 48 c2             	cmovs  %edx,%eax
    78cd:	89 43 04             	mov    %eax,0x4(%rbx)
    78d0:	48 8b 44 24 28       	mov    0x28(%rsp),%rax
    78d5:	48 85 c0             	test   %rax,%rax
    78d8:	74 07                	je     78e1 <mpz_gcdext+0x971>
    78da:	c7 40 04 00 00 00 00 	movl   $0x0,0x4(%rax)
    78e1:	48 83 7c 24 20 00    	cmpq   $0x0,0x20(%rsp)
    78e7:	0f 84 48 fe ff ff    	je     7735 <mpz_gcdext+0x7c5>
    78ed:	48 8b 84 24 a8 00 00 	mov    0xa8(%rsp),%rax
    78f4:	00 
    78f5:	64 48 2b 04 25 28 00 	sub    %fs:0x28,%rax
    78fc:	00 00 
    78fe:	0f 85 d2 00 00 00    	jne    79d6 <mpz_gcdext+0xa66>
    7904:	31 f6                	xor    %esi,%esi
    7906:	85 ed                	test   %ebp,%ebp
    7908:	48 8b 7c 24 20       	mov    0x20(%rsp),%rdi
    790d:	40 0f 9f c6          	setg   %sil
    7911:	c1 ed 1f             	shr    $0x1f,%ebp
    7914:	48 81 c4 b8 00 00 00 	add    $0xb8,%rsp
    791b:	29 ee                	sub    %ebp,%esi
    791d:	5b                   	pop    %rbx
    791e:	5d                   	pop    %rbp
    791f:	48 63 f6             	movslq %esi,%rsi
    7922:	41 5c                	pop    %r12
    7924:	41 5d                	pop    %r13
    7926:	41 5e                	pop    %r14
    7928:	41 5f                	pop    %r15
    792a:	e9 81 b4 ff ff       	jmp    2db0 <mpz_set_si>
    792f:	90                   	nop
    7930:	8b 94 24 84 00 00 00 	mov    0x84(%rsp),%edx
    7937:	4c 89 fe             	mov    %r15,%rsi
    793a:	48 89 ef             	mov    %rbp,%rdi
    793d:	85 d2                	test   %edx,%edx
    793f:	78 3b                	js     797c <mpz_gcdext+0xa0c>
    7941:	e8 4a 8d ff ff       	call   690 <mpz_abs_add_bit>
    7946:	e9 56 f8 ff ff       	jmp    71a1 <mpz_gcdext+0x231>
    794b:	44 8b 94 24 84 00 00 	mov    0x84(%rsp),%r10d
    7952:	00 
    7953:	45 85 d2             	test   %r10d,%r10d
    7956:	78 2e                	js     7986 <mpz_gcdext+0xa16>
    7958:	48 89 de             	mov    %rbx,%rsi
    795b:	48 89 ef             	mov    %rbp,%rdi
    795e:	e8 2d 8d ff ff       	call   690 <mpz_abs_add_bit>
    7963:	e9 1d fa ff ff       	jmp    7385 <mpz_gcdext+0x415>
    7968:	e8 63 8c ff ff       	call   5d0 <mpz_abs_sub_bit>
    796d:	e9 ec f7 ff ff       	jmp    715e <mpz_gcdext+0x1ee>
    7972:	e8 e9 90 ff ff       	call   a60 <mpz_abs_add>
    7977:	e9 c4 fe ff ff       	jmp    7840 <mpz_gcdext+0x8d0>
    797c:	e8 4f 8c ff ff       	call   5d0 <mpz_abs_sub_bit>
    7981:	e9 1b f8 ff ff       	jmp    71a1 <mpz_gcdext+0x231>
    7986:	48 8b 74 24 18       	mov    0x18(%rsp),%rsi
    798b:	48 89 ef             	mov    %rbp,%rdi
    798e:	e8 3d 8c ff ff       	call   5d0 <mpz_abs_sub_bit>
    7993:	e9 ed f9 ff ff       	jmp    7385 <mpz_gcdext+0x415>
    7998:	48 8d 0d 00 00 00 00 	lea    0x0(%rip),%rcx        # 799f <mpz_gcdext+0xa2f>
    799f:	ba 8e 0b 00 00       	mov    $0xb8e,%edx
    79a4:	48 8d 35 00 00 00 00 	lea    0x0(%rip),%rsi        # 79ab <mpz_gcdext+0xa3b>
    79ab:	48 8d 3d 00 00 00 00 	lea    0x0(%rip),%rdi        # 79b2 <mpz_gcdext+0xa42>
    79b2:	e8 00 00 00 00       	call   79b7 <mpz_gcdext+0xa47>
    79b7:	48 8d 0d 00 00 00 00 	lea    0x0(%rip),%rcx        # 79be <mpz_gcdext+0xa4e>
    79be:	ba e1 09 00 00       	mov    $0x9e1,%edx
    79c3:	48 8d 35 00 00 00 00 	lea    0x0(%rip),%rsi        # 79ca <mpz_gcdext+0xa5a>
    79ca:	48 8d 3d 00 00 00 00 	lea    0x0(%rip),%rdi        # 79d1 <mpz_gcdext+0xa61>
    79d1:	e8 00 00 00 00       	call   79d6 <mpz_gcdext+0xa66>
    79d6:	e8 00 00 00 00       	call   79db <mpz_gcdext+0xa6b>
    79db:	0f 1f 44 00 00       	nopl   0x0(%rax,%rax,1)

00000000000079e0 <mpz_invert>:
    79e0:	f3 0f 1e fa          	endbr64 
    79e4:	41 55                	push   %r13
    79e6:	41 54                	push   %r12
    79e8:	55                   	push   %rbp
    79e9:	53                   	push   %rbx
    79ea:	48 83 ec 38          	sub    $0x38,%rsp
    79ee:	44 8b 66 04          	mov    0x4(%rsi),%r12d
    79f2:	64 48 8b 04 25 28 00 	mov    %fs:0x28,%rax
    79f9:	00 00 
    79fb:	48 89 44 24 28       	mov    %rax,0x28(%rsp)
    7a00:	31 c0                	xor    %eax,%eax
    7a02:	45 85 e4             	test   %r12d,%r12d
    7a05:	0f 84 9b 00 00 00    	je     7aa6 <mpz_invert+0xc6>
    7a0b:	44 8b 62 04          	mov    0x4(%rdx),%r12d
    7a0f:	49 89 d5             	mov    %rdx,%r13
    7a12:	48 89 fb             	mov    %rdi,%rbx
    7a15:	48 8b 52 08          	mov    0x8(%rdx),%rdx
    7a19:	48 89 f1             	mov    %rsi,%rcx
    7a1c:	44 89 e0             	mov    %r12d,%eax
    7a1f:	f7 d8                	neg    %eax
    7a21:	41 0f 48 c4          	cmovs  %r12d,%eax
    7a25:	83 f8 01             	cmp    $0x1,%eax
    7a28:	0f 8e a2 00 00 00    	jle    7ad0 <mpz_invert+0xf0>
    7a2e:	48 8d 6c 24 10       	lea    0x10(%rsp),%rbp
    7a33:	48 89 e7             	mov    %rsp,%rdi
    7a36:	4d 89 e8             	mov    %r13,%r8
    7a39:	31 d2                	xor    %edx,%edx
    7a3b:	48 8d 05 00 00 00 00 	lea    0x0(%rip),%rax        # 7a42 <mpz_invert+0x62>
    7a42:	48 89 ee             	mov    %rbp,%rsi
    7a45:	48 c7 04 24 00 00 00 	movq   $0x0,(%rsp)
    7a4c:	00 
    7a4d:	48 89 44 24 08       	mov    %rax,0x8(%rsp)
    7a52:	48 c7 44 24 10 00 00 	movq   $0x0,0x10(%rsp)
    7a59:	00 00 
    7a5b:	48 89 44 24 18       	mov    %rax,0x18(%rsp)
    7a60:	e8 00 00 00 00       	call   7a65 <mpz_invert+0x85>
    7a65:	44 8b 64 24 04       	mov    0x4(%rsp),%r12d
    7a6a:	41 83 fc 01          	cmp    $0x1,%r12d
    7a6e:	0f 8e 84 00 00 00    	jle    7af8 <mpz_invert+0x118>
    7a74:	45 31 e4             	xor    %r12d,%r12d
    7a77:	48 63 34 24          	movslq (%rsp),%rsi
    7a7b:	85 f6                	test   %esi,%esi
    7a7d:	74 0f                	je     7a8e <mpz_invert+0xae>
    7a7f:	48 8b 7c 24 08       	mov    0x8(%rsp),%rdi
    7a84:	48 c1 e6 03          	shl    $0x3,%rsi
    7a88:	ff 15 00 00 00 00    	call   *0x0(%rip)        # 7a8e <mpz_invert+0xae>
    7a8e:	48 63 74 24 10       	movslq 0x10(%rsp),%rsi
    7a93:	85 f6                	test   %esi,%esi
    7a95:	74 0f                	je     7aa6 <mpz_invert+0xc6>
    7a97:	48 8b 7c 24 18       	mov    0x18(%rsp),%rdi
    7a9c:	48 c1 e6 03          	shl    $0x3,%rsi
    7aa0:	ff 15 00 00 00 00    	call   *0x0(%rip)        # 7aa6 <mpz_invert+0xc6>
    7aa6:	48 8b 44 24 28       	mov    0x28(%rsp),%rax
    7aab:	64 48 2b 04 25 28 00 	sub    %fs:0x28,%rax
    7ab2:	00 00 
    7ab4:	0f 85 b2 00 00 00    	jne    7b6c <mpz_invert+0x18c>
    7aba:	48 83 c4 38          	add    $0x38,%rsp
    7abe:	44 89 e0             	mov    %r12d,%eax
    7ac1:	5b                   	pop    %rbx
    7ac2:	5d                   	pop    %rbp
    7ac3:	41 5c                	pop    %r12
    7ac5:	41 5d                	pop    %r13
    7ac7:	c3                   	ret    
    7ac8:	0f 1f 84 00 00 00 00 	nopl   0x0(%rax,%rax,1)
    7acf:	00 
    7ad0:	45 85 e4             	test   %r12d,%r12d
    7ad3:	74 d1                	je     7aa6 <mpz_invert+0xc6>
    7ad5:	48 8b 12             	mov    (%rdx),%rdx
    7ad8:	31 c0                	xor    %eax,%eax
    7ada:	48 83 fa 01          	cmp    $0x1,%rdx
    7ade:	0f 97 c0             	seta   %al
    7ae1:	83 d8 00             	sbb    $0x0,%eax
    7ae4:	83 f8 01             	cmp    $0x1,%eax
    7ae7:	0f 84 41 ff ff ff    	je     7a2e <mpz_invert+0x4e>
    7aed:	45 31 e4             	xor    %r12d,%r12d
    7af0:	eb b4                	jmp    7aa6 <mpz_invert+0xc6>
    7af2:	66 0f 1f 44 00 00    	nopw   0x0(%rax,%rax,1)
    7af8:	0f 85 76 ff ff ff    	jne    7a74 <mpz_invert+0x94>
    7afe:	48 8b 44 24 08       	mov    0x8(%rsp),%rax
    7b03:	48 8b 00             	mov    (%rax),%rax
    7b06:	48 83 f8 01          	cmp    $0x1,%rax
    7b0a:	0f 97 c2             	seta   %dl
    7b0d:	48 85 c0             	test   %rax,%rax
    7b10:	0f 94 c0             	sete   %al
    7b13:	38 c2                	cmp    %al,%dl
    7b15:	0f 85 59 ff ff ff    	jne    7a74 <mpz_invert+0x94>
    7b1b:	8b 54 24 14          	mov    0x14(%rsp),%edx
    7b1f:	85 d2                	test   %edx,%edx
    7b21:	78 2d                	js     7b50 <mpz_invert+0x170>
    7b23:	8b 03                	mov    (%rbx),%eax
    7b25:	8b 4c 24 10          	mov    0x10(%rsp),%ecx
    7b29:	89 44 24 10          	mov    %eax,0x10(%rsp)
    7b2d:	48 8b 43 08          	mov    0x8(%rbx),%rax
    7b31:	89 0b                	mov    %ecx,(%rbx)
    7b33:	48 8b 4c 24 18       	mov    0x18(%rsp),%rcx
    7b38:	48 89 44 24 18       	mov    %rax,0x18(%rsp)
    7b3d:	8b 43 04             	mov    0x4(%rbx),%eax
    7b40:	48 89 4b 08          	mov    %rcx,0x8(%rbx)
    7b44:	89 53 04             	mov    %edx,0x4(%rbx)
    7b47:	89 44 24 14          	mov    %eax,0x14(%rsp)
    7b4b:	e9 27 ff ff ff       	jmp    7a77 <mpz_invert+0x97>
    7b50:	4c 89 ea             	mov    %r13,%rdx
    7b53:	48 89 ee             	mov    %rbp,%rsi
    7b56:	48 89 ef             	mov    %rbp,%rdi
    7b59:	e8 c2 90 ff ff       	call   c20 <mpz_abs_sub>
    7b5e:	89 c2                	mov    %eax,%edx
    7b60:	8b 44 24 14          	mov    0x14(%rsp),%eax
    7b64:	85 c0                	test   %eax,%eax
    7b66:	79 bb                	jns    7b23 <mpz_invert+0x143>
    7b68:	f7 da                	neg    %edx
    7b6a:	eb b7                	jmp    7b23 <mpz_invert+0x143>
    7b6c:	e8 00 00 00 00       	call   7b71 <mpz_invert+0x191>
    7b71:	66 66 2e 0f 1f 84 00 	data16 cs nopw 0x0(%rax,%rax,1)
    7b78:	00 00 00 00 
    7b7c:	0f 1f 40 00          	nopl   0x0(%rax)

0000000000007b80 <mpz_powm>:
    7b80:	f3 0f 1e fa          	endbr64 
    7b84:	41 57                	push   %r15
    7b86:	41 56                	push   %r14
    7b88:	41 55                	push   %r13
    7b8a:	41 54                	push   %r12
    7b8c:	55                   	push   %rbp
    7b8d:	53                   	push   %rbx
    7b8e:	48 81 ec a8 00 00 00 	sub    $0xa8,%rsp
    7b95:	8b 5a 04             	mov    0x4(%rdx),%ebx
    7b98:	48 89 7c 24 30       	mov    %rdi,0x30(%rsp)
    7b9d:	48 89 54 24 28       	mov    %rdx,0x28(%rsp)
    7ba2:	64 48 8b 04 25 28 00 	mov    %fs:0x28,%rax
    7ba9:	00 00 
    7bab:	48 89 84 24 98 00 00 	mov    %rax,0x98(%rsp)
    7bb2:	00 
    7bb3:	31 c0                	xor    %eax,%eax
    7bb5:	8b 41 04             	mov    0x4(%rcx),%eax
    7bb8:	41 89 c4             	mov    %eax,%r12d
    7bbb:	41 f7 dc             	neg    %r12d
    7bbe:	44 0f 48 e0          	cmovs  %eax,%r12d
    7bc2:	85 c0                	test   %eax,%eax
    7bc4:	0f 84 95 04 00 00    	je     805f <mpz_powm+0x4df>
    7bca:	48 8b 41 08          	mov    0x8(%rcx),%rax
    7bce:	49 89 cf             	mov    %rcx,%r15
    7bd1:	48 89 44 24 10       	mov    %rax,0x10(%rsp)
    7bd6:	85 db                	test   %ebx,%ebx
    7bd8:	75 7b                	jne    7c55 <mpz_powm+0xd5>
    7bda:	bb 01 00 00 00       	mov    $0x1,%ebx
    7bdf:	41 83 fc 01          	cmp    $0x1,%r12d
    7be3:	74 24                	je     7c09 <mpz_powm+0x89>
    7be5:	48 8b 44 24 30       	mov    0x30(%rsp),%rax
    7bea:	8b 08                	mov    (%rax),%ecx
    7bec:	c7 40 04 01 00 00 00 	movl   $0x1,0x4(%rax)
    7bf3:	85 c9                	test   %ecx,%ecx
    7bf5:	0f 8e 56 03 00 00    	jle    7f51 <mpz_powm+0x3d1>
    7bfb:	48 8b 44 24 30       	mov    0x30(%rsp),%rax
    7c00:	48 8b 40 08          	mov    0x8(%rax),%rax
    7c04:	48 89 18             	mov    %rbx,(%rax)
    7c07:	eb 23                	jmp    7c2c <mpz_powm+0xac>
    7c09:	48 8b 00             	mov    (%rax),%rax
    7c0c:	31 db                	xor    %ebx,%ebx
    7c0e:	48 83 f8 01          	cmp    $0x1,%rax
    7c12:	0f 97 c3             	seta   %bl
    7c15:	83 db 00             	sbb    $0x0,%ebx
    7c18:	48 63 db             	movslq %ebx,%rbx
    7c1b:	48 85 db             	test   %rbx,%rbx
    7c1e:	75 c5                	jne    7be5 <mpz_powm+0x65>
    7c20:	48 8b 44 24 30       	mov    0x30(%rsp),%rax
    7c25:	c7 40 04 00 00 00 00 	movl   $0x0,0x4(%rax)
    7c2c:	48 8b 84 24 98 00 00 	mov    0x98(%rsp),%rax
    7c33:	00 
    7c34:	64 48 2b 04 25 28 00 	sub    %fs:0x28,%rax
    7c3b:	00 00 
    7c3d:	0f 85 0b 04 00 00    	jne    804e <mpz_powm+0x4ce>
    7c43:	48 81 c4 a8 00 00 00 	add    $0xa8,%rsp
    7c4a:	5b                   	pop    %rbx
    7c4b:	5d                   	pop    %rbp
    7c4c:	41 5c                	pop    %r12
    7c4e:	41 5d                	pop    %r13
    7c50:	41 5e                	pop    %r14
    7c52:	41 5f                	pop    %r15
    7c54:	c3                   	ret    
    7c55:	4d 63 f4             	movslq %r12d,%r14
    7c58:	48 89 f5             	mov    %rsi,%rbp
    7c5b:	48 8b 74 24 10       	mov    0x10(%rsp),%rsi
    7c60:	48 8d 7c 24 50       	lea    0x50(%rsp),%rdi
    7c65:	4c 89 f2             	mov    %r14,%rdx
    7c68:	4c 89 34 24          	mov    %r14,(%rsp)
    7c6c:	4c 89 74 24 48       	mov    %r14,0x48(%rsp)
    7c71:	48 89 7c 24 18       	mov    %rdi,0x18(%rsp)
    7c76:	e8 e5 ac ff ff       	call   2960 <mpn_div_qr_invert>
    7c7b:	44 8b 6c 24 50       	mov    0x50(%rsp),%r13d
    7c80:	44 89 6c 24 44       	mov    %r13d,0x44(%rsp)
    7c85:	45 85 ed             	test   %r13d,%r13d
    7c88:	0f 84 dd 00 00 00    	je     7d6b <mpz_powm+0x1eb>
    7c8e:	4a 8d 3c f5 00 00 00 	lea    0x0(,%r14,8),%rdi
    7c95:	00 
    7c96:	c7 44 24 50 00 00 00 	movl   $0x0,0x50(%rsp)
    7c9d:	00 
    7c9e:	ff 15 00 00 00 00    	call   *0x0(%rip)        # 7ca4 <mpz_powm+0x124>
    7ca4:	48 8b 74 24 10       	mov    0x10(%rsp),%rsi
    7ca9:	4c 89 f2             	mov    %r14,%rdx
    7cac:	44 89 e9             	mov    %r13d,%ecx
    7caf:	48 89 c7             	mov    %rax,%rdi
    7cb2:	48 89 44 24 38       	mov    %rax,0x38(%rsp)
    7cb7:	49 89 c6             	mov    %rax,%r14
    7cba:	e8 00 00 00 00       	call   7cbf <mpz_powm+0x13f>
    7cbf:	48 85 c0             	test   %rax,%rax
    7cc2:	0f 85 67 03 00 00    	jne    802f <mpz_powm+0x4af>
    7cc8:	48 8b 44 24 28       	mov    0x28(%rsp),%rax
    7ccd:	4c 89 74 24 10       	mov    %r14,0x10(%rsp)
    7cd2:	8b 40 04             	mov    0x4(%rax),%eax
    7cd5:	4c 8d 2d 00 00 00 00 	lea    0x0(%rip),%r13        # 7cdc <mpz_powm+0x15c>
    7cdc:	4c 8d b4 24 80 00 00 	lea    0x80(%rsp),%r14
    7ce3:	00 
    7ce4:	48 c7 84 24 80 00 00 	movq   $0x0,0x80(%rsp)
    7ceb:	00 00 00 00 00 
    7cf0:	4c 89 ac 24 88 00 00 	mov    %r13,0x88(%rsp)
    7cf7:	00 
    7cf8:	85 c0                	test   %eax,%eax
    7cfa:	78 7f                	js     7d7b <mpz_powm+0x1fb>
    7cfc:	48 89 ee             	mov    %rbp,%rsi
    7cff:	4c 89 f7             	mov    %r14,%rdi
    7d02:	e8 00 00 00 00       	call   7d07 <mpz_powm+0x187>
    7d07:	8b 84 24 84 00 00 00 	mov    0x84(%rsp),%eax
    7d0e:	89 c2                	mov    %eax,%edx
    7d10:	f7 da                	neg    %edx
    7d12:	0f 48 d0             	cmovs  %eax,%edx
    7d15:	89 94 24 84 00 00 00 	mov    %edx,0x84(%rsp)
    7d1c:	48 63 d2             	movslq %edx,%rdx
    7d1f:	48 39 14 24          	cmp    %rdx,(%rsp)
    7d23:	0f 8e ec 01 00 00    	jle    7f15 <mpz_powm+0x395>
    7d29:	8b 45 04             	mov    0x4(%rbp),%eax
    7d2c:	85 c0                	test   %eax,%eax
    7d2e:	0f 88 7e 02 00 00    	js     7fb2 <mpz_powm+0x432>
    7d34:	48 8b 84 24 88 00 00 	mov    0x88(%rsp),%rax
    7d3b:	00 
    7d3c:	48 85 d2             	test   %rdx,%rdx
    7d3f:	75 19                	jne    7d5a <mpz_powm+0x1da>
    7d41:	e9 5a 02 00 00       	jmp    7fa0 <mpz_powm+0x420>
    7d46:	66 2e 0f 1f 84 00 00 	cs nopw 0x0(%rax,%rax,1)
    7d4d:	00 00 00 
    7d50:	48 83 ea 01          	sub    $0x1,%rdx
    7d54:	0f 84 46 02 00 00    	je     7fa0 <mpz_powm+0x420>
    7d5a:	48 83 7c d0 f8 00    	cmpq   $0x0,-0x8(%rax,%rdx,8)
    7d60:	74 ee                	je     7d50 <mpz_powm+0x1d0>
    7d62:	89 94 24 84 00 00 00 	mov    %edx,0x84(%rsp)
    7d69:	eb 26                	jmp    7d91 <mpz_powm+0x211>
    7d6b:	48 c7 44 24 38 00 00 	movq   $0x0,0x38(%rsp)
    7d72:	00 00 
    7d74:	89 d8                	mov    %ebx,%eax
    7d76:	e9 5a ff ff ff       	jmp    7cd5 <mpz_powm+0x155>
    7d7b:	4c 89 fa             	mov    %r15,%rdx
    7d7e:	48 89 ee             	mov    %rbp,%rsi
    7d81:	4c 89 f7             	mov    %r14,%rdi
    7d84:	e8 00 00 00 00       	call   7d89 <mpz_powm+0x209>
    7d89:	85 c0                	test   %eax,%eax
    7d8b:	0f 84 c2 02 00 00    	je     8053 <mpz_powm+0x4d3>
    7d91:	4c 8d 7c 24 70       	lea    0x70(%rsp),%r15
    7d96:	be 01 00 00 00       	mov    $0x1,%esi
    7d9b:	4c 89 6c 24 78       	mov    %r13,0x78(%rsp)
    7da0:	48 b8 00 00 00 00 01 	movabs $0x100000000,%rax
    7da7:	00 00 00 
    7daa:	4c 89 ff             	mov    %r15,%rdi
    7dad:	48 89 44 24 70       	mov    %rax,0x70(%rsp)
    7db2:	e8 f9 85 ff ff       	call   3b0 <mpz_realloc>
    7db7:	48 c7 00 01 00 00 00 	movq   $0x1,(%rax)
    7dbe:	89 d8                	mov    %ebx,%eax
    7dc0:	f7 d8                	neg    %eax
    7dc2:	0f 48 c3             	cmovs  %ebx,%eax
    7dc5:	83 e8 01             	sub    $0x1,%eax
    7dc8:	48 98                	cltq   
    7dca:	48 89 44 24 20       	mov    %rax,0x20(%rsp)
    7dcf:	90                   	nop
    7dd0:	48 8b 44 24 28       	mov    0x28(%rsp),%rax
    7dd5:	48 8b 4c 24 20       	mov    0x20(%rsp),%rcx
    7dda:	bd 40 00 00 00       	mov    $0x40,%ebp
    7ddf:	48 bb 00 00 00 00 00 	movabs $0x8000000000000000,%rbx
    7de6:	00 00 80 
    7de9:	48 8b 40 08          	mov    0x8(%rax),%rax
    7ded:	4c 8b 2c c8          	mov    (%rax,%rcx,8),%r13
    7df1:	eb 17                	jmp    7e0a <mpz_powm+0x28a>
    7df3:	0f 1f 44 00 00       	nopl   0x0(%rax,%rax,1)
    7df8:	48 63 54 24 74       	movslq 0x74(%rsp),%rdx
    7dfd:	41 39 d4             	cmp    %edx,%r12d
    7e00:	7c 33                	jl     7e35 <mpz_powm+0x2b5>
    7e02:	48 d1 eb             	shr    %rbx
    7e05:	83 ed 01             	sub    $0x1,%ebp
    7e08:	74 76                	je     7e80 <mpz_powm+0x300>
    7e0a:	4c 89 fa             	mov    %r15,%rdx
    7e0d:	4c 89 fe             	mov    %r15,%rsi
    7e10:	4c 89 ff             	mov    %r15,%rdi
    7e13:	e8 00 00 00 00       	call   7e18 <mpz_powm+0x298>
    7e18:	4c 85 eb             	test   %r13,%rbx
    7e1b:	74 db                	je     7df8 <mpz_powm+0x278>
    7e1d:	4c 89 f2             	mov    %r14,%rdx
    7e20:	4c 89 fe             	mov    %r15,%rsi
    7e23:	4c 89 ff             	mov    %r15,%rdi
    7e26:	e8 00 00 00 00       	call   7e2b <mpz_powm+0x2ab>
    7e2b:	48 63 54 24 74       	movslq 0x74(%rsp),%rdx
    7e30:	41 39 d4             	cmp    %edx,%r12d
    7e33:	7d cd                	jge    7e02 <mpz_powm+0x282>
    7e35:	48 8b 74 24 78       	mov    0x78(%rsp),%rsi
    7e3a:	4c 8b 4c 24 18       	mov    0x18(%rsp),%r9
    7e3f:	31 ff                	xor    %edi,%edi
    7e41:	4c 8b 04 24          	mov    (%rsp),%r8
    7e45:	48 8b 4c 24 10       	mov    0x10(%rsp),%rcx
    7e4a:	48 89 74 24 08       	mov    %rsi,0x8(%rsp)
    7e4f:	e8 bc 9c ff ff       	call   1b10 <mpn_div_qr_preinv>
    7e54:	48 8b 04 24          	mov    (%rsp),%rax
    7e58:	48 8b 74 24 08       	mov    0x8(%rsp),%rsi
    7e5d:	0f 1f 00             	nopl   (%rax)
    7e60:	48 83 7c c6 f8 00    	cmpq   $0x0,-0x8(%rsi,%rax,8)
    7e66:	75 08                	jne    7e70 <mpz_powm+0x2f0>
    7e68:	48 83 e8 01          	sub    $0x1,%rax
    7e6c:	75 f2                	jne    7e60 <mpz_powm+0x2e0>
    7e6e:	31 c0                	xor    %eax,%eax
    7e70:	89 44 24 74          	mov    %eax,0x74(%rsp)
    7e74:	48 d1 eb             	shr    %rbx
    7e77:	83 ed 01             	sub    $0x1,%ebp
    7e7a:	75 8e                	jne    7e0a <mpz_powm+0x28a>
    7e7c:	0f 1f 40 00          	nopl   0x0(%rax)
    7e80:	48 83 6c 24 20 01    	subq   $0x1,0x20(%rsp)
    7e86:	48 8b 44 24 20       	mov    0x20(%rsp),%rax
    7e8b:	48 83 f8 ff          	cmp    $0xffffffffffffffff,%rax
    7e8f:	0f 85 3b ff ff ff    	jne    7dd0 <mpz_powm+0x250>
    7e95:	8b 5c 24 74          	mov    0x74(%rsp),%ebx
    7e99:	48 8b 6c 24 78       	mov    0x78(%rsp),%rbp
    7e9e:	41 39 dc             	cmp    %ebx,%r12d
    7ea1:	0f 8e bc 00 00 00    	jle    7f63 <mpz_powm+0x3e3>
    7ea7:	48 8b 7c 24 38       	mov    0x38(%rsp),%rdi
    7eac:	48 85 ff             	test   %rdi,%rdi
    7eaf:	74 0e                	je     7ebf <mpz_powm+0x33f>
    7eb1:	48 8b 34 24          	mov    (%rsp),%rsi
    7eb5:	48 c1 e6 03          	shl    $0x3,%rsi
    7eb9:	ff 15 00 00 00 00    	call   *0x0(%rip)        # 7ebf <mpz_powm+0x33f>
    7ebf:	48 8b 4c 24 30       	mov    0x30(%rsp),%rcx
    7ec4:	8b 54 24 70          	mov    0x70(%rsp),%edx
    7ec8:	48 63 01             	movslq (%rcx),%rax
    7ecb:	48 8b 79 08          	mov    0x8(%rcx),%rdi
    7ecf:	89 11                	mov    %edx,(%rcx)
    7ed1:	48 89 69 08          	mov    %rbp,0x8(%rcx)
    7ed5:	89 59 04             	mov    %ebx,0x4(%rcx)
    7ed8:	85 c0                	test   %eax,%eax
    7eda:	74 0e                	je     7eea <mpz_powm+0x36a>
    7edc:	48 8d 34 c5 00 00 00 	lea    0x0(,%rax,8),%rsi
    7ee3:	00 
    7ee4:	ff 15 00 00 00 00    	call   *0x0(%rip)        # 7eea <mpz_powm+0x36a>
    7eea:	48 63 84 24 80 00 00 	movslq 0x80(%rsp),%rax
    7ef1:	00 
    7ef2:	85 c0                	test   %eax,%eax
    7ef4:	0f 84 32 fd ff ff    	je     7c2c <mpz_powm+0xac>
    7efa:	48 8b bc 24 88 00 00 	mov    0x88(%rsp),%rdi
    7f01:	00 
    7f02:	48 8d 34 c5 00 00 00 	lea    0x0(,%rax,8),%rsi
    7f09:	00 
    7f0a:	ff 15 00 00 00 00    	call   *0x0(%rip)        # 7f10 <mpz_powm+0x390>
    7f10:	e9 17 fd ff ff       	jmp    7c2c <mpz_powm+0xac>
    7f15:	48 8b 84 24 88 00 00 	mov    0x88(%rsp),%rax
    7f1c:	00 
    7f1d:	4c 8b 3c 24          	mov    (%rsp),%r15
    7f21:	31 ff                	xor    %edi,%edi
    7f23:	4c 8b 4c 24 18       	mov    0x18(%rsp),%r9
    7f28:	48 8b 4c 24 10       	mov    0x10(%rsp),%rcx
    7f2d:	4d 89 f8             	mov    %r15,%r8
    7f30:	48 89 c6             	mov    %rax,%rsi
    7f33:	48 89 44 24 08       	mov    %rax,0x8(%rsp)
    7f38:	e8 d3 9b ff ff       	call   1b10 <mpn_div_qr_preinv>
    7f3d:	8b 55 04             	mov    0x4(%rbp),%edx
    7f40:	85 d2                	test   %edx,%edx
    7f42:	78 6a                	js     7fae <mpz_powm+0x42e>
    7f44:	48 8b 44 24 08       	mov    0x8(%rsp),%rax
    7f49:	4c 89 fa             	mov    %r15,%rdx
    7f4c:	e9 09 fe ff ff       	jmp    7d5a <mpz_powm+0x1da>
    7f51:	be 01 00 00 00       	mov    $0x1,%esi
    7f56:	48 89 c7             	mov    %rax,%rdi
    7f59:	e8 52 84 ff ff       	call   3b0 <mpz_realloc>
    7f5e:	e9 a1 fc ff ff       	jmp    7c04 <mpz_powm+0x84>
    7f63:	8b 44 24 44          	mov    0x44(%rsp),%eax
    7f67:	4c 8b 4c 24 18       	mov    0x18(%rsp),%r9
    7f6c:	48 63 d3             	movslq %ebx,%rdx
    7f6f:	48 89 ee             	mov    %rbp,%rsi
    7f72:	4c 8b 04 24          	mov    (%rsp),%r8
    7f76:	48 8b 4c 24 10       	mov    0x10(%rsp),%rcx
    7f7b:	31 ff                	xor    %edi,%edi
    7f7d:	89 44 24 50          	mov    %eax,0x50(%rsp)
    7f81:	e8 8a 9b ff ff       	call   1b10 <mpn_div_qr_preinv>
    7f86:	48 8b 44 24 48       	mov    0x48(%rsp),%rax
    7f8b:	48 83 7c c5 f8 00    	cmpq   $0x0,-0x8(%rbp,%rax,8)
    7f91:	75 5b                	jne    7fee <mpz_powm+0x46e>
    7f93:	48 83 e8 01          	sub    $0x1,%rax
    7f97:	75 f2                	jne    7f8b <mpz_powm+0x40b>
    7f99:	31 db                	xor    %ebx,%ebx
    7f9b:	e9 07 ff ff ff       	jmp    7ea7 <mpz_powm+0x327>
    7fa0:	31 d2                	xor    %edx,%edx
    7fa2:	89 94 24 84 00 00 00 	mov    %edx,0x84(%rsp)
    7fa9:	e9 e3 fd ff ff       	jmp    7d91 <mpz_powm+0x211>
    7fae:	48 8b 14 24          	mov    (%rsp),%rdx
    7fb2:	48 8b bc 24 88 00 00 	mov    0x88(%rsp),%rdi
    7fb9:	00 
    7fba:	44 3b a4 24 80 00 00 	cmp    0x80(%rsp),%r12d
    7fc1:	00 
    7fc2:	7f 31                	jg     7ff5 <mpz_powm+0x475>
    7fc4:	49 89 d0             	mov    %rdx,%r8
    7fc7:	48 8b 74 24 10       	mov    0x10(%rsp),%rsi
    7fcc:	48 8b 14 24          	mov    (%rsp),%rdx
    7fd0:	48 89 f9             	mov    %rdi,%rcx
    7fd3:	e8 00 00 00 00       	call   7fd8 <mpz_powm+0x458>
    7fd8:	48 85 c0             	test   %rax,%rax
    7fdb:	75 33                	jne    8010 <mpz_powm+0x490>
    7fdd:	48 8b 84 24 88 00 00 	mov    0x88(%rsp),%rax
    7fe4:	00 
    7fe5:	48 8b 14 24          	mov    (%rsp),%rdx
    7fe9:	e9 6c fd ff ff       	jmp    7d5a <mpz_powm+0x1da>
    7fee:	89 c3                	mov    %eax,%ebx
    7ff0:	e9 b2 fe ff ff       	jmp    7ea7 <mpz_powm+0x327>
    7ff5:	48 8b 34 24          	mov    (%rsp),%rsi
    7ff9:	4c 89 f7             	mov    %r14,%rdi
    7ffc:	48 89 54 24 08       	mov    %rdx,0x8(%rsp)
    8001:	e8 aa 83 ff ff       	call   3b0 <mpz_realloc>
    8006:	48 8b 54 24 08       	mov    0x8(%rsp),%rdx
    800b:	48 89 c7             	mov    %rax,%rdi
    800e:	eb b4                	jmp    7fc4 <mpz_powm+0x444>
    8010:	48 8d 0d 00 00 00 00 	lea    0x0(%rip),%rcx        # 8017 <mpz_powm+0x497>
    8017:	ba 51 0c 00 00       	mov    $0xc51,%edx
    801c:	48 8d 35 00 00 00 00 	lea    0x0(%rip),%rsi        # 8023 <mpz_powm+0x4a3>
    8023:	48 8d 3d 00 00 00 00 	lea    0x0(%rip),%rdi        # 802a <mpz_powm+0x4aa>
    802a:	e8 00 00 00 00       	call   802f <mpz_powm+0x4af>
    802f:	48 8d 0d 00 00 00 00 	lea    0x0(%rip),%rcx        # 8036 <mpz_powm+0x4b6>
    8036:	ba 34 0c 00 00       	mov    $0xc34,%edx
    803b:	48 8d 35 00 00 00 00 	lea    0x0(%rip),%rsi        # 8042 <mpz_powm+0x4c2>
    8042:	48 8d 3d 00 00 00 00 	lea    0x0(%rip),%rdi        # 8049 <mpz_powm+0x4c9>
    8049:	e8 00 00 00 00       	call   804e <mpz_powm+0x4ce>
    804e:	e8 00 00 00 00       	call   8053 <mpz_powm+0x4d3>
    8053:	48 8d 3d 00 00 00 00 	lea    0x0(%rip),%rdi        # 805a <mpz_powm+0x4da>
    805a:	e8 f1 80 ff ff       	call   150 <gmp_die>
    805f:	48 8d 3d 00 00 00 00 	lea    0x0(%rip),%rdi        # 8066 <mpz_powm+0x4e6>
    8066:	e8 e5 80 ff ff       	call   150 <gmp_die>
    806b:	0f 1f 44 00 00       	nopl   0x0(%rax,%rax,1)

0000000000008070 <mpz_powm_ui>:
    8070:	f3 0f 1e fa          	endbr64 
    8074:	41 56                	push   %r14
    8076:	41 55                	push   %r13
    8078:	49 89 cd             	mov    %rcx,%r13
    807b:	41 54                	push   %r12
    807d:	49 89 f4             	mov    %rsi,%r12
    8080:	55                   	push   %rbp
    8081:	48 89 fd             	mov    %rdi,%rbp
    8084:	53                   	push   %rbx
    8085:	48 83 ec 20          	sub    $0x20,%rsp
    8089:	64 48 8b 04 25 28 00 	mov    %fs:0x28,%rax
    8090:	00 00 
    8092:	48 89 44 24 18       	mov    %rax,0x18(%rsp)
    8097:	31 c0                	xor    %eax,%eax
    8099:	48 8d 05 00 00 00 00 	lea    0x0(%rip),%rax        # 80a0 <mpz_powm_ui+0x30>
    80a0:	49 89 e6             	mov    %rsp,%r14
    80a3:	48 c7 04 24 00 00 00 	movq   $0x0,(%rsp)
    80aa:	00 
    80ab:	48 89 44 24 08       	mov    %rax,0x8(%rsp)
    80b0:	48 85 d2             	test   %rdx,%rdx
    80b3:	74 1b                	je     80d0 <mpz_powm_ui+0x60>
    80b5:	be 01 00 00 00       	mov    $0x1,%esi
    80ba:	4c 89 f7             	mov    %r14,%rdi
    80bd:	48 89 d3             	mov    %rdx,%rbx
    80c0:	c7 44 24 04 01 00 00 	movl   $0x1,0x4(%rsp)
    80c7:	00 
    80c8:	e8 e3 82 ff ff       	call   3b0 <mpz_realloc>
    80cd:	48 89 18             	mov    %rbx,(%rax)
    80d0:	4c 89 e6             	mov    %r12,%rsi
    80d3:	4c 89 e9             	mov    %r13,%rcx
    80d6:	4c 89 f2             	mov    %r14,%rdx
    80d9:	48 89 ef             	mov    %rbp,%rdi
    80dc:	e8 00 00 00 00       	call   80e1 <mpz_powm_ui+0x71>
    80e1:	48 63 34 24          	movslq (%rsp),%rsi
    80e5:	85 f6                	test   %esi,%esi
    80e7:	74 2f                	je     8118 <mpz_powm_ui+0xa8>
    80e9:	48 8b 44 24 18       	mov    0x18(%rsp),%rax
    80ee:	64 48 2b 04 25 28 00 	sub    %fs:0x28,%rax
    80f5:	00 00 
    80f7:	75 3c                	jne    8135 <mpz_powm_ui+0xc5>
    80f9:	48 8b 7c 24 08       	mov    0x8(%rsp),%rdi
    80fe:	48 83 c4 20          	add    $0x20,%rsp
    8102:	48 c1 e6 03          	shl    $0x3,%rsi
    8106:	5b                   	pop    %rbx
    8107:	5d                   	pop    %rbp
    8108:	41 5c                	pop    %r12
    810a:	41 5d                	pop    %r13
    810c:	41 5e                	pop    %r14
    810e:	ff 25 00 00 00 00    	jmp    *0x0(%rip)        # 8114 <mpz_powm_ui+0xa4>
    8114:	0f 1f 40 00          	nopl   0x0(%rax)
    8118:	48 8b 44 24 18       	mov    0x18(%rsp),%rax
    811d:	64 48 2b 04 25 28 00 	sub    %fs:0x28,%rax
    8124:	00 00 
    8126:	75 0d                	jne    8135 <mpz_powm_ui+0xc5>
    8128:	48 83 c4 20          	add    $0x20,%rsp
    812c:	5b                   	pop    %rbx
    812d:	5d                   	pop    %rbp
    812e:	41 5c                	pop    %r12
    8130:	41 5d                	pop    %r13
    8132:	41 5e                	pop    %r14
    8134:	c3                   	ret    
    8135:	e8 00 00 00 00       	call   813a <mpz_powm_ui+0xca>
    813a:	66 0f 1f 44 00 00    	nopw   0x0(%rax,%rax,1)

0000000000008140 <gmp_millerrabin>:
    8140:	41 57                	push   %r15
    8142:	41 56                	push   %r14
    8144:	41 55                	push   %r13
    8146:	41 54                	push   %r12
    8148:	55                   	push   %rbp
    8149:	53                   	push   %rbx
    814a:	48 83 ec 28          	sub    $0x28,%rsp
    814e:	64 48 8b 04 25 28 00 	mov    %fs:0x28,%rax
    8155:	00 00 
    8157:	48 89 44 24 18       	mov    %rax,0x18(%rsp)
    815c:	31 c0                	xor    %eax,%eax
    815e:	4d 85 c0             	test   %r8,%r8
    8161:	0f 84 0a 01 00 00    	je     8271 <gmp_millerrabin+0x131>
    8167:	48 89 d3             	mov    %rdx,%rbx
    816a:	49 89 fd             	mov    %rdi,%r13
    816d:	48 89 ca             	mov    %rcx,%rdx
    8170:	49 89 f6             	mov    %rsi,%r14
    8173:	48 89 f9             	mov    %rdi,%rcx
    8176:	48 89 de             	mov    %rbx,%rsi
    8179:	48 89 df             	mov    %rbx,%rdi
    817c:	4c 89 c5             	mov    %r8,%rbp
    817f:	e8 00 00 00 00       	call   8184 <gmp_millerrabin+0x44>
    8184:	8b 43 04             	mov    0x4(%rbx),%eax
    8187:	83 f8 01             	cmp    $0x1,%eax
    818a:	7f 08                	jg     8194 <gmp_millerrabin+0x54>
    818c:	85 c0                	test   %eax,%eax
    818e:	0f 8f bc 00 00 00    	jg     8250 <gmp_millerrabin+0x110>
    8194:	4c 89 f6             	mov    %r14,%rsi
    8197:	48 89 df             	mov    %rbx,%rdi
    819a:	4c 8d 3d 00 00 00 00 	lea    0x0(%rip),%r15        # 81a1 <gmp_millerrabin+0x61>
    81a1:	49 89 e4             	mov    %rsp,%r12
    81a4:	e8 00 00 00 00       	call   81a9 <gmp_millerrabin+0x69>
    81a9:	85 c0                	test   %eax,%eax
    81ab:	0f 85 91 00 00 00    	jne    8242 <gmp_millerrabin+0x102>
    81b1:	b8 01 00 00 00       	mov    $0x1,%eax
    81b6:	48 8b 54 24 18       	mov    0x18(%rsp),%rdx
    81bb:	64 48 2b 14 25 28 00 	sub    %fs:0x28,%rdx
    81c2:	00 00 
    81c4:	0f 85 c6 00 00 00    	jne    8290 <gmp_millerrabin+0x150>
    81ca:	48 83 c4 28          	add    $0x28,%rsp
    81ce:	5b                   	pop    %rbx
    81cf:	5d                   	pop    %rbp
    81d0:	41 5c                	pop    %r12
    81d2:	41 5d                	pop    %r13
    81d4:	41 5e                	pop    %r14
    81d6:	41 5f                	pop    %r15
    81d8:	c3                   	ret    
    81d9:	0f 1f 80 00 00 00 00 	nopl   0x0(%rax)
    81e0:	be 01 00 00 00       	mov    $0x1,%esi
    81e5:	4c 89 e7             	mov    %r12,%rdi
    81e8:	4c 89 7c 24 08       	mov    %r15,0x8(%rsp)
    81ed:	48 b8 00 00 00 00 01 	movabs $0x100000000,%rax
    81f4:	00 00 00 
    81f7:	48 89 04 24          	mov    %rax,(%rsp)
    81fb:	e8 b0 81 ff ff       	call   3b0 <mpz_realloc>
    8200:	48 89 de             	mov    %rbx,%rsi
    8203:	4c 89 e9             	mov    %r13,%rcx
    8206:	4c 89 e2             	mov    %r12,%rdx
    8209:	48 c7 00 02 00 00 00 	movq   $0x2,(%rax)
    8210:	48 89 df             	mov    %rbx,%rdi
    8213:	e8 00 00 00 00       	call   8218 <gmp_millerrabin+0xd8>
    8218:	48 63 34 24          	movslq (%rsp),%rsi
    821c:	85 f6                	test   %esi,%esi
    821e:	74 0f                	je     822f <gmp_millerrabin+0xef>
    8220:	48 8b 7c 24 08       	mov    0x8(%rsp),%rdi
    8225:	48 c1 e6 03          	shl    $0x3,%rsi
    8229:	ff 15 00 00 00 00    	call   *0x0(%rip)        # 822f <gmp_millerrabin+0xef>
    822f:	4c 89 f6             	mov    %r14,%rsi
    8232:	48 89 df             	mov    %rbx,%rdi
    8235:	e8 00 00 00 00       	call   823a <gmp_millerrabin+0xfa>
    823a:	85 c0                	test   %eax,%eax
    823c:	0f 84 6f ff ff ff    	je     81b1 <gmp_millerrabin+0x71>
    8242:	48 83 ed 01          	sub    $0x1,%rbp
    8246:	75 98                	jne    81e0 <gmp_millerrabin+0xa0>
    8248:	31 c0                	xor    %eax,%eax
    824a:	e9 67 ff ff ff       	jmp    81b6 <gmp_millerrabin+0x76>
    824f:	90                   	nop
    8250:	48 8b 43 08          	mov    0x8(%rbx),%rax
    8254:	48 8b 00             	mov    (%rax),%rax
    8257:	48 83 f8 01          	cmp    $0x1,%rax
    825b:	0f 97 c2             	seta   %dl
    825e:	48 85 c0             	test   %rax,%rax
    8261:	0f 94 c0             	sete   %al
    8264:	38 c2                	cmp    %al,%dl
    8266:	0f 84 45 ff ff ff    	je     81b1 <gmp_millerrabin+0x71>
    826c:	e9 23 ff ff ff       	jmp    8194 <gmp_millerrabin+0x54>
    8271:	48 8d 0d 00 00 00 00 	lea    0x0(%rip),%rcx        # 8278 <gmp_millerrabin+0x138>
    8278:	ba e6 0d 00 00       	mov    $0xde6,%edx
    827d:	48 8d 35 00 00 00 00 	lea    0x0(%rip),%rsi        # 8284 <gmp_millerrabin+0x144>
    8284:	48 8d 3d 00 00 00 00 	lea    0x0(%rip),%rdi        # 828b <gmp_millerrabin+0x14b>
    828b:	e8 00 00 00 00       	call   8290 <gmp_millerrabin+0x150>
    8290:	e8 00 00 00 00       	call   8295 <gmp_millerrabin+0x155>
    8295:	66 66 2e 0f 1f 84 00 	data16 cs nopw 0x0(%rax,%rax,1)
    829c:	00 00 00 00 

00000000000082a0 <mpz_probab_prime_p>:
    82a0:	f3 0f 1e fa          	endbr64 
    82a4:	41 57                	push   %r15
    82a6:	41 56                	push   %r14
    82a8:	41 55                	push   %r13
    82aa:	41 54                	push   %r12
    82ac:	55                   	push   %rbp
    82ad:	53                   	push   %rbx
    82ae:	48 81 ec d8 00 00 00 	sub    $0xd8,%rsp
    82b5:	48 8b 57 08          	mov    0x8(%rdi),%rdx
    82b9:	89 74 24 20          	mov    %esi,0x20(%rsp)
    82bd:	48 8b 0a             	mov    (%rdx),%rcx
    82c0:	64 48 8b 04 25 28 00 	mov    %fs:0x28,%rax
    82c7:	00 00 
    82c9:	48 89 84 24 c8 00 00 	mov    %rax,0xc8(%rsp)
    82d0:	00 
    82d1:	8b 47 04             	mov    0x4(%rdi),%eax
    82d4:	89 c2                	mov    %eax,%edx
    82d6:	f7 da                	neg    %edx
    82d8:	0f 48 d0             	cmovs  %eax,%edx
    82db:	31 f6                	xor    %esi,%esi
    82dd:	85 c0                	test   %eax,%eax
    82df:	40 0f 95 c6          	setne  %sil
    82e3:	85 ce                	test   %ecx,%esi
    82e5:	0f 84 49 02 00 00    	je     8534 <mpz_probab_prime_p+0x294>
    82eb:	48 89 fd             	mov    %rdi,%rbp
    82ee:	83 fa 01             	cmp    $0x1,%edx
    82f1:	0f 84 09 02 00 00    	je     8500 <mpz_probab_prime_p+0x260>
    82f7:	4c 8d b4 24 b0 00 00 	lea    0xb0(%rsp),%r14
    82fe:	00 
    82ff:	48 8d 05 00 00 00 00 	lea    0x0(%rip),%rax        # 8306 <mpz_probab_prime_p+0x66>
    8306:	be 01 00 00 00       	mov    $0x1,%esi
    830b:	48 89 84 24 b8 00 00 	mov    %rax,0xb8(%rsp)
    8312:	00 
    8313:	4c 89 f7             	mov    %r14,%rdi
    8316:	48 b8 00 00 00 00 01 	movabs $0x100000000,%rax
    831d:	00 00 00 
    8320:	48 89 84 24 b0 00 00 	mov    %rax,0xb0(%rsp)
    8327:	00 
    8328:	e8 83 80 ff ff       	call   3b0 <mpz_realloc>
    832d:	b9 97 d7 cf c0       	mov    $0xc0cfd797,%ecx
    8332:	4c 89 f2             	mov    %r14,%rdx
    8335:	48 89 ee             	mov    %rbp,%rsi
    8338:	48 89 08             	mov    %rcx,(%rax)
    833b:	4c 89 f7             	mov    %r14,%rdi
    833e:	e8 00 00 00 00       	call   8343 <mpz_probab_prime_p+0xa3>
    8343:	8b 9c 24 b4 00 00 00 	mov    0xb4(%rsp),%ebx
    834a:	85 db                	test   %ebx,%ebx
    834c:	0f 84 87 01 00 00    	je     84d9 <mpz_probab_prime_p+0x239>
    8352:	48 8b bc 24 b8 00 00 	mov    0xb8(%rsp),%rdi
    8359:	00 
    835a:	48 63 84 24 b0 00 00 	movslq 0xb0(%rsp),%rax
    8361:	00 
    8362:	48 8b 1f             	mov    (%rdi),%rbx
    8365:	85 c0                	test   %eax,%eax
    8367:	0f 85 ed 01 00 00    	jne    855a <mpz_probab_prime_p+0x2ba>
    836d:	48 83 fb 01          	cmp    $0x1,%rbx
    8371:	0f 85 84 01 00 00    	jne    84fb <mpz_probab_prime_p+0x25b>
    8377:	8b 45 04             	mov    0x4(%rbp),%eax
    837a:	48 8b 4d 08          	mov    0x8(%rbp),%rcx
    837e:	89 c2                	mov    %eax,%edx
    8380:	f7 da                	neg    %edx
    8382:	0f 48 d0             	cmovs  %eax,%edx
    8385:	83 fa 01             	cmp    $0x1,%edx
    8388:	0f 8e df 01 00 00    	jle    856d <mpz_probab_prime_p+0x2cd>
    838e:	4c 8d 6c 24 50       	lea    0x50(%rsp),%r13
    8393:	48 8d 1d 00 00 00 00 	lea    0x0(%rip),%rbx        # 839a <mpz_probab_prime_p+0xfa>
    839a:	48 89 ee             	mov    %rbp,%rsi
    839d:	48 c7 44 24 50 00 00 	movq   $0x0,0x50(%rsp)
    83a4:	00 00 
    83a6:	4c 89 ef             	mov    %r13,%rdi
    83a9:	48 89 5c 24 58       	mov    %rbx,0x58(%rsp)
    83ae:	4c 8d 7c 24 60       	lea    0x60(%rsp),%r15
    83b3:	4c 8d 64 24 70       	lea    0x70(%rsp),%r12
    83b8:	48 c7 44 24 60 00 00 	movq   $0x0,0x60(%rsp)
    83bf:	00 00 
    83c1:	48 89 5c 24 68       	mov    %rbx,0x68(%rsp)
    83c6:	e8 00 00 00 00       	call   83cb <mpz_probab_prime_p+0x12b>
    83cb:	8b 54 24 54          	mov    0x54(%rsp),%edx
    83cf:	89 d0                	mov    %edx,%eax
    83d1:	f7 d8                	neg    %eax
    83d3:	0f 48 c2             	cmovs  %edx,%eax
    83d6:	48 8b 54 24 58       	mov    0x58(%rsp),%rdx
    83db:	45 31 c0             	xor    %r8d,%r8d
    83de:	31 c9                	xor    %ecx,%ecx
    83e0:	31 f6                	xor    %esi,%esi
    83e2:	89 44 24 54          	mov    %eax,0x54(%rsp)
    83e6:	48 8b 02             	mov    (%rdx),%rax
    83e9:	48 8d 78 ff          	lea    -0x1(%rax),%rdi
    83ed:	48 89 3a             	mov    %rdi,(%rdx)
    83f0:	e8 bb 7d ff ff       	call   1b0 <mpn_common_scan>
    83f5:	b9 02 00 00 00       	mov    $0x2,%ecx
    83fa:	4c 89 ee             	mov    %r13,%rsi
    83fd:	4c 89 ff             	mov    %r15,%rdi
    8400:	48 89 c2             	mov    %rax,%rdx
    8403:	48 89 04 24          	mov    %rax,(%rsp)
    8407:	4c 89 7c 24 10       	mov    %r15,0x10(%rsp)
    840c:	e8 cf aa ff ff       	call   2ee0 <mpz_div_q_2exp>
    8411:	be 01 00 00 00       	mov    $0x1,%esi
    8416:	4c 89 e7             	mov    %r12,%rdi
    8419:	48 b8 00 00 00 00 01 	movabs $0x100000000,%rax
    8420:	00 00 00 
    8423:	48 89 5c 24 78       	mov    %rbx,0x78(%rsp)
    8428:	48 89 44 24 70       	mov    %rax,0x70(%rsp)
    842d:	e8 7e 7f ff ff       	call   3b0 <mpz_realloc>
    8432:	4c 8b 04 24          	mov    (%rsp),%r8
    8436:	4c 89 f9             	mov    %r15,%rcx
    8439:	4c 89 e2             	mov    %r12,%rdx
    843c:	48 c7 00 02 00 00 00 	movq   $0x2,(%rax)
    8443:	4c 89 ee             	mov    %r13,%rsi
    8446:	48 89 ef             	mov    %rbp,%rdi
    8449:	e8 f2 fc ff ff       	call   8140 <gmp_millerrabin>
    844e:	85 c0                	test   %eax,%eax
    8450:	0f 85 4a 01 00 00    	jne    85a0 <mpz_probab_prime_p+0x300>
    8456:	45 31 f6             	xor    %r14d,%r14d
    8459:	48 63 44 24 50       	movslq 0x50(%rsp),%rax
    845e:	85 c0                	test   %eax,%eax
    8460:	74 13                	je     8475 <mpz_probab_prime_p+0x1d5>
    8462:	48 8b 7c 24 58       	mov    0x58(%rsp),%rdi
    8467:	48 8d 34 c5 00 00 00 	lea    0x0(,%rax,8),%rsi
    846e:	00 
    846f:	ff 15 00 00 00 00    	call   *0x0(%rip)        # 8475 <mpz_probab_prime_p+0x1d5>
    8475:	48 63 44 24 60       	movslq 0x60(%rsp),%rax
    847a:	85 c0                	test   %eax,%eax
    847c:	74 13                	je     8491 <mpz_probab_prime_p+0x1f1>
    847e:	48 8b 7c 24 68       	mov    0x68(%rsp),%rdi
    8483:	48 8d 34 c5 00 00 00 	lea    0x0(,%rax,8),%rsi
    848a:	00 
    848b:	ff 15 00 00 00 00    	call   *0x0(%rip)        # 8491 <mpz_probab_prime_p+0x1f1>
    8491:	48 63 44 24 70       	movslq 0x70(%rsp),%rax
    8496:	85 c0                	test   %eax,%eax
    8498:	74 13                	je     84ad <mpz_probab_prime_p+0x20d>
    849a:	48 8b 7c 24 78       	mov    0x78(%rsp),%rdi
    849f:	48 8d 34 c5 00 00 00 	lea    0x0(,%rax,8),%rsi
    84a6:	00 
    84a7:	ff 15 00 00 00 00    	call   *0x0(%rip)        # 84ad <mpz_probab_prime_p+0x20d>
    84ad:	48 8b 84 24 c8 00 00 	mov    0xc8(%rsp),%rax
    84b4:	00 
    84b5:	64 48 2b 04 25 28 00 	sub    %fs:0x28,%rax
    84bc:	00 00 
    84be:	0f 85 de 0a 00 00    	jne    8fa2 <mpz_probab_prime_p+0xd02>
    84c4:	48 81 c4 d8 00 00 00 	add    $0xd8,%rsp
    84cb:	44 89 f0             	mov    %r14d,%eax
    84ce:	5b                   	pop    %rbx
    84cf:	5d                   	pop    %rbp
    84d0:	41 5c                	pop    %r12
    84d2:	41 5d                	pop    %r13
    84d4:	41 5e                	pop    %r14
    84d6:	41 5f                	pop    %r15
    84d8:	c3                   	ret    
    84d9:	44 8b b4 24 b0 00 00 	mov    0xb0(%rsp),%r14d
    84e0:	00 
    84e1:	45 85 f6             	test   %r14d,%r14d
    84e4:	74 c7                	je     84ad <mpz_probab_prime_p+0x20d>
    84e6:	49 63 f6             	movslq %r14d,%rsi
    84e9:	48 8b bc 24 b8 00 00 	mov    0xb8(%rsp),%rdi
    84f0:	00 
    84f1:	48 c1 e6 03          	shl    $0x3,%rsi
    84f5:	ff 15 00 00 00 00    	call   *0x0(%rip)        # 84fb <mpz_probab_prime_p+0x25b>
    84fb:	45 31 f6             	xor    %r14d,%r14d
    84fe:	eb ad                	jmp    84ad <mpz_probab_prime_p+0x20d>
    8500:	31 c0                	xor    %eax,%eax
    8502:	48 83 f9 40          	cmp    $0x40,%rcx
    8506:	0f 97 c0             	seta   %al
    8509:	31 d2                	xor    %edx,%edx
    850b:	48 83 f9 3f          	cmp    $0x3f,%rcx
    850f:	0f 96 c2             	setbe  %dl
    8512:	29 d0                	sub    %edx,%eax
    8514:	83 f8 ff             	cmp    $0xffffffff,%eax
    8517:	0f 85 da fd ff ff    	jne    82f7 <mpz_probab_prime_p+0x57>
    851d:	48 d1 e9             	shr    %rcx
    8520:	b8 dc 96 69 c9       	mov    $0xc96996dc,%eax
    8525:	48 d3 e8             	shr    %cl,%rax
    8528:	41 89 c6             	mov    %eax,%r14d
    852b:	41 83 e6 02          	and    $0x2,%r14d
    852f:	e9 79 ff ff ff       	jmp    84ad <mpz_probab_prime_p+0x20d>
    8534:	83 fa 01             	cmp    $0x1,%edx
    8537:	7f c2                	jg     84fb <mpz_probab_prime_p+0x25b>
    8539:	85 c0                	test   %eax,%eax
    853b:	74 be                	je     84fb <mpz_probab_prime_p+0x25b>
    853d:	48 83 f9 02          	cmp    $0x2,%rcx
    8541:	0f 97 c2             	seta   %dl
    8544:	48 83 f9 01          	cmp    $0x1,%rcx
    8548:	0f 96 c0             	setbe  %al
    854b:	38 c2                	cmp    %al,%dl
    854d:	75 ac                	jne    84fb <mpz_probab_prime_p+0x25b>
    854f:	41 be 02 00 00 00    	mov    $0x2,%r14d
    8555:	e9 53 ff ff ff       	jmp    84ad <mpz_probab_prime_p+0x20d>
    855a:	48 8d 34 c5 00 00 00 	lea    0x0(,%rax,8),%rsi
    8561:	00 
    8562:	ff 15 00 00 00 00    	call   *0x0(%rip)        # 8568 <mpz_probab_prime_p+0x2c8>
    8568:	e9 00 fe ff ff       	jmp    836d <mpz_probab_prime_p+0xcd>
    856d:	85 c0                	test   %eax,%eax
    856f:	74 de                	je     854f <mpz_probab_prime_p+0x2af>
    8571:	48 8b 11             	mov    (%rcx),%rdx
    8574:	31 c0                	xor    %eax,%eax
    8576:	48 81 fa c1 03 00 00 	cmp    $0x3c1,%rdx
    857d:	0f 97 c0             	seta   %al
    8580:	48 81 fa c0 03 00 00 	cmp    $0x3c0,%rdx
    8587:	0f 96 c2             	setbe  %dl
    858a:	0f b6 d2             	movzbl %dl,%edx
    858d:	29 d0                	sub    %edx,%eax
    858f:	83 f8 ff             	cmp    $0xffffffff,%eax
    8592:	0f 85 f6 fd ff ff    	jne    838e <mpz_probab_prime_p+0xee>
    8598:	eb b5                	jmp    854f <mpz_probab_prime_p+0x2af>
    859a:	66 0f 1f 44 00 00    	nopw   0x0(%rax,%rax,1)
    85a0:	8b 45 04             	mov    0x4(%rbp),%eax
    85a3:	48 8b 55 08          	mov    0x8(%rbp),%rdx
    85a7:	c7 84 24 90 00 00 00 	movl   $0x0,0x90(%rsp)
    85ae:	00 00 00 00 
    85b2:	89 c1                	mov    %eax,%ecx
    85b4:	48 89 94 24 98 00 00 	mov    %rdx,0x98(%rsp)
    85bb:	00 
    85bc:	f7 d9                	neg    %ecx
    85be:	0f 48 c8             	cmovs  %eax,%ecx
    85c1:	85 c0                	test   %eax,%eax
    85c3:	0f 95 c0             	setne  %al
    85c6:	0f b6 c0             	movzbl %al,%eax
    85c9:	23 02                	and    (%rdx),%eax
    85cb:	89 8c 24 94 00 00 00 	mov    %ecx,0x94(%rsp)
    85d2:	89 44 24 24          	mov    %eax,0x24(%rsp)
    85d6:	0f 84 cb 09 00 00    	je     8fa7 <mpz_probab_prime_p+0xd07>
    85dc:	48 8d 05 00 00 00 00 	lea    0x0(%rip),%rax        # 85e3 <mpz_probab_prime_p+0x343>
    85e3:	b9 02 00 00 00       	mov    $0x2,%ecx
    85e8:	4c 89 f6             	mov    %r14,%rsi
    85eb:	4c 89 e7             	mov    %r12,%rdi
    85ee:	48 89 84 24 b8 00 00 	mov    %rax,0xb8(%rsp)
    85f5:	00 
    85f6:	48 8d 84 24 90 00 00 	lea    0x90(%rsp),%rax
    85fd:	00 
    85fe:	48 89 c2             	mov    %rax,%rdx
    8601:	48 89 44 24 28       	mov    %rax,0x28(%rsp)
    8606:	48 c7 84 24 b0 00 00 	movq   $0x0,0xb0(%rsp)
    860d:	00 00 00 00 00 
    8612:	e8 00 00 00 00       	call   8617 <mpz_probab_prime_p+0x377>
    8617:	48 63 84 24 b0 00 00 	movslq 0xb0(%rsp),%rax
    861e:	00 
    861f:	8b 9c 24 b4 00 00 00 	mov    0xb4(%rsp),%ebx
    8626:	85 c0                	test   %eax,%eax
    8628:	0f 85 11 06 00 00    	jne    8c3f <mpz_probab_prime_p+0x99f>
    862e:	85 db                	test   %ebx,%ebx
    8630:	0f 84 20 fe ff ff    	je     8456 <mpz_probab_prime_p+0x1b6>
    8636:	48 c7 44 24 08 ff ff 	movq   $0xffffffffffffffff,0x8(%rsp)
    863d:	ff ff 
    863f:	83 7c 24 74 01       	cmpl   $0x1,0x74(%rsp)
    8644:	0f 84 10 06 00 00    	je     8c5a <mpz_probab_prime_p+0x9ba>
    864a:	4c 89 64 24 30       	mov    %r12,0x30(%rsp)
    864f:	41 bb 03 00 00 00    	mov    $0x3,%r11d
    8655:	4c 8b 64 24 28       	mov    0x28(%rsp),%r12
    865a:	48 bb 00 00 00 00 00 	movabs $0xff00000000000000,%rbx
    8661:	00 00 ff 
    8664:	48 89 6c 24 18       	mov    %rbp,0x18(%rsp)
    8669:	41 bf 40 00 00 00    	mov    $0x40,%r15d
    866f:	4c 89 dd             	mov    %r11,%rbp
    8672:	48 3b 6c 24 08       	cmp    0x8(%rsp),%rbp
    8677:	0f 83 f3 05 00 00    	jae    8c70 <mpz_probab_prime_p+0x9d0>
    867d:	48 83 c5 02          	add    $0x2,%rbp
    8681:	41 b8 02 00 00 00    	mov    $0x2,%r8d
    8687:	4c 89 e2             	mov    %r12,%rdx
    868a:	31 f6                	xor    %esi,%esi
    868c:	48 89 e9             	mov    %rbp,%rcx
    868f:	31 ff                	xor    %edi,%edi
    8691:	e8 8a c0 ff ff       	call   4720 <mpz_div_qr_ui>
    8696:	49 89 c0             	mov    %rax,%r8
    8699:	48 85 c0             	test   %rax,%rax
    869c:	0f 84 b4 fd ff ff    	je     8456 <mpz_probab_prime_p+0x1b6>
    86a2:	48 89 c2             	mov    %rax,%rdx
    86a5:	48 89 ee             	mov    %rbp,%rsi
    86a8:	31 ff                	xor    %edi,%edi
    86aa:	48 f7 da             	neg    %rdx
    86ad:	48 d1 ee             	shr    %rsi
    86b0:	48 21 c2             	and    %rax,%rdx
    86b3:	48 85 da             	test   %rbx,%rdx
    86b6:	75 14                	jne    86cc <mpz_probab_prime_p+0x42c>
    86b8:	0f 1f 84 00 00 00 00 	nopl   0x0(%rax,%rax,1)
    86bf:	00 
    86c0:	48 c1 e2 08          	shl    $0x8,%rdx
    86c4:	83 c7 08             	add    $0x8,%edi
    86c7:	48 85 da             	test   %rbx,%rdx
    86ca:	74 f4                	je     86c0 <mpz_probab_prime_p+0x420>
    86cc:	48 85 d2             	test   %rdx,%rdx
    86cf:	78 0f                	js     86e0 <mpz_probab_prime_p+0x440>
    86d1:	0f 1f 80 00 00 00 00 	nopl   0x0(%rax)
    86d8:	83 c7 01             	add    $0x1,%edi
    86db:	48 01 d2             	add    %rdx,%rdx
    86de:	79 f8                	jns    86d8 <mpz_probab_prime_p+0x438>
    86e0:	b9 3f 00 00 00       	mov    $0x3f,%ecx
    86e5:	49 d1 e8             	shr    %r8
    86e8:	29 f9                	sub    %edi,%ecx
    86ea:	31 ff                	xor    %edi,%edi
    86ec:	0f 1f 40 00          	nopl   0x0(%rax)
    86f0:	48 89 f0             	mov    %rsi,%rax
    86f3:	4c 89 c2             	mov    %r8,%rdx
    86f6:	41 89 f0             	mov    %esi,%r8d
    86f9:	48 d1 e8             	shr    %rax
    86fc:	48 d3 ea             	shr    %cl,%rdx
    86ff:	31 f0                	xor    %esi,%eax
    8701:	21 c8                	and    %ecx,%eax
    8703:	31 c7                	xor    %eax,%edi
    8705:	48 39 f2             	cmp    %rsi,%rdx
    8708:	73 56                	jae    8760 <mpz_probab_prime_p+0x4c0>
    870a:	48 85 d2             	test   %rdx,%rdx
    870d:	0f 84 7d 00 00 00    	je     8790 <mpz_probab_prime_p+0x4f0>
    8713:	41 21 d0             	and    %edx,%r8d
    8716:	48 29 d6             	sub    %rdx,%rsi
    8719:	44 31 c7             	xor    %r8d,%edi
    871c:	49 89 f0             	mov    %rsi,%r8
    871f:	48 89 d6             	mov    %rdx,%rsi
    8722:	4c 89 c0             	mov    %r8,%rax
    8725:	31 d2                	xor    %edx,%edx
    8727:	48 f7 d8             	neg    %rax
    872a:	4c 21 c0             	and    %r8,%rax
    872d:	48 85 d8             	test   %rbx,%rax
    8730:	75 12                	jne    8744 <mpz_probab_prime_p+0x4a4>
    8732:	66 0f 1f 44 00 00    	nopw   0x0(%rax,%rax,1)
    8738:	48 c1 e0 08          	shl    $0x8,%rax
    873c:	83 c2 08             	add    $0x8,%edx
    873f:	48 85 d8             	test   %rbx,%rax
    8742:	74 f4                	je     8738 <mpz_probab_prime_p+0x498>
    8744:	48 85 c0             	test   %rax,%rax
    8747:	78 0f                	js     8758 <mpz_probab_prime_p+0x4b8>
    8749:	0f 1f 80 00 00 00 00 	nopl   0x0(%rax)
    8750:	83 c2 01             	add    $0x1,%edx
    8753:	48 01 c0             	add    %rax,%rax
    8756:	79 f8                	jns    8750 <mpz_probab_prime_p+0x4b0>
    8758:	44 89 f9             	mov    %r15d,%ecx
    875b:	29 d1                	sub    %edx,%ecx
    875d:	eb 91                	jmp    86f0 <mpz_probab_prime_p+0x450>
    875f:	90                   	nop
    8760:	48 29 f2             	sub    %rsi,%rdx
    8763:	49 89 d0             	mov    %rdx,%r8
    8766:	75 ba                	jne    8722 <mpz_probab_prime_p+0x482>
    8768:	48 8d 0d 00 00 00 00 	lea    0x0(%rip),%rcx        # 876f <mpz_probab_prime_p+0x4cf>
    876f:	ba 5a 0d 00 00       	mov    $0xd5a,%edx
    8774:	48 8d 35 00 00 00 00 	lea    0x0(%rip),%rsi        # 877b <mpz_probab_prime_p+0x4db>
    877b:	48 8d 3d 00 00 00 00 	lea    0x0(%rip),%rdi        # 8782 <mpz_probab_prime_p+0x4e2>
    8782:	e8 00 00 00 00       	call   8787 <mpz_probab_prime_p+0x4e7>
    8787:	66 0f 1f 84 00 00 00 	nopw   0x0(%rax,%rax,1)
    878e:	00 00 
    8790:	83 e7 01             	and    $0x1,%edi
    8793:	0f 84 d9 fe ff ff    	je     8672 <mpz_probab_prime_p+0x3d2>
    8799:	48 8b 94 24 98 00 00 	mov    0x98(%rsp),%rdx
    87a0:	00 
    87a1:	48 8d 05 00 00 00 00 	lea    0x0(%rip),%rax        # 87a8 <mpz_probab_prime_p+0x508>
    87a8:	31 f6                	xor    %esi,%esi
    87aa:	48 89 6c 24 08       	mov    %rbp,0x8(%rsp)
    87af:	48 63 8c 24 94 00 00 	movslq 0x94(%rsp),%rcx
    87b6:	00 
    87b7:	49 c7 c0 ff ff ff ff 	mov    $0xffffffffffffffff,%r8
    87be:	48 c7 84 24 80 00 00 	movq   $0x0,0x80(%rsp)
    87c5:	00 00 00 00 00 
    87ca:	48 8b 1a             	mov    (%rdx),%rbx
    87cd:	48 89 84 24 88 00 00 	mov    %rax,0x88(%rsp)
    87d4:	00 
    87d5:	49 89 cf             	mov    %rcx,%r15
    87d8:	48 8b 6c 24 18       	mov    0x18(%rsp),%rbp
    87dd:	4c 8b 64 24 30       	mov    0x30(%rsp),%r12
    87e2:	48 89 df             	mov    %rbx,%rdi
    87e5:	48 f7 d7             	not    %rdi
    87e8:	e8 c3 79 ff ff       	call   1b0 <mpn_common_scan>
    87ed:	4c 8b 5c 24 08       	mov    0x8(%rsp),%r11
    87f2:	48 89 44 24 18       	mov    %rax,0x18(%rsp)
    87f7:	48 89 c1             	mov    %rax,%rcx
    87fa:	4c 89 d8             	mov    %r11,%rax
    87fd:	48 c1 e8 02          	shr    $0x2,%rax
    8801:	48 89 c2             	mov    %rax,%rdx
    8804:	48 83 c0 01          	add    $0x1,%rax
    8808:	48 f7 da             	neg    %rdx
    880b:	41 83 e3 02          	and    $0x2,%r11d
    880f:	48 0f 45 d0          	cmovne %rax,%rdx
    8813:	48 89 54 24 08       	mov    %rdx,0x8(%rsp)
    8818:	48 85 c9             	test   %rcx,%rcx
    881b:	0f 84 36 07 00 00    	je     8f57 <mpz_probab_prime_p+0xcb7>
    8821:	45 85 ff             	test   %r15d,%r15d
    8824:	0f 88 eb 06 00 00    	js     8f15 <mpz_probab_prime_p+0xc75>
    882a:	41 83 ff 01          	cmp    $0x1,%r15d
    882e:	0f 8e dc 06 00 00    	jle    8f10 <mpz_probab_prime_p+0xc70>
    8834:	31 c0                	xor    %eax,%eax
    8836:	45 85 ff             	test   %r15d,%r15d
    8839:	0f 95 c0             	setne  %al
    883c:	21 d8                	and    %ebx,%eax
    883e:	89 44 24 24          	mov    %eax,0x24(%rsp)
    8842:	0f 84 a1 06 00 00    	je     8ee9 <mpz_probab_prime_p+0xc49>
    8848:	48 8d 05 00 00 00 00 	lea    0x0(%rip),%rax        # 884f <mpz_probab_prime_p+0x5af>
    884f:	4c 8d bc 24 a0 00 00 	lea    0xa0(%rsp),%r15
    8856:	00 
    8857:	be 01 00 00 00       	mov    $0x1,%esi
    885c:	48 89 84 24 a8 00 00 	mov    %rax,0xa8(%rsp)
    8863:	00 
    8864:	4c 89 ff             	mov    %r15,%rdi
    8867:	48 b8 00 00 00 00 01 	movabs $0x100000000,%rax
    886e:	00 00 00 
    8871:	48 89 84 24 a0 00 00 	mov    %rax,0xa0(%rsp)
    8878:	00 
    8879:	e8 32 7b ff ff       	call   3b0 <mpz_realloc>
    887e:	44 8b 9c 24 80 00 00 	mov    0x80(%rsp),%r11d
    8885:	00 
    8886:	48 c7 00 01 00 00 00 	movq   $0x1,(%rax)
    888d:	48 8b 84 24 88 00 00 	mov    0x88(%rsp),%rax
    8894:	00 
    8895:	c7 84 24 84 00 00 00 	movl   $0x1,0x84(%rsp)
    889c:	01 00 00 00 
    88a0:	45 85 db             	test   %r11d,%r11d
    88a3:	0f 8e df 06 00 00    	jle    8f88 <mpz_probab_prime_p+0xce8>
    88a9:	48 c7 00 01 00 00 00 	movq   $0x1,(%rax)
    88b0:	48 8b 74 24 08       	mov    0x8(%rsp),%rsi
    88b5:	4c 89 e7             	mov    %r12,%rdi
    88b8:	e8 00 00 00 00       	call   88bd <mpz_probab_prime_p+0x61d>
    88bd:	8b 84 24 94 00 00 00 	mov    0x94(%rsp),%eax
    88c4:	48 c7 c7 ff ff ff ff 	mov    $0xffffffffffffffff,%rdi
    88cb:	85 c0                	test   %eax,%eax
    88cd:	74 6b                	je     893a <mpz_probab_prime_p+0x69a>
    88cf:	89 c2                	mov    %eax,%edx
    88d1:	f7 da                	neg    %edx
    88d3:	0f 48 d0             	cmovs  %eax,%edx
    88d6:	8d 42 ff             	lea    -0x1(%rdx),%eax
    88d9:	48 63 d2             	movslq %edx,%rdx
    88dc:	48 98                	cltq   
    88de:	48 c1 e0 06          	shl    $0x6,%rax
    88e2:	48 89 c1             	mov    %rax,%rcx
    88e5:	48 8b 84 24 98 00 00 	mov    0x98(%rsp),%rax
    88ec:	00 
    88ed:	48 8b 44 d0 f8       	mov    -0x8(%rax,%rdx,8),%rax
    88f2:	48 85 c0             	test   %rax,%rax
    88f5:	0f 84 85 06 00 00    	je     8f80 <mpz_probab_prime_p+0xce0>
    88fb:	48 be 00 00 00 00 00 	movabs $0xff00000000000000,%rsi
    8902:	00 00 ff 
    8905:	31 d2                	xor    %edx,%edx
    8907:	48 85 f0             	test   %rsi,%rax
    890a:	75 0c                	jne    8918 <mpz_probab_prime_p+0x678>
    890c:	48 c1 e0 08          	shl    $0x8,%rax
    8910:	83 c2 08             	add    $0x8,%edx
    8913:	48 85 f0             	test   %rsi,%rax
    8916:	74 f4                	je     890c <mpz_probab_prime_p+0x66c>
    8918:	48 85 c0             	test   %rax,%rax
    891b:	78 08                	js     8925 <mpz_probab_prime_p+0x685>
    891d:	83 c2 01             	add    $0x1,%edx
    8920:	48 01 c0             	add    %rax,%rax
    8923:	79 f8                	jns    891d <mpz_probab_prime_p+0x67d>
    8925:	48 8d 41 3e          	lea    0x3e(%rcx),%rax
    8929:	48 29 d0             	sub    %rdx,%rax
    892c:	48 89 c7             	mov    %rax,%rdi
    892f:	48 3b 44 24 18       	cmp    0x18(%rsp),%rax
    8934:	0f 82 fd 04 00 00    	jb     8e37 <mpz_probab_prime_p+0xb97>
    893a:	48 8b 44 24 08       	mov    0x8(%rsp),%rax
    893f:	48 89 6c 24 40       	mov    %rbp,0x40(%rsp)
    8944:	48 8d 9c 24 80 00 00 	lea    0x80(%rsp),%rbx
    894b:	00 
    894c:	4c 89 6c 24 48       	mov    %r13,0x48(%rsp)
    8951:	48 8b 6c 24 28       	mov    0x28(%rsp),%rbp
    8956:	49 89 fd             	mov    %rdi,%r13
    8959:	48 f7 d8             	neg    %rax
    895c:	48 01 c0             	add    %rax,%rax
    895f:	48 89 44 24 30       	mov    %rax,0x30(%rsp)
    8964:	48 f7 d8             	neg    %rax
    8967:	48 89 44 24 38       	mov    %rax,0x38(%rsp)
    896c:	e9 13 02 00 00       	jmp    8b84 <mpz_probab_prime_p+0x8e4>
    8971:	48 8d 05 00 00 00 00 	lea    0x0(%rip),%rax        # 8978 <mpz_probab_prime_p+0x6d8>
    8978:	48 c7 84 24 b0 00 00 	movq   $0x0,0xb0(%rsp)
    897f:	00 00 00 00 00 
    8984:	48 89 84 24 b8 00 00 	mov    %rax,0xb8(%rsp)
    898b:	00 
    898c:	74 20                	je     89ae <mpz_probab_prime_p+0x70e>
    898e:	be 01 00 00 00       	mov    $0x1,%esi
    8993:	4c 89 f7             	mov    %r14,%rdi
    8996:	c7 84 24 b4 00 00 00 	movl   $0x1,0xb4(%rsp)
    899d:	01 00 00 00 
    89a1:	e8 0a 7a ff ff       	call   3b0 <mpz_realloc>
    89a6:	48 8b 4c 24 08       	mov    0x8(%rsp),%rcx
    89ab:	48 89 08             	mov    %rcx,(%rax)
    89ae:	4c 89 f2             	mov    %r14,%rdx
    89b1:	4c 89 e6             	mov    %r12,%rsi
    89b4:	4c 89 e7             	mov    %r12,%rdi
    89b7:	e8 00 00 00 00       	call   89bc <mpz_probab_prime_p+0x71c>
    89bc:	48 63 84 24 b0 00 00 	movslq 0xb0(%rsp),%rax
    89c3:	00 
    89c4:	85 c0                	test   %eax,%eax
    89c6:	74 16                	je     89de <mpz_probab_prime_p+0x73e>
    89c8:	48 8b bc 24 b8 00 00 	mov    0xb8(%rsp),%rdi
    89cf:	00 
    89d0:	48 8d 34 c5 00 00 00 	lea    0x0(,%rax,8),%rsi
    89d7:	00 
    89d8:	ff 15 00 00 00 00    	call   *0x0(%rip)        # 89de <mpz_probab_prime_p+0x73e>
    89de:	8b 84 24 a0 00 00 00 	mov    0xa0(%rsp),%eax
    89e5:	8b 94 24 80 00 00 00 	mov    0x80(%rsp),%edx
    89ec:	4c 89 fe             	mov    %r15,%rsi
    89ef:	4c 89 ff             	mov    %r15,%rdi
    89f2:	89 94 24 a0 00 00 00 	mov    %edx,0xa0(%rsp)
    89f9:	48 8b 94 24 88 00 00 	mov    0x88(%rsp),%rdx
    8a00:	00 
    8a01:	89 84 24 80 00 00 00 	mov    %eax,0x80(%rsp)
    8a08:	48 8b 84 24 a8 00 00 	mov    0xa8(%rsp),%rax
    8a0f:	00 
    8a10:	48 89 94 24 a8 00 00 	mov    %rdx,0xa8(%rsp)
    8a17:	00 
    8a18:	8b 94 24 84 00 00 00 	mov    0x84(%rsp),%edx
    8a1f:	48 89 84 24 88 00 00 	mov    %rax,0x88(%rsp)
    8a26:	00 
    8a27:	8b 84 24 a4 00 00 00 	mov    0xa4(%rsp),%eax
    8a2e:	89 94 24 a4 00 00 00 	mov    %edx,0xa4(%rsp)
    8a35:	89 84 24 84 00 00 00 	mov    %eax,0x84(%rsp)
    8a3c:	31 d0                	xor    %edx,%eax
    8a3e:	48 89 da             	mov    %rbx,%rdx
    8a41:	0f 88 a1 03 00 00    	js     8de8 <mpz_probab_prime_p+0xb48>
    8a47:	e8 14 80 ff ff       	call   a60 <mpz_abs_add>
    8a4c:	44 8b 94 24 a4 00 00 	mov    0xa4(%rsp),%r10d
    8a53:	00 
    8a54:	89 c2                	mov    %eax,%edx
    8a56:	45 85 d2             	test   %r10d,%r10d
    8a59:	79 02                	jns    8a5d <mpz_probab_prime_p+0x7bd>
    8a5b:	f7 da                	neg    %edx
    8a5d:	48 8b 8c 24 a8 00 00 	mov    0xa8(%rsp),%rcx
    8a64:	00 
    8a65:	31 c0                	xor    %eax,%eax
    8a67:	85 d2                	test   %edx,%edx
    8a69:	89 94 24 a4 00 00 00 	mov    %edx,0xa4(%rsp)
    8a70:	0f 95 c0             	setne  %al
    8a73:	23 01                	and    (%rcx),%eax
    8a75:	0f 85 77 03 00 00    	jne    8df2 <mpz_probab_prime_p+0xb52>
    8a7b:	b9 02 00 00 00       	mov    $0x2,%ecx
    8a80:	ba 01 00 00 00       	mov    $0x1,%edx
    8a85:	4c 89 fe             	mov    %r15,%rsi
    8a88:	4c 89 ff             	mov    %r15,%rdi
    8a8b:	e8 50 a4 ff ff       	call   2ee0 <mpz_div_q_2exp>
    8a90:	48 83 7c 24 30 00    	cmpq   $0x0,0x30(%rsp)
    8a96:	0f 88 c6 02 00 00    	js     8d62 <mpz_probab_prime_p+0xac2>
    8a9c:	48 8d 05 00 00 00 00 	lea    0x0(%rip),%rax        # 8aa3 <mpz_probab_prime_p+0x803>
    8aa3:	48 83 7c 24 08 00    	cmpq   $0x0,0x8(%rsp)
    8aa9:	48 c7 84 24 b0 00 00 	movq   $0x0,0xb0(%rsp)
    8ab0:	00 00 00 00 00 
    8ab5:	48 89 84 24 b8 00 00 	mov    %rax,0xb8(%rsp)
    8abc:	00 
    8abd:	74 20                	je     8adf <mpz_probab_prime_p+0x83f>
    8abf:	be 01 00 00 00       	mov    $0x1,%esi
    8ac4:	4c 89 f7             	mov    %r14,%rdi
    8ac7:	c7 84 24 b4 00 00 00 	movl   $0x1,0xb4(%rsp)
    8ace:	01 00 00 00 
    8ad2:	e8 d9 78 ff ff       	call   3b0 <mpz_realloc>
    8ad7:	48 8b 4c 24 30       	mov    0x30(%rsp),%rcx
    8adc:	48 89 08             	mov    %rcx,(%rax)
    8adf:	4c 89 f2             	mov    %r14,%rdx
    8ae2:	48 89 de             	mov    %rbx,%rsi
    8ae5:	48 89 df             	mov    %rbx,%rdi
    8ae8:	e8 00 00 00 00       	call   8aed <mpz_probab_prime_p+0x84d>
    8aed:	48 63 84 24 b0 00 00 	movslq 0xb0(%rsp),%rax
    8af4:	00 
    8af5:	85 c0                	test   %eax,%eax
    8af7:	74 16                	je     8b0f <mpz_probab_prime_p+0x86f>
    8af9:	48 8b bc 24 b8 00 00 	mov    0xb8(%rsp),%rdi
    8b00:	00 
    8b01:	48 8d 34 c5 00 00 00 	lea    0x0(,%rax,8),%rsi
    8b08:	00 
    8b09:	ff 15 00 00 00 00    	call   *0x0(%rip)        # 8b0f <mpz_probab_prime_p+0x86f>
    8b0f:	8b 84 24 84 00 00 00 	mov    0x84(%rsp),%eax
    8b16:	33 84 24 a4 00 00 00 	xor    0xa4(%rsp),%eax
    8b1d:	48 89 da             	mov    %rbx,%rdx
    8b20:	4c 89 fe             	mov    %r15,%rsi
    8b23:	48 89 df             	mov    %rbx,%rdi
    8b26:	0f 88 2c 02 00 00    	js     8d58 <mpz_probab_prime_p+0xab8>
    8b2c:	e8 2f 7f ff ff       	call   a60 <mpz_abs_add>
    8b31:	44 8b 84 24 a4 00 00 	mov    0xa4(%rsp),%r8d
    8b38:	00 
    8b39:	89 c2                	mov    %eax,%edx
    8b3b:	45 85 c0             	test   %r8d,%r8d
    8b3e:	79 02                	jns    8b42 <mpz_probab_prime_p+0x8a2>
    8b40:	f7 da                	neg    %edx
    8b42:	89 94 24 84 00 00 00 	mov    %edx,0x84(%rsp)
    8b49:	48 89 e9             	mov    %rbp,%rcx
    8b4c:	48 89 da             	mov    %rbx,%rdx
    8b4f:	48 89 de             	mov    %rbx,%rsi
    8b52:	41 b8 02 00 00 00    	mov    $0x2,%r8d
    8b58:	31 ff                	xor    %edi,%edi
    8b5a:	e8 61 b5 ff ff       	call   40c0 <mpz_div_qr>
    8b5f:	41 b8 02 00 00 00    	mov    $0x2,%r8d
    8b65:	48 89 e9             	mov    %rbp,%rcx
    8b68:	4c 89 fa             	mov    %r15,%rdx
    8b6b:	4c 89 fe             	mov    %r15,%rsi
    8b6e:	31 ff                	xor    %edi,%edi
    8b70:	49 83 ed 01          	sub    $0x1,%r13
    8b74:	e8 47 b5 ff ff       	call   40c0 <mpz_div_qr>
    8b79:	4c 39 6c 24 18       	cmp    %r13,0x18(%rsp)
    8b7e:	0f 87 a9 02 00 00    	ja     8e2d <mpz_probab_prime_p+0xb8d>
    8b84:	48 89 da             	mov    %rbx,%rdx
    8b87:	4c 89 fe             	mov    %r15,%rsi
    8b8a:	4c 89 ff             	mov    %r15,%rdi
    8b8d:	e8 00 00 00 00       	call   8b92 <mpz_probab_prime_p+0x8f2>
    8b92:	48 89 ea             	mov    %rbp,%rdx
    8b95:	4c 89 e6             	mov    %r12,%rsi
    8b98:	48 89 df             	mov    %rbx,%rdi
    8b9b:	e8 e0 bf ff ff       	call   4b80 <gmp_lucas_step_k_2k>
    8ba0:	4c 39 6c 24 18       	cmp    %r13,0x18(%rsp)
    8ba5:	74 0f                	je     8bb6 <mpz_probab_prime_p+0x916>
    8ba7:	4c 89 ee             	mov    %r13,%rsi
    8baa:	48 89 ef             	mov    %rbp,%rdi
    8bad:	e8 00 00 00 00       	call   8bb2 <mpz_probab_prime_p+0x912>
    8bb2:	85 c0                	test   %eax,%eax
    8bb4:	74 a9                	je     8b5f <mpz_probab_prime_p+0x8bf>
    8bb6:	48 83 7c 24 08 00    	cmpq   $0x0,0x8(%rsp)
    8bbc:	0f 89 af fd ff ff    	jns    8971 <mpz_probab_prime_p+0x6d1>
    8bc2:	48 8d 0d 00 00 00 00 	lea    0x0(%rip),%rcx        # 8bc9 <mpz_probab_prime_p+0x929>
    8bc9:	be 01 00 00 00       	mov    $0x1,%esi
    8bce:	4c 89 f7             	mov    %r14,%rdi
    8bd1:	48 89 8c 24 b8 00 00 	mov    %rcx,0xb8(%rsp)
    8bd8:	00 
    8bd9:	48 b9 00 00 00 00 01 	movabs $0x100000000,%rcx
    8be0:	00 00 00 
    8be3:	48 89 8c 24 b0 00 00 	mov    %rcx,0xb0(%rsp)
    8bea:	00 
    8beb:	e8 c0 77 ff ff       	call   3b0 <mpz_realloc>
    8bf0:	48 8b 54 24 08       	mov    0x8(%rsp),%rdx
    8bf5:	4c 89 e6             	mov    %r12,%rsi
    8bf8:	4c 89 e7             	mov    %r12,%rdi
    8bfb:	48 f7 da             	neg    %rdx
    8bfe:	48 89 10             	mov    %rdx,(%rax)
    8c01:	4c 89 f2             	mov    %r14,%rdx
    8c04:	e8 00 00 00 00       	call   8c09 <mpz_probab_prime_p+0x969>
    8c09:	48 63 84 24 b0 00 00 	movslq 0xb0(%rsp),%rax
    8c10:	00 
    8c11:	85 c0                	test   %eax,%eax
    8c13:	74 16                	je     8c2b <mpz_probab_prime_p+0x98b>
    8c15:	48 8b bc 24 b8 00 00 	mov    0xb8(%rsp),%rdi
    8c1c:	00 
    8c1d:	48 8d 34 c5 00 00 00 	lea    0x0(,%rax,8),%rsi
    8c24:	00 
    8c25:	ff 15 00 00 00 00    	call   *0x0(%rip)        # 8c2b <mpz_probab_prime_p+0x98b>
    8c2b:	4c 89 e6             	mov    %r12,%rsi
    8c2e:	4c 89 e7             	mov    %r12,%rdi
    8c31:	e8 00 00 00 00       	call   8c36 <mpz_probab_prime_p+0x996>
    8c36:	f7 5c 24 74          	negl   0x74(%rsp)
    8c3a:	e9 9f fd ff ff       	jmp    89de <mpz_probab_prime_p+0x73e>
    8c3f:	48 8b bc 24 b8 00 00 	mov    0xb8(%rsp),%rdi
    8c46:	00 
    8c47:	48 8d 34 c5 00 00 00 	lea    0x0(,%rax,8),%rsi
    8c4e:	00 
    8c4f:	ff 15 00 00 00 00    	call   *0x0(%rip)        # 8c55 <mpz_probab_prime_p+0x9b5>
    8c55:	e9 d4 f9 ff ff       	jmp    862e <mpz_probab_prime_p+0x38e>
    8c5a:	48 8b 44 24 78       	mov    0x78(%rsp),%rax
    8c5f:	48 8b 00             	mov    (%rax),%rax
    8c62:	48 83 e8 01          	sub    $0x1,%rax
    8c66:	48 89 44 24 08       	mov    %rax,0x8(%rsp)
    8c6b:	e9 da f9 ff ff       	jmp    864a <mpz_probab_prime_p+0x3aa>
    8c70:	8b 44 24 20          	mov    0x20(%rsp),%eax
    8c74:	45 31 f6             	xor    %r14d,%r14d
    8c77:	48 8b 6c 24 18       	mov    0x18(%rsp),%rbp
    8c7c:	4c 8b 64 24 30       	mov    0x30(%rsp),%r12
    8c81:	83 e8 18             	sub    $0x18,%eax
    8c84:	89 44 24 08          	mov    %eax,0x8(%rsp)
    8c88:	85 c0                	test   %eax,%eax
    8c8a:	41 0f 9f c6          	setg   %r14b
    8c8e:	45 85 f6             	test   %r14d,%r14d
    8c91:	0f 84 df 02 00 00    	je     8f76 <mpz_probab_prime_p+0xcd6>
    8c97:	45 31 ff             	xor    %r15d,%r15d
    8c9a:	eb 45                	jmp    8ce1 <mpz_probab_prime_p+0xa41>
    8c9c:	0f 1f 40 00          	nopl   0x0(%rax)
    8ca0:	48 89 10             	mov    %rdx,(%rax)
    8ca3:	4c 89 ee             	mov    %r13,%rsi
    8ca6:	4c 89 e7             	mov    %r12,%rdi
    8ca9:	e8 00 00 00 00       	call   8cae <mpz_probab_prime_p+0xa0e>
    8cae:	85 c0                	test   %eax,%eax
    8cb0:	79 77                	jns    8d29 <mpz_probab_prime_p+0xa89>
    8cb2:	4c 8b 04 24          	mov    (%rsp),%r8
    8cb6:	48 8b 4c 24 10       	mov    0x10(%rsp),%rcx
    8cbb:	4c 89 e2             	mov    %r12,%rdx
    8cbe:	4c 89 ee             	mov    %r13,%rsi
    8cc1:	48 89 ef             	mov    %rbp,%rdi
    8cc4:	83 c3 01             	add    $0x1,%ebx
    8cc7:	e8 74 f4 ff ff       	call   8140 <gmp_millerrabin>
    8ccc:	41 89 c6             	mov    %eax,%r14d
    8ccf:	31 c0                	xor    %eax,%eax
    8cd1:	3b 5c 24 08          	cmp    0x8(%rsp),%ebx
    8cd5:	0f 9c c0             	setl   %al
    8cd8:	44 85 f0             	test   %r14d,%eax
    8cdb:	0f 84 78 f7 ff ff    	je     8459 <mpz_probab_prime_p+0x1b9>
    8ce1:	4c 89 fa             	mov    %r15,%rdx
    8ce4:	44 89 7c 24 20       	mov    %r15d,0x20(%rsp)
    8ce9:	44 89 fb             	mov    %r15d,%ebx
    8cec:	49 83 c7 01          	add    $0x1,%r15
    8cf0:	49 0f af d7          	imul   %r15,%rdx
    8cf4:	8b 4c 24 70          	mov    0x70(%rsp),%ecx
    8cf8:	48 8b 44 24 78       	mov    0x78(%rsp),%rax
    8cfd:	c7 44 24 74 01 00 00 	movl   $0x1,0x74(%rsp)
    8d04:	00 
    8d05:	48 83 c2 29          	add    $0x29,%rdx
    8d09:	85 c9                	test   %ecx,%ecx
    8d0b:	7f 93                	jg     8ca0 <mpz_probab_prime_p+0xa00>
    8d0d:	be 01 00 00 00       	mov    $0x1,%esi
    8d12:	4c 89 e7             	mov    %r12,%rdi
    8d15:	48 89 54 24 18       	mov    %rdx,0x18(%rsp)
    8d1a:	e8 91 76 ff ff       	call   3b0 <mpz_realloc>
    8d1f:	48 8b 54 24 18       	mov    0x18(%rsp),%rdx
    8d24:	e9 77 ff ff ff       	jmp    8ca0 <mpz_probab_prime_p+0xa00>
    8d29:	83 7c 24 20 1d       	cmpl   $0x1d,0x20(%rsp)
    8d2e:	0f 8f 25 f7 ff ff    	jg     8459 <mpz_probab_prime_p+0x1b9>
    8d34:	48 8d 0d 00 00 00 00 	lea    0x0(%rip),%rcx        # 8d3b <mpz_probab_prime_p+0xa9b>
    8d3b:	ba 35 0e 00 00       	mov    $0xe35,%edx
    8d40:	48 8d 35 00 00 00 00 	lea    0x0(%rip),%rsi        # 8d47 <mpz_probab_prime_p+0xaa7>
    8d47:	48 8d 3d 00 00 00 00 	lea    0x0(%rip),%rdi        # 8d4e <mpz_probab_prime_p+0xaae>
    8d4e:	e8 00 00 00 00       	call   8d53 <mpz_probab_prime_p+0xab3>
    8d53:	0f 1f 44 00 00       	nopl   0x0(%rax,%rax,1)
    8d58:	e8 c3 7e ff ff       	call   c20 <mpz_abs_sub>
    8d5d:	e9 cf fd ff ff       	jmp    8b31 <mpz_probab_prime_p+0x891>
    8d62:	48 8d 05 00 00 00 00 	lea    0x0(%rip),%rax        # 8d69 <mpz_probab_prime_p+0xac9>
    8d69:	be 01 00 00 00       	mov    $0x1,%esi
    8d6e:	4c 89 f7             	mov    %r14,%rdi
    8d71:	48 89 84 24 b8 00 00 	mov    %rax,0xb8(%rsp)
    8d78:	00 
    8d79:	48 b8 00 00 00 00 01 	movabs $0x100000000,%rax
    8d80:	00 00 00 
    8d83:	48 89 84 24 b0 00 00 	mov    %rax,0xb0(%rsp)
    8d8a:	00 
    8d8b:	e8 20 76 ff ff       	call   3b0 <mpz_realloc>
    8d90:	48 8b 4c 24 38       	mov    0x38(%rsp),%rcx
    8d95:	4c 89 f2             	mov    %r14,%rdx
    8d98:	48 89 de             	mov    %rbx,%rsi
    8d9b:	48 89 df             	mov    %rbx,%rdi
    8d9e:	48 89 08             	mov    %rcx,(%rax)
    8da1:	e8 00 00 00 00       	call   8da6 <mpz_probab_prime_p+0xb06>
    8da6:	48 63 84 24 b0 00 00 	movslq 0xb0(%rsp),%rax
    8dad:	00 
    8dae:	85 c0                	test   %eax,%eax
    8db0:	74 16                	je     8dc8 <mpz_probab_prime_p+0xb28>
    8db2:	48 8b bc 24 b8 00 00 	mov    0xb8(%rsp),%rdi
    8db9:	00 
    8dba:	48 8d 34 c5 00 00 00 	lea    0x0(,%rax,8),%rsi
    8dc1:	00 
    8dc2:	ff 15 00 00 00 00    	call   *0x0(%rip)        # 8dc8 <mpz_probab_prime_p+0xb28>
    8dc8:	48 89 de             	mov    %rbx,%rsi
    8dcb:	48 89 df             	mov    %rbx,%rdi
    8dce:	e8 00 00 00 00       	call   8dd3 <mpz_probab_prime_p+0xb33>
    8dd3:	8b 84 24 84 00 00 00 	mov    0x84(%rsp),%eax
    8dda:	f7 d8                	neg    %eax
    8ddc:	89 84 24 84 00 00 00 	mov    %eax,0x84(%rsp)
    8de3:	e9 2e fd ff ff       	jmp    8b16 <mpz_probab_prime_p+0x876>
    8de8:	e8 33 7e ff ff       	call   c20 <mpz_abs_sub>
    8ded:	e9 5a fc ff ff       	jmp    8a4c <mpz_probab_prime_p+0x7ac>
    8df2:	33 94 24 94 00 00 00 	xor    0x94(%rsp),%edx
    8df9:	4c 89 fe             	mov    %r15,%rsi
    8dfc:	48 89 ea             	mov    %rbp,%rdx
    8dff:	4c 89 ff             	mov    %r15,%rdi
    8e02:	78 22                	js     8e26 <mpz_probab_prime_p+0xb86>
    8e04:	e8 57 7c ff ff       	call   a60 <mpz_abs_add>
    8e09:	44 8b 8c 24 a4 00 00 	mov    0xa4(%rsp),%r9d
    8e10:	00 
    8e11:	89 c2                	mov    %eax,%edx
    8e13:	45 85 c9             	test   %r9d,%r9d
    8e16:	79 02                	jns    8e1a <mpz_probab_prime_p+0xb7a>
    8e18:	f7 da                	neg    %edx
    8e1a:	89 94 24 a4 00 00 00 	mov    %edx,0xa4(%rsp)
    8e21:	e9 55 fc ff ff       	jmp    8a7b <mpz_probab_prime_p+0x7db>
    8e26:	e8 f5 7d ff ff       	call   c20 <mpz_abs_sub>
    8e2b:	eb dc                	jmp    8e09 <mpz_probab_prime_p+0xb69>
    8e2d:	48 8b 6c 24 40       	mov    0x40(%rsp),%rbp
    8e32:	4c 8b 6c 24 48       	mov    0x48(%rsp),%r13
    8e37:	48 63 84 24 a0 00 00 	movslq 0xa0(%rsp),%rax
    8e3e:	00 
    8e3f:	8b 9c 24 a4 00 00 00 	mov    0xa4(%rsp),%ebx
    8e46:	85 c0                	test   %eax,%eax
    8e48:	74 16                	je     8e60 <mpz_probab_prime_p+0xbc0>
    8e4a:	48 8b bc 24 a8 00 00 	mov    0xa8(%rsp),%rdi
    8e51:	00 
    8e52:	48 8d 34 c5 00 00 00 	lea    0x0(,%rax,8),%rsi
    8e59:	00 
    8e5a:	ff 15 00 00 00 00    	call   *0x0(%rip)        # 8e60 <mpz_probab_prime_p+0xbc0>
    8e60:	8b 44 24 20          	mov    0x20(%rsp),%eax
    8e64:	45 31 f6             	xor    %r14d,%r14d
    8e67:	83 e8 18             	sub    $0x18,%eax
    8e6a:	85 c0                	test   %eax,%eax
    8e6c:	89 44 24 08          	mov    %eax,0x8(%rsp)
    8e70:	41 0f 9f c6          	setg   %r14b
    8e74:	85 db                	test   %ebx,%ebx
    8e76:	74 46                	je     8ebe <mpz_probab_prime_p+0xc1e>
    8e78:	8b bc 24 84 00 00 00 	mov    0x84(%rsp),%edi
    8e7f:	85 ff                	test   %edi,%edi
    8e81:	74 3b                	je     8ebe <mpz_probab_prime_p+0xc1e>
    8e83:	4c 8b 7c 24 18       	mov    0x18(%rsp),%r15
    8e88:	48 8d 9c 24 80 00 00 	lea    0x80(%rsp),%rbx
    8e8f:	00 
    8e90:	eb 1b                	jmp    8ead <mpz_probab_prime_p+0xc0d>
    8e92:	48 8b 54 24 28       	mov    0x28(%rsp),%rdx
    8e97:	4c 89 e6             	mov    %r12,%rsi
    8e9a:	48 89 df             	mov    %rbx,%rdi
    8e9d:	e8 de bc ff ff       	call   4b80 <gmp_lucas_step_k_2k>
    8ea2:	8b b4 24 84 00 00 00 	mov    0x84(%rsp),%esi
    8ea9:	85 f6                	test   %esi,%esi
    8eab:	74 11                	je     8ebe <mpz_probab_prime_p+0xc1e>
    8ead:	49 83 ef 01          	sub    $0x1,%r15
    8eb1:	75 df                	jne    8e92 <mpz_probab_prime_p+0xbf2>
    8eb3:	c7 44 24 24 00 00 00 	movl   $0x0,0x24(%rsp)
    8eba:	00 
    8ebb:	45 31 f6             	xor    %r14d,%r14d
    8ebe:	48 63 84 24 80 00 00 	movslq 0x80(%rsp),%rax
    8ec5:	00 
    8ec6:	85 c0                	test   %eax,%eax
    8ec8:	0f 84 c0 fd ff ff    	je     8c8e <mpz_probab_prime_p+0x9ee>
    8ece:	48 8b bc 24 88 00 00 	mov    0x88(%rsp),%rdi
    8ed5:	00 
    8ed6:	48 8d 34 c5 00 00 00 	lea    0x0(,%rax,8),%rsi
    8edd:	00 
    8ede:	ff 15 00 00 00 00    	call   *0x0(%rip)        # 8ee4 <mpz_probab_prime_p+0xc44>
    8ee4:	e9 a5 fd ff ff       	jmp    8c8e <mpz_probab_prime_p+0x9ee>
    8ee9:	48 8d 0d 00 00 00 00 	lea    0x0(%rip),%rcx        # 8ef0 <mpz_probab_prime_p+0xc50>
    8ef0:	ba 7e 0d 00 00       	mov    $0xd7e,%edx
    8ef5:	48 8d 35 00 00 00 00 	lea    0x0(%rip),%rsi        # 8efc <mpz_probab_prime_p+0xc5c>
    8efc:	48 8d 3d 00 00 00 00 	lea    0x0(%rip),%rdi        # 8f03 <mpz_probab_prime_p+0xc63>
    8f03:	e8 00 00 00 00       	call   8f08 <mpz_probab_prime_p+0xc68>
    8f08:	0f 1f 84 00 00 00 00 	nopl   0x0(%rax,%rax,1)
    8f0f:	00 
    8f10:	45 85 ff             	test   %r15d,%r15d
    8f13:	75 23                	jne    8f38 <mpz_probab_prime_p+0xc98>
    8f15:	48 8d 0d 00 00 00 00 	lea    0x0(%rip),%rcx        # 8f1c <mpz_probab_prime_p+0xc7c>
    8f1c:	ba 7d 0d 00 00       	mov    $0xd7d,%edx
    8f21:	48 8d 35 00 00 00 00 	lea    0x0(%rip),%rsi        # 8f28 <mpz_probab_prime_p+0xc88>
    8f28:	48 8d 3d 00 00 00 00 	lea    0x0(%rip),%rdi        # 8f2f <mpz_probab_prime_p+0xc8f>
    8f2f:	e8 00 00 00 00       	call   8f34 <mpz_probab_prime_p+0xc94>
    8f34:	0f 1f 40 00          	nopl   0x0(%rax)
    8f38:	31 c0                	xor    %eax,%eax
    8f3a:	48 83 fb 04          	cmp    $0x4,%rbx
    8f3e:	0f 97 c0             	seta   %al
    8f41:	31 d2                	xor    %edx,%edx
    8f43:	48 83 fb 03          	cmp    $0x3,%rbx
    8f47:	0f 96 c2             	setbe  %dl
    8f4a:	29 d0                	sub    %edx,%eax
    8f4c:	83 f8 01             	cmp    $0x1,%eax
    8f4f:	0f 84 df f8 ff ff    	je     8834 <mpz_probab_prime_p+0x594>
    8f55:	eb be                	jmp    8f15 <mpz_probab_prime_p+0xc75>
    8f57:	48 8d 0d 00 00 00 00 	lea    0x0(%rip),%rcx        # 8f5e <mpz_probab_prime_p+0xcbe>
    8f5e:	ba 7a 0d 00 00       	mov    $0xd7a,%edx
    8f63:	48 8d 35 00 00 00 00 	lea    0x0(%rip),%rsi        # 8f6a <mpz_probab_prime_p+0xcca>
    8f6a:	48 8d 3d 00 00 00 00 	lea    0x0(%rip),%rdi        # 8f71 <mpz_probab_prime_p+0xcd1>
    8f71:	e8 00 00 00 00       	call   8f76 <mpz_probab_prime_p+0xcd6>
    8f76:	44 8b 74 24 24       	mov    0x24(%rsp),%r14d
    8f7b:	e9 d9 f4 ff ff       	jmp    8459 <mpz_probab_prime_p+0x1b9>
    8f80:	e8 fb 74 ff ff       	call   480 <mpn_limb_size_in_base_2.part.0>
    8f85:	0f 1f 00             	nopl   (%rax)
    8f88:	48 8d 9c 24 80 00 00 	lea    0x80(%rsp),%rbx
    8f8f:	00 
    8f90:	be 01 00 00 00       	mov    $0x1,%esi
    8f95:	48 89 df             	mov    %rbx,%rdi
    8f98:	e8 13 74 ff ff       	call   3b0 <mpz_realloc>
    8f9d:	e9 07 f9 ff ff       	jmp    88a9 <mpz_probab_prime_p+0x609>
    8fa2:	e8 00 00 00 00       	call   8fa7 <mpz_probab_prime_p+0xd07>
    8fa7:	48 8d 0d 00 00 00 00 	lea    0x0(%rip),%rcx        # 8fae <mpz_probab_prime_p+0xd0e>
    8fae:	ba b8 0d 00 00       	mov    $0xdb8,%edx
    8fb3:	48 8d 35 00 00 00 00 	lea    0x0(%rip),%rsi        # 8fba <mpz_probab_prime_p+0xd1a>
    8fba:	48 8d 3d 00 00 00 00 	lea    0x0(%rip),%rdi        # 8fc1 <mpz_probab_prime_p+0xd21>
    8fc1:	e8 00 00 00 00       	call   8fc6 <mpz_probab_prime_p+0xd26>
    8fc6:	66 2e 0f 1f 84 00 00 	cs nopw 0x0(%rax,%rax,1)
    8fcd:	00 00 00 

0000000000008fd0 <mpz_setbit>:
    8fd0:	f3 0f 1e fa          	endbr64 
    8fd4:	55                   	push   %rbp
    8fd5:	49 89 fb             	mov    %rdi,%r11
    8fd8:	48 89 f5             	mov    %rsi,%rbp
    8fdb:	e8 00 00 00 00       	call   8fe0 <mpz_setbit+0x10>
    8fe0:	85 c0                	test   %eax,%eax
    8fe2:	75 1c                	jne    9000 <mpz_setbit+0x30>
    8fe4:	41 8b 43 04          	mov    0x4(%r11),%eax
    8fe8:	48 89 ee             	mov    %rbp,%rsi
    8feb:	4c 89 df             	mov    %r11,%rdi
    8fee:	85 c0                	test   %eax,%eax
    8ff0:	78 16                	js     9008 <mpz_setbit+0x38>
    8ff2:	5d                   	pop    %rbp
    8ff3:	e9 98 76 ff ff       	jmp    690 <mpz_abs_add_bit>
    8ff8:	0f 1f 84 00 00 00 00 	nopl   0x0(%rax,%rax,1)
    8fff:	00 
    9000:	5d                   	pop    %rbp
    9001:	c3                   	ret    
    9002:	66 0f 1f 44 00 00    	nopw   0x0(%rax,%rax,1)
    9008:	5d                   	pop    %rbp
    9009:	e9 c2 75 ff ff       	jmp    5d0 <mpz_abs_sub_bit>
    900e:	66 90                	xchg   %ax,%ax

0000000000009010 <mpz_clrbit>:
    9010:	f3 0f 1e fa          	endbr64 
    9014:	55                   	push   %rbp
    9015:	49 89 fb             	mov    %rdi,%r11
    9018:	48 89 f5             	mov    %rsi,%rbp
    901b:	e8 00 00 00 00       	call   9020 <mpz_clrbit+0x10>
    9020:	85 c0                	test   %eax,%eax
    9022:	74 1c                	je     9040 <mpz_clrbit+0x30>
    9024:	41 8b 43 04          	mov    0x4(%r11),%eax
    9028:	48 89 ee             	mov    %rbp,%rsi
    902b:	4c 89 df             	mov    %r11,%rdi
    902e:	85 c0                	test   %eax,%eax
    9030:	78 16                	js     9048 <mpz_clrbit+0x38>
    9032:	5d                   	pop    %rbp
    9033:	e9 98 75 ff ff       	jmp    5d0 <mpz_abs_sub_bit>
    9038:	0f 1f 84 00 00 00 00 	nopl   0x0(%rax,%rax,1)
    903f:	00 
    9040:	5d                   	pop    %rbp
    9041:	c3                   	ret    
    9042:	66 0f 1f 44 00 00    	nopw   0x0(%rax,%rax,1)
    9048:	5d                   	pop    %rbp
    9049:	e9 42 76 ff ff       	jmp    690 <mpz_abs_add_bit>
    904e:	66 90                	xchg   %ax,%ax

0000000000009050 <mpz_combit>:
    9050:	f3 0f 1e fa          	endbr64 
    9054:	55                   	push   %rbp
    9055:	49 89 fb             	mov    %rdi,%r11
    9058:	48 89 f5             	mov    %rsi,%rbp
    905b:	e8 00 00 00 00       	call   9060 <mpz_combit+0x10>
    9060:	48 89 ee             	mov    %rbp,%rsi
    9063:	4c 89 df             	mov    %r11,%rdi
    9066:	41 89 c0             	mov    %eax,%r8d
    9069:	41 8b 43 04          	mov    0x4(%r11),%eax
    906d:	c1 e8 1f             	shr    $0x1f,%eax
    9070:	41 39 c0             	cmp    %eax,%r8d
    9073:	74 0b                	je     9080 <mpz_combit+0x30>
    9075:	5d                   	pop    %rbp
    9076:	e9 55 75 ff ff       	jmp    5d0 <mpz_abs_sub_bit>
    907b:	0f 1f 44 00 00       	nopl   0x0(%rax,%rax,1)
    9080:	5d                   	pop    %rbp
    9081:	e9 0a 76 ff ff       	jmp    690 <mpz_abs_add_bit>
    9086:	66 2e 0f 1f 84 00 00 	cs nopw 0x0(%rax,%rax,1)
    908d:	00 00 00 

0000000000009090 <mpz_com>:
    9090:	f3 0f 1e fa          	endbr64 
    9094:	41 54                	push   %r12
    9096:	55                   	push   %rbp
    9097:	48 89 f5             	mov    %rsi,%rbp
    909a:	be 01 00 00 00       	mov    $0x1,%esi
    909f:	53                   	push   %rbx
    90a0:	48 89 fb             	mov    %rdi,%rbx
    90a3:	48 83 ec 20          	sub    $0x20,%rsp
    90a7:	64 48 8b 04 25 28 00 	mov    %fs:0x28,%rax
    90ae:	00 00 
    90b0:	48 89 44 24 18       	mov    %rax,0x18(%rsp)
    90b5:	48 8d 05 00 00 00 00 	lea    0x0(%rip),%rax        # 90bc <mpz_com+0x2c>
    90bc:	49 89 e4             	mov    %rsp,%r12
    90bf:	4c 89 e7             	mov    %r12,%rdi
    90c2:	48 89 44 24 08       	mov    %rax,0x8(%rsp)
    90c7:	48 b8 00 00 00 00 01 	movabs $0x100000000,%rax
    90ce:	00 00 00 
    90d1:	48 89 04 24          	mov    %rax,(%rsp)
    90d5:	e8 d6 72 ff ff       	call   3b0 <mpz_realloc>
    90da:	4c 89 e2             	mov    %r12,%rdx
    90dd:	48 89 ee             	mov    %rbp,%rsi
    90e0:	48 89 df             	mov    %rbx,%rdi
    90e3:	48 c7 00 01 00 00 00 	movq   $0x1,(%rax)
    90ea:	8b 45 04             	mov    0x4(%rbp),%eax
    90ed:	33 44 24 04          	xor    0x4(%rsp),%eax
    90f1:	78 55                	js     9148 <mpz_com+0xb8>
    90f3:	e8 68 79 ff ff       	call   a60 <mpz_abs_add>
    90f8:	89 c2                	mov    %eax,%edx
    90fa:	8b 45 04             	mov    0x4(%rbp),%eax
    90fd:	85 c0                	test   %eax,%eax
    90ff:	79 02                	jns    9103 <mpz_com+0x73>
    9101:	f7 da                	neg    %edx
    9103:	48 63 34 24          	movslq (%rsp),%rsi
    9107:	89 53 04             	mov    %edx,0x4(%rbx)
    910a:	85 f6                	test   %esi,%esi
    910c:	74 0f                	je     911d <mpz_com+0x8d>
    910e:	48 8b 7c 24 08       	mov    0x8(%rsp),%rdi
    9113:	48 c1 e6 03          	shl    $0x3,%rsi
    9117:	ff 15 00 00 00 00    	call   *0x0(%rip)        # 911d <mpz_com+0x8d>
    911d:	48 89 de             	mov    %rbx,%rsi
    9120:	48 89 df             	mov    %rbx,%rdi
    9123:	e8 00 00 00 00       	call   9128 <mpz_com+0x98>
    9128:	f7 5b 04             	negl   0x4(%rbx)
    912b:	48 8b 44 24 18       	mov    0x18(%rsp),%rax
    9130:	64 48 2b 04 25 28 00 	sub    %fs:0x28,%rax
    9137:	00 00 
    9139:	75 14                	jne    914f <mpz_com+0xbf>
    913b:	48 83 c4 20          	add    $0x20,%rsp
    913f:	5b                   	pop    %rbx
    9140:	5d                   	pop    %rbp
    9141:	41 5c                	pop    %r12
    9143:	c3                   	ret    
    9144:	0f 1f 40 00          	nopl   0x0(%rax)
    9148:	e8 d3 7a ff ff       	call   c20 <mpz_abs_sub>
    914d:	eb a9                	jmp    90f8 <mpz_com+0x68>
    914f:	e8 00 00 00 00       	call   9154 <mpz_com+0xc4>
    9154:	66 66 2e 0f 1f 84 00 	data16 cs nopw 0x0(%rax,%rax,1)
    915b:	00 00 00 00 
    915f:	90                   	nop

0000000000009160 <mpz_and>:
    9160:	f3 0f 1e fa          	endbr64 
    9164:	41 57                	push   %r15
    9166:	49 89 f2             	mov    %rsi,%r10
    9169:	41 56                	push   %r14
    916b:	41 55                	push   %r13
    916d:	41 54                	push   %r12
    916f:	55                   	push   %rbp
    9170:	53                   	push   %rbx
    9171:	48 83 ec 38          	sub    $0x38,%rsp
    9175:	8b 46 04             	mov    0x4(%rsi),%eax
    9178:	48 89 7c 24 08       	mov    %rdi,0x8(%rsp)
    917d:	41 89 c6             	mov    %eax,%r14d
    9180:	41 f7 de             	neg    %r14d
    9183:	44 0f 48 f0          	cmovs  %eax,%r14d
    9187:	8b 42 04             	mov    0x4(%rdx),%eax
    918a:	41 89 c7             	mov    %eax,%r15d
    918d:	4d 63 f6             	movslq %r14d,%r14
    9190:	41 f7 df             	neg    %r15d
    9193:	44 0f 48 f8          	cmovs  %eax,%r15d
    9197:	4d 63 ff             	movslq %r15d,%r15
    919a:	4d 39 fe             	cmp    %r15,%r14
    919d:	7d 0f                	jge    91ae <mpz_and+0x4e>
    919f:	4c 89 f0             	mov    %r14,%rax
    91a2:	49 89 d2             	mov    %rdx,%r10
    91a5:	4d 89 fe             	mov    %r15,%r14
    91a8:	48 89 f2             	mov    %rsi,%rdx
    91ab:	49 89 c7             	mov    %rax,%r15
    91ae:	4d 85 ff             	test   %r15,%r15
    91b1:	0f 84 69 01 00 00    	je     9320 <mpz_and+0x1c0>
    91b7:	4d 63 42 04          	movslq 0x4(%r10),%r8
    91bb:	4c 63 6a 04          	movslq 0x4(%rdx),%r13
    91bf:	48 8b 44 24 08       	mov    0x8(%rsp),%rax
    91c4:	4c 89 c3             	mov    %r8,%rbx
    91c7:	4c 89 c5             	mov    %r8,%rbp
    91ca:	4d 89 ec             	mov    %r13,%r12
    91cd:	49 c1 f8 3f          	sar    $0x3f,%r8
    91d1:	48 c1 ed 3f          	shr    $0x3f,%rbp
    91d5:	44 21 eb             	and    %r13d,%ebx
    91d8:	49 c1 ec 3f          	shr    $0x3f,%r12
    91dc:	48 63 00             	movslq (%rax),%rax
    91df:	c1 eb 1f             	shr    $0x1f,%ebx
    91e2:	0f b6 db             	movzbl %bl,%ebx
    91e5:	49 89 d9             	mov    %rbx,%r9
    91e8:	49 f7 d9             	neg    %r9
    91eb:	49 c1 fd 3f          	sar    $0x3f,%r13
    91ef:	4d 0f 44 f7          	cmove  %r15,%r14
    91f3:	4a 8d 34 33          	lea    (%rbx,%r14,1),%rsi
    91f7:	48 39 c6             	cmp    %rax,%rsi
    91fa:	0f 8f e0 00 00 00    	jg     92e0 <mpz_and+0x180>
    9200:	48 8b 44 24 08       	mov    0x8(%rsp),%rax
    9205:	48 8b 48 08          	mov    0x8(%rax),%rcx
    9209:	49 8b 7a 08          	mov    0x8(%r10),%rdi
    920d:	4c 8b 52 08          	mov    0x8(%rdx),%r10
    9211:	31 d2                	xor    %edx,%edx
    9213:	0f 1f 44 00 00       	nopl   0x0(%rax,%rax,1)
    9218:	48 8b 04 d7          	mov    (%rdi,%rdx,8),%rax
    921c:	49 8b 34 d2          	mov    (%r10,%rdx,8),%rsi
    9220:	4c 31 c0             	xor    %r8,%rax
    9223:	48 01 e8             	add    %rbp,%rax
    9226:	40 0f 92 c5          	setb   %bpl
    922a:	4c 31 ee             	xor    %r13,%rsi
    922d:	4c 01 e6             	add    %r12,%rsi
    9230:	40 0f b6 ed          	movzbl %bpl,%ebp
    9234:	49 89 f3             	mov    %rsi,%r11
    9237:	40 0f 92 c6          	setb   %sil
    923b:	4c 21 d8             	and    %r11,%rax
    923e:	45 31 db             	xor    %r11d,%r11d
    9241:	40 0f b6 f6          	movzbl %sil,%esi
    9245:	4c 31 c8             	xor    %r9,%rax
    9248:	49 89 f4             	mov    %rsi,%r12
    924b:	48 01 d8             	add    %rbx,%rax
    924e:	41 0f 92 c3          	setb   %r11b
    9252:	48 89 04 d1          	mov    %rax,(%rcx,%rdx,8)
    9256:	48 83 c2 01          	add    $0x1,%rdx
    925a:	4c 89 db             	mov    %r11,%rbx
    925d:	49 39 d7             	cmp    %rdx,%r15
    9260:	75 b6                	jne    9218 <mpz_and+0xb8>
    9262:	48 85 f6             	test   %rsi,%rsi
    9265:	0f 85 ee 00 00 00    	jne    9359 <mpz_and+0x1f9>
    926b:	4d 39 fe             	cmp    %r15,%r14
    926e:	0f 8e b4 00 00 00    	jle    9328 <mpz_and+0x1c8>
    9274:	0f 1f 40 00          	nopl   0x0(%rax)
    9278:	48 8b 04 d7          	mov    (%rdi,%rdx,8),%rax
    927c:	4c 31 c0             	xor    %r8,%rax
    927f:	48 01 e8             	add    %rbp,%rax
    9282:	40 0f 92 c5          	setb   %bpl
    9286:	4c 21 e8             	and    %r13,%rax
    9289:	31 f6                	xor    %esi,%esi
    928b:	4c 31 c8             	xor    %r9,%rax
    928e:	40 0f b6 ed          	movzbl %bpl,%ebp
    9292:	48 01 d8             	add    %rbx,%rax
    9295:	40 0f 92 c6          	setb   %sil
    9299:	48 89 04 d1          	mov    %rax,(%rcx,%rdx,8)
    929d:	48 83 c2 01          	add    $0x1,%rdx
    92a1:	48 89 f3             	mov    %rsi,%rbx
    92a4:	49 39 d6             	cmp    %rdx,%r14
    92a7:	75 cf                	jne    9278 <mpz_and+0x118>
    92a9:	48 85 f6             	test   %rsi,%rsi
    92ac:	0f 84 86 00 00 00    	je     9338 <mpz_and+0x1d8>
    92b2:	4a c7 04 f1 01 00 00 	movq   $0x1,(%rcx,%r14,8)
    92b9:	00 
    92ba:	49 8d 46 01          	lea    0x1(%r14),%rax
    92be:	89 c2                	mov    %eax,%edx
    92c0:	f7 da                	neg    %edx
    92c2:	4d 85 c9             	test   %r9,%r9
    92c5:	0f 45 c2             	cmovne %edx,%eax
    92c8:	48 8b 7c 24 08       	mov    0x8(%rsp),%rdi
    92cd:	89 47 04             	mov    %eax,0x4(%rdi)
    92d0:	48 83 c4 38          	add    $0x38,%rsp
    92d4:	5b                   	pop    %rbx
    92d5:	5d                   	pop    %rbp
    92d6:	41 5c                	pop    %r12
    92d8:	41 5d                	pop    %r13
    92da:	41 5e                	pop    %r14
    92dc:	41 5f                	pop    %r15
    92de:	c3                   	ret    
    92df:	90                   	nop
    92e0:	48 8b 7c 24 08       	mov    0x8(%rsp),%rdi
    92e5:	48 89 54 24 28       	mov    %rdx,0x28(%rsp)
    92ea:	4c 89 54 24 20       	mov    %r10,0x20(%rsp)
    92ef:	4c 89 4c 24 18       	mov    %r9,0x18(%rsp)
    92f4:	4c 89 44 24 10       	mov    %r8,0x10(%rsp)
    92f9:	e8 b2 70 ff ff       	call   3b0 <mpz_realloc>
    92fe:	4c 8b 44 24 10       	mov    0x10(%rsp),%r8
    9303:	4c 8b 4c 24 18       	mov    0x18(%rsp),%r9
    9308:	4c 8b 54 24 20       	mov    0x20(%rsp),%r10
    930d:	48 8b 54 24 28       	mov    0x28(%rsp),%rdx
    9312:	48 89 c1             	mov    %rax,%rcx
    9315:	e9 ef fe ff ff       	jmp    9209 <mpz_and+0xa9>
    931a:	66 0f 1f 44 00 00    	nopw   0x0(%rax,%rax,1)
    9320:	31 c0                	xor    %eax,%eax
    9322:	eb a4                	jmp    92c8 <mpz_and+0x168>
    9324:	0f 1f 40 00          	nopl   0x0(%rax)
    9328:	4d 85 db             	test   %r11,%r11
    932b:	75 85                	jne    92b2 <mpz_and+0x152>
    932d:	4d 85 f6             	test   %r14,%r14
    9330:	74 20                	je     9352 <mpz_and+0x1f2>
    9332:	66 0f 1f 44 00 00    	nopw   0x0(%rax,%rax,1)
    9338:	4c 89 f0             	mov    %r14,%rax
    933b:	0f 1f 44 00 00       	nopl   0x0(%rax,%rax,1)
    9340:	48 83 7c c1 f8 00    	cmpq   $0x0,-0x8(%rcx,%rax,8)
    9346:	0f 85 72 ff ff ff    	jne    92be <mpz_and+0x15e>
    934c:	48 83 e8 01          	sub    $0x1,%rax
    9350:	75 ee                	jne    9340 <mpz_and+0x1e0>
    9352:	31 c0                	xor    %eax,%eax
    9354:	e9 65 ff ff ff       	jmp    92be <mpz_and+0x15e>
    9359:	48 8d 0d 00 00 00 00 	lea    0x0(%rip),%rcx        # 9360 <mpz_and+0x200>
    9360:	ba 16 0f 00 00       	mov    $0xf16,%edx
    9365:	48 8d 35 00 00 00 00 	lea    0x0(%rip),%rsi        # 936c <mpz_and+0x20c>
    936c:	48 8d 3d 00 00 00 00 	lea    0x0(%rip),%rdi        # 9373 <mpz_and+0x213>
    9373:	e8 00 00 00 00       	call   9378 <mpz_and+0x218>
    9378:	0f 1f 84 00 00 00 00 	nopl   0x0(%rax,%rax,1)
    937f:	00 

0000000000009380 <mpz_ior>:
    9380:	f3 0f 1e fa          	endbr64 
    9384:	41 57                	push   %r15
    9386:	49 89 f2             	mov    %rsi,%r10
    9389:	41 56                	push   %r14
    938b:	41 55                	push   %r13
    938d:	41 54                	push   %r12
    938f:	55                   	push   %rbp
    9390:	53                   	push   %rbx
    9391:	48 83 ec 38          	sub    $0x38,%rsp
    9395:	8b 46 04             	mov    0x4(%rsi),%eax
    9398:	48 89 7c 24 08       	mov    %rdi,0x8(%rsp)
    939d:	41 89 c6             	mov    %eax,%r14d
    93a0:	41 f7 de             	neg    %r14d
    93a3:	44 0f 48 f0          	cmovs  %eax,%r14d
    93a7:	8b 42 04             	mov    0x4(%rdx),%eax
    93aa:	41 89 c0             	mov    %eax,%r8d
    93ad:	4d 63 f6             	movslq %r14d,%r14
    93b0:	41 f7 d8             	neg    %r8d
    93b3:	44 0f 48 c0          	cmovs  %eax,%r8d
    93b7:	4d 63 c0             	movslq %r8d,%r8
    93ba:	4d 39 c6             	cmp    %r8,%r14
    93bd:	7d 0f                	jge    93ce <mpz_ior+0x4e>
    93bf:	4c 89 f0             	mov    %r14,%rax
    93c2:	49 89 d2             	mov    %rdx,%r10
    93c5:	4d 89 c6             	mov    %r8,%r14
    93c8:	48 89 f2             	mov    %rsi,%rdx
    93cb:	49 89 c0             	mov    %rax,%r8
    93ce:	4d 85 c0             	test   %r8,%r8
    93d1:	0f 84 91 01 00 00    	je     9568 <mpz_ior+0x1e8>
    93d7:	4d 63 7a 04          	movslq 0x4(%r10),%r15
    93db:	4c 63 6a 04          	movslq 0x4(%rdx),%r13
    93df:	48 8b 44 24 08       	mov    0x8(%rsp),%rax
    93e4:	4c 89 fb             	mov    %r15,%rbx
    93e7:	4c 89 fd             	mov    %r15,%rbp
    93ea:	4d 89 ec             	mov    %r13,%r12
    93ed:	49 c1 ff 3f          	sar    $0x3f,%r15
    93f1:	48 c1 ed 3f          	shr    $0x3f,%rbp
    93f5:	44 09 eb             	or     %r13d,%ebx
    93f8:	49 c1 ec 3f          	shr    $0x3f,%r12
    93fc:	48 63 00             	movslq (%rax),%rax
    93ff:	c1 eb 1f             	shr    $0x1f,%ebx
    9402:	0f b6 db             	movzbl %bl,%ebx
    9405:	49 89 d9             	mov    %rbx,%r9
    9408:	49 f7 d9             	neg    %r9
    940b:	49 c1 fd 3f          	sar    $0x3f,%r13
    940f:	4d 0f 45 f0          	cmovne %r8,%r14
    9413:	4a 8d 34 33          	lea    (%rbx,%r14,1),%rsi
    9417:	48 39 c6             	cmp    %rax,%rsi
    941a:	0f 8f 08 01 00 00    	jg     9528 <mpz_ior+0x1a8>
    9420:	48 8b 44 24 08       	mov    0x8(%rsp),%rax
    9425:	48 8b 48 08          	mov    0x8(%rax),%rcx
    9429:	49 8b 7a 08          	mov    0x8(%r10),%rdi
    942d:	4c 8b 52 08          	mov    0x8(%rdx),%r10
    9431:	31 d2                	xor    %edx,%edx
    9433:	0f 1f 44 00 00       	nopl   0x0(%rax,%rax,1)
    9438:	48 8b 04 d7          	mov    (%rdi,%rdx,8),%rax
    943c:	49 8b 34 d2          	mov    (%r10,%rdx,8),%rsi
    9440:	4c 31 f8             	xor    %r15,%rax
    9443:	48 01 e8             	add    %rbp,%rax
    9446:	40 0f 92 c5          	setb   %bpl
    944a:	4c 31 ee             	xor    %r13,%rsi
    944d:	4c 01 e6             	add    %r12,%rsi
    9450:	40 0f b6 ed          	movzbl %bpl,%ebp
    9454:	49 89 f3             	mov    %rsi,%r11
    9457:	40 0f 92 c6          	setb   %sil
    945b:	4c 09 d8             	or     %r11,%rax
    945e:	45 31 db             	xor    %r11d,%r11d
    9461:	40 0f b6 f6          	movzbl %sil,%esi
    9465:	4c 31 c8             	xor    %r9,%rax
    9468:	49 89 f4             	mov    %rsi,%r12
    946b:	48 01 d8             	add    %rbx,%rax
    946e:	41 0f 92 c3          	setb   %r11b
    9472:	48 89 04 d1          	mov    %rax,(%rcx,%rdx,8)
    9476:	48 83 c2 01          	add    $0x1,%rdx
    947a:	4c 89 db             	mov    %r11,%rbx
    947d:	49 39 d0             	cmp    %rdx,%r8
    9480:	75 b6                	jne    9438 <mpz_ior+0xb8>
    9482:	48 85 f6             	test   %rsi,%rsi
    9485:	0f 85 08 01 00 00    	jne    9593 <mpz_ior+0x213>
    948b:	4d 39 c6             	cmp    %r8,%r14
    948e:	7e 58                	jle    94e8 <mpz_ior+0x168>
    9490:	48 8b 04 d7          	mov    (%rdi,%rdx,8),%rax
    9494:	4c 31 f8             	xor    %r15,%rax
    9497:	48 01 e8             	add    %rbp,%rax
    949a:	40 0f 92 c5          	setb   %bpl
    949e:	4c 09 e8             	or     %r13,%rax
    94a1:	31 f6                	xor    %esi,%esi
    94a3:	4c 31 c8             	xor    %r9,%rax
    94a6:	40 0f b6 ed          	movzbl %bpl,%ebp
    94aa:	48 01 d8             	add    %rbx,%rax
    94ad:	40 0f 92 c6          	setb   %sil
    94b1:	48 89 04 d1          	mov    %rax,(%rcx,%rdx,8)
    94b5:	48 83 c2 01          	add    $0x1,%rdx
    94b9:	48 89 f3             	mov    %rsi,%rbx
    94bc:	49 39 d6             	cmp    %rdx,%r14
    94bf:	75 cf                	jne    9490 <mpz_ior+0x110>
    94c1:	48 85 f6             	test   %rsi,%rsi
    94c4:	75 32                	jne    94f8 <mpz_ior+0x178>
    94c6:	4c 89 f0             	mov    %r14,%rax
    94c9:	0f 1f 80 00 00 00 00 	nopl   0x0(%rax)
    94d0:	48 83 7c c1 f8 00    	cmpq   $0x0,-0x8(%rcx,%rax,8)
    94d6:	75 2c                	jne    9504 <mpz_ior+0x184>
    94d8:	48 83 e8 01          	sub    $0x1,%rax
    94dc:	75 f2                	jne    94d0 <mpz_ior+0x150>
    94de:	31 c0                	xor    %eax,%eax
    94e0:	eb 22                	jmp    9504 <mpz_ior+0x184>
    94e2:	66 0f 1f 44 00 00    	nopw   0x0(%rax,%rax,1)
    94e8:	4d 85 db             	test   %r11,%r11
    94eb:	0f 84 92 00 00 00    	je     9583 <mpz_ior+0x203>
    94f1:	0f 1f 80 00 00 00 00 	nopl   0x0(%rax)
    94f8:	4a c7 04 f1 01 00 00 	movq   $0x1,(%rcx,%r14,8)
    94ff:	00 
    9500:	49 8d 46 01          	lea    0x1(%r14),%rax
    9504:	89 c2                	mov    %eax,%edx
    9506:	48 8b 7c 24 08       	mov    0x8(%rsp),%rdi
    950b:	f7 da                	neg    %edx
    950d:	4d 85 c9             	test   %r9,%r9
    9510:	0f 45 c2             	cmovne %edx,%eax
    9513:	89 47 04             	mov    %eax,0x4(%rdi)
    9516:	48 83 c4 38          	add    $0x38,%rsp
    951a:	5b                   	pop    %rbx
    951b:	5d                   	pop    %rbp
    951c:	41 5c                	pop    %r12
    951e:	41 5d                	pop    %r13
    9520:	41 5e                	pop    %r14
    9522:	41 5f                	pop    %r15
    9524:	c3                   	ret    
    9525:	0f 1f 00             	nopl   (%rax)
    9528:	48 8b 7c 24 08       	mov    0x8(%rsp),%rdi
    952d:	48 89 54 24 28       	mov    %rdx,0x28(%rsp)
    9532:	4c 89 54 24 20       	mov    %r10,0x20(%rsp)
    9537:	4c 89 4c 24 18       	mov    %r9,0x18(%rsp)
    953c:	4c 89 44 24 10       	mov    %r8,0x10(%rsp)
    9541:	e8 6a 6e ff ff       	call   3b0 <mpz_realloc>
    9546:	4c 8b 44 24 10       	mov    0x10(%rsp),%r8
    954b:	4c 8b 4c 24 18       	mov    0x18(%rsp),%r9
    9550:	4c 8b 54 24 20       	mov    0x20(%rsp),%r10
    9555:	48 8b 54 24 28       	mov    0x28(%rsp),%rdx
    955a:	48 89 c1             	mov    %rax,%rcx
    955d:	e9 c7 fe ff ff       	jmp    9429 <mpz_ior+0xa9>
    9562:	66 0f 1f 44 00 00    	nopw   0x0(%rax,%rax,1)
    9568:	48 8b 7c 24 08       	mov    0x8(%rsp),%rdi
    956d:	48 83 c4 38          	add    $0x38,%rsp
    9571:	4c 89 d6             	mov    %r10,%rsi
    9574:	5b                   	pop    %rbx
    9575:	5d                   	pop    %rbp
    9576:	41 5c                	pop    %r12
    9578:	41 5d                	pop    %r13
    957a:	41 5e                	pop    %r14
    957c:	41 5f                	pop    %r15
    957e:	e9 dd 98 ff ff       	jmp    2e60 <mpz_set>
    9583:	4d 85 f6             	test   %r14,%r14
    9586:	0f 85 3a ff ff ff    	jne    94c6 <mpz_ior+0x146>
    958c:	31 c0                	xor    %eax,%eax
    958e:	e9 71 ff ff ff       	jmp    9504 <mpz_ior+0x184>
    9593:	48 8d 0d 00 00 00 00 	lea    0x0(%rip),%rcx        # 959a <mpz_ior+0x21a>
    959a:	ba 5f 0f 00 00       	mov    $0xf5f,%edx
    959f:	48 8d 35 00 00 00 00 	lea    0x0(%rip),%rsi        # 95a6 <mpz_ior+0x226>
    95a6:	48 8d 3d 00 00 00 00 	lea    0x0(%rip),%rdi        # 95ad <mpz_ior+0x22d>
    95ad:	e8 00 00 00 00       	call   95b2 <mpz_ior+0x232>
    95b2:	66 66 2e 0f 1f 84 00 	data16 cs nopw 0x0(%rax,%rax,1)
    95b9:	00 00 00 00 
    95bd:	0f 1f 00             	nopl   (%rax)

00000000000095c0 <mpz_xor>:
    95c0:	f3 0f 1e fa          	endbr64 
    95c4:	41 57                	push   %r15
    95c6:	49 89 f2             	mov    %rsi,%r10
    95c9:	41 56                	push   %r14
    95cb:	41 55                	push   %r13
    95cd:	41 54                	push   %r12
    95cf:	55                   	push   %rbp
    95d0:	53                   	push   %rbx
    95d1:	48 83 ec 38          	sub    $0x38,%rsp
    95d5:	8b 46 04             	mov    0x4(%rsi),%eax
    95d8:	48 89 7c 24 08       	mov    %rdi,0x8(%rsp)
    95dd:	41 89 c6             	mov    %eax,%r14d
    95e0:	41 f7 de             	neg    %r14d
    95e3:	44 0f 48 f0          	cmovs  %eax,%r14d
    95e7:	8b 42 04             	mov    0x4(%rdx),%eax
    95ea:	41 89 c7             	mov    %eax,%r15d
    95ed:	4d 63 f6             	movslq %r14d,%r14
    95f0:	41 f7 df             	neg    %r15d
    95f3:	44 0f 48 f8          	cmovs  %eax,%r15d
    95f7:	4d 63 ff             	movslq %r15d,%r15
    95fa:	4d 39 fe             	cmp    %r15,%r14
    95fd:	7d 0f                	jge    960e <mpz_xor+0x4e>
    95ff:	4c 89 f0             	mov    %r14,%rax
    9602:	49 89 d2             	mov    %rdx,%r10
    9605:	4d 89 fe             	mov    %r15,%r14
    9608:	48 89 f2             	mov    %rsi,%rdx
    960b:	49 89 c7             	mov    %rax,%r15
    960e:	4d 85 ff             	test   %r15,%r15
    9611:	0f 84 91 01 00 00    	je     97a8 <mpz_xor+0x1e8>
    9617:	4d 63 62 04          	movslq 0x4(%r10),%r12
    961b:	4c 63 42 04          	movslq 0x4(%rdx),%r8
    961f:	48 8b 44 24 08       	mov    0x8(%rsp),%rax
    9624:	4c 89 e3             	mov    %r12,%rbx
    9627:	4c 89 e5             	mov    %r12,%rbp
    962a:	4d 89 c5             	mov    %r8,%r13
    962d:	49 c1 fc 3f          	sar    $0x3f,%r12
    9631:	48 63 00             	movslq (%rax),%rax
    9634:	48 c1 ed 3f          	shr    $0x3f,%rbp
    9638:	44 31 c3             	xor    %r8d,%ebx
    963b:	49 c1 ed 3f          	shr    $0x3f,%r13
    963f:	c1 eb 1f             	shr    $0x1f,%ebx
    9642:	49 c1 f8 3f          	sar    $0x3f,%r8
    9646:	0f b6 db             	movzbl %bl,%ebx
    9649:	49 89 d9             	mov    %rbx,%r9
    964c:	4a 8d 34 33          	lea    (%rbx,%r14,1),%rsi
    9650:	49 f7 d9             	neg    %r9
    9653:	48 39 c6             	cmp    %rax,%rsi
    9656:	0f 8f 0c 01 00 00    	jg     9768 <mpz_xor+0x1a8>
    965c:	48 8b 44 24 08       	mov    0x8(%rsp),%rax
    9661:	48 8b 48 08          	mov    0x8(%rax),%rcx
    9665:	49 8b 7a 08          	mov    0x8(%r10),%rdi
    9669:	4c 8b 52 08          	mov    0x8(%rdx),%r10
    966d:	31 d2                	xor    %edx,%edx
    966f:	90                   	nop
    9670:	48 8b 04 d7          	mov    (%rdi,%rdx,8),%rax
    9674:	49 8b 34 d2          	mov    (%r10,%rdx,8),%rsi
    9678:	4c 31 e0             	xor    %r12,%rax
    967b:	48 01 e8             	add    %rbp,%rax
    967e:	40 0f 92 c5          	setb   %bpl
    9682:	4c 31 c6             	xor    %r8,%rsi
    9685:	4c 01 ee             	add    %r13,%rsi
    9688:	40 0f b6 ed          	movzbl %bpl,%ebp
    968c:	49 89 f3             	mov    %rsi,%r11
    968f:	40 0f 92 c6          	setb   %sil
    9693:	4c 31 d8             	xor    %r11,%rax
    9696:	45 31 db             	xor    %r11d,%r11d
    9699:	40 0f b6 f6          	movzbl %sil,%esi
    969d:	4c 31 c8             	xor    %r9,%rax
    96a0:	49 89 f5             	mov    %rsi,%r13
    96a3:	48 01 d8             	add    %rbx,%rax
    96a6:	41 0f 92 c3          	setb   %r11b
    96aa:	48 89 04 d1          	mov    %rax,(%rcx,%rdx,8)
    96ae:	48 83 c2 01          	add    $0x1,%rdx
    96b2:	4c 89 db             	mov    %r11,%rbx
    96b5:	49 39 d7             	cmp    %rdx,%r15
    96b8:	75 b6                	jne    9670 <mpz_xor+0xb0>
    96ba:	48 85 f6             	test   %rsi,%rsi
    96bd:	0f 85 10 01 00 00    	jne    97d3 <mpz_xor+0x213>
    96c3:	4d 39 fe             	cmp    %r15,%r14
    96c6:	7e 60                	jle    9728 <mpz_xor+0x168>
    96c8:	0f 1f 84 00 00 00 00 	nopl   0x0(%rax,%rax,1)
    96cf:	00 
    96d0:	48 8b 04 d7          	mov    (%rdi,%rdx,8),%rax
    96d4:	4c 31 e0             	xor    %r12,%rax
    96d7:	48 01 e8             	add    %rbp,%rax
    96da:	40 0f 92 c5          	setb   %bpl
    96de:	4c 31 e0             	xor    %r12,%rax
    96e1:	31 f6                	xor    %esi,%esi
    96e3:	48 01 d8             	add    %rbx,%rax
    96e6:	40 0f b6 ed          	movzbl %bpl,%ebp
    96ea:	40 0f 92 c6          	setb   %sil
    96ee:	48 89 04 d1          	mov    %rax,(%rcx,%rdx,8)
    96f2:	48 83 c2 01          	add    $0x1,%rdx
    96f6:	48 89 f3             	mov    %rsi,%rbx
    96f9:	49 39 d6             	cmp    %rdx,%r14
    96fc:	75 d2                	jne    96d0 <mpz_xor+0x110>
    96fe:	48 85 f6             	test   %rsi,%rsi
    9701:	75 35                	jne    9738 <mpz_xor+0x178>
    9703:	4c 89 f0             	mov    %r14,%rax
    9706:	66 2e 0f 1f 84 00 00 	cs nopw 0x0(%rax,%rax,1)
    970d:	00 00 00 
    9710:	48 83 7c c1 f8 00    	cmpq   $0x0,-0x8(%rcx,%rax,8)
    9716:	75 2c                	jne    9744 <mpz_xor+0x184>
    9718:	48 83 e8 01          	sub    $0x1,%rax
    971c:	75 f2                	jne    9710 <mpz_xor+0x150>
    971e:	31 c0                	xor    %eax,%eax
    9720:	eb 22                	jmp    9744 <mpz_xor+0x184>
    9722:	66 0f 1f 44 00 00    	nopw   0x0(%rax,%rax,1)
    9728:	4d 85 db             	test   %r11,%r11
    972b:	0f 84 92 00 00 00    	je     97c3 <mpz_xor+0x203>
    9731:	0f 1f 80 00 00 00 00 	nopl   0x0(%rax)
    9738:	4a c7 04 f1 01 00 00 	movq   $0x1,(%rcx,%r14,8)
    973f:	00 
    9740:	49 8d 46 01          	lea    0x1(%r14),%rax
    9744:	89 c2                	mov    %eax,%edx
    9746:	48 8b 7c 24 08       	mov    0x8(%rsp),%rdi
    974b:	f7 da                	neg    %edx
    974d:	4d 85 c9             	test   %r9,%r9
    9750:	0f 45 c2             	cmovne %edx,%eax
    9753:	89 47 04             	mov    %eax,0x4(%rdi)
    9756:	48 83 c4 38          	add    $0x38,%rsp
    975a:	5b                   	pop    %rbx
    975b:	5d                   	pop    %rbp
    975c:	41 5c                	pop    %r12
    975e:	41 5d                	pop    %r13
    9760:	41 5e                	pop    %r14
    9762:	41 5f                	pop    %r15
    9764:	c3                   	ret    
    9765:	0f 1f 00             	nopl   (%rax)
    9768:	48 8b 7c 24 08       	mov    0x8(%rsp),%rdi
    976d:	48 89 54 24 28       	mov    %rdx,0x28(%rsp)
    9772:	4c 89 54 24 20       	mov    %r10,0x20(%rsp)
    9777:	4c 89 4c 24 18       	mov    %r9,0x18(%rsp)
    977c:	4c 89 44 24 10       	mov    %r8,0x10(%rsp)
    9781:	e8 2a 6c ff ff       	call   3b0 <mpz_realloc>
    9786:	4c 8b 44 24 10       	mov    0x10(%rsp),%r8
    978b:	4c 8b 4c 24 18       	mov    0x18(%rsp),%r9
    9790:	4c 8b 54 24 20       	mov    0x20(%rsp),%r10
    9795:	48 8b 54 24 28       	mov    0x28(%rsp),%rdx
    979a:	48 89 c1             	mov    %rax,%rcx
    979d:	e9 c3 fe ff ff       	jmp    9665 <mpz_xor+0xa5>
    97a2:	66 0f 1f 44 00 00    	nopw   0x0(%rax,%rax,1)
    97a8:	48 8b 7c 24 08       	mov    0x8(%rsp),%rdi
    97ad:	48 83 c4 38          	add    $0x38,%rsp
    97b1:	4c 89 d6             	mov    %r10,%rsi
    97b4:	5b                   	pop    %rbx
    97b5:	5d                   	pop    %rbp
    97b6:	41 5c                	pop    %r12
    97b8:	41 5d                	pop    %r13
    97ba:	41 5e                	pop    %r14
    97bc:	41 5f                	pop    %r15
    97be:	e9 9d 96 ff ff       	jmp    2e60 <mpz_set>
    97c3:	4d 85 f6             	test   %r14,%r14
    97c6:	0f 85 37 ff ff ff    	jne    9703 <mpz_xor+0x143>
    97cc:	31 c0                	xor    %eax,%eax
    97ce:	e9 71 ff ff ff       	jmp    9744 <mpz_xor+0x184>
    97d3:	48 8d 0d 00 00 00 00 	lea    0x0(%rip),%rcx        # 97da <mpz_xor+0x21a>
    97da:	ba a4 0f 00 00       	mov    $0xfa4,%edx
    97df:	48 8d 35 00 00 00 00 	lea    0x0(%rip),%rsi        # 97e6 <mpz_xor+0x226>
    97e6:	48 8d 3d 00 00 00 00 	lea    0x0(%rip),%rdi        # 97ed <mpz_xor+0x22d>
    97ed:	e8 00 00 00 00       	call   97f2 <mpz_xor+0x232>
    97f2:	66 66 2e 0f 1f 84 00 	data16 cs nopw 0x0(%rax,%rax,1)
    97f9:	00 00 00 00 
    97fd:	0f 1f 00             	nopl   (%rax)

0000000000009800 <mpn_popcount>:
    9800:	f3 0f 1e fa          	endbr64 
    9804:	48 85 f6             	test   %rsi,%rsi
    9807:	7e 64                	jle    986d <mpn_popcount+0x6d>
    9809:	4c 8d 0c f7          	lea    (%rdi,%rsi,8),%r9
    980d:	45 31 c0             	xor    %r8d,%r8d
    9810:	48 8b 0f             	mov    (%rdi),%rcx
    9813:	48 85 c9             	test   %rcx,%rcx
    9816:	74 48                	je     9860 <mpn_popcount+0x60>
    9818:	31 f6                	xor    %esi,%esi
    981a:	66 0f 1f 44 00 00    	nopw   0x0(%rax,%rax,1)
    9820:	48 89 c8             	mov    %rcx,%rax
    9823:	89 ca                	mov    %ecx,%edx
    9825:	48 d1 e8             	shr    %rax
    9828:	25 55 55 00 00       	and    $0x5555,%eax
    982d:	29 c2                	sub    %eax,%edx
    982f:	89 d0                	mov    %edx,%eax
    9831:	81 e2 33 33 00 00    	and    $0x3333,%edx
    9837:	c1 e8 02             	shr    $0x2,%eax
    983a:	25 33 33 00 00       	and    $0x3333,%eax
    983f:	01 d0                	add    %edx,%eax
    9841:	89 c2                	mov    %eax,%edx
    9843:	c1 ea 04             	shr    $0x4,%edx
    9846:	01 d0                	add    %edx,%eax
    9848:	89 c2                	mov    %eax,%edx
    984a:	83 e0 0f             	and    $0xf,%eax
    984d:	c1 ea 08             	shr    $0x8,%edx
    9850:	83 e2 0f             	and    $0xf,%edx
    9853:	01 d0                	add    %edx,%eax
    9855:	01 c6                	add    %eax,%esi
    9857:	48 c1 e9 10          	shr    $0x10,%rcx
    985b:	75 c3                	jne    9820 <mpn_popcount+0x20>
    985d:	49 01 f0             	add    %rsi,%r8
    9860:	48 83 c7 08          	add    $0x8,%rdi
    9864:	49 39 f9             	cmp    %rdi,%r9
    9867:	75 a7                	jne    9810 <mpn_popcount+0x10>
    9869:	4c 89 c0             	mov    %r8,%rax
    986c:	c3                   	ret    
    986d:	45 31 c0             	xor    %r8d,%r8d
    9870:	4c 89 c0             	mov    %r8,%rax
    9873:	c3                   	ret    
    9874:	66 66 2e 0f 1f 84 00 	data16 cs nopw 0x0(%rax,%rax,1)
    987b:	00 00 00 00 
    987f:	90                   	nop

0000000000009880 <mpz_popcount>:
    9880:	f3 0f 1e fa          	endbr64 
    9884:	48 63 47 04          	movslq 0x4(%rdi),%rax
    9888:	49 c7 c0 ff ff ff ff 	mov    $0xffffffffffffffff,%r8
    988f:	48 85 c0             	test   %rax,%rax
    9892:	78 6d                	js     9901 <mpz_popcount+0x81>
    9894:	48 8b 7f 08          	mov    0x8(%rdi),%rdi
    9898:	74 6b                	je     9905 <mpz_popcount+0x85>
    989a:	4c 8d 0c c7          	lea    (%rdi,%rax,8),%r9
    989e:	45 31 c0             	xor    %r8d,%r8d
    98a1:	0f 1f 80 00 00 00 00 	nopl   0x0(%rax)
    98a8:	48 8b 0f             	mov    (%rdi),%rcx
    98ab:	48 85 c9             	test   %rcx,%rcx
    98ae:	74 48                	je     98f8 <mpz_popcount+0x78>
    98b0:	31 f6                	xor    %esi,%esi
    98b2:	66 0f 1f 44 00 00    	nopw   0x0(%rax,%rax,1)
    98b8:	48 89 c8             	mov    %rcx,%rax
    98bb:	89 ca                	mov    %ecx,%edx
    98bd:	48 d1 e8             	shr    %rax
    98c0:	25 55 55 00 00       	and    $0x5555,%eax
    98c5:	29 c2                	sub    %eax,%edx
    98c7:	89 d0                	mov    %edx,%eax
    98c9:	81 e2 33 33 00 00    	and    $0x3333,%edx
    98cf:	c1 e8 02             	shr    $0x2,%eax
    98d2:	25 33 33 00 00       	and    $0x3333,%eax
    98d7:	01 d0                	add    %edx,%eax
    98d9:	89 c2                	mov    %eax,%edx
    98db:	c1 ea 04             	shr    $0x4,%edx
    98de:	01 d0                	add    %edx,%eax
    98e0:	89 c2                	mov    %eax,%edx
    98e2:	83 e0 0f             	and    $0xf,%eax
    98e5:	c1 ea 08             	shr    $0x8,%edx
    98e8:	83 e2 0f             	and    $0xf,%edx
    98eb:	01 d0                	add    %edx,%eax
    98ed:	01 c6                	add    %eax,%esi
    98ef:	48 c1 e9 10          	shr    $0x10,%rcx
    98f3:	75 c3                	jne    98b8 <mpz_popcount+0x38>
    98f5:	49 01 f0             	add    %rsi,%r8
    98f8:	48 83 c7 08          	add    $0x8,%rdi
    98fc:	49 39 f9             	cmp    %rdi,%r9
    98ff:	75 a7                	jne    98a8 <mpz_popcount+0x28>
    9901:	4c 89 c0             	mov    %r8,%rax
    9904:	c3                   	ret    
    9905:	45 31 c0             	xor    %r8d,%r8d
    9908:	eb f7                	jmp    9901 <mpz_popcount+0x81>
    990a:	66 0f 1f 44 00 00    	nopw   0x0(%rax,%rax,1)

0000000000009910 <mpz_hamdist>:
    9910:	f3 0f 1e fa          	endbr64 
    9914:	41 56                	push   %r14
    9916:	41 55                	push   %r13
    9918:	41 54                	push   %r12
    991a:	55                   	push   %rbp
    991b:	53                   	push   %rbx
    991c:	48 63 5f 04          	movslq 0x4(%rdi),%rbx
    9920:	4c 63 6e 04          	movslq 0x4(%rsi),%r13
    9924:	48 89 da             	mov    %rbx,%rdx
    9927:	44 31 ea             	xor    %r13d,%edx
    992a:	0f 88 e3 01 00 00    	js     9b13 <mpz_hamdist+0x203>
    9930:	48 89 f8             	mov    %rdi,%rax
    9933:	48 89 df             	mov    %rbx,%rdi
    9936:	48 c1 ef 3f          	shr    $0x3f,%rdi
    993a:	49 89 f9             	mov    %rdi,%r9
    993d:	49 89 f8             	mov    %rdi,%r8
    9940:	49 f7 d9             	neg    %r9
    9943:	48 85 db             	test   %rbx,%rbx
    9946:	78 2a                	js     9972 <mpz_hamdist+0x62>
    9948:	4c 8b 60 08          	mov    0x8(%rax),%r12
    994c:	48 8b 6e 08          	mov    0x8(%rsi),%rbp
    9950:	4c 39 eb             	cmp    %r13,%rbx
    9953:	7c 54                	jl     99a9 <mpz_hamdist+0x99>
    9955:	4d 85 ed             	test   %r13,%r13
    9958:	0f 8e a2 01 00 00    	jle    9b00 <mpz_hamdist+0x1f0>
    995e:	48 89 e8             	mov    %rbp,%rax
    9961:	4c 89 e5             	mov    %r12,%rbp
    9964:	49 89 c4             	mov    %rax,%r12
    9967:	4c 89 e8             	mov    %r13,%rax
    996a:	49 89 dd             	mov    %rbx,%r13
    996d:	48 89 c3             	mov    %rax,%rbx
    9970:	eb 40                	jmp    99b2 <mpz_hamdist+0xa2>
    9972:	4d 85 ed             	test   %r13,%r13
    9975:	0f 89 d5 01 00 00    	jns    9b50 <mpz_hamdist+0x240>
    997b:	48 89 da             	mov    %rbx,%rdx
    997e:	4c 89 e9             	mov    %r13,%rcx
    9981:	48 8b 68 08          	mov    0x8(%rax),%rbp
    9985:	4c 8b 66 08          	mov    0x8(%rsi),%r12
    9989:	48 f7 da             	neg    %rdx
    998c:	48 f7 d9             	neg    %rcx
    998f:	4c 39 eb             	cmp    %r13,%rbx
    9992:	0f 8e 5d 01 00 00    	jle    9af5 <mpz_hamdist+0x1e5>
    9998:	48 89 e8             	mov    %rbp,%rax
    999b:	48 89 d3             	mov    %rdx,%rbx
    999e:	4c 89 e5             	mov    %r12,%rbp
    99a1:	49 89 cd             	mov    %rcx,%r13
    99a4:	49 89 c4             	mov    %rax,%r12
    99a7:	eb 09                	jmp    99b2 <mpz_hamdist+0xa2>
    99a9:	48 85 db             	test   %rbx,%rbx
    99ac:	0f 84 74 01 00 00    	je     9b26 <mpz_hamdist+0x216>
    99b2:	45 31 d2             	xor    %r10d,%r10d
    99b5:	31 f6                	xor    %esi,%esi
    99b7:	66 0f 1f 84 00 00 00 	nopw   0x0(%rax,%rax,1)
    99be:	00 00 
    99c0:	48 8b 44 f5 00       	mov    0x0(%rbp,%rsi,8),%rax
    99c5:	4c 31 c8             	xor    %r9,%rax
    99c8:	4c 01 c0             	add    %r8,%rax
    99cb:	48 89 c1             	mov    %rax,%rcx
    99ce:	49 8b 04 f4          	mov    (%r12,%rsi,8),%rax
    99d2:	41 0f 92 c0          	setb   %r8b
    99d6:	45 31 db             	xor    %r11d,%r11d
    99d9:	48 89 ca             	mov    %rcx,%rdx
    99dc:	45 0f b6 c0          	movzbl %r8b,%r8d
    99e0:	4c 31 c8             	xor    %r9,%rax
    99e3:	48 01 f8             	add    %rdi,%rax
    99e6:	41 0f 92 c3          	setb   %r11b
    99ea:	48 31 c2             	xor    %rax,%rdx
    99ed:	4c 89 df             	mov    %r11,%rdi
    99f0:	48 39 c1             	cmp    %rax,%rcx
    99f3:	74 57                	je     9a4c <mpz_hamdist+0x13c>
    99f5:	31 c9                	xor    %ecx,%ecx
    99f7:	66 0f 1f 84 00 00 00 	nopw   0x0(%rax,%rax,1)
    99fe:	00 00 
    9a00:	48 89 d0             	mov    %rdx,%rax
    9a03:	41 89 d6             	mov    %edx,%r14d
    9a06:	48 d1 e8             	shr    %rax
    9a09:	25 55 55 00 00       	and    $0x5555,%eax
    9a0e:	41 29 c6             	sub    %eax,%r14d
    9a11:	44 89 f0             	mov    %r14d,%eax
    9a14:	41 81 e6 33 33 00 00 	and    $0x3333,%r14d
    9a1b:	c1 e8 02             	shr    $0x2,%eax
    9a1e:	25 33 33 00 00       	and    $0x3333,%eax
    9a23:	44 01 f0             	add    %r14d,%eax
    9a26:	41 89 c6             	mov    %eax,%r14d
    9a29:	41 c1 ee 04          	shr    $0x4,%r14d
    9a2d:	44 01 f0             	add    %r14d,%eax
    9a30:	41 89 c6             	mov    %eax,%r14d
    9a33:	83 e0 0f             	and    $0xf,%eax
    9a36:	41 c1 ee 08          	shr    $0x8,%r14d
    9a3a:	41 83 e6 0f          	and    $0xf,%r14d
    9a3e:	44 01 f0             	add    %r14d,%eax
    9a41:	01 c1                	add    %eax,%ecx
    9a43:	48 c1 ea 10          	shr    $0x10,%rdx
    9a47:	75 b7                	jne    9a00 <mpz_hamdist+0xf0>
    9a49:	49 01 ca             	add    %rcx,%r10
    9a4c:	48 83 c6 01          	add    $0x1,%rsi
    9a50:	48 39 de             	cmp    %rbx,%rsi
    9a53:	0f 8c 67 ff ff ff    	jl     99c0 <mpz_hamdist+0xb0>
    9a59:	4d 85 db             	test   %r11,%r11
    9a5c:	0f 85 cf 00 00 00    	jne    9b31 <mpz_hamdist+0x221>
    9a62:	49 39 dd             	cmp    %rbx,%r13
    9a65:	0f 8e 7e 00 00 00    	jle    9ae9 <mpz_hamdist+0x1d9>
    9a6b:	48 8d 74 dd 00       	lea    0x0(%rbp,%rbx,8),%rsi
    9a70:	4e 8d 5c ed 00       	lea    0x0(%rbp,%r13,8),%r11
    9a75:	0f 1f 00             	nopl   (%rax)
    9a78:	48 8b 06             	mov    (%rsi),%rax
    9a7b:	4c 89 c9             	mov    %r9,%rcx
    9a7e:	4c 31 c8             	xor    %r9,%rax
    9a81:	4c 01 c0             	add    %r8,%rax
    9a84:	41 0f 92 c0          	setb   %r8b
    9a88:	48 31 c1             	xor    %rax,%rcx
    9a8b:	45 0f b6 c0          	movzbl %r8b,%r8d
    9a8f:	49 39 c1             	cmp    %rax,%r9
    9a92:	74 4c                	je     9ae0 <mpz_hamdist+0x1d0>
    9a94:	31 ff                	xor    %edi,%edi
    9a96:	66 2e 0f 1f 84 00 00 	cs nopw 0x0(%rax,%rax,1)
    9a9d:	00 00 00 
    9aa0:	48 89 c8             	mov    %rcx,%rax
    9aa3:	89 ca                	mov    %ecx,%edx
    9aa5:	48 d1 e8             	shr    %rax
    9aa8:	25 55 55 00 00       	and    $0x5555,%eax
    9aad:	29 c2                	sub    %eax,%edx
    9aaf:	89 d0                	mov    %edx,%eax
    9ab1:	81 e2 33 33 00 00    	and    $0x3333,%edx
    9ab7:	c1 e8 02             	shr    $0x2,%eax
    9aba:	25 33 33 00 00       	and    $0x3333,%eax
    9abf:	01 d0                	add    %edx,%eax
    9ac1:	89 c2                	mov    %eax,%edx
    9ac3:	c1 ea 04             	shr    $0x4,%edx
    9ac6:	01 d0                	add    %edx,%eax
    9ac8:	89 c2                	mov    %eax,%edx
    9aca:	83 e0 0f             	and    $0xf,%eax
    9acd:	c1 ea 08             	shr    $0x8,%edx
    9ad0:	83 e2 0f             	and    $0xf,%edx
    9ad3:	01 d0                	add    %edx,%eax
    9ad5:	01 c7                	add    %eax,%edi
    9ad7:	48 c1 e9 10          	shr    $0x10,%rcx
    9adb:	75 c3                	jne    9aa0 <mpz_hamdist+0x190>
    9add:	49 01 fa             	add    %rdi,%r10
    9ae0:	48 83 c6 08          	add    $0x8,%rsi
    9ae4:	49 39 f3             	cmp    %rsi,%r11
    9ae7:	75 8f                	jne    9a78 <mpz_hamdist+0x168>
    9ae9:	5b                   	pop    %rbx
    9aea:	4c 89 d0             	mov    %r10,%rax
    9aed:	5d                   	pop    %rbp
    9aee:	41 5c                	pop    %r12
    9af0:	41 5d                	pop    %r13
    9af2:	41 5e                	pop    %r14
    9af4:	c3                   	ret    
    9af5:	48 89 cb             	mov    %rcx,%rbx
    9af8:	49 89 d5             	mov    %rdx,%r13
    9afb:	e9 b2 fe ff ff       	jmp    99b2 <mpz_hamdist+0xa2>
    9b00:	49 89 dd             	mov    %rbx,%r13
    9b03:	4c 89 e5             	mov    %r12,%rbp
    9b06:	45 31 d2             	xor    %r10d,%r10d
    9b09:	45 31 c0             	xor    %r8d,%r8d
    9b0c:	31 db                	xor    %ebx,%ebx
    9b0e:	e9 4f ff ff ff       	jmp    9a62 <mpz_hamdist+0x152>
    9b13:	49 c7 c2 ff ff ff ff 	mov    $0xffffffffffffffff,%r10
    9b1a:	5b                   	pop    %rbx
    9b1b:	5d                   	pop    %rbp
    9b1c:	4c 89 d0             	mov    %r10,%rax
    9b1f:	41 5c                	pop    %r12
    9b21:	41 5d                	pop    %r13
    9b23:	41 5e                	pop    %r14
    9b25:	c3                   	ret    
    9b26:	45 31 c0             	xor    %r8d,%r8d
    9b29:	45 31 d2             	xor    %r10d,%r10d
    9b2c:	e9 3a ff ff ff       	jmp    9a6b <mpz_hamdist+0x15b>
    9b31:	48 8d 0d 00 00 00 00 	lea    0x0(%rip),%rcx        # 9b38 <mpz_hamdist+0x228>
    9b38:	ba 0c 10 00 00       	mov    $0x100c,%edx
    9b3d:	48 8d 35 00 00 00 00 	lea    0x0(%rip),%rsi        # 9b44 <mpz_hamdist+0x234>
    9b44:	48 8d 3d 00 00 00 00 	lea    0x0(%rip),%rdi        # 9b4b <mpz_hamdist+0x23b>
    9b4b:	e8 00 00 00 00       	call   9b50 <mpz_hamdist+0x240>
    9b50:	48 8d 0d 00 00 00 00 	lea    0x0(%rip),%rcx        # 9b57 <mpz_hamdist+0x247>
    9b57:	ba f7 0f 00 00       	mov    $0xff7,%edx
    9b5c:	48 8d 35 00 00 00 00 	lea    0x0(%rip),%rsi        # 9b63 <mpz_hamdist+0x253>
    9b63:	48 8d 3d 00 00 00 00 	lea    0x0(%rip),%rdi        # 9b6a <mpz_hamdist+0x25a>
    9b6a:	e8 00 00 00 00       	call   9b6f <mpz_hamdist+0x25f>
    9b6f:	90                   	nop

0000000000009b70 <mpz_scan1>:
    9b70:	f3 0f 1e fa          	endbr64 
    9b74:	48 63 4f 04          	movslq 0x4(%rdi),%rcx
    9b78:	49 89 f0             	mov    %rsi,%r8
    9b7b:	41 89 c9             	mov    %ecx,%r9d
    9b7e:	41 f7 d9             	neg    %r9d
    9b81:	44 0f 48 c9          	cmovs  %ecx,%r9d
    9b85:	48 c1 ee 06          	shr    $0x6,%rsi
    9b89:	45 89 c9             	mov    %r9d,%r9d
    9b8c:	49 39 f1             	cmp    %rsi,%r9
    9b8f:	7e 37                	jle    9bc8 <mpz_scan1+0x58>
    9b91:	48 8b 57 08          	mov    0x8(%rdi),%rdx
    9b95:	48 8b 3c f2          	mov    (%rdx,%rsi,8),%rdi
    9b99:	4d 85 c0             	test   %r8,%r8
    9b9c:	74 1b                	je     9bb9 <mpz_scan1+0x49>
    9b9e:	45 31 d2             	xor    %r10d,%r10d
    9ba1:	48 85 c9             	test   %rcx,%rcx
    9ba4:	78 3a                	js     9be0 <mpz_scan1+0x70>
    9ba6:	44 89 c1             	mov    %r8d,%ecx
    9ba9:	48 c7 c0 ff ff ff ff 	mov    $0xffffffffffffffff,%rax
    9bb0:	4d 89 d0             	mov    %r10,%r8
    9bb3:	48 d3 e0             	shl    %cl,%rax
    9bb6:	48 21 c7             	and    %rax,%rdi
    9bb9:	4c 89 c9             	mov    %r9,%rcx
    9bbc:	e9 ef 65 ff ff       	jmp    1b0 <mpn_common_scan>
    9bc1:	0f 1f 80 00 00 00 00 	nopl   0x0(%rax)
    9bc8:	48 85 c9             	test   %rcx,%rcx
    9bcb:	48 c7 c0 ff ff ff ff 	mov    $0xffffffffffffffff,%rax
    9bd2:	49 0f 48 c0          	cmovs  %r8,%rax
    9bd6:	c3                   	ret    
    9bd7:	66 0f 1f 84 00 00 00 	nopw   0x0(%rax,%rax,1)
    9bde:	00 00 
    9be0:	48 89 f0             	mov    %rsi,%rax
    9be3:	48 85 f6             	test   %rsi,%rsi
    9be6:	75 0e                	jne    9bf6 <mpz_scan1+0x86>
    9be8:	eb 36                	jmp    9c20 <mpz_scan1+0xb0>
    9bea:	66 0f 1f 44 00 00    	nopw   0x0(%rax,%rax,1)
    9bf0:	48 83 e8 01          	sub    $0x1,%rax
    9bf4:	74 2a                	je     9c20 <mpz_scan1+0xb0>
    9bf6:	48 83 7c c2 f8 00    	cmpq   $0x0,-0x8(%rdx,%rax,8)
    9bfc:	74 f2                	je     9bf0 <mpz_scan1+0x80>
    9bfe:	31 c0                	xor    %eax,%eax
    9c00:	48 89 c1             	mov    %rax,%rcx
    9c03:	45 31 d2             	xor    %r10d,%r10d
    9c06:	48 29 f9             	sub    %rdi,%rcx
    9c09:	48 39 c7             	cmp    %rax,%rdi
    9c0c:	41 0f 93 c2          	setae  %r10b
    9c10:	48 8d 79 ff          	lea    -0x1(%rcx),%rdi
    9c14:	49 f7 da             	neg    %r10
    9c17:	eb 8d                	jmp    9ba6 <mpz_scan1+0x36>
    9c19:	0f 1f 80 00 00 00 00 	nopl   0x0(%rax)
    9c20:	b8 01 00 00 00       	mov    $0x1,%eax
    9c25:	eb d9                	jmp    9c00 <mpz_scan1+0x90>
    9c27:	66 0f 1f 84 00 00 00 	nopw   0x0(%rax,%rax,1)
    9c2e:	00 00 

0000000000009c30 <mpz_scan0>:
    9c30:	f3 0f 1e fa          	endbr64 
    9c34:	4c 63 47 04          	movslq 0x4(%rdi),%r8
    9c38:	48 89 f1             	mov    %rsi,%rcx
    9c3b:	4c 89 c2             	mov    %r8,%rdx
    9c3e:	49 f7 d0             	not    %r8
    9c41:	41 89 d1             	mov    %edx,%r9d
    9c44:	49 c1 f8 3f          	sar    $0x3f,%r8
    9c48:	41 f7 d9             	neg    %r9d
    9c4b:	44 0f 48 ca          	cmovs  %edx,%r9d
    9c4f:	48 c1 ee 06          	shr    $0x6,%rsi
    9c53:	45 89 c9             	mov    %r9d,%r9d
    9c56:	49 39 f1             	cmp    %rsi,%r9
    9c59:	7e 4d                	jle    9ca8 <mpz_scan0+0x78>
    9c5b:	4c 8b 57 08          	mov    0x8(%rdi),%r10
    9c5f:	49 8b 04 f2          	mov    (%r10,%rsi,8),%rax
    9c63:	4c 31 c0             	xor    %r8,%rax
    9c66:	4d 85 c0             	test   %r8,%r8
    9c69:	75 20                	jne    9c8b <mpz_scan0+0x5b>
    9c6b:	48 89 f2             	mov    %rsi,%rdx
    9c6e:	48 85 f6             	test   %rsi,%rsi
    9c71:	75 0b                	jne    9c7e <mpz_scan0+0x4e>
    9c73:	eb 4b                	jmp    9cc0 <mpz_scan0+0x90>
    9c75:	0f 1f 00             	nopl   (%rax)
    9c78:	48 83 ea 01          	sub    $0x1,%rdx
    9c7c:	74 42                	je     9cc0 <mpz_scan0+0x90>
    9c7e:	49 83 7c d2 f8 00    	cmpq   $0x0,-0x8(%r10,%rdx,8)
    9c84:	74 f2                	je     9c78 <mpz_scan0+0x48>
    9c86:	31 d2                	xor    %edx,%edx
    9c88:	48 29 d0             	sub    %rdx,%rax
    9c8b:	48 c7 c7 ff ff ff ff 	mov    $0xffffffffffffffff,%rdi
    9c92:	4c 89 d2             	mov    %r10,%rdx
    9c95:	48 d3 e7             	shl    %cl,%rdi
    9c98:	4c 89 c9             	mov    %r9,%rcx
    9c9b:	48 21 c7             	and    %rax,%rdi
    9c9e:	e9 0d 65 ff ff       	jmp    1b0 <mpn_common_scan>
    9ca3:	0f 1f 44 00 00       	nopl   0x0(%rax,%rax,1)
    9ca8:	4d 85 c0             	test   %r8,%r8
    9cab:	48 c7 c0 ff ff ff ff 	mov    $0xffffffffffffffff,%rax
    9cb2:	48 0f 45 c1          	cmovne %rcx,%rax
    9cb6:	c3                   	ret    
    9cb7:	66 0f 1f 84 00 00 00 	nopw   0x0(%rax,%rax,1)
    9cbe:	00 00 
    9cc0:	ba 01 00 00 00       	mov    $0x1,%edx
    9cc5:	eb c1                	jmp    9c88 <mpz_scan0+0x58>
    9cc7:	66 0f 1f 84 00 00 00 	nopw   0x0(%rax,%rax,1)
    9cce:	00 00 

0000000000009cd0 <mpz_sizeinbase>:
    9cd0:	f3 0f 1e fa          	endbr64 
    9cd4:	41 57                	push   %r15
    9cd6:	41 56                	push   %r14
    9cd8:	41 55                	push   %r13
    9cda:	41 54                	push   %r12
    9cdc:	55                   	push   %rbp
    9cdd:	53                   	push   %rbx
    9cde:	48 83 ec 48          	sub    $0x48,%rsp
    9ce2:	64 48 8b 04 25 28 00 	mov    %fs:0x28,%rax
    9ce9:	00 00 
    9ceb:	48 89 44 24 38       	mov    %rax,0x38(%rsp)
    9cf0:	31 c0                	xor    %eax,%eax
    9cf2:	83 fe 01             	cmp    $0x1,%esi
    9cf5:	0f 8e c6 01 00 00    	jle    9ec1 <mpz_sizeinbase+0x1f1>
    9cfb:	89 f3                	mov    %esi,%ebx
    9cfd:	83 fe 3e             	cmp    $0x3e,%esi
    9d00:	0f 8f 9c 01 00 00    	jg     9ea2 <mpz_sizeinbase+0x1d2>
    9d06:	8b 47 04             	mov    0x4(%rdi),%eax
    9d09:	41 bc 01 00 00 00    	mov    $0x1,%r12d
    9d0f:	85 c0                	test   %eax,%eax
    9d11:	75 2d                	jne    9d40 <mpz_sizeinbase+0x70>
    9d13:	48 8b 44 24 38       	mov    0x38(%rsp),%rax
    9d18:	64 48 2b 04 25 28 00 	sub    %fs:0x28,%rax
    9d1f:	00 00 
    9d21:	0f 85 76 01 00 00    	jne    9e9d <mpz_sizeinbase+0x1cd>
    9d27:	48 83 c4 48          	add    $0x48,%rsp
    9d2b:	4c 89 e0             	mov    %r12,%rax
    9d2e:	5b                   	pop    %rbx
    9d2f:	5d                   	pop    %rbp
    9d30:	41 5c                	pop    %r12
    9d32:	41 5d                	pop    %r13
    9d34:	41 5e                	pop    %r14
    9d36:	41 5f                	pop    %r15
    9d38:	c3                   	ret    
    9d39:	0f 1f 80 00 00 00 00 	nopl   0x0(%rax)
    9d40:	41 89 c5             	mov    %eax,%r13d
    9d43:	48 8b 77 08          	mov    0x8(%rdi),%rsi
    9d47:	41 f7 dd             	neg    %r13d
    9d4a:	44 0f 48 e8          	cmovs  %eax,%r13d
    9d4e:	4d 63 ed             	movslq %r13d,%r13
    9d51:	4a 8d 2c ed 00 00 00 	lea    0x0(,%r13,8),%rbp
    9d58:	00 
    9d59:	48 8b 44 2e f8       	mov    -0x8(%rsi,%rbp,1),%rax
    9d5e:	48 85 c0             	test   %rax,%rax
    9d61:	0f 84 79 01 00 00    	je     9ee0 <mpz_sizeinbase+0x210>
    9d67:	48 ba 00 00 00 00 00 	movabs $0xff00000000000000,%rdx
    9d6e:	00 00 ff 
    9d71:	31 c9                	xor    %ecx,%ecx
    9d73:	48 85 d0             	test   %rdx,%rax
    9d76:	75 14                	jne    9d8c <mpz_sizeinbase+0xbc>
    9d78:	0f 1f 84 00 00 00 00 	nopl   0x0(%rax,%rax,1)
    9d7f:	00 
    9d80:	48 c1 e0 08          	shl    $0x8,%rax
    9d84:	83 c1 08             	add    $0x8,%ecx
    9d87:	48 85 d0             	test   %rdx,%rax
    9d8a:	74 f4                	je     9d80 <mpz_sizeinbase+0xb0>
    9d8c:	48 85 c0             	test   %rax,%rax
    9d8f:	78 0f                	js     9da0 <mpz_sizeinbase+0xd0>
    9d91:	0f 1f 80 00 00 00 00 	nopl   0x0(%rax)
    9d98:	83 c1 01             	add    $0x1,%ecx
    9d9b:	48 01 c0             	add    %rax,%rax
    9d9e:	79 f8                	jns    9d98 <mpz_sizeinbase+0xc8>
    9da0:	4d 89 ec             	mov    %r13,%r12
    9da3:	49 c1 e4 06          	shl    $0x6,%r12
    9da7:	49 29 cc             	sub    %rcx,%r12
    9daa:	83 fb 20             	cmp    $0x20,%ebx
    9dad:	77 19                	ja     9dc8 <mpz_sizeinbase+0xf8>
    9daf:	48 8d 15 00 00 00 00 	lea    0x0(%rip),%rdx        # 9db6 <mpz_sizeinbase+0xe6>
    9db6:	89 d8                	mov    %ebx,%eax
    9db8:	48 63 04 82          	movslq (%rdx,%rax,4),%rax
    9dbc:	48 01 d0             	add    %rdx,%rax
    9dbf:	3e ff e0             	notrack jmp *%rax
    9dc2:	66 0f 1f 44 00 00    	nopw   0x0(%rax,%rax,1)
    9dc8:	48 89 74 24 08       	mov    %rsi,0x8(%rsp)
    9dcd:	48 89 ef             	mov    %rbp,%rdi
    9dd0:	4d 89 ee             	mov    %r13,%r14
    9dd3:	ff 15 00 00 00 00    	call   *0x0(%rip)        # 9dd9 <mpz_sizeinbase+0x109>
    9dd9:	48 8b 74 24 08       	mov    0x8(%rsp),%rsi
    9dde:	49 89 c7             	mov    %rax,%r15
    9de1:	31 c0                	xor    %eax,%eax
    9de3:	0f 1f 44 00 00       	nopl   0x0(%rax,%rax,1)
    9de8:	48 8b 14 c6          	mov    (%rsi,%rax,8),%rdx
    9dec:	49 89 14 c7          	mov    %rdx,(%r15,%rax,8)
    9df0:	48 83 c0 01          	add    $0x1,%rax
    9df4:	49 39 c5             	cmp    %rax,%r13
    9df7:	7f ef                	jg     9de8 <mpz_sizeinbase+0x118>
    9df9:	48 63 f3             	movslq %ebx,%rsi
    9dfc:	48 8d 5c 24 10       	lea    0x10(%rsp),%rbx
    9e01:	45 31 e4             	xor    %r12d,%r12d
    9e04:	48 89 df             	mov    %rbx,%rdi
    9e07:	e8 84 89 ff ff       	call   2790 <mpn_div_qr_1_invert>
    9e0c:	0f 1f 40 00          	nopl   0x0(%rax)
    9e10:	4c 89 f2             	mov    %r14,%rdx
    9e13:	48 89 d9             	mov    %rbx,%rcx
    9e16:	4c 89 fe             	mov    %r15,%rsi
    9e19:	4c 89 ff             	mov    %r15,%rdi
    9e1c:	e8 2f 7a ff ff       	call   1850 <mpn_div_qr_1_preinv>
    9e21:	49 83 c4 01          	add    $0x1,%r12
    9e25:	4b 83 7c f7 f8 01    	cmpq   $0x1,-0x8(%r15,%r14,8)
    9e2b:	49 83 de 00          	sbb    $0x0,%r14
    9e2f:	4d 85 f6             	test   %r14,%r14
    9e32:	75 dc                	jne    9e10 <mpz_sizeinbase+0x140>
    9e34:	48 89 ee             	mov    %rbp,%rsi
    9e37:	4c 89 ff             	mov    %r15,%rdi
    9e3a:	ff 15 00 00 00 00    	call   *0x0(%rip)        # 9e40 <mpz_sizeinbase+0x170>
    9e40:	e9 ce fe ff ff       	jmp    9d13 <mpz_sizeinbase+0x43>
    9e45:	48 ba cd cc cc cc cc 	movabs $0xcccccccccccccccd,%rdx
    9e4c:	cc cc cc 
    9e4f:	49 83 c4 04          	add    $0x4,%r12
    9e53:	4c 89 e0             	mov    %r12,%rax
    9e56:	48 f7 e2             	mul    %rdx
    9e59:	49 89 d4             	mov    %rdx,%r12
    9e5c:	49 c1 ec 02          	shr    $0x2,%r12
    9e60:	e9 ae fe ff ff       	jmp    9d13 <mpz_sizeinbase+0x43>
    9e65:	49 83 c4 03          	add    $0x3,%r12
    9e69:	49 c1 ec 02          	shr    $0x2,%r12
    9e6d:	e9 a1 fe ff ff       	jmp    9d13 <mpz_sizeinbase+0x43>
    9e72:	48 ba ab aa aa aa aa 	movabs $0xaaaaaaaaaaaaaaab,%rdx
    9e79:	aa aa aa 
    9e7c:	49 83 c4 02          	add    $0x2,%r12
    9e80:	4c 89 e0             	mov    %r12,%rax
    9e83:	48 f7 e2             	mul    %rdx
    9e86:	49 89 d4             	mov    %rdx,%r12
    9e89:	49 d1 ec             	shr    %r12
    9e8c:	e9 82 fe ff ff       	jmp    9d13 <mpz_sizeinbase+0x43>
    9e91:	49 83 c4 01          	add    $0x1,%r12
    9e95:	49 d1 ec             	shr    %r12
    9e98:	e9 76 fe ff ff       	jmp    9d13 <mpz_sizeinbase+0x43>
    9e9d:	e8 00 00 00 00       	call   9ea2 <mpz_sizeinbase+0x1d2>
    9ea2:	48 8d 0d 00 00 00 00 	lea    0x0(%rip),%rcx        # 9ea9 <mpz_sizeinbase+0x1d9>
    9ea9:	ba 68 10 00 00       	mov    $0x1068,%edx
    9eae:	48 8d 35 00 00 00 00 	lea    0x0(%rip),%rsi        # 9eb5 <mpz_sizeinbase+0x1e5>
    9eb5:	48 8d 3d 00 00 00 00 	lea    0x0(%rip),%rdi        # 9ebc <mpz_sizeinbase+0x1ec>
    9ebc:	e8 00 00 00 00       	call   9ec1 <mpz_sizeinbase+0x1f1>
    9ec1:	48 8d 0d 00 00 00 00 	lea    0x0(%rip),%rcx        # 9ec8 <mpz_sizeinbase+0x1f8>
    9ec8:	ba 67 10 00 00       	mov    $0x1067,%edx
    9ecd:	48 8d 35 00 00 00 00 	lea    0x0(%rip),%rsi        # 9ed4 <mpz_sizeinbase+0x204>
    9ed4:	48 8d 3d 00 00 00 00 	lea    0x0(%rip),%rdi        # 9edb <mpz_sizeinbase+0x20b>
    9edb:	e8 00 00 00 00       	call   9ee0 <mpz_sizeinbase+0x210>
    9ee0:	e8 9b 65 ff ff       	call   480 <mpn_limb_size_in_base_2.part.0>
    9ee5:	66 66 2e 0f 1f 84 00 	data16 cs nopw 0x0(%rax,%rax,1)
    9eec:	00 00 00 00 

0000000000009ef0 <mpz_get_str>:
    9ef0:	f3 0f 1e fa          	endbr64 
    9ef4:	41 57                	push   %r15
    9ef6:	41 56                	push   %r14
    9ef8:	41 55                	push   %r13
    9efa:	41 54                	push   %r12
    9efc:	49 89 fc             	mov    %rdi,%r12
    9eff:	55                   	push   %rbp
    9f00:	89 f5                	mov    %esi,%ebp
    9f02:	53                   	push   %rbx
    9f03:	48 89 d3             	mov    %rdx,%rbx
    9f06:	48 83 ec 48          	sub    $0x48,%rsp
    9f0a:	64 48 8b 04 25 28 00 	mov    %fs:0x28,%rax
    9f11:	00 00 
    9f13:	48 89 44 24 38       	mov    %rax,0x38(%rsp)
    9f18:	31 c0                	xor    %eax,%eax
    9f1a:	83 fe 01             	cmp    $0x1,%esi
    9f1d:	0f 8e 2d 01 00 00    	jle    a050 <mpz_get_str+0x160>
    9f23:	83 fe 24             	cmp    $0x24,%esi
    9f26:	0f 8e 14 01 00 00    	jle    a040 <mpz_get_str+0x150>
    9f2c:	83 fe 3e             	cmp    $0x3e,%esi
    9f2f:	0f 8f 8b 01 00 00    	jg     a0c0 <mpz_get_str+0x1d0>
    9f35:	4c 8d 2d 00 00 00 00 	lea    0x0(%rip),%r13        # 9f3c <mpz_get_str+0x4c>
    9f3c:	89 ee                	mov    %ebp,%esi
    9f3e:	48 89 df             	mov    %rbx,%rdi
    9f41:	45 31 ff             	xor    %r15d,%r15d
    9f44:	e8 00 00 00 00       	call   9f49 <mpz_get_str+0x59>
    9f49:	4d 85 e4             	test   %r12,%r12
    9f4c:	0f 84 9e 01 00 00    	je     a0f0 <mpz_get_str+0x200>
    9f52:	8b 43 04             	mov    0x4(%rbx),%eax
    9f55:	85 c0                	test   %eax,%eax
    9f57:	0f 84 13 01 00 00    	je     a070 <mpz_get_str+0x180>
    9f5d:	48 c7 04 24 00 00 00 	movq   $0x0,(%rsp)
    9f64:	00 
    9f65:	4d 89 e1             	mov    %r12,%r9
    9f68:	79 12                	jns    9f7c <mpz_get_str+0x8c>
    9f6a:	41 c6 04 24 2d       	movb   $0x2d,(%r12)
    9f6f:	4d 8d 4c 24 01       	lea    0x1(%r12),%r9
    9f74:	48 c7 04 24 01 00 00 	movq   $0x1,(%rsp)
    9f7b:	00 
    9f7c:	41 89 c0             	mov    %eax,%r8d
    9f7f:	89 ef                	mov    %ebp,%edi
    9f81:	41 f7 d8             	neg    %r8d
    9f84:	44 0f 48 c0          	cmovs  %eax,%r8d
    9f88:	4d 63 c0             	movslq %r8d,%r8
    9f8b:	e8 70 60 ff ff       	call   0 <mpn_base_power_of_two_p>
    9f90:	85 c0                	test   %eax,%eax
    9f92:	0f 85 70 01 00 00    	jne    a108 <mpz_get_str+0x218>
    9f98:	48 63 fd             	movslq %ebp,%rdi
    9f9b:	41 ba 01 00 00 00    	mov    $0x1,%r10d
    9fa1:	48 89 fe             	mov    %rdi,%rsi
    9fa4:	0f 1f 40 00          	nopl   0x0(%rax)
    9fa8:	48 0f af f7          	imul   %rdi,%rsi
    9fac:	41 83 c2 01          	add    $0x1,%r10d
    9fb0:	48 89 f0             	mov    %rsi,%rax
    9fb3:	48 f7 e7             	mul    %rdi
    9fb6:	71 f0                	jno    9fa8 <mpz_get_str+0xb8>
    9fb8:	4a 8d 04 c5 00 00 00 	lea    0x0(,%r8,8),%rax
    9fbf:	00 
    9fc0:	4c 89 4c 24 18       	mov    %r9,0x18(%rsp)
    9fc5:	4c 89 44 24 10       	mov    %r8,0x10(%rsp)
    9fca:	48 89 c7             	mov    %rax,%rdi
    9fcd:	44 89 54 24 20       	mov    %r10d,0x20(%rsp)
    9fd2:	48 89 74 24 28       	mov    %rsi,0x28(%rsp)
    9fd7:	48 89 44 24 08       	mov    %rax,0x8(%rsp)
    9fdc:	ff 15 00 00 00 00    	call   *0x0(%rip)        # 9fe2 <mpz_get_str+0xf2>
    9fe2:	48 8b 4b 08          	mov    0x8(%rbx),%rcx
    9fe6:	4c 8b 4c 24 18       	mov    0x18(%rsp),%r9
    9feb:	4c 8b 44 24 10       	mov    0x10(%rsp),%r8
    9ff0:	49 89 c6             	mov    %rax,%r14
    9ff3:	31 c0                	xor    %eax,%eax
    9ff5:	0f 1f 00             	nopl   (%rax)
    9ff8:	48 8b 14 c1          	mov    (%rcx,%rax,8),%rdx
    9ffc:	49 89 14 c6          	mov    %rdx,(%r14,%rax,8)
    a000:	48 83 c0 01          	add    $0x1,%rax
    a004:	49 39 c0             	cmp    %rax,%r8
    a007:	7f ef                	jg     9ff8 <mpz_get_str+0x108>
    a009:	89 ee                	mov    %ebp,%esi
    a00b:	4c 89 cf             	mov    %r9,%rdi
    a00e:	48 8d 54 24 20       	lea    0x20(%rsp),%rdx
    a013:	4c 89 f1             	mov    %r14,%rcx
    a016:	e8 f5 87 ff ff       	call   2810 <mpn_get_str_other>
    a01b:	48 8b 1c 24          	mov    (%rsp),%rbx
    a01f:	48 8b 74 24 08       	mov    0x8(%rsp),%rsi
    a024:	4c 89 f7             	mov    %r14,%rdi
    a027:	48 8d 2c 18          	lea    (%rax,%rbx,1),%rbp
    a02b:	ff 15 00 00 00 00    	call   *0x0(%rip)        # a031 <mpz_get_str+0x141>
    a031:	e9 eb 00 00 00       	jmp    a121 <mpz_get_str+0x231>
    a036:	66 2e 0f 1f 84 00 00 	cs nopw 0x0(%rax,%rax,1)
    a03d:	00 00 00 
    a040:	4c 8d 2d 00 00 00 00 	lea    0x0(%rip),%r13        # a047 <mpz_get_str+0x157>
    a047:	e9 f0 fe ff ff       	jmp    9f3c <mpz_get_str+0x4c>
    a04c:	0f 1f 40 00          	nopl   0x0(%rax)
    a050:	83 fe ff             	cmp    $0xffffffff,%esi
    a053:	0f 8c 07 01 00 00    	jl     a160 <mpz_get_str+0x270>
    a059:	4c 8d 2d 00 00 00 00 	lea    0x0(%rip),%r13        # a060 <mpz_get_str+0x170>
    a060:	bd 0a 00 00 00       	mov    $0xa,%ebp
    a065:	e9 d2 fe ff ff       	jmp    9f3c <mpz_get_str+0x4c>
    a06a:	66 0f 1f 44 00 00    	nopw   0x0(%rax,%rax,1)
    a070:	41 c6 04 24 30       	movb   $0x30,(%r12)
    a075:	bd 01 00 00 00       	mov    $0x1,%ebp
    a07a:	41 c6 04 2c 00       	movb   $0x0,(%r12,%rbp,1)
    a07f:	4d 85 ff             	test   %r15,%r15
    a082:	74 44                	je     a0c8 <mpz_get_str+0x1d8>
    a084:	48 8d 55 01          	lea    0x1(%rbp),%rdx
    a088:	4c 39 fa             	cmp    %r15,%rdx
    a08b:	74 3b                	je     a0c8 <mpz_get_str+0x1d8>
    a08d:	48 8b 44 24 38       	mov    0x38(%rsp),%rax
    a092:	64 48 2b 04 25 28 00 	sub    %fs:0x28,%rax
    a099:	00 00 
    a09b:	0f 85 d3 00 00 00    	jne    a174 <mpz_get_str+0x284>
    a0a1:	48 83 c4 48          	add    $0x48,%rsp
    a0a5:	4c 89 fe             	mov    %r15,%rsi
    a0a8:	4c 89 e7             	mov    %r12,%rdi
    a0ab:	5b                   	pop    %rbx
    a0ac:	5d                   	pop    %rbp
    a0ad:	41 5c                	pop    %r12
    a0af:	41 5d                	pop    %r13
    a0b1:	41 5e                	pop    %r14
    a0b3:	41 5f                	pop    %r15
    a0b5:	ff 25 00 00 00 00    	jmp    *0x0(%rip)        # a0bb <mpz_get_str+0x1cb>
    a0bb:	0f 1f 44 00 00       	nopl   0x0(%rax,%rax,1)
    a0c0:	45 31 e4             	xor    %r12d,%r12d
    a0c3:	0f 1f 44 00 00       	nopl   0x0(%rax,%rax,1)
    a0c8:	48 8b 44 24 38       	mov    0x38(%rsp),%rax
    a0cd:	64 48 2b 04 25 28 00 	sub    %fs:0x28,%rax
    a0d4:	00 00 
    a0d6:	0f 85 98 00 00 00    	jne    a174 <mpz_get_str+0x284>
    a0dc:	48 83 c4 48          	add    $0x48,%rsp
    a0e0:	4c 89 e0             	mov    %r12,%rax
    a0e3:	5b                   	pop    %rbx
    a0e4:	5d                   	pop    %rbp
    a0e5:	41 5c                	pop    %r12
    a0e7:	41 5d                	pop    %r13
    a0e9:	41 5e                	pop    %r14
    a0eb:	41 5f                	pop    %r15
    a0ed:	c3                   	ret    
    a0ee:	66 90                	xchg   %ax,%ax
    a0f0:	4c 8d 78 02          	lea    0x2(%rax),%r15
    a0f4:	4c 89 ff             	mov    %r15,%rdi
    a0f7:	ff 15 00 00 00 00    	call   *0x0(%rip)        # a0fd <mpz_get_str+0x20d>
    a0fd:	49 89 c4             	mov    %rax,%r12
    a100:	e9 4d fe ff ff       	jmp    9f52 <mpz_get_str+0x62>
    a105:	0f 1f 00             	nopl   (%rax)
    a108:	48 8b 53 08          	mov    0x8(%rbx),%rdx
    a10c:	4c 89 c1             	mov    %r8,%rcx
    a10f:	89 c6                	mov    %eax,%esi
    a111:	4c 89 cf             	mov    %r9,%rdi
    a114:	e8 c7 63 ff ff       	call   4e0 <mpn_get_str_bits>
    a119:	48 8b 1c 24          	mov    (%rsp),%rbx
    a11d:	48 8d 2c 18          	lea    (%rax,%rbx,1),%rbp
    a121:	48 8b 1c 24          	mov    (%rsp),%rbx
    a125:	49 8d 04 2c          	lea    (%r12,%rbp,1),%rax
    a129:	49 8d 0c 1c          	lea    (%r12,%rbx,1),%rcx
    a12d:	48 39 eb             	cmp    %rbp,%rbx
    a130:	0f 83 44 ff ff ff    	jae    a07a <mpz_get_str+0x18a>
    a136:	66 2e 0f 1f 84 00 00 	cs nopw 0x0(%rax,%rax,1)
    a13d:	00 00 00 
    a140:	0f b6 31             	movzbl (%rcx),%esi
    a143:	48 83 c1 01          	add    $0x1,%rcx
    a147:	41 0f b6 74 35 00    	movzbl 0x0(%r13,%rsi,1),%esi
    a14d:	40 88 71 ff          	mov    %sil,-0x1(%rcx)
    a151:	48 39 c8             	cmp    %rcx,%rax
    a154:	75 ea                	jne    a140 <mpz_get_str+0x250>
    a156:	e9 1f ff ff ff       	jmp    a07a <mpz_get_str+0x18a>
    a15b:	0f 1f 44 00 00       	nopl   0x0(%rax,%rax,1)
    a160:	89 f0                	mov    %esi,%eax
    a162:	f7 d8                	neg    %eax
    a164:	83 fe dc             	cmp    $0xffffffdc,%esi
    a167:	0f 8c 53 ff ff ff    	jl     a0c0 <mpz_get_str+0x1d0>
    a16d:	89 c5                	mov    %eax,%ebp
    a16f:	e9 c1 fd ff ff       	jmp    9f35 <mpz_get_str+0x45>
    a174:	e8 00 00 00 00       	call   a179 <mpz_get_str+0x289>
    a179:	0f 1f 80 00 00 00 00 	nopl   0x0(%rax)

000000000000a180 <mpz_set_str>:
    a180:	f3 0f 1e fa          	endbr64 
    a184:	8d 42 fe             	lea    -0x2(%rdx),%eax
    a187:	83 f8 3c             	cmp    $0x3c,%eax
    a18a:	76 04                	jbe    a190 <mpz_set_str+0x10>
    a18c:	85 d2                	test   %edx,%edx
    a18e:	75 05                	jne    a195 <mpz_set_str+0x15>
    a190:	e9 ab 6e ff ff       	jmp    1040 <mpz_set_str.part.0>
    a195:	50                   	push   %rax
    a196:	48 8d 0d 00 00 00 00 	lea    0x0(%rip),%rcx        # a19d <mpz_set_str+0x1d>
    a19d:	ba e8 10 00 00       	mov    $0x10e8,%edx
    a1a2:	48 8d 35 00 00 00 00 	lea    0x0(%rip),%rsi        # a1a9 <mpz_set_str+0x29>
    a1a9:	48 8d 3d 00 00 00 00 	lea    0x0(%rip),%rdi        # a1b0 <mpz_set_str+0x30>
    a1b0:	e8 00 00 00 00       	call   a1b5 <mpz_set_str+0x35>
    a1b5:	66 66 2e 0f 1f 84 00 	data16 cs nopw 0x0(%rax,%rax,1)
    a1bc:	00 00 00 00 

000000000000a1c0 <mpz_init_set_str>:
    a1c0:	f3 0f 1e fa          	endbr64 
    a1c4:	48 8d 05 00 00 00 00 	lea    0x0(%rip),%rax        # a1cb <mpz_init_set_str+0xb>
    a1cb:	48 c7 07 00 00 00 00 	movq   $0x0,(%rdi)
    a1d2:	48 89 47 08          	mov    %rax,0x8(%rdi)
    a1d6:	8d 42 fe             	lea    -0x2(%rdx),%eax
    a1d9:	83 f8 3c             	cmp    $0x3c,%eax
    a1dc:	76 04                	jbe    a1e2 <mpz_init_set_str+0x22>
    a1de:	85 d2                	test   %edx,%edx
    a1e0:	75 05                	jne    a1e7 <mpz_init_set_str+0x27>
    a1e2:	e9 59 6e ff ff       	jmp    1040 <mpz_set_str.part.0>
    a1e7:	50                   	push   %rax
    a1e8:	48 8d 0d 00 00 00 00 	lea    0x0(%rip),%rcx        # a1ef <mpz_init_set_str+0x2f>
    a1ef:	ba e8 10 00 00       	mov    $0x10e8,%edx
    a1f4:	48 8d 35 00 00 00 00 	lea    0x0(%rip),%rsi        # a1fb <mpz_init_set_str+0x3b>
    a1fb:	48 8d 3d 00 00 00 00 	lea    0x0(%rip),%rdi        # a202 <mpz_init_set_str+0x42>
    a202:	e8 00 00 00 00       	call   a207 <mpz_init_set_str+0x47>
    a207:	66 0f 1f 84 00 00 00 	nopw   0x0(%rax,%rax,1)
    a20e:	00 00 

000000000000a210 <mpz_out_str>:
    a210:	f3 0f 1e fa          	endbr64 
    a214:	41 55                	push   %r13
    a216:	49 89 fd             	mov    %rdi,%r13
    a219:	31 ff                	xor    %edi,%edi
    a21b:	41 54                	push   %r12
    a21d:	45 31 e4             	xor    %r12d,%r12d
    a220:	55                   	push   %rbp
    a221:	53                   	push   %rbx
    a222:	48 83 ec 08          	sub    $0x8,%rsp
    a226:	e8 00 00 00 00       	call   a22b <mpz_out_str+0x1b>
    a22b:	48 85 c0             	test   %rax,%rax
    a22e:	74 31                	je     a261 <mpz_out_str+0x51>
    a230:	48 89 c7             	mov    %rax,%rdi
    a233:	48 89 c5             	mov    %rax,%rbp
    a236:	e8 00 00 00 00       	call   a23b <mpz_out_str+0x2b>
    a23b:	be 01 00 00 00       	mov    $0x1,%esi
    a240:	48 89 ef             	mov    %rbp,%rdi
    a243:	4c 89 e9             	mov    %r13,%rcx
    a246:	48 89 c2             	mov    %rax,%rdx
    a249:	48 89 c3             	mov    %rax,%rbx
    a24c:	e8 00 00 00 00       	call   a251 <mpz_out_str+0x41>
    a251:	48 8d 73 01          	lea    0x1(%rbx),%rsi
    a255:	48 89 ef             	mov    %rbp,%rdi
    a258:	49 89 c4             	mov    %rax,%r12
    a25b:	ff 15 00 00 00 00    	call   *0x0(%rip)        # a261 <mpz_out_str+0x51>
    a261:	48 83 c4 08          	add    $0x8,%rsp
    a265:	4c 89 e0             	mov    %r12,%rax
    a268:	5b                   	pop    %rbx
    a269:	5d                   	pop    %rbp
    a26a:	41 5c                	pop    %r12
    a26c:	41 5d                	pop    %r13
    a26e:	c3                   	ret    
    a26f:	90                   	nop

000000000000a270 <mpz_import>:
    a270:	f3 0f 1e fa          	endbr64 
    a274:	41 57                	push   %r15
    a276:	41 56                	push   %r14
    a278:	41 55                	push   %r13
    a27a:	41 54                	push   %r12
    a27c:	55                   	push   %rbp
    a27d:	53                   	push   %rbx
    a27e:	48 83 ec 18          	sub    $0x18,%rsp
    a282:	4c 8b 6c 24 50       	mov    0x50(%rsp),%r13
    a287:	4d 85 c9             	test   %r9,%r9
    a28a:	0f 85 68 01 00 00    	jne    a3f8 <mpz_import+0x188>
    a290:	89 d0                	mov    %edx,%eax
    a292:	8d 52 01             	lea    0x1(%rdx),%edx
    a295:	83 e2 fd             	and    $0xfffffffd,%edx
    a298:	0f 85 a4 01 00 00    	jne    a442 <mpz_import+0x1d2>
    a29e:	41 8d 50 01          	lea    0x1(%r8),%edx
    a2a2:	45 89 c7             	mov    %r8d,%r15d
    a2a5:	83 fa 02             	cmp    $0x2,%edx
    a2a8:	0f 87 56 01 00 00    	ja     a404 <mpz_import+0x194>
    a2ae:	45 85 c0             	test   %r8d,%r8d
    a2b1:	ba ff ff ff ff       	mov    $0xffffffff,%edx
    a2b6:	4c 8d 34 09          	lea    (%rcx,%rcx,1),%r14
    a2ba:	49 89 fc             	mov    %rdi,%r12
    a2bd:	44 0f 44 fa          	cmove  %edx,%r15d
    a2c1:	48 89 f5             	mov    %rsi,%rbp
    a2c4:	48 89 cb             	mov    %rcx,%rbx
    a2c7:	41 39 c7             	cmp    %eax,%r15d
    a2ca:	4d 0f 44 f1          	cmove  %r9,%r14
    a2ce:	83 f8 01             	cmp    $0x1,%eax
    a2d1:	75 0e                	jne    a2e1 <mpz_import+0x71>
    a2d3:	48 8d 46 ff          	lea    -0x1(%rsi),%rax
    a2d7:	49 f7 de             	neg    %r14
    a2da:	48 0f af c1          	imul   %rcx,%rax
    a2de:	49 01 c5             	add    %rax,%r13
    a2e1:	41 83 ff 01          	cmp    $0x1,%r15d
    a2e5:	49 8d 44 1d ff       	lea    -0x1(%r13,%rbx,1),%rax
    a2ea:	4c 0f 44 e8          	cmove  %rax,%r13
    a2ee:	48 89 d8             	mov    %rbx,%rax
    a2f1:	48 0f af c5          	imul   %rbp,%rax
    a2f5:	48 83 c0 07          	add    $0x7,%rax
    a2f9:	48 c1 e8 03          	shr    $0x3,%rax
    a2fd:	48 89 44 24 08       	mov    %rax,0x8(%rsp)
    a302:	48 89 c1             	mov    %rax,%rcx
    a305:	49 63 04 24          	movslq (%r12),%rax
    a309:	48 39 c8             	cmp    %rcx,%rax
    a30c:	0f 8c d3 00 00 00    	jl     a3e5 <mpz_import+0x175>
    a312:	4d 8b 5c 24 08       	mov    0x8(%r12),%r11
    a317:	48 85 ed             	test   %rbp,%rbp
    a31a:	0f 84 b8 00 00 00    	je     a3d8 <mpz_import+0x168>
    a320:	4d 63 d7             	movslq %r15d,%r10
    a323:	49 89 df             	mov    %rbx,%r15
    a326:	31 c0                	xor    %eax,%eax
    a328:	45 31 c0             	xor    %r8d,%r8d
    a32b:	49 f7 da             	neg    %r10
    a32e:	45 31 c9             	xor    %r9d,%r9d
    a331:	4d 0f af fa          	imul   %r10,%r15
    a335:	0f 1f 00             	nopl   (%rax)
    a338:	31 ff                	xor    %edi,%edi
    a33a:	4c 89 ee             	mov    %r13,%rsi
    a33d:	48 85 db             	test   %rbx,%rbx
    a340:	74 3c                	je     a37e <mpz_import+0x10e>
    a342:	66 0f 1f 44 00 00    	nopw   0x0(%rax,%rax,1)
    a348:	0f b6 16             	movzbl (%rsi),%edx
    a34b:	8d 0c c5 00 00 00 00 	lea    0x0(,%rax,8),%ecx
    a352:	48 83 c0 01          	add    $0x1,%rax
    a356:	48 d3 e2             	shl    %cl,%rdx
    a359:	49 09 d0             	or     %rdx,%r8
    a35c:	48 83 f8 08          	cmp    $0x8,%rax
    a360:	75 0d                	jne    a36f <mpz_import+0xff>
    a362:	4f 89 04 cb          	mov    %r8,(%r11,%r9,8)
    a366:	31 c0                	xor    %eax,%eax
    a368:	49 83 c1 01          	add    $0x1,%r9
    a36c:	45 31 c0             	xor    %r8d,%r8d
    a36f:	48 83 c7 01          	add    $0x1,%rdi
    a373:	4c 01 d6             	add    %r10,%rsi
    a376:	48 39 fb             	cmp    %rdi,%rbx
    a379:	75 cd                	jne    a348 <mpz_import+0xd8>
    a37b:	4d 01 fd             	add    %r15,%r13
    a37e:	4d 01 f5             	add    %r14,%r13
    a381:	48 83 ed 01          	sub    $0x1,%rbp
    a385:	75 b1                	jne    a338 <mpz_import+0xc8>
    a387:	48 83 f8 01          	cmp    $0x1,%rax
    a38b:	4c 89 c8             	mov    %r9,%rax
    a38e:	48 83 d8 ff          	sbb    $0xffffffffffffffff,%rax
    a392:	48 3b 44 24 08       	cmp    0x8(%rsp),%rax
    a397:	0f 85 86 00 00 00    	jne    a423 <mpz_import+0x1b3>
    a39d:	4d 85 c0             	test   %r8,%r8
    a3a0:	74 1c                	je     a3be <mpz_import+0x14e>
    a3a2:	4f 89 04 cb          	mov    %r8,(%r11,%r9,8)
    a3a6:	41 83 c1 01          	add    $0x1,%r9d
    a3aa:	45 89 4c 24 04       	mov    %r9d,0x4(%r12)
    a3af:	48 83 c4 18          	add    $0x18,%rsp
    a3b3:	5b                   	pop    %rbx
    a3b4:	5d                   	pop    %rbp
    a3b5:	41 5c                	pop    %r12
    a3b7:	41 5d                	pop    %r13
    a3b9:	41 5e                	pop    %r14
    a3bb:	41 5f                	pop    %r15
    a3bd:	c3                   	ret    
    a3be:	4d 85 c9             	test   %r9,%r9
    a3c1:	75 0b                	jne    a3ce <mpz_import+0x15e>
    a3c3:	eb 1b                	jmp    a3e0 <mpz_import+0x170>
    a3c5:	0f 1f 00             	nopl   (%rax)
    a3c8:	49 83 e9 01          	sub    $0x1,%r9
    a3cc:	74 12                	je     a3e0 <mpz_import+0x170>
    a3ce:	4b 83 7c cb f8 00    	cmpq   $0x0,-0x8(%r11,%r9,8)
    a3d4:	74 f2                	je     a3c8 <mpz_import+0x158>
    a3d6:	eb d2                	jmp    a3aa <mpz_import+0x13a>
    a3d8:	48 83 7c 24 08 00    	cmpq   $0x0,0x8(%rsp)
    a3de:	75 43                	jne    a423 <mpz_import+0x1b3>
    a3e0:	45 31 c9             	xor    %r9d,%r9d
    a3e3:	eb c5                	jmp    a3aa <mpz_import+0x13a>
    a3e5:	48 89 ce             	mov    %rcx,%rsi
    a3e8:	4c 89 e7             	mov    %r12,%rdi
    a3eb:	e8 c0 5f ff ff       	call   3b0 <mpz_realloc>
    a3f0:	49 89 c3             	mov    %rax,%r11
    a3f3:	e9 1f ff ff ff       	jmp    a317 <mpz_import+0xa7>
    a3f8:	48 8d 3d 00 00 00 00 	lea    0x0(%rip),%rdi        # a3ff <mpz_import+0x18f>
    a3ff:	e8 4c 5d ff ff       	call   150 <gmp_die>
    a404:	48 8d 0d 00 00 00 00 	lea    0x0(%rip),%rcx        # a40b <mpz_import+0x19b>
    a40b:	ba 7d 11 00 00       	mov    $0x117d,%edx
    a410:	48 8d 35 00 00 00 00 	lea    0x0(%rip),%rsi        # a417 <mpz_import+0x1a7>
    a417:	48 8d 3d 00 00 00 00 	lea    0x0(%rip),%rdi        # a41e <mpz_import+0x1ae>
    a41e:	e8 00 00 00 00       	call   a423 <mpz_import+0x1b3>
    a423:	48 8d 0d 00 00 00 00 	lea    0x0(%rip),%rcx        # a42a <mpz_import+0x1ba>
    a42a:	ba a3 11 00 00       	mov    $0x11a3,%edx
    a42f:	48 8d 35 00 00 00 00 	lea    0x0(%rip),%rsi        # a436 <mpz_import+0x1c6>
    a436:	48 8d 3d 00 00 00 00 	lea    0x0(%rip),%rdi        # a43d <mpz_import+0x1cd>
    a43d:	e8 00 00 00 00       	call   a442 <mpz_import+0x1d2>
    a442:	48 8d 0d 00 00 00 00 	lea    0x0(%rip),%rcx        # a449 <mpz_import+0x1d9>
    a449:	ba 7c 11 00 00       	mov    $0x117c,%edx
    a44e:	48 8d 35 00 00 00 00 	lea    0x0(%rip),%rsi        # a455 <mpz_import+0x1e5>
    a455:	48 8d 3d 00 00 00 00 	lea    0x0(%rip),%rdi        # a45c <mpz_import+0x1ec>
    a45c:	e8 00 00 00 00       	call   a461 <mpz_import+0x1f1>
    a461:	66 66 2e 0f 1f 84 00 	data16 cs nopw 0x0(%rax,%rax,1)
    a468:	00 00 00 00 
    a46c:	0f 1f 40 00          	nopl   0x0(%rax)

000000000000a470 <mpz_export>:
    a470:	f3 0f 1e fa          	endbr64 
    a474:	41 57                	push   %r15
    a476:	41 56                	push   %r14
    a478:	41 55                	push   %r13
    a47a:	41 54                	push   %r12
    a47c:	55                   	push   %rbp
    a47d:	53                   	push   %rbx
    a47e:	48 83 ec 18          	sub    $0x18,%rsp
    a482:	4c 8b 6c 24 50       	mov    0x50(%rsp),%r13
    a487:	4d 85 c9             	test   %r9,%r9
    a48a:	0f 85 de 01 00 00    	jne    a66e <mpz_export+0x1fe>
    a490:	8d 42 01             	lea    0x1(%rdx),%eax
    a493:	41 89 d7             	mov    %edx,%r15d
    a496:	83 e0 fd             	and    $0xfffffffd,%eax
    a499:	0f 85 3f 02 00 00    	jne    a6de <mpz_export+0x26e>
    a49f:	41 8d 40 01          	lea    0x1(%r8),%eax
    a4a3:	83 f8 02             	cmp    $0x2,%eax
    a4a6:	0f 87 13 02 00 00    	ja     a6bf <mpz_export+0x24f>
    a4ac:	41 8b 45 04          	mov    0x4(%r13),%eax
    a4b0:	49 89 fa             	mov    %rdi,%r10
    a4b3:	48 89 f5             	mov    %rsi,%rbp
    a4b6:	48 89 cb             	mov    %rcx,%rbx
    a4b9:	48 85 c9             	test   %rcx,%rcx
    a4bc:	75 2a                	jne    a4e8 <mpz_export+0x78>
    a4be:	85 c0                	test   %eax,%eax
    a4c0:	0f 85 d3 01 00 00    	jne    a699 <mpz_export+0x229>
    a4c6:	48 85 ed             	test   %rbp,%rbp
    a4c9:	74 04                	je     a4cf <mpz_export+0x5f>
    a4cb:	48 89 5d 00          	mov    %rbx,0x0(%rbp)
    a4cf:	48 83 c4 18          	add    $0x18,%rsp
    a4d3:	4c 89 d0             	mov    %r10,%rax
    a4d6:	5b                   	pop    %rbx
    a4d7:	5d                   	pop    %rbp
    a4d8:	41 5c                	pop    %r12
    a4da:	41 5d                	pop    %r13
    a4dc:	41 5e                	pop    %r14
    a4de:	41 5f                	pop    %r15
    a4e0:	c3                   	ret    
    a4e1:	0f 1f 80 00 00 00 00 	nopl   0x0(%rax)
    a4e8:	85 c0                	test   %eax,%eax
    a4ea:	0f 84 c8 01 00 00    	je     a6b8 <mpz_export+0x248>
    a4f0:	41 89 c4             	mov    %eax,%r12d
    a4f3:	41 f7 dc             	neg    %r12d
    a4f6:	44 0f 48 e0          	cmovs  %eax,%r12d
    a4fa:	49 8b 45 08          	mov    0x8(%r13),%rax
    a4fe:	45 89 e4             	mov    %r12d,%r12d
    a501:	4a 8b 44 e0 f8       	mov    -0x8(%rax,%r12,8),%rax
    a506:	48 85 c0             	test   %rax,%rax
    a509:	0f 84 6b 01 00 00    	je     a67a <mpz_export+0x20a>
    a50f:	90                   	nop
    a510:	4c 89 ca             	mov    %r9,%rdx
    a513:	49 83 c1 01          	add    $0x1,%r9
    a517:	48 c1 e8 08          	shr    $0x8,%rax
    a51b:	75 f3                	jne    a510 <mpz_export+0xa0>
    a51d:	4a 8d 44 e3 f8       	lea    -0x8(%rbx,%r12,8),%rax
    a522:	48 01 d0             	add    %rdx,%rax
    a525:	31 d2                	xor    %edx,%edx
    a527:	48 89 04 24          	mov    %rax,(%rsp)
    a52b:	48 f7 f3             	div    %rbx
    a52e:	49 89 c6             	mov    %rax,%r14
    a531:	4d 85 d2             	test   %r10,%r10
    a534:	0f 84 f6 00 00 00    	je     a630 <mpz_export+0x1c0>
    a53a:	45 85 c0             	test   %r8d,%r8d
    a53d:	b8 ff ff ff ff       	mov    $0xffffffff,%eax
    a542:	4d 89 d1             	mov    %r10,%r9
    a545:	44 0f 44 c0          	cmove  %eax,%r8d
    a549:	31 d2                	xor    %edx,%edx
    a54b:	48 8d 04 1b          	lea    (%rbx,%rbx,1),%rax
    a54f:	45 39 f8             	cmp    %r15d,%r8d
    a552:	48 0f 44 c2          	cmove  %rdx,%rax
    a556:	41 83 ff 01          	cmp    $0x1,%r15d
    a55a:	75 0e                	jne    a56a <mpz_export+0xfa>
    a55c:	4d 8d 4e ff          	lea    -0x1(%r14),%r9
    a560:	48 f7 d8             	neg    %rax
    a563:	4c 0f af cb          	imul   %rbx,%r9
    a567:	4d 01 d1             	add    %r10,%r9
    a56a:	49 8d 54 19 ff       	lea    -0x1(%r9,%rbx,1),%rdx
    a56f:	41 83 f8 01          	cmp    $0x1,%r8d
    a573:	4c 0f 44 ca          	cmove  %rdx,%r9
    a577:	48 39 1c 24          	cmp    %rbx,(%rsp)
    a57b:	0f 82 ce 00 00 00    	jb     a64f <mpz_export+0x1df>
    a581:	4d 63 c0             	movslq %r8d,%r8
    a584:	31 f6                	xor    %esi,%esi
    a586:	45 31 db             	xor    %r11d,%r11d
    a589:	49 f7 d8             	neg    %r8
    a58c:	31 ff                	xor    %edi,%edi
    a58e:	4d 89 c7             	mov    %r8,%r15
    a591:	4c 0f af fb          	imul   %rbx,%r15
    a595:	49 01 c7             	add    %rax,%r15
    a598:	31 c0                	xor    %eax,%eax
    a59a:	66 0f 1f 44 00 00    	nopw   0x0(%rax,%rax,1)
    a5a0:	31 c9                	xor    %ecx,%ecx
    a5a2:	4c 89 ca             	mov    %r9,%rdx
    a5a5:	eb 1f                	jmp    a5c6 <mpz_export+0x156>
    a5a7:	66 0f 1f 84 00 00 00 	nopw   0x0(%rax,%rax,1)
    a5ae:	00 00 
    a5b0:	48 83 ee 01          	sub    $0x1,%rsi
    a5b4:	48 83 c1 01          	add    $0x1,%rcx
    a5b8:	88 02                	mov    %al,(%rdx)
    a5ba:	48 c1 e8 08          	shr    $0x8,%rax
    a5be:	4c 01 c2             	add    %r8,%rdx
    a5c1:	48 39 cb             	cmp    %rcx,%rbx
    a5c4:	74 22                	je     a5e8 <mpz_export+0x178>
    a5c6:	48 85 f6             	test   %rsi,%rsi
    a5c9:	75 e5                	jne    a5b0 <mpz_export+0x140>
    a5cb:	be 07 00 00 00       	mov    $0x7,%esi
    a5d0:	49 39 fc             	cmp    %rdi,%r12
    a5d3:	7e df                	jle    a5b4 <mpz_export+0x144>
    a5d5:	49 8b 45 08          	mov    0x8(%r13),%rax
    a5d9:	48 8b 04 f8          	mov    (%rax,%rdi,8),%rax
    a5dd:	48 83 c7 01          	add    $0x1,%rdi
    a5e1:	eb d1                	jmp    a5b4 <mpz_export+0x144>
    a5e3:	0f 1f 44 00 00       	nopl   0x0(%rax,%rax,1)
    a5e8:	49 83 c3 01          	add    $0x1,%r11
    a5ec:	4d 01 f9             	add    %r15,%r9
    a5ef:	4d 39 de             	cmp    %r11,%r14
    a5f2:	77 ac                	ja     a5a0 <mpz_export+0x130>
    a5f4:	48 39 1c 24          	cmp    %rbx,(%rsp)
    a5f8:	bb 01 00 00 00       	mov    $0x1,%ebx
    a5fd:	49 0f 43 de          	cmovae %r14,%rbx
    a601:	4c 39 e7             	cmp    %r12,%rdi
    a604:	75 49                	jne    a64f <mpz_export+0x1df>
    a606:	49 39 de             	cmp    %rbx,%r14
    a609:	0f 84 b7 fe ff ff    	je     a4c6 <mpz_export+0x56>
    a60f:	48 8d 0d 00 00 00 00 	lea    0x0(%rip),%rcx        # a616 <mpz_export+0x1a6>
    a616:	ba 0c 12 00 00       	mov    $0x120c,%edx
    a61b:	48 8d 35 00 00 00 00 	lea    0x0(%rip),%rsi        # a622 <mpz_export+0x1b2>
    a622:	48 8d 3d 00 00 00 00 	lea    0x0(%rip),%rdi        # a629 <mpz_export+0x1b9>
    a629:	e8 00 00 00 00       	call   a62e <mpz_export+0x1be>
    a62e:	66 90                	xchg   %ax,%ax
    a630:	48 89 df             	mov    %rbx,%rdi
    a633:	44 89 44 24 0c       	mov    %r8d,0xc(%rsp)
    a638:	48 0f af f8          	imul   %rax,%rdi
    a63c:	ff 15 00 00 00 00    	call   *0x0(%rip)        # a642 <mpz_export+0x1d2>
    a642:	44 8b 44 24 0c       	mov    0xc(%rsp),%r8d
    a647:	49 89 c2             	mov    %rax,%r10
    a64a:	e9 eb fe ff ff       	jmp    a53a <mpz_export+0xca>
    a64f:	48 8d 0d 00 00 00 00 	lea    0x0(%rip),%rcx        # a656 <mpz_export+0x1e6>
    a656:	ba 0b 12 00 00       	mov    $0x120b,%edx
    a65b:	48 8d 35 00 00 00 00 	lea    0x0(%rip),%rsi        # a662 <mpz_export+0x1f2>
    a662:	48 8d 3d 00 00 00 00 	lea    0x0(%rip),%rdi        # a669 <mpz_export+0x1f9>
    a669:	e8 00 00 00 00       	call   a66e <mpz_export+0x1fe>
    a66e:	48 8d 3d 00 00 00 00 	lea    0x0(%rip),%rdi        # a675 <mpz_export+0x205>
    a675:	e8 d6 5a ff ff       	call   150 <gmp_die>
    a67a:	48 8d 0d 00 00 00 00 	lea    0x0(%rip),%rcx        # a681 <mpz_export+0x211>
    a681:	ba cc 11 00 00       	mov    $0x11cc,%edx
    a686:	48 8d 35 00 00 00 00 	lea    0x0(%rip),%rsi        # a68d <mpz_export+0x21d>
    a68d:	48 8d 3d 00 00 00 00 	lea    0x0(%rip),%rdi        # a694 <mpz_export+0x224>
    a694:	e8 00 00 00 00       	call   a699 <mpz_export+0x229>
    a699:	48 8d 0d 00 00 00 00 	lea    0x0(%rip),%rcx        # a6a0 <mpz_export+0x230>
    a6a0:	ba b8 11 00 00       	mov    $0x11b8,%edx
    a6a5:	48 8d 35 00 00 00 00 	lea    0x0(%rip),%rsi        # a6ac <mpz_export+0x23c>
    a6ac:	48 8d 3d 00 00 00 00 	lea    0x0(%rip),%rdi        # a6b3 <mpz_export+0x243>
    a6b3:	e8 00 00 00 00       	call   a6b8 <mpz_export+0x248>
    a6b8:	31 db                	xor    %ebx,%ebx
    a6ba:	e9 07 fe ff ff       	jmp    a4c6 <mpz_export+0x56>
    a6bf:	48 8d 0d 00 00 00 00 	lea    0x0(%rip),%rcx        # a6c6 <mpz_export+0x256>
    a6c6:	ba b7 11 00 00       	mov    $0x11b7,%edx
    a6cb:	48 8d 35 00 00 00 00 	lea    0x0(%rip),%rsi        # a6d2 <mpz_export+0x262>
    a6d2:	48 8d 3d 00 00 00 00 	lea    0x0(%rip),%rdi        # a6d9 <mpz_export+0x269>
    a6d9:	e8 00 00 00 00       	call   a6de <mpz_export+0x26e>
    a6de:	48 8d 0d 00 00 00 00 	lea    0x0(%rip),%rcx        # a6e5 <mpz_export+0x275>
    a6e5:	ba b6 11 00 00       	mov    $0x11b6,%edx
    a6ea:	48 8d 35 00 00 00 00 	lea    0x0(%rip),%rsi        # a6f1 <mpz_export+0x281>
    a6f1:	48 8d 3d 00 00 00 00 	lea    0x0(%rip),%rdi        # a6f8 <mpz_export+0x288>
    a6f8:	e8 00 00 00 00       	call   a6fd <mpz_export+0x28d>
