
/home/lalitssrg/coreutils/lib/libcoreutils_a-fprintftime.o:     file format elf64-x86-64


Disassembly of section .text:

0000000000000000 <__strftime_internal.isra.0>:
       0:	41 57                	push   %r15
       2:	41 56                	push   %r14
       4:	49 89 fe             	mov    %rdi,%r14
       7:	41 55                	push   %r13
       9:	4d 63 e9             	movslq %r9d,%r13
       c:	41 54                	push   %r12
       e:	49 89 f4             	mov    %rsi,%r12
      11:	55                   	push   %rbp
      12:	53                   	push   %rbx
      13:	48 89 d3             	mov    %rdx,%rbx
      16:	48 81 ec c8 04 00 00 	sub    $0x4c8,%rsp
      1d:	48 8b 84 24 00 05 00 	mov    0x500(%rsp),%rax
      24:	00 
      25:	88 4c 24 17          	mov    %cl,0x17(%rsp)
      29:	48 89 54 24 18       	mov    %rdx,0x18(%rsp)
      2e:	44 89 44 24 2c       	mov    %r8d,0x2c(%rsp)
      33:	48 89 44 24 20       	mov    %rax,0x20(%rsp)
      38:	64 48 8b 04 25 28 00 	mov    %fs:0x28,%rax
      3f:	00 00 
      41:	48 89 84 24 b8 04 00 	mov    %rax,0x4b8(%rsp)
      48:	00 
      49:	31 c0                	xor    %eax,%eax
      4b:	e8 00 00 00 00       	call   50 <__strftime_internal.isra.0+0x50>
      50:	48 8b 7b 30          	mov    0x30(%rbx),%rdi
      54:	8b 4b 08             	mov    0x8(%rbx),%ecx
      57:	48 89 44 24 08       	mov    %rax,0x8(%rsp)
      5c:	8b 00                	mov    (%rax),%eax
      5e:	48 85 ff             	test   %rdi,%rdi
      61:	89 4c 24 10          	mov    %ecx,0x10(%rsp)
      65:	89 44 24 28          	mov    %eax,0x28(%rsp)
      69:	48 8d 05 00 00 00 00 	lea    0x0(%rip),%rax        # 70 <__strftime_internal.isra.0+0x70>
      70:	48 0f 45 c7          	cmovne %rdi,%rax
      74:	48 89 44 24 30       	mov    %rax,0x30(%rsp)
      79:	83 f9 0c             	cmp    $0xc,%ecx
      7c:	0f 8e c6 00 00 00    	jle    148 <__strftime_internal.isra.0+0x148>
      82:	83 e9 0c             	sub    $0xc,%ecx
      85:	89 4c 24 10          	mov    %ecx,0x10(%rsp)
      89:	41 0f b6 04 24       	movzbl (%r12),%eax
      8e:	45 31 ff             	xor    %r15d,%r15d
      91:	84 c0                	test   %al,%al
      93:	74 5d                	je     f2 <__strftime_internal.isra.0+0xf2>
      95:	3c 25                	cmp    $0x25,%al
      97:	0f 84 f3 00 00 00    	je     190 <__strftime_internal.isra.0+0x190>
      9d:	31 c0                	xor    %eax,%eax
      9f:	45 85 ed             	test   %r13d,%r13d
      a2:	bb 01 00 00 00       	mov    $0x1,%ebx
      a7:	4c 89 fa             	mov    %r15,%rdx
      aa:	49 0f 49 c5          	cmovns %r13,%rax
      ae:	48 f7 d2             	not    %rdx
      b1:	48 85 c0             	test   %rax,%rax
      b4:	48 0f 45 d8          	cmovne %rax,%rbx
      b8:	48 39 d3             	cmp    %rdx,%rbx
      bb:	73 4b                	jae    108 <__strftime_internal.isra.0+0x108>
      bd:	4d 85 f6             	test   %r14,%r14
      c0:	74 17                	je     d9 <__strftime_internal.isra.0+0xd9>
      c2:	41 83 fd 01          	cmp    $0x1,%r13d
      c6:	0f 8f 94 00 00 00    	jg     160 <__strftime_internal.isra.0+0x160>
      cc:	41 0f be 3c 24       	movsbl (%r12),%edi
      d1:	4c 89 f6             	mov    %r14,%rsi
      d4:	e8 00 00 00 00       	call   d9 <__strftime_internal.isra.0+0xd9>
      d9:	49 01 df             	add    %rbx,%r15
      dc:	4c 89 e3             	mov    %r12,%rbx
      df:	0f b6 43 01          	movzbl 0x1(%rbx),%eax
      e3:	4c 8d 63 01          	lea    0x1(%rbx),%r12
      e7:	49 c7 c5 ff ff ff ff 	mov    $0xffffffffffffffff,%r13
      ee:	84 c0                	test   %al,%al
      f0:	75 a3                	jne    95 <__strftime_internal.isra.0+0x95>
      f2:	48 8b 44 24 08       	mov    0x8(%rsp),%rax
      f7:	8b 74 24 28          	mov    0x28(%rsp),%esi
      fb:	89 30                	mov    %esi,(%rax)
      fd:	eb 17                	jmp    116 <__strftime_internal.isra.0+0x116>
      ff:	49 83 ff ff          	cmp    $0xffffffffffffffff,%r15
     103:	75 da                	jne    df <__strftime_internal.isra.0+0xdf>
     105:	0f 1f 00             	nopl   (%rax)
     108:	48 8b 44 24 08       	mov    0x8(%rsp),%rax
     10d:	c7 00 22 00 00 00    	movl   $0x22,(%rax)
     113:	45 31 ff             	xor    %r15d,%r15d
     116:	48 8b 84 24 b8 04 00 	mov    0x4b8(%rsp),%rax
     11d:	00 
     11e:	64 48 2b 04 25 28 00 	sub    %fs:0x28,%rax
     125:	00 00 
     127:	0f 85 dc 19 00 00    	jne    1b09 <__strftime_internal.isra.0+0x1b09>
     12d:	48 81 c4 c8 04 00 00 	add    $0x4c8,%rsp
     134:	4c 89 f8             	mov    %r15,%rax
     137:	5b                   	pop    %rbx
     138:	5d                   	pop    %rbp
     139:	41 5c                	pop    %r12
     13b:	41 5d                	pop    %r13
     13d:	41 5e                	pop    %r14
     13f:	41 5f                	pop    %r15
     141:	c3                   	ret    
     142:	66 0f 1f 44 00 00    	nopw   0x0(%rax,%rax,1)
     148:	8b 74 24 10          	mov    0x10(%rsp),%esi
     14c:	b8 0c 00 00 00       	mov    $0xc,%eax
     151:	85 f6                	test   %esi,%esi
     153:	0f 45 c6             	cmovne %esi,%eax
     156:	89 44 24 10          	mov    %eax,0x10(%rsp)
     15a:	e9 2a ff ff ff       	jmp    89 <__strftime_internal.isra.0+0x89>
     15f:	90                   	nop
     160:	48 8d 68 ff          	lea    -0x1(%rax),%rbp
     164:	45 31 ed             	xor    %r13d,%r13d
     167:	66 0f 1f 84 00 00 00 	nopw   0x0(%rax,%rax,1)
     16e:	00 00 
     170:	4c 89 f6             	mov    %r14,%rsi
     173:	bf 20 00 00 00       	mov    $0x20,%edi
     178:	49 83 c5 01          	add    $0x1,%r13
     17c:	e8 00 00 00 00       	call   181 <__strftime_internal.isra.0+0x181>
     181:	4c 39 ed             	cmp    %r13,%rbp
     184:	77 ea                	ja     170 <__strftime_internal.isra.0+0x170>
     186:	e9 41 ff ff ff       	jmp    cc <__strftime_internal.isra.0+0xcc>
     18b:	0f 1f 44 00 00       	nopl   0x0(%rax,%rax,1)
     190:	0f b6 44 24 17       	movzbl 0x17(%rsp),%eax
     195:	4c 89 e3             	mov    %r12,%rbx
     198:	31 ed                	xor    %ebp,%ebp
     19a:	45 31 c0             	xor    %r8d,%r8d
     19d:	88 44 24 38          	mov    %al,0x38(%rsp)
     1a1:	0f be 53 01          	movsbl 0x1(%rbx),%edx
     1a5:	48 83 c3 01          	add    $0x1,%rbx
     1a9:	8d 4a dd             	lea    -0x23(%rdx),%ecx
     1ac:	89 d6                	mov    %edx,%esi
     1ae:	89 d7                	mov    %edx,%edi
     1b0:	80 f9 3c             	cmp    $0x3c,%cl
     1b3:	77 2d                	ja     1e2 <__strftime_internal.isra.0+0x1e2>
     1b5:	49 ba 00 25 00 00 00 	movabs $0x1000000000002500,%r10
     1bc:	00 00 10 
     1bf:	b8 01 00 00 00       	mov    $0x1,%eax
     1c4:	48 d3 e0             	shl    %cl,%rax
     1c7:	4c 85 d0             	test   %r10,%rax
     1ca:	0f 85 a0 01 00 00    	jne    370 <__strftime_internal.isra.0+0x370>
     1d0:	80 f9 3b             	cmp    $0x3b,%cl
     1d3:	0f 84 cf 12 00 00    	je     14a8 <__strftime_internal.isra.0+0x14a8>
     1d9:	83 e0 01             	and    $0x1,%eax
     1dc:	0f 85 d0 12 00 00    	jne    14b2 <__strftime_internal.isra.0+0x14b2>
     1e2:	83 ea 30             	sub    $0x30,%edx
     1e5:	83 fa 09             	cmp    $0x9,%edx
     1e8:	0f 86 42 01 00 00    	jbe    330 <__strftime_internal.isra.0+0x330>
     1ee:	40 80 fe 45          	cmp    $0x45,%sil
     1f2:	0f 84 28 01 00 00    	je     320 <__strftime_internal.isra.0+0x320>
     1f8:	40 80 fe 4f          	cmp    $0x4f,%sil
     1fc:	0f 84 1e 01 00 00    	je     320 <__strftime_internal.isra.0+0x320>
     202:	31 ff                	xor    %edi,%edi
     204:	40 80 fe 7a          	cmp    $0x7a,%sil
     208:	77 1e                	ja     228 <__strftime_internal.isra.0+0x228>
     20a:	48 8d 15 00 00 00 00 	lea    0x0(%rip),%rdx        # 211 <__strftime_internal.isra.0+0x211>
     211:	40 0f b6 c6          	movzbl %sil,%eax
     215:	48 63 04 82          	movslq (%rdx,%rax,4),%rax
     219:	48 01 d0             	add    %rdx,%rax
     21c:	3e ff e0             	notrack jmp *%rax
     21f:	48 83 eb 01          	sub    $0x1,%rbx
     223:	0f 1f 44 00 00       	nopl   0x0(%rax,%rax,1)
     228:	48 89 d8             	mov    %rbx,%rax
     22b:	4c 29 e0             	sub    %r12,%rax
     22e:	48 89 44 24 50       	mov    %rax,0x50(%rsp)
     233:	48 8d 68 01          	lea    0x1(%rax),%rbp
     237:	41 83 f8 2d          	cmp    $0x2d,%r8d
     23b:	74 23                	je     260 <__strftime_internal.isra.0+0x260>
     23d:	45 85 ed             	test   %r13d,%r13d
     240:	78 1e                	js     260 <__strftime_internal.isra.0+0x260>
     242:	4d 63 ed             	movslq %r13d,%r13
     245:	4c 39 ed             	cmp    %r13,%rbp
     248:	4c 89 e8             	mov    %r13,%rax
     24b:	48 0f 43 c5          	cmovae %rbp,%rax
     24f:	48 89 44 24 40       	mov    %rax,0x40(%rsp)
     254:	eb 12                	jmp    268 <__strftime_internal.isra.0+0x268>
     256:	66 2e 0f 1f 84 00 00 	cs nopw 0x0(%rax,%rax,1)
     25d:	00 00 00 
     260:	48 89 6c 24 40       	mov    %rbp,0x40(%rsp)
     265:	45 31 ed             	xor    %r13d,%r13d
     268:	4c 89 f8             	mov    %r15,%rax
     26b:	48 f7 d0             	not    %rax
     26e:	48 3b 44 24 40       	cmp    0x40(%rsp),%rax
     273:	0f 86 8f fe ff ff    	jbe    108 <__strftime_internal.isra.0+0x108>
     279:	4d 85 f6             	test   %r14,%r14
     27c:	0f 84 8b 00 00 00    	je     30d <__strftime_internal.isra.0+0x30d>
     282:	4c 39 ed             	cmp    %r13,%rbp
     285:	73 44                	jae    2cb <__strftime_internal.isra.0+0x2cb>
     287:	49 29 ed             	sub    %rbp,%r13
     28a:	41 83 f8 30          	cmp    $0x30,%r8d
     28e:	0f 84 25 12 00 00    	je     14b9 <__strftime_internal.isra.0+0x14b9>
     294:	41 83 f8 2b          	cmp    $0x2b,%r8d
     298:	0f 84 1b 12 00 00    	je     14b9 <__strftime_internal.isra.0+0x14b9>
     29e:	31 d2                	xor    %edx,%edx
     2a0:	4d 85 ed             	test   %r13,%r13
     2a3:	74 26                	je     2cb <__strftime_internal.isra.0+0x2cb>
     2a5:	48 89 5c 24 58       	mov    %rbx,0x58(%rsp)
     2aa:	48 89 d3             	mov    %rdx,%rbx
     2ad:	0f 1f 00             	nopl   (%rax)
     2b0:	4c 89 f6             	mov    %r14,%rsi
     2b3:	bf 20 00 00 00       	mov    $0x20,%edi
     2b8:	48 83 c3 01          	add    $0x1,%rbx
     2bc:	e8 00 00 00 00       	call   2c1 <__strftime_internal.isra.0+0x2c1>
     2c1:	49 39 dd             	cmp    %rbx,%r13
     2c4:	75 ea                	jne    2b0 <__strftime_internal.isra.0+0x2b0>
     2c6:	48 8b 5c 24 58       	mov    0x58(%rsp),%rbx
     2cb:	80 7c 24 38 00       	cmpb   $0x0,0x38(%rsp)
     2d0:	0f 84 aa 00 00 00    	je     380 <__strftime_internal.isra.0+0x380>
     2d6:	48 85 ed             	test   %rbp,%rbp
     2d9:	74 32                	je     30d <__strftime_internal.isra.0+0x30d>
     2db:	e8 00 00 00 00       	call   2e0 <__strftime_internal.isra.0+0x2e0>
     2e0:	49 89 c5             	mov    %rax,%r13
     2e3:	48 8b 44 24 50       	mov    0x50(%rsp),%rax
     2e8:	49 8d 6c 04 01       	lea    0x1(%r12,%rax,1),%rbp
     2ed:	0f 1f 00             	nopl   (%rax)
     2f0:	41 0f b6 14 24       	movzbl (%r12),%edx
     2f5:	49 8b 45 00          	mov    0x0(%r13),%rax
     2f9:	4c 89 f6             	mov    %r14,%rsi
     2fc:	49 83 c4 01          	add    $0x1,%r12
     300:	8b 3c 90             	mov    (%rax,%rdx,4),%edi
     303:	e8 00 00 00 00       	call   308 <__strftime_internal.isra.0+0x308>
     308:	49 39 ec             	cmp    %rbp,%r12
     30b:	75 e3                	jne    2f0 <__strftime_internal.isra.0+0x2f0>
     30d:	4c 03 7c 24 40       	add    0x40(%rsp),%r15
     312:	e9 c8 fd ff ff       	jmp    df <__strftime_internal.isra.0+0xdf>
     317:	66 0f 1f 84 00 00 00 	nopw   0x0(%rax,%rax,1)
     31e:	00 00 
     320:	0f b6 73 01          	movzbl 0x1(%rbx),%esi
     324:	48 83 c3 01          	add    $0x1,%rbx
     328:	e9 d7 fe ff ff       	jmp    204 <__strftime_internal.isra.0+0x204>
     32d:	0f 1f 00             	nopl   (%rax)
     330:	45 31 ed             	xor    %r13d,%r13d
     333:	eb 24                	jmp    359 <__strftime_internal.isra.0+0x359>
     335:	0f 1f 00             	nopl   (%rax)
     338:	0f be 03             	movsbl (%rbx),%eax
     33b:	83 e8 30             	sub    $0x30,%eax
     33e:	41 01 c5             	add    %eax,%r13d
     341:	70 1c                	jo     35f <__strftime_internal.isra.0+0x35f>
     343:	0f be 7b 01          	movsbl 0x1(%rbx),%edi
     347:	48 83 c3 01          	add    $0x1,%rbx
     34b:	8d 47 d0             	lea    -0x30(%rdi),%eax
     34e:	89 fe                	mov    %edi,%esi
     350:	83 f8 09             	cmp    $0x9,%eax
     353:	0f 87 95 fe ff ff    	ja     1ee <__strftime_internal.isra.0+0x1ee>
     359:	45 6b ed 0a          	imul   $0xa,%r13d,%r13d
     35d:	71 d9                	jno    338 <__strftime_internal.isra.0+0x338>
     35f:	41 bd ff ff ff 7f    	mov    $0x7fffffff,%r13d
     365:	eb dc                	jmp    343 <__strftime_internal.isra.0+0x343>
     367:	66 0f 1f 84 00 00 00 	nopw   0x0(%rax,%rax,1)
     36e:	00 00 
     370:	41 89 d0             	mov    %edx,%r8d
     373:	e9 29 fe ff ff       	jmp    1a1 <__strftime_internal.isra.0+0x1a1>
     378:	0f 1f 84 00 00 00 00 	nopl   0x0(%rax,%rax,1)
     37f:	00 
     380:	4c 89 f1             	mov    %r14,%rcx
     383:	ba 01 00 00 00       	mov    $0x1,%edx
     388:	48 89 ee             	mov    %rbp,%rsi
     38b:	4c 89 e7             	mov    %r12,%rdi
     38e:	e8 00 00 00 00       	call   393 <__strftime_internal.isra.0+0x393>
     393:	e9 75 ff ff ff       	jmp    30d <__strftime_internal.isra.0+0x30d>
     398:	83 ff 4f             	cmp    $0x4f,%edi
     39b:	0f 84 87 fe ff ff    	je     228 <__strftime_internal.isra.0+0x228>
     3a1:	c6 44 24 58 00       	movb   $0x0,0x58(%rsp)
     3a6:	bd 20 25 00 00       	mov    $0x2520,%ebp
     3ab:	66 89 ac 24 ab 00 00 	mov    %bp,0xab(%rsp)
     3b2:	00 
     3b3:	85 ff                	test   %edi,%edi
     3b5:	0f 85 da 02 00 00    	jne    695 <__strftime_internal.isra.0+0x695>
     3bb:	48 8d 84 24 ad 00 00 	lea    0xad(%rsp),%rax
     3c2:	00 
     3c3:	40 88 30             	mov    %sil,(%rax)
     3c6:	48 8b 4c 24 18       	mov    0x18(%rsp),%rcx
     3cb:	4c 8d a4 24 b0 00 00 	lea    0xb0(%rsp),%r12
     3d2:	00 
     3d3:	48 8d 94 24 ab 00 00 	lea    0xab(%rsp),%rdx
     3da:	00 
     3db:	c6 40 01 00          	movb   $0x0,0x1(%rax)
     3df:	be 00 04 00 00       	mov    $0x400,%esi
     3e4:	4c 89 e7             	mov    %r12,%rdi
     3e7:	44 89 44 24 50       	mov    %r8d,0x50(%rsp)
     3ec:	e8 00 00 00 00       	call   3f1 <__strftime_internal.isra.0+0x3f1>
     3f1:	48 89 c5             	mov    %rax,%rbp
     3f4:	48 85 c0             	test   %rax,%rax
     3f7:	0f 84 e2 fc ff ff    	je     df <__strftime_internal.isra.0+0xdf>
     3fd:	44 8b 44 24 50       	mov    0x50(%rsp),%r8d
     402:	48 8d 40 ff          	lea    -0x1(%rax),%rax
     406:	48 89 44 24 40       	mov    %rax,0x40(%rsp)
     40b:	41 83 f8 2d          	cmp    $0x2d,%r8d
     40f:	0f 84 c3 0f 00 00    	je     13d8 <__strftime_internal.isra.0+0x13d8>
     415:	45 85 ed             	test   %r13d,%r13d
     418:	0f 88 ba 0f 00 00    	js     13d8 <__strftime_internal.isra.0+0x13d8>
     41e:	4d 63 ed             	movslq %r13d,%r13
     421:	4c 39 e8             	cmp    %r13,%rax
     424:	49 0f 42 c5          	cmovb  %r13,%rax
     428:	48 89 44 24 50       	mov    %rax,0x50(%rsp)
     42d:	4c 89 f8             	mov    %r15,%rax
     430:	48 f7 d0             	not    %rax
     433:	48 3b 44 24 50       	cmp    0x50(%rsp),%rax
     438:	0f 86 ca fc ff ff    	jbe    108 <__strftime_internal.isra.0+0x108>
     43e:	4d 85 f6             	test   %r14,%r14
     441:	0f 84 a9 00 00 00    	je     4f0 <__strftime_internal.isra.0+0x4f0>
     447:	4c 39 6c 24 40       	cmp    %r13,0x40(%rsp)
     44c:	73 4d                	jae    49b <__strftime_internal.isra.0+0x49b>
     44e:	4c 2b 6c 24 40       	sub    0x40(%rsp),%r13
     453:	41 83 f8 30          	cmp    $0x30,%r8d
     457:	0f 84 0c 11 00 00    	je     1569 <__strftime_internal.isra.0+0x1569>
     45d:	41 83 f8 2b          	cmp    $0x2b,%r8d
     461:	0f 84 02 11 00 00    	je     1569 <__strftime_internal.isra.0+0x1569>
     467:	31 d2                	xor    %edx,%edx
     469:	4d 85 ed             	test   %r13,%r13
     46c:	74 2d                	je     49b <__strftime_internal.isra.0+0x49b>
     46e:	48 89 5c 24 60       	mov    %rbx,0x60(%rsp)
     473:	48 89 d3             	mov    %rdx,%rbx
     476:	66 2e 0f 1f 84 00 00 	cs nopw 0x0(%rax,%rax,1)
     47d:	00 00 00 
     480:	4c 89 f6             	mov    %r14,%rsi
     483:	bf 20 00 00 00       	mov    $0x20,%edi
     488:	48 83 c3 01          	add    $0x1,%rbx
     48c:	e8 00 00 00 00       	call   491 <__strftime_internal.isra.0+0x491>
     491:	49 39 dd             	cmp    %rbx,%r13
     494:	75 ea                	jne    480 <__strftime_internal.isra.0+0x480>
     496:	48 8b 5c 24 60       	mov    0x60(%rsp),%rbx
     49b:	80 7c 24 58 00       	cmpb   $0x0,0x58(%rsp)
     4a0:	0f 85 64 10 00 00    	jne    150a <__strftime_internal.isra.0+0x150a>
     4a6:	80 7c 24 38 00       	cmpb   $0x0,0x38(%rsp)
     4ab:	0f 84 3a 10 00 00    	je     14eb <__strftime_internal.isra.0+0x14eb>
     4b1:	48 83 7c 24 40 00    	cmpq   $0x0,0x40(%rsp)
     4b7:	74 37                	je     4f0 <__strftime_internal.isra.0+0x4f0>
     4b9:	e8 00 00 00 00       	call   4be <__strftime_internal.isra.0+0x4be>
     4be:	4c 01 e5             	add    %r12,%rbp
     4c1:	4c 8d ac 24 b1 00 00 	lea    0xb1(%rsp),%r13
     4c8:	00 
     4c9:	49 89 c4             	mov    %rax,%r12
     4cc:	0f 1f 40 00          	nopl   0x0(%rax)
     4d0:	41 0f b6 55 00       	movzbl 0x0(%r13),%edx
     4d5:	49 8b 04 24          	mov    (%r12),%rax
     4d9:	4c 89 f6             	mov    %r14,%rsi
     4dc:	49 83 c5 01          	add    $0x1,%r13
     4e0:	8b 3c 90             	mov    (%rax,%rdx,4),%edi
     4e3:	e8 00 00 00 00       	call   4e8 <__strftime_internal.isra.0+0x4e8>
     4e8:	49 39 ed             	cmp    %rbp,%r13
     4eb:	75 e3                	jne    4d0 <__strftime_internal.isra.0+0x4d0>
     4ed:	0f 1f 00             	nopl   (%rax)
     4f0:	4c 03 7c 24 50       	add    0x50(%rsp),%r15
     4f5:	e9 e5 fb ff ff       	jmp    df <__strftime_internal.isra.0+0xdf>
     4fa:	83 ff 45             	cmp    $0x45,%edi
     4fd:	0f 84 25 fd ff ff    	je     228 <__strftime_internal.isra.0+0x228>
     503:	48 8b 4c 24 18       	mov    0x18(%rsp),%rcx
     508:	44 8b 51 1c          	mov    0x1c(%rcx),%r10d
     50c:	44 8b 59 18          	mov    0x18(%rcx),%r11d
     510:	44 8b 49 14          	mov    0x14(%rcx),%r9d
     514:	44 89 d1             	mov    %r10d,%ecx
     517:	44 29 d9             	sub    %r11d,%ecx
     51a:	44 89 c8             	mov    %r9d,%eax
     51d:	81 c1 7e 01 00 00    	add    $0x17e,%ecx
     523:	c1 f8 1f             	sar    $0x1f,%eax
     526:	48 63 d1             	movslq %ecx,%rdx
     529:	89 cd                	mov    %ecx,%ebp
     52b:	25 90 01 00 00       	and    $0x190,%eax
     530:	48 69 d2 93 24 49 92 	imul   $0xffffffff92492493,%rdx,%rdx
     537:	c1 fd 1f             	sar    $0x1f,%ebp
     53a:	41 8d 44 01 9c       	lea    -0x64(%r9,%rax,1),%eax
     53f:	48 c1 ea 20          	shr    $0x20,%rdx
     543:	01 ca                	add    %ecx,%edx
     545:	c1 fa 02             	sar    $0x2,%edx
     548:	29 ea                	sub    %ebp,%edx
     54a:	8d 2c d5 00 00 00 00 	lea    0x0(,%rdx,8),%ebp
     551:	29 d5                	sub    %edx,%ebp
     553:	44 89 d2             	mov    %r10d,%edx
     556:	29 ca                	sub    %ecx,%edx
     558:	8d 4c 2a 03          	lea    0x3(%rdx,%rbp,1),%ecx
     55c:	85 c9                	test   %ecx,%ecx
     55e:	0f 88 bf 12 00 00    	js     1823 <__strftime_internal.isra.0+0x1823>
     564:	ba 6d 01 00 00       	mov    $0x16d,%edx
     569:	a8 03                	test   $0x3,%al
     56b:	75 2e                	jne    59b <__strftime_internal.isra.0+0x59b>
     56d:	69 e8 29 5c 8f c2    	imul   $0xc28f5c29,%eax,%ebp
     573:	ba 6e 01 00 00       	mov    $0x16e,%edx
     578:	81 c5 50 b8 1e 05    	add    $0x51eb850,%ebp
     57e:	c1 cd 02             	ror    $0x2,%ebp
     581:	81 fd 28 5c 8f 02    	cmp    $0x28f5c28,%ebp
     587:	77 12                	ja     59b <__strftime_internal.isra.0+0x59b>
     589:	99                   	cltd   
     58a:	bd 90 01 00 00       	mov    $0x190,%ebp
     58f:	f7 fd                	idiv   %ebp
     591:	f7 da                	neg    %edx
     593:	19 d2                	sbb    %edx,%edx
     595:	81 c2 6e 01 00 00    	add    $0x16e,%edx
     59b:	41 29 d2             	sub    %edx,%r10d
     59e:	44 89 d2             	mov    %r10d,%edx
     5a1:	44 29 da             	sub    %r11d,%edx
     5a4:	81 c2 7e 01 00 00    	add    $0x17e,%edx
     5aa:	48 63 c2             	movslq %edx,%rax
     5ad:	41 89 d3             	mov    %edx,%r11d
     5b0:	41 29 d2             	sub    %edx,%r10d
     5b3:	48 69 c0 93 24 49 92 	imul   $0xffffffff92492493,%rax,%rax
     5ba:	41 c1 fb 1f          	sar    $0x1f,%r11d
     5be:	48 c1 e8 20          	shr    $0x20,%rax
     5c2:	01 d0                	add    %edx,%eax
     5c4:	c1 f8 02             	sar    $0x2,%eax
     5c7:	44 29 d8             	sub    %r11d,%eax
     5ca:	44 8d 1c c5 00 00 00 	lea    0x0(,%rax,8),%r11d
     5d1:	00 
     5d2:	41 29 c3             	sub    %eax,%r11d
     5d5:	43 8d 44 1a 03       	lea    0x3(%r10,%r11,1),%eax
     5da:	85 c0                	test   %eax,%eax
     5dc:	0f 49 c8             	cmovns %eax,%ecx
     5df:	c1 f8 1f             	sar    $0x1f,%eax
     5e2:	83 c0 01             	add    $0x1,%eax
     5e5:	40 80 fe 47          	cmp    $0x47,%sil
     5e9:	0f 84 fa 12 00 00    	je     18e9 <__strftime_internal.isra.0+0x18e9>
     5ef:	40 80 fe 67          	cmp    $0x67,%sil
     5f3:	0f 85 c8 12 00 00    	jne    18c1 <__strftime_internal.isra.0+0x18c1>
     5f9:	49 63 d1             	movslq %r9d,%rdx
     5fc:	44 89 c9             	mov    %r9d,%ecx
     5ff:	48 69 d2 1f 85 eb 51 	imul   $0x51eb851f,%rdx,%rdx
     606:	c1 f9 1f             	sar    $0x1f,%ecx
     609:	48 c1 fa 25          	sar    $0x25,%rdx
     60d:	29 ca                	sub    %ecx,%edx
     60f:	44 89 c9             	mov    %r9d,%ecx
     612:	6b d2 64             	imul   $0x64,%edx,%edx
     615:	29 d1                	sub    %edx,%ecx
     617:	01 c1                	add    %eax,%ecx
     619:	48 63 d1             	movslq %ecx,%rdx
     61c:	41 89 ca             	mov    %ecx,%r10d
     61f:	48 69 d2 1f 85 eb 51 	imul   $0x51eb851f,%rdx,%rdx
     626:	41 c1 fa 1f          	sar    $0x1f,%r10d
     62a:	48 c1 fa 25          	sar    $0x25,%rdx
     62e:	44 29 d2             	sub    %r10d,%edx
     631:	44 6b d2 64          	imul   $0x64,%edx,%r10d
     635:	44 29 d1             	sub    %r10d,%ecx
     638:	89 ca                	mov    %ecx,%edx
     63a:	0f 88 3f 11 00 00    	js     177f <__strftime_internal.isra.0+0x177f>
     640:	45 85 c0             	test   %r8d,%r8d
     643:	0f 85 51 11 00 00    	jne    179a <__strftime_internal.isra.0+0x179a>
     649:	44 8b 44 24 2c       	mov    0x2c(%rsp),%r8d
     64e:	41 83 f8 2b          	cmp    $0x2b,%r8d
     652:	0f 84 4c 11 00 00    	je     17a4 <__strftime_internal.isra.0+0x17a4>
     658:	c6 44 24 50 00       	movb   $0x0,0x50(%rsp)
     65d:	b8 01 00 00 00       	mov    $0x1,%eax
     662:	45 31 d2             	xor    %r10d,%r10d
     665:	c7 44 24 40 02 00 00 	movl   $0x2,0x40(%rsp)
     66c:	00 
     66d:	45 31 db             	xor    %r11d,%r11d
     670:	83 ff 4f             	cmp    $0x4f,%edi
     673:	0f 85 17 0a 00 00    	jne    1090 <__strftime_internal.isra.0+0x1090>
     679:	84 c0                	test   %al,%al
     67b:	0f 84 0f 0a 00 00    	je     1090 <__strftime_internal.isra.0+0x1090>
     681:	41 b9 20 25 00 00    	mov    $0x2520,%r9d
     687:	c6 44 24 58 00       	movb   $0x0,0x58(%rsp)
     68c:	66 44 89 8c 24 ab 00 	mov    %r9w,0xab(%rsp)
     693:	00 00 
     695:	40 88 bc 24 ad 00 00 	mov    %dil,0xad(%rsp)
     69c:	00 
     69d:	48 8d 84 24 ae 00 00 	lea    0xae(%rsp),%rax
     6a4:	00 
     6a5:	e9 19 fd ff ff       	jmp    3c3 <__strftime_internal.isra.0+0x3c3>
     6aa:	85 ff                	test   %edi,%edi
     6ac:	0f 85 76 fb ff ff    	jne    228 <__strftime_internal.isra.0+0x228>
     6b2:	0f b6 44 24 38       	movzbl 0x38(%rsp),%eax
     6b7:	40 84 ed             	test   %bpl,%bpl
     6ba:	bf 20 25 00 00       	mov    $0x2520,%edi
     6bf:	c6 44 24 58 00       	movb   $0x0,0x58(%rsp)
     6c4:	66 89 bc 24 ab 00 00 	mov    %di,0xab(%rsp)
     6cb:	00 
     6cc:	0f 45 c5             	cmovne %ebp,%eax
     6cf:	88 44 24 38          	mov    %al,0x38(%rsp)
     6d3:	48 8d 84 24 ad 00 00 	lea    0xad(%rsp),%rax
     6da:	00 
     6db:	e9 e3 fc ff ff       	jmp    3c3 <__strftime_internal.isra.0+0x3c3>
     6e0:	0f b6 44 24 38       	movzbl 0x38(%rsp),%eax
     6e5:	40 84 ed             	test   %bpl,%bpl
     6e8:	0f 45 c5             	cmovne %ebp,%eax
     6eb:	88 44 24 38          	mov    %al,0x38(%rsp)
     6ef:	83 ff 45             	cmp    $0x45,%edi
     6f2:	0f 85 a9 fc ff ff    	jne    3a1 <__strftime_internal.isra.0+0x3a1>
     6f8:	e9 2b fb ff ff       	jmp    228 <__strftime_internal.isra.0+0x228>
     6fd:	83 ff 45             	cmp    $0x45,%edi
     700:	0f 84 22 fb ff ff    	je     228 <__strftime_internal.isra.0+0x228>
     706:	45 85 ed             	test   %r13d,%r13d
     709:	b8 09 00 00 00       	mov    $0x9,%eax
     70e:	8b 94 24 08 05 00 00 	mov    0x508(%rsp),%edx
     715:	41 bc 09 00 00 00    	mov    $0x9,%r12d
     71b:	44 0f 4e e8          	cmovle %eax,%r13d
     71f:	eb 1f                	jmp    740 <__strftime_internal.isra.0+0x740>
     721:	0f 1f 80 00 00 00 00 	nopl   0x0(%rax)
     728:	48 69 c0 67 66 66 66 	imul   $0x66666667,%rax,%rax
     72f:	89 d1                	mov    %edx,%ecx
     731:	41 83 ec 01          	sub    $0x1,%r12d
     735:	c1 f9 1f             	sar    $0x1f,%ecx
     738:	48 c1 f8 22          	sar    $0x22,%rax
     73c:	29 c8                	sub    %ecx,%eax
     73e:	89 c2                	mov    %eax,%edx
     740:	48 63 c2             	movslq %edx,%rax
     743:	45 39 ec             	cmp    %r13d,%r12d
     746:	7f e0                	jg     728 <__strftime_internal.isra.0+0x728>
     748:	48 69 c8 67 66 66 66 	imul   $0x66666667,%rax,%rcx
     74f:	89 d6                	mov    %edx,%esi
     751:	c1 fe 1f             	sar    $0x1f,%esi
     754:	48 c1 f9 22          	sar    $0x22,%rcx
     758:	29 f1                	sub    %esi,%ecx
     75a:	8d 34 89             	lea    (%rcx,%rcx,4),%esi
     75d:	89 d1                	mov    %edx,%ecx
     75f:	01 f6                	add    %esi,%esi
     761:	29 f1                	sub    %esi,%ecx
     763:	41 83 fc 01          	cmp    $0x1,%r12d
     767:	0f 84 5d 10 00 00    	je     17ca <__strftime_internal.isra.0+0x17ca>
     76d:	85 c9                	test   %ecx,%ecx
     76f:	74 b7                	je     728 <__strftime_internal.isra.0+0x728>
     771:	49 63 ec             	movslq %r12d,%rbp
     774:	48 89 ee             	mov    %rbp,%rsi
     777:	45 85 e4             	test   %r12d,%r12d
     77a:	0f 84 8e 13 00 00    	je     1b0e <__strftime_internal.isra.0+0x1b0e>
     780:	48 8d 8c 34 b0 00 00 	lea    0xb0(%rsp,%rsi,1),%rcx
     787:	00 
     788:	41 8d 7c 24 ff       	lea    -0x1(%r12),%edi
     78d:	48 8d b4 34 af 00 00 	lea    0xaf(%rsp,%rsi,1),%rsi
     794:	00 
     795:	48 29 fe             	sub    %rdi,%rsi
     798:	eb 08                	jmp    7a2 <__strftime_internal.isra.0+0x7a2>
     79a:	66 0f 1f 44 00 00    	nopw   0x0(%rax,%rax,1)
     7a0:	48 98                	cltq   
     7a2:	48 69 c0 67 66 66 66 	imul   $0x66666667,%rax,%rax
     7a9:	89 d7                	mov    %edx,%edi
     7ab:	48 83 e9 01          	sub    $0x1,%rcx
     7af:	c1 ff 1f             	sar    $0x1f,%edi
     7b2:	48 c1 f8 22          	sar    $0x22,%rax
     7b6:	29 f8                	sub    %edi,%eax
     7b8:	8d 3c 80             	lea    (%rax,%rax,4),%edi
     7bb:	01 ff                	add    %edi,%edi
     7bd:	29 fa                	sub    %edi,%edx
     7bf:	83 c2 30             	add    $0x30,%edx
     7c2:	88 11                	mov    %dl,(%rcx)
     7c4:	89 c2                	mov    %eax,%edx
     7c6:	48 39 f1             	cmp    %rsi,%rcx
     7c9:	75 d5                	jne    7a0 <__strftime_internal.isra.0+0x7a0>
     7cb:	b8 30 00 00 00       	mov    $0x30,%eax
     7d0:	45 85 c0             	test   %r8d,%r8d
     7d3:	44 0f 44 c0          	cmove  %eax,%r8d
     7d7:	4c 89 f8             	mov    %r15,%rax
     7da:	48 f7 d0             	not    %rax
     7dd:	48 39 e8             	cmp    %rbp,%rax
     7e0:	0f 86 22 f9 ff ff    	jbe    108 <__strftime_internal.isra.0+0x108>
     7e6:	49 01 ef             	add    %rbp,%r15
     7e9:	4d 85 f6             	test   %r14,%r14
     7ec:	74 7e                	je     86c <__strftime_internal.isra.0+0x86c>
     7ee:	80 7c 24 38 00       	cmpb   $0x0,0x38(%rsp)
     7f3:	0f 84 c1 11 00 00    	je     19ba <__strftime_internal.isra.0+0x19ba>
     7f9:	48 85 ed             	test   %rbp,%rbp
     7fc:	0f 84 44 13 00 00    	je     1b46 <__strftime_internal.isra.0+0x1b46>
     802:	44 89 44 24 50       	mov    %r8d,0x50(%rsp)
     807:	e8 00 00 00 00       	call   80c <__strftime_internal.isra.0+0x80c>
     80c:	48 8d 94 24 b0 00 00 	lea    0xb0(%rsp),%rdx
     813:	00 
     814:	48 89 5c 24 38       	mov    %rbx,0x38(%rsp)
     819:	48 89 c1             	mov    %rax,%rcx
     81c:	48 8d 04 2a          	lea    (%rdx,%rbp,1),%rax
     820:	44 89 64 24 40       	mov    %r12d,0x40(%rsp)
     825:	49 89 d4             	mov    %rdx,%r12
     828:	48 89 c3             	mov    %rax,%rbx
     82b:	44 89 e8             	mov    %r13d,%eax
     82e:	48 89 cd             	mov    %rcx,%rbp
     831:	4d 89 f5             	mov    %r14,%r13
     834:	41 89 c6             	mov    %eax,%r14d
     837:	41 0f b6 34 24       	movzbl (%r12),%esi
     83c:	48 8b 45 00          	mov    0x0(%rbp),%rax
     840:	49 83 c4 01          	add    $0x1,%r12
     844:	8b 3c b0             	mov    (%rax,%rsi,4),%edi
     847:	4c 89 ee             	mov    %r13,%rsi
     84a:	e8 00 00 00 00       	call   84f <__strftime_internal.isra.0+0x84f>
     84f:	4c 39 e3             	cmp    %r12,%rbx
     852:	75 e3                	jne    837 <__strftime_internal.isra.0+0x837>
     854:	44 89 f0             	mov    %r14d,%eax
     857:	48 8b 5c 24 38       	mov    0x38(%rsp),%rbx
     85c:	44 8b 64 24 40       	mov    0x40(%rsp),%r12d
     861:	4d 89 ee             	mov    %r13,%r14
     864:	44 8b 44 24 50       	mov    0x50(%rsp),%r8d
     869:	41 89 c5             	mov    %eax,%r13d
     86c:	41 83 f8 2d          	cmp    $0x2d,%r8d
     870:	0f 84 89 f8 ff ff    	je     ff <__strftime_internal.isra.0+0xff>
     876:	44 89 ed             	mov    %r13d,%ebp
     879:	44 29 e5             	sub    %r12d,%ebp
     87c:	0f 88 7d f8 ff ff    	js     ff <__strftime_internal.isra.0+0xff>
     882:	4c 89 f8             	mov    %r15,%rax
     885:	48 63 ed             	movslq %ebp,%rbp
     888:	48 f7 d0             	not    %rax
     88b:	48 39 c5             	cmp    %rax,%rbp
     88e:	0f 83 74 f8 ff ff    	jae    108 <__strftime_internal.isra.0+0x108>
     894:	4d 85 f6             	test   %r14,%r14
     897:	0f 84 7d 07 00 00    	je     101a <__strftime_internal.isra.0+0x101a>
     89d:	48 85 ed             	test   %rbp,%rbp
     8a0:	0f 84 39 f8 ff ff    	je     df <__strftime_internal.isra.0+0xdf>
     8a6:	41 83 f8 30          	cmp    $0x30,%r8d
     8aa:	0f 84 c7 11 00 00    	je     1a77 <__strftime_internal.isra.0+0x1a77>
     8b0:	45 31 e4             	xor    %r12d,%r12d
     8b3:	41 83 f8 2b          	cmp    $0x2b,%r8d
     8b7:	0f 84 ba 11 00 00    	je     1a77 <__strftime_internal.isra.0+0x1a77>
     8bd:	4c 89 f6             	mov    %r14,%rsi
     8c0:	bf 20 00 00 00       	mov    $0x20,%edi
     8c5:	49 83 c4 01          	add    $0x1,%r12
     8c9:	e8 00 00 00 00       	call   8ce <__strftime_internal.isra.0+0x8ce>
     8ce:	49 39 ec             	cmp    %rbp,%r12
     8d1:	75 ea                	jne    8bd <__strftime_internal.isra.0+0x8bd>
     8d3:	e9 f8 02 00 00       	jmp    bd0 <__strftime_internal.isra.0+0xbd0>
     8d8:	0f 1f 84 00 00 00 00 	nopl   0x0(%rax,%rax,1)
     8df:	00 
     8e0:	83 ff 45             	cmp    $0x45,%edi
     8e3:	0f 84 3f f9 ff ff    	je     228 <__strftime_internal.isra.0+0x228>
     8e9:	48 8b 44 24 18       	mov    0x18(%rsp),%rax
     8ee:	c7 44 24 40 02 00 00 	movl   $0x2,0x40(%rsp)
     8f5:	00 
     8f6:	8b 10                	mov    (%rax),%edx
     8f8:	0f 1f 84 00 00 00 00 	nopl   0x0(%rax,%rax,1)
     8ff:	00 
     900:	89 d0                	mov    %edx,%eax
     902:	c6 44 24 50 00       	movb   $0x0,0x50(%rsp)
     907:	45 31 db             	xor    %r11d,%r11d
     90a:	c1 e8 1f             	shr    $0x1f,%eax
     90d:	41 89 c2             	mov    %eax,%r10d
     910:	89 d0                	mov    %edx,%eax
     912:	f7 d0                	not    %eax
     914:	c1 e8 1f             	shr    $0x1f,%eax
     917:	e9 54 fd ff ff       	jmp    670 <__strftime_internal.isra.0+0x670>
     91c:	83 ff 45             	cmp    $0x45,%edi
     91f:	0f 84 03 f9 ff ff    	je     228 <__strftime_internal.isra.0+0x228>
     925:	c7 44 24 40 02 00 00 	movl   $0x2,0x40(%rsp)
     92c:	00 
     92d:	8b 54 24 10          	mov    0x10(%rsp),%edx
     931:	eb cd                	jmp    900 <__strftime_internal.isra.0+0x900>
     933:	83 ff 45             	cmp    $0x45,%edi
     936:	0f 84 ec f8 ff ff    	je     228 <__strftime_internal.isra.0+0x228>
     93c:	48 8b 44 24 18       	mov    0x18(%rsp),%rax
     941:	c7 44 24 40 02 00 00 	movl   $0x2,0x40(%rsp)
     948:	00 
     949:	8b 50 04             	mov    0x4(%rax),%edx
     94c:	eb b2                	jmp    900 <__strftime_internal.isra.0+0x900>
     94e:	83 ff 45             	cmp    $0x45,%edi
     951:	0f 84 d1 f8 ff ff    	je     228 <__strftime_internal.isra.0+0x228>
     957:	48 8b 44 24 18       	mov    0x18(%rsp),%rax
     95c:	c7 44 24 40 02 00 00 	movl   $0x2,0x40(%rsp)
     963:	00 
     964:	8b 50 08             	mov    0x8(%rax),%edx
     967:	eb 97                	jmp    900 <__strftime_internal.isra.0+0x900>
     969:	83 ff 45             	cmp    $0x45,%edi
     96c:	0f 84 b6 f8 ff ff    	je     228 <__strftime_internal.isra.0+0x228>
     972:	4c 8b 5c 24 18       	mov    0x18(%rsp),%r11
     977:	41 8b 43 18          	mov    0x18(%r11),%eax
     97b:	45 8b 4b 1c          	mov    0x1c(%r11),%r9d
     97f:	8d 50 06             	lea    0x6(%rax),%edx
     982:	48 63 c2             	movslq %edx,%rax
     985:	89 d1                	mov    %edx,%ecx
     987:	48 69 c0 93 24 49 92 	imul   $0xffffffff92492493,%rax,%rax
     98e:	c1 f9 1f             	sar    $0x1f,%ecx
     991:	48 c1 e8 20          	shr    $0x20,%rax
     995:	01 d0                	add    %edx,%eax
     997:	c1 f8 02             	sar    $0x2,%eax
     99a:	29 c8                	sub    %ecx,%eax
     99c:	8d 0c c5 00 00 00 00 	lea    0x0(,%rax,8),%ecx
     9a3:	29 c1                	sub    %eax,%ecx
     9a5:	89 c8                	mov    %ecx,%eax
     9a7:	29 d0                	sub    %edx,%eax
     9a9:	42 8d 44 08 07       	lea    0x7(%rax,%r9,1),%eax
     9ae:	48 63 d0             	movslq %eax,%rdx
     9b1:	c7 44 24 40 02 00 00 	movl   $0x2,0x40(%rsp)
     9b8:	00 
     9b9:	48 69 d2 93 24 49 92 	imul   $0xffffffff92492493,%rdx,%rdx
     9c0:	48 c1 ea 20          	shr    $0x20,%rdx
     9c4:	01 c2                	add    %eax,%edx
     9c6:	c1 f8 1f             	sar    $0x1f,%eax
     9c9:	c1 fa 02             	sar    $0x2,%edx
     9cc:	29 c2                	sub    %eax,%edx
     9ce:	e9 2d ff ff ff       	jmp    900 <__strftime_internal.isra.0+0x900>
     9d3:	48 8b 44 24 18       	mov    0x18(%rsp),%rax
     9d8:	48 8b 7c 24 20       	mov    0x20(%rsp),%rdi
     9dd:	48 8d 74 24 70       	lea    0x70(%rsp),%rsi
     9e2:	44 89 44 24 50       	mov    %r8d,0x50(%rsp)
     9e7:	f3 0f 6f 60 20       	movdqu 0x20(%rax),%xmm4
     9ec:	f3 0f 6f 00          	movdqu (%rax),%xmm0
     9f0:	f3 0f 6f 50 10       	movdqu 0x10(%rax),%xmm2
     9f5:	48 8b 40 30          	mov    0x30(%rax),%rax
     9f9:	0f 29 44 24 70       	movaps %xmm0,0x70(%rsp)
     9fe:	0f 29 94 24 80 00 00 	movaps %xmm2,0x80(%rsp)
     a05:	00 
     a06:	48 89 84 24 a0 00 00 	mov    %rax,0xa0(%rsp)
     a0d:	00 
     a0e:	c7 84 24 8c 00 00 00 	movl   $0xffffffff,0x8c(%rsp)
     a15:	ff ff ff ff 
     a19:	0f 29 64 24 40       	movaps %xmm4,0x40(%rsp)
     a1e:	0f 29 a4 24 90 00 00 	movaps %xmm4,0x90(%rsp)
     a25:	00 
     a26:	e8 00 00 00 00       	call   a2b <__strftime_internal.isra.0+0xa2b>
     a2b:	44 8b 9c 24 8c 00 00 	mov    0x8c(%rsp),%r11d
     a32:	00 
     a33:	44 8b 44 24 50       	mov    0x50(%rsp),%r8d
     a38:	48 89 c6             	mov    %rax,%rsi
     a3b:	45 85 db             	test   %r11d,%r11d
     a3e:	0f 88 29 11 00 00    	js     1b6d <__strftime_internal.isra.0+0x1b6d>
     a44:	48 c1 e8 3f          	shr    $0x3f,%rax
     a48:	48 89 f1             	mov    %rsi,%rcx
     a4b:	48 8d bc 24 c7 00 00 	lea    0xc7(%rsp),%rdi
     a52:	00 
     a53:	48 bd 67 66 66 66 66 	movabs $0x6666666666666667,%rbp
     a5a:	66 66 66 
     a5d:	49 89 c2             	mov    %rax,%r10
     a60:	49 89 f9             	mov    %rdi,%r9
     a63:	41 bb 30 00 00 00    	mov    $0x30,%r11d
     a69:	0f 1f 80 00 00 00 00 	nopl   0x0(%rax)
     a70:	48 89 c8             	mov    %rcx,%rax
     a73:	48 f7 ed             	imul   %rbp
     a76:	48 89 c8             	mov    %rcx,%rax
     a79:	48 c1 f8 3f          	sar    $0x3f,%rax
     a7d:	48 c1 fa 02          	sar    $0x2,%rdx
     a81:	48 29 c2             	sub    %rax,%rdx
     a84:	4c 8d 24 92          	lea    (%rdx,%rdx,4),%r12
     a88:	48 89 d0             	mov    %rdx,%rax
     a8b:	4d 01 e4             	add    %r12,%r12
     a8e:	4c 29 e1             	sub    %r12,%rcx
     a91:	48 89 ca             	mov    %rcx,%rdx
     a94:	48 89 c1             	mov    %rax,%rcx
     a97:	44 89 d8             	mov    %r11d,%eax
     a9a:	29 d0                	sub    %edx,%eax
     a9c:	83 c2 30             	add    $0x30,%edx
     a9f:	48 85 f6             	test   %rsi,%rsi
     aa2:	0f 48 d0             	cmovs  %eax,%edx
     aa5:	49 83 e9 01          	sub    $0x1,%r9
     aa9:	41 88 11             	mov    %dl,(%r9)
     aac:	48 85 c9             	test   %rcx,%rcx
     aaf:	75 bf                	jne    a70 <__strftime_internal.isra.0+0xa70>
     ab1:	c6 44 24 50 00       	movb   $0x0,0x50(%rsp)
     ab6:	c7 44 24 40 01 00 00 	movl   $0x1,0x40(%rsp)
     abd:	00 
     abe:	66 90                	xchg   %ax,%ax
     ac0:	45 85 c0             	test   %r8d,%r8d
     ac3:	0f 84 9f 09 00 00    	je     1468 <__strftime_internal.isra.0+0x1468>
     ac9:	41 83 f8 2d          	cmp    $0x2d,%r8d
     acd:	0f 95 c0             	setne  %al
     ad0:	45 85 ed             	test   %r13d,%r13d
     ad3:	44 0f 48 6c 24 40    	cmovs  0x40(%rsp),%r13d
     ad9:	4c 29 cf             	sub    %r9,%rdi
     adc:	49 89 fc             	mov    %rdi,%r12
     adf:	45 84 d2             	test   %r10b,%r10b
     ae2:	0f 85 08 09 00 00    	jne    13f0 <__strftime_internal.isra.0+0x13f0>
     ae8:	80 7c 24 50 00       	cmpb   $0x0,0x50(%rsp)
     aed:	0f 85 6c 0a 00 00    	jne    155f <__strftime_internal.isra.0+0x155f>
     af3:	48 63 ef             	movslq %edi,%rbp
     af6:	41 39 fd             	cmp    %edi,%r13d
     af9:	0f 8e 7d 09 00 00    	jle    147c <__strftime_internal.isra.0+0x147c>
     aff:	84 c0                	test   %al,%al
     b01:	0f 84 75 09 00 00    	je     147c <__strftime_internal.isra.0+0x147c>
     b07:	49 63 c5             	movslq %r13d,%rax
     b0a:	49 89 ec             	mov    %rbp,%r12
     b0d:	48 39 e8             	cmp    %rbp,%rax
     b10:	4c 0f 43 e0          	cmovae %rax,%r12
     b14:	4c 89 fa             	mov    %r15,%rdx
     b17:	48 f7 d2             	not    %rdx
     b1a:	4c 39 e2             	cmp    %r12,%rdx
     b1d:	0f 86 e5 f5 ff ff    	jbe    108 <__strftime_internal.isra.0+0x108>
     b23:	4d 85 f6             	test   %r14,%r14
     b26:	0f 84 a4 00 00 00    	je     bd0 <__strftime_internal.isra.0+0xbd0>
     b2c:	48 39 e8             	cmp    %rbp,%rax
     b2f:	76 4f                	jbe    b80 <__strftime_internal.isra.0+0xb80>
     b31:	48 29 e8             	sub    %rbp,%rax
     b34:	41 83 f8 30          	cmp    $0x30,%r8d
     b38:	0f 84 5d 0a 00 00    	je     159b <__strftime_internal.isra.0+0x159b>
     b3e:	45 31 ed             	xor    %r13d,%r13d
     b41:	41 83 f8 2b          	cmp    $0x2b,%r8d
     b45:	0f 84 50 0a 00 00    	je     159b <__strftime_internal.isra.0+0x159b>
     b4b:	4c 89 4c 24 50       	mov    %r9,0x50(%rsp)
     b50:	48 89 5c 24 40       	mov    %rbx,0x40(%rsp)
     b55:	4c 89 eb             	mov    %r13,%rbx
     b58:	49 89 c5             	mov    %rax,%r13
     b5b:	0f 1f 44 00 00       	nopl   0x0(%rax,%rax,1)
     b60:	4c 89 f6             	mov    %r14,%rsi
     b63:	bf 20 00 00 00       	mov    $0x20,%edi
     b68:	48 83 c3 01          	add    $0x1,%rbx
     b6c:	e8 00 00 00 00       	call   b71 <__strftime_internal.isra.0+0xb71>
     b71:	49 39 dd             	cmp    %rbx,%r13
     b74:	75 ea                	jne    b60 <__strftime_internal.isra.0+0xb60>
     b76:	48 8b 5c 24 40       	mov    0x40(%rsp),%rbx
     b7b:	4c 8b 4c 24 50       	mov    0x50(%rsp),%r9
     b80:	80 7c 24 38 00       	cmpb   $0x0,0x38(%rsp)
     b85:	0f 84 05 09 00 00    	je     1490 <__strftime_internal.isra.0+0x1490>
     b8b:	4c 89 4c 24 38       	mov    %r9,0x38(%rsp)
     b90:	48 85 ed             	test   %rbp,%rbp
     b93:	74 3b                	je     bd0 <__strftime_internal.isra.0+0xbd0>
     b95:	e8 00 00 00 00       	call   b9a <__strftime_internal.isra.0+0xb9a>
     b9a:	4c 8b 4c 24 38       	mov    0x38(%rsp),%r9
     b9f:	48 89 5c 24 38       	mov    %rbx,0x38(%rsp)
     ba4:	48 89 c3             	mov    %rax,%rbx
     ba7:	4c 01 cd             	add    %r9,%rbp
     baa:	49 89 ed             	mov    %rbp,%r13
     bad:	4c 89 cd             	mov    %r9,%rbp
     bb0:	0f b6 55 00          	movzbl 0x0(%rbp),%edx
     bb4:	48 8b 03             	mov    (%rbx),%rax
     bb7:	4c 89 f6             	mov    %r14,%rsi
     bba:	48 83 c5 01          	add    $0x1,%rbp
     bbe:	8b 3c 90             	mov    (%rax,%rdx,4),%edi
     bc1:	e8 00 00 00 00       	call   bc6 <__strftime_internal.isra.0+0xbc6>
     bc6:	4c 39 ed             	cmp    %r13,%rbp
     bc9:	75 e5                	jne    bb0 <__strftime_internal.isra.0+0xbb0>
     bcb:	48 8b 5c 24 38       	mov    0x38(%rsp),%rbx
     bd0:	4d 01 e7             	add    %r12,%r15
     bd3:	e9 07 f5 ff ff       	jmp    df <__strftime_internal.isra.0+0xdf>
     bd8:	48 8d 43 ff          	lea    -0x1(%rbx),%rax
     bdc:	4c 39 e0             	cmp    %r12,%rax
     bdf:	0f 84 19 0b 00 00    	je     16fe <__strftime_internal.isra.0+0x16fe>
     be5:	48 89 c3             	mov    %rax,%rbx
     be8:	e9 3b f6 ff ff       	jmp    228 <__strftime_internal.isra.0+0x228>
     bed:	41 83 f8 2d          	cmp    $0x2d,%r8d
     bf1:	0f 84 58 0a 00 00    	je     164f <__strftime_internal.isra.0+0x164f>
     bf7:	45 85 ed             	test   %r13d,%r13d
     bfa:	0f 88 4f 0a 00 00    	js     164f <__strftime_internal.isra.0+0x164f>
     c00:	4d 63 e5             	movslq %r13d,%r12
     c03:	bd 01 00 00 00       	mov    $0x1,%ebp
     c08:	4c 89 f8             	mov    %r15,%rax
     c0b:	4d 85 e4             	test   %r12,%r12
     c0e:	48 f7 d0             	not    %rax
     c11:	49 0f 45 ec          	cmovne %r12,%rbp
     c15:	48 39 c5             	cmp    %rax,%rbp
     c18:	0f 83 ea f4 ff ff    	jae    108 <__strftime_internal.isra.0+0x108>
     c1e:	4d 85 f6             	test   %r14,%r14
     c21:	0f 84 f3 03 00 00    	je     101a <__strftime_internal.isra.0+0x101a>
     c27:	41 83 fd 01          	cmp    $0x1,%r13d
     c2b:	7e 31                	jle    c5e <__strftime_internal.isra.0+0xc5e>
     c2d:	49 83 ec 01          	sub    $0x1,%r12
     c31:	41 83 f8 30          	cmp    $0x30,%r8d
     c35:	0f 84 a6 0d 00 00    	je     19e1 <__strftime_internal.isra.0+0x19e1>
     c3b:	45 31 ed             	xor    %r13d,%r13d
     c3e:	41 83 f8 2b          	cmp    $0x2b,%r8d
     c42:	0f 84 99 0d 00 00    	je     19e1 <__strftime_internal.isra.0+0x19e1>
     c48:	4c 89 f6             	mov    %r14,%rsi
     c4b:	bf 20 00 00 00       	mov    $0x20,%edi
     c50:	49 83 c5 01          	add    $0x1,%r13
     c54:	e8 00 00 00 00       	call   c59 <__strftime_internal.isra.0+0xc59>
     c59:	4d 39 ec             	cmp    %r13,%r12
     c5c:	75 ea                	jne    c48 <__strftime_internal.isra.0+0xc48>
     c5e:	4c 89 f6             	mov    %r14,%rsi
     c61:	bf 09 00 00 00       	mov    $0x9,%edi
     c66:	e8 00 00 00 00       	call   c6b <__strftime_internal.isra.0+0xc6b>
     c6b:	e9 aa 03 00 00       	jmp    101a <__strftime_internal.isra.0+0x101a>
     c70:	83 ff 45             	cmp    $0x45,%edi
     c73:	0f 84 af f5 ff ff    	je     228 <__strftime_internal.isra.0+0x228>
     c79:	48 8b 44 24 18       	mov    0x18(%rsp),%rax
     c7e:	c7 44 24 40 01 00 00 	movl   $0x1,0x40(%rsp)
     c85:	00 
     c86:	8b 50 18             	mov    0x18(%rax),%edx
     c89:	e9 72 fc ff ff       	jmp    900 <__strftime_internal.isra.0+0x900>
     c8e:	83 ff 4f             	cmp    $0x4f,%edi
     c91:	0f 84 ea f9 ff ff    	je     681 <__strftime_internal.isra.0+0x681>
     c97:	48 8b 44 24 18       	mov    0x18(%rsp),%rax
     c9c:	c6 44 24 50 00       	movb   $0x0,0x50(%rsp)
     ca1:	45 31 d2             	xor    %r10d,%r10d
     ca4:	45 31 db             	xor    %r11d,%r11d
     ca7:	c7 44 24 40 01 00 00 	movl   $0x1,0x40(%rsp)
     cae:	00 
     caf:	8b 40 10             	mov    0x10(%rax),%eax
     cb2:	8d 14 80             	lea    (%rax,%rax,4),%edx
     cb5:	8d 14 50             	lea    (%rax,%rdx,2),%edx
     cb8:	c1 fa 05             	sar    $0x5,%edx
     cbb:	83 c2 01             	add    $0x1,%edx
     cbe:	66 90                	xchg   %ax,%ax
     cc0:	48 8d bc 24 c7 00 00 	lea    0xc7(%rsp),%rdi
     cc7:	00 
     cc8:	41 bc cd cc cc cc    	mov    $0xcccccccd,%r12d
     cce:	49 89 f9             	mov    %rdi,%r9
     cd1:	0f 1f 80 00 00 00 00 	nopl   0x0(%rax)
     cd8:	4c 89 ce             	mov    %r9,%rsi
     cdb:	41 f6 c3 01          	test   $0x1,%r11b
     cdf:	74 09                	je     cea <__strftime_internal.isra.0+0xcea>
     ce1:	41 c6 41 ff 3a       	movb   $0x3a,-0x1(%r9)
     ce6:	48 83 ee 01          	sub    $0x1,%rsi
     cea:	89 d0                	mov    %edx,%eax
     cec:	89 d1                	mov    %edx,%ecx
     cee:	41 d1 fb             	sar    %r11d
     cf1:	4c 8d 4e ff          	lea    -0x1(%rsi),%r9
     cf5:	49 0f af c4          	imul   %r12,%rax
     cf9:	48 c1 e8 23          	shr    $0x23,%rax
     cfd:	8d 2c 80             	lea    (%rax,%rax,4),%ebp
     d00:	01 ed                	add    %ebp,%ebp
     d02:	29 e9                	sub    %ebp,%ecx
     d04:	83 c1 30             	add    $0x30,%ecx
     d07:	88 4e ff             	mov    %cl,-0x1(%rsi)
     d0a:	83 fa 09             	cmp    $0x9,%edx
     d0d:	77 09                	ja     d18 <__strftime_internal.isra.0+0xd18>
     d0f:	45 85 db             	test   %r11d,%r11d
     d12:	0f 84 a8 fd ff ff    	je     ac0 <__strftime_internal.isra.0+0xac0>
     d18:	89 c2                	mov    %eax,%edx
     d1a:	eb bc                	jmp    cd8 <__strftime_internal.isra.0+0xcd8>
     d1c:	48 8b 44 24 18       	mov    0x18(%rsp),%rax
     d21:	c7 44 24 40 01 00 00 	movl   $0x1,0x40(%rsp)
     d28:	00 
     d29:	8b 40 18             	mov    0x18(%rax),%eax
     d2c:	8d 50 06             	lea    0x6(%rax),%edx
     d2f:	48 63 c2             	movslq %edx,%rax
     d32:	89 d1                	mov    %edx,%ecx
     d34:	48 69 c0 93 24 49 92 	imul   $0xffffffff92492493,%rax,%rax
     d3b:	c1 f9 1f             	sar    $0x1f,%ecx
     d3e:	48 c1 e8 20          	shr    $0x20,%rax
     d42:	01 d0                	add    %edx,%eax
     d44:	c1 f8 02             	sar    $0x2,%eax
     d47:	29 c8                	sub    %ecx,%eax
     d49:	8d 0c c5 00 00 00 00 	lea    0x0(,%rax,8),%ecx
     d50:	29 c1                	sub    %eax,%ecx
     d52:	29 ca                	sub    %ecx,%edx
     d54:	83 c2 01             	add    $0x1,%edx
     d57:	e9 a4 fb ff ff       	jmp    900 <__strftime_internal.isra.0+0x900>
     d5c:	83 ff 45             	cmp    $0x45,%edi
     d5f:	0f 84 c3 f4 ff ff    	je     228 <__strftime_internal.isra.0+0x228>
     d65:	0f b6 44 24 38       	movzbl 0x38(%rsp),%eax
     d6a:	40 84 ed             	test   %bpl,%bpl
     d6d:	c6 44 24 58 00       	movb   $0x0,0x58(%rsp)
     d72:	0f 45 c5             	cmovne %ebp,%eax
     d75:	88 44 24 38          	mov    %al,0x38(%rsp)
     d79:	e9 28 f6 ff ff       	jmp    3a6 <__strftime_internal.isra.0+0x3a6>
     d7e:	83 ff 45             	cmp    $0x45,%edi
     d81:	0f 84 fa f8 ff ff    	je     681 <__strftime_internal.isra.0+0x681>
     d87:	48 8b 44 24 18       	mov    0x18(%rsp),%rax
     d8c:	8b 48 14             	mov    0x14(%rax),%ecx
     d8f:	81 f9 94 f8 ff ff    	cmp    $0xfffff894,%ecx
     d95:	8d 81 6c 07 00 00    	lea    0x76c(%rcx),%eax
     d9b:	41 0f 9c c2          	setl   %r10b
     d9f:	3d 6c 07 00 00       	cmp    $0x76c,%eax
     da4:	19 c0                	sbb    %eax,%eax
     da6:	83 e0 9d             	and    $0xffffff9d,%eax
     da9:	01 c8                	add    %ecx,%eax
     dab:	48 63 d0             	movslq %eax,%rdx
     dae:	c1 f8 1f             	sar    $0x1f,%eax
     db1:	48 69 d2 1f 85 eb 51 	imul   $0x51eb851f,%rdx,%rdx
     db8:	48 c1 fa 25          	sar    $0x25,%rdx
     dbc:	29 c2                	sub    %eax,%edx
     dbe:	83 c2 13             	add    $0x13,%edx
     dc1:	81 f9 94 f8 ff ff    	cmp    $0xfffff894,%ecx
     dc7:	0f 9d c0             	setge  %al
     dca:	45 85 c0             	test   %r8d,%r8d
     dcd:	0f 85 37 0a 00 00    	jne    180a <__strftime_internal.isra.0+0x180a>
     dd3:	83 7c 24 2c 2b       	cmpl   $0x2b,0x2c(%rsp)
     dd8:	44 8b 44 24 2c       	mov    0x2c(%rsp),%r8d
     ddd:	0f 84 31 0a 00 00    	je     1814 <__strftime_internal.isra.0+0x1814>
     de3:	c6 44 24 50 00       	movb   $0x0,0x50(%rsp)
     de8:	c7 44 24 40 02 00 00 	movl   $0x2,0x40(%rsp)
     def:	00 
     df0:	e9 78 f8 ff ff       	jmp    66d <__strftime_internal.isra.0+0x66d>
     df5:	85 ff                	test   %edi,%edi
     df7:	0f 85 2b f4 ff ff    	jne    228 <__strftime_internal.isra.0+0x228>
     dfd:	48 8d 05 00 00 00 00 	lea    0x0(%rip),%rax        # e04 <__strftime_internal.isra.0+0xe04>
     e04:	bd ff ff ff ff       	mov    $0xffffffff,%ebp
     e09:	48 89 44 24 40       	mov    %rax,0x40(%rsp)
     e0e:	8b 84 24 08 05 00 00 	mov    0x508(%rsp),%eax
     e15:	44 0f b6 64 24 38    	movzbl 0x38(%rsp),%r12d
     e1b:	41 89 e9             	mov    %ebp,%r9d
     e1e:	31 ff                	xor    %edi,%edi
     e20:	50                   	push   %rax
     e21:	44 89 e1             	mov    %r12d,%ecx
     e24:	ff 74 24 28          	push   0x28(%rsp)
     e28:	48 8b 54 24 28       	mov    0x28(%rsp),%rdx
     e2d:	48 8b 74 24 50       	mov    0x50(%rsp),%rsi
     e32:	44 89 44 24 48       	mov    %r8d,0x48(%rsp)
     e37:	e8 c4 f1 ff ff       	call   0 <__strftime_internal.isra.0>
     e3c:	5a                   	pop    %rdx
     e3d:	59                   	pop    %rcx
     e3e:	44 8b 44 24 38       	mov    0x38(%rsp),%r8d
     e43:	41 83 f8 2d          	cmp    $0x2d,%r8d
     e47:	0f 84 05 07 00 00    	je     1552 <__strftime_internal.isra.0+0x1552>
     e4d:	45 85 ed             	test   %r13d,%r13d
     e50:	0f 88 fc 06 00 00    	js     1552 <__strftime_internal.isra.0+0x1552>
     e56:	4d 63 ed             	movslq %r13d,%r13
     e59:	4c 39 e8             	cmp    %r13,%rax
     e5c:	4c 89 ee             	mov    %r13,%rsi
     e5f:	48 0f 43 f0          	cmovae %rax,%rsi
     e63:	48 89 74 24 38       	mov    %rsi,0x38(%rsp)
     e68:	4c 89 fa             	mov    %r15,%rdx
     e6b:	48 f7 d2             	not    %rdx
     e6e:	48 3b 54 24 38       	cmp    0x38(%rsp),%rdx
     e73:	0f 86 8f f2 ff ff    	jbe    108 <__strftime_internal.isra.0+0x108>
     e79:	4d 85 f6             	test   %r14,%r14
     e7c:	0f 84 89 00 00 00    	je     f0b <__strftime_internal.isra.0+0xf0b>
     e82:	49 39 c5             	cmp    %rax,%r13
     e85:	76 5c                	jbe    ee3 <__strftime_internal.isra.0+0xee3>
     e87:	49 29 c5             	sub    %rax,%r13
     e8a:	4c 89 e8             	mov    %r13,%rax
     e8d:	41 83 f8 30          	cmp    $0x30,%r8d
     e91:	0f 84 d5 07 00 00    	je     166c <__strftime_internal.isra.0+0x166c>
     e97:	45 31 ed             	xor    %r13d,%r13d
     e9a:	41 83 f8 2b          	cmp    $0x2b,%r8d
     e9e:	0f 84 c8 07 00 00    	je     166c <__strftime_internal.isra.0+0x166c>
     ea4:	44 89 44 24 58       	mov    %r8d,0x58(%rsp)
     ea9:	48 89 5c 24 50       	mov    %rbx,0x50(%rsp)
     eae:	48 89 c3             	mov    %rax,%rbx
     eb1:	4c 89 e8             	mov    %r13,%rax
     eb4:	41 89 ed             	mov    %ebp,%r13d
     eb7:	48 89 c5             	mov    %rax,%rbp
     eba:	66 0f 1f 44 00 00    	nopw   0x0(%rax,%rax,1)
     ec0:	4c 89 f6             	mov    %r14,%rsi
     ec3:	bf 20 00 00 00       	mov    $0x20,%edi
     ec8:	48 83 c5 01          	add    $0x1,%rbp
     ecc:	e8 00 00 00 00       	call   ed1 <__strftime_internal.isra.0+0xed1>
     ed1:	48 39 eb             	cmp    %rbp,%rbx
     ed4:	75 ea                	jne    ec0 <__strftime_internal.isra.0+0xec0>
     ed6:	48 8b 5c 24 50       	mov    0x50(%rsp),%rbx
     edb:	44 8b 44 24 58       	mov    0x58(%rsp),%r8d
     ee0:	44 89 ed             	mov    %r13d,%ebp
     ee3:	8b 84 24 08 05 00 00 	mov    0x508(%rsp),%eax
     eea:	44 89 e1             	mov    %r12d,%ecx
     eed:	41 89 e9             	mov    %ebp,%r9d
     ef0:	4c 89 f7             	mov    %r14,%rdi
     ef3:	50                   	push   %rax
     ef4:	ff 74 24 28          	push   0x28(%rsp)
     ef8:	48 8b 54 24 28       	mov    0x28(%rsp),%rdx
     efd:	48 8b 74 24 50       	mov    0x50(%rsp),%rsi
     f02:	e8 f9 f0 ff ff       	call   0 <__strftime_internal.isra.0>
     f07:	41 5c                	pop    %r12
     f09:	41 5d                	pop    %r13
     f0b:	4c 03 7c 24 38       	add    0x38(%rsp),%r15
     f10:	e9 ca f1 ff ff       	jmp    df <__strftime_internal.isra.0+0xdf>
     f15:	85 ff                	test   %edi,%edi
     f17:	0f 85 0b f3 ff ff    	jne    228 <__strftime_internal.isra.0+0x228>
     f1d:	45 85 ed             	test   %r13d,%r13d
     f20:	79 09                	jns    f2b <__strftime_internal.isra.0+0xf2b>
     f22:	45 85 c0             	test   %r8d,%r8d
     f25:	0f 84 6a 0b 00 00    	je     1a95 <__strftime_internal.isra.0+0x1a95>
     f2b:	41 8d 6d fa          	lea    -0x6(%r13),%ebp
     f2f:	31 c0                	xor    %eax,%eax
     f31:	85 ed                	test   %ebp,%ebp
     f33:	0f 48 e8             	cmovs  %eax,%ebp
     f36:	48 8d 05 00 00 00 00 	lea    0x0(%rip),%rax        # f3d <__strftime_internal.isra.0+0xf3d>
     f3d:	48 89 44 24 40       	mov    %rax,0x40(%rsp)
     f42:	e9 c7 fe ff ff       	jmp    e0e <__strftime_internal.isra.0+0xe0e>
     f47:	83 ff 45             	cmp    $0x45,%edi
     f4a:	0f 84 d8 f2 ff ff    	je     228 <__strftime_internal.isra.0+0x228>
     f50:	8b 54 24 10          	mov    0x10(%rsp),%edx
     f54:	45 85 c0             	test   %r8d,%r8d
     f57:	b8 5f 00 00 00       	mov    $0x5f,%eax
     f5c:	c7 44 24 40 02 00 00 	movl   $0x2,0x40(%rsp)
     f63:	00 
     f64:	44 0f 44 c0          	cmove  %eax,%r8d
     f68:	e9 93 f9 ff ff       	jmp    900 <__strftime_internal.isra.0+0x900>
     f6d:	83 ff 45             	cmp    $0x45,%edi
     f70:	0f 84 b2 f2 ff ff    	je     228 <__strftime_internal.isra.0+0x228>
     f76:	48 8b 44 24 18       	mov    0x18(%rsp),%rax
     f7b:	c6 44 24 50 00       	movb   $0x0,0x50(%rsp)
     f80:	c7 44 24 40 02 00 00 	movl   $0x2,0x40(%rsp)
     f87:	00 
     f88:	8b 40 10             	mov    0x10(%rax),%eax
     f8b:	83 f8 ff             	cmp    $0xffffffff,%eax
     f8e:	8d 50 01             	lea    0x1(%rax),%edx
     f91:	41 0f 9c c2          	setl   %r10b
     f95:	0f 9d c0             	setge  %al
     f98:	45 31 db             	xor    %r11d,%r11d
     f9b:	e9 d0 f6 ff ff       	jmp    670 <__strftime_internal.isra.0+0x670>
     fa0:	41 83 f8 2d          	cmp    $0x2d,%r8d
     fa4:	0f 84 88 06 00 00    	je     1632 <__strftime_internal.isra.0+0x1632>
     faa:	45 85 ed             	test   %r13d,%r13d
     fad:	0f 88 7f 06 00 00    	js     1632 <__strftime_internal.isra.0+0x1632>
     fb3:	4d 63 e5             	movslq %r13d,%r12
     fb6:	bd 01 00 00 00       	mov    $0x1,%ebp
     fbb:	4c 89 f8             	mov    %r15,%rax
     fbe:	4d 85 e4             	test   %r12,%r12
     fc1:	48 f7 d0             	not    %rax
     fc4:	49 0f 45 ec          	cmovne %r12,%rbp
     fc8:	48 39 c5             	cmp    %rax,%rbp
     fcb:	0f 83 37 f1 ff ff    	jae    108 <__strftime_internal.isra.0+0x108>
     fd1:	4d 85 f6             	test   %r14,%r14
     fd4:	74 44                	je     101a <__strftime_internal.isra.0+0x101a>
     fd6:	41 83 fd 01          	cmp    $0x1,%r13d
     fda:	7e 31                	jle    100d <__strftime_internal.isra.0+0x100d>
     fdc:	49 83 ec 01          	sub    $0x1,%r12
     fe0:	41 83 f8 30          	cmp    $0x30,%r8d
     fe4:	0f 84 15 0a 00 00    	je     19ff <__strftime_internal.isra.0+0x19ff>
     fea:	45 31 ed             	xor    %r13d,%r13d
     fed:	41 83 f8 2b          	cmp    $0x2b,%r8d
     ff1:	0f 84 08 0a 00 00    	je     19ff <__strftime_internal.isra.0+0x19ff>
     ff7:	4c 89 f6             	mov    %r14,%rsi
     ffa:	bf 20 00 00 00       	mov    $0x20,%edi
     fff:	49 83 c5 01          	add    $0x1,%r13
    1003:	e8 00 00 00 00       	call   1008 <__strftime_internal.isra.0+0x1008>
    1008:	4d 39 ec             	cmp    %r13,%r12
    100b:	75 ea                	jne    ff7 <__strftime_internal.isra.0+0xff7>
    100d:	4c 89 f6             	mov    %r14,%rsi
    1010:	bf 0a 00 00 00       	mov    $0xa,%edi
    1015:	e8 00 00 00 00       	call   101a <__strftime_internal.isra.0+0x101a>
    101a:	49 01 ef             	add    %rbp,%r15
    101d:	e9 bd f0 ff ff       	jmp    df <__strftime_internal.isra.0+0xdf>
    1022:	83 ff 45             	cmp    $0x45,%edi
    1025:	0f 84 fd f1 ff ff    	je     228 <__strftime_internal.isra.0+0x228>
    102b:	48 8b 4c 24 18       	mov    0x18(%rsp),%rcx
    1030:	8b 41 1c             	mov    0x1c(%rcx),%eax
    1033:	2b 41 18             	sub    0x18(%rcx),%eax
    1036:	83 c0 07             	add    $0x7,%eax
    1039:	e9 70 f9 ff ff       	jmp    9ae <__strftime_internal.isra.0+0x9ae>
    103e:	83 ff 45             	cmp    $0x45,%edi
    1041:	0f 84 3a f6 ff ff    	je     681 <__strftime_internal.isra.0+0x681>
    1047:	83 ff 4f             	cmp    $0x4f,%edi
    104a:	0f 84 d8 f1 ff ff    	je     228 <__strftime_internal.isra.0+0x228>
    1050:	48 8b 44 24 18       	mov    0x18(%rsp),%rax
    1055:	8b 50 14             	mov    0x14(%rax),%edx
    1058:	81 fa 94 f8 ff ff    	cmp    $0xfffff894,%edx
    105e:	41 0f 9c c2          	setl   %r10b
    1062:	81 c2 6c 07 00 00    	add    $0x76c,%edx
    1068:	45 85 c0             	test   %r8d,%r8d
    106b:	0f 85 68 07 00 00    	jne    17d9 <__strftime_internal.isra.0+0x17d9>
    1071:	44 8b 44 24 2c       	mov    0x2c(%rsp),%r8d
    1076:	41 83 f8 2b          	cmp    $0x2b,%r8d
    107a:	0f 84 e5 09 00 00    	je     1a65 <__strftime_internal.isra.0+0x1a65>
    1080:	c6 44 24 50 00       	movb   $0x0,0x50(%rsp)
    1085:	45 31 db             	xor    %r11d,%r11d
    1088:	c7 44 24 40 04 00 00 	movl   $0x4,0x40(%rsp)
    108f:	00 
    1090:	89 d0                	mov    %edx,%eax
    1092:	f7 d8                	neg    %eax
    1094:	45 84 d2             	test   %r10b,%r10b
    1097:	0f 45 d0             	cmovne %eax,%edx
    109a:	e9 21 fc ff ff       	jmp    cc0 <__strftime_internal.isra.0+0xcc0>
    109f:	0f b6 74 24 38       	movzbl 0x38(%rsp),%esi
    10a4:	31 c0                	xor    %eax,%eax
    10a6:	40 84 ed             	test   %bpl,%bpl
    10a9:	48 8b 7c 24 30       	mov    0x30(%rsp),%rdi
    10ae:	44 89 44 24 50       	mov    %r8d,0x50(%rsp)
    10b3:	0f 45 f0             	cmovne %eax,%esi
    10b6:	40 88 74 24 38       	mov    %sil,0x38(%rsp)
    10bb:	e8 00 00 00 00       	call   10c0 <__strftime_internal.isra.0+0x10c0>
    10c0:	45 85 ed             	test   %r13d,%r13d
    10c3:	44 8b 44 24 50       	mov    0x50(%rsp),%r8d
    10c8:	48 89 44 24 40       	mov    %rax,0x40(%rsp)
    10cd:	0f 88 4d 05 00 00    	js     1620 <__strftime_internal.isra.0+0x1620>
    10d3:	41 83 f8 2d          	cmp    $0x2d,%r8d
    10d7:	0f 84 43 05 00 00    	je     1620 <__strftime_internal.isra.0+0x1620>
    10dd:	4d 63 e5             	movslq %r13d,%r12
    10e0:	4c 39 e0             	cmp    %r12,%rax
    10e3:	49 0f 42 c4          	cmovb  %r12,%rax
    10e7:	48 89 44 24 50       	mov    %rax,0x50(%rsp)
    10ec:	4c 89 f8             	mov    %r15,%rax
    10ef:	48 f7 d0             	not    %rax
    10f2:	48 3b 44 24 50       	cmp    0x50(%rsp),%rax
    10f7:	0f 86 0b f0 ff ff    	jbe    108 <__strftime_internal.isra.0+0x108>
    10fd:	4d 85 f6             	test   %r14,%r14
    1100:	0f 84 ea f3 ff ff    	je     4f0 <__strftime_internal.isra.0+0x4f0>
    1106:	4c 39 64 24 40       	cmp    %r12,0x40(%rsp)
    110b:	73 37                	jae    1144 <__strftime_internal.isra.0+0x1144>
    110d:	4c 2b 64 24 40       	sub    0x40(%rsp),%r12
    1112:	41 83 f8 30          	cmp    $0x30,%r8d
    1116:	0f 84 01 09 00 00    	je     1a1d <__strftime_internal.isra.0+0x1a1d>
    111c:	41 83 f8 2b          	cmp    $0x2b,%r8d
    1120:	0f 84 f7 08 00 00    	je     1a1d <__strftime_internal.isra.0+0x1a1d>
    1126:	45 31 ed             	xor    %r13d,%r13d
    1129:	4d 85 e4             	test   %r12,%r12
    112c:	74 16                	je     1144 <__strftime_internal.isra.0+0x1144>
    112e:	4c 89 f6             	mov    %r14,%rsi
    1131:	bf 20 00 00 00       	mov    $0x20,%edi
    1136:	49 83 c5 01          	add    $0x1,%r13
    113a:	e8 00 00 00 00       	call   113f <__strftime_internal.isra.0+0x113f>
    113f:	4d 39 ec             	cmp    %r13,%r12
    1142:	75 ea                	jne    112e <__strftime_internal.isra.0+0x112e>
    1144:	40 84 ed             	test   %bpl,%bpl
    1147:	0f 85 2b 08 00 00    	jne    1978 <__strftime_internal.isra.0+0x1978>
    114d:	80 7c 24 38 00       	cmpb   $0x0,0x38(%rsp)
    1152:	0f 84 04 08 00 00    	je     195c <__strftime_internal.isra.0+0x195c>
    1158:	48 8b 6c 24 40       	mov    0x40(%rsp),%rbp
    115d:	48 85 ed             	test   %rbp,%rbp
    1160:	0f 84 8a f3 ff ff    	je     4f0 <__strftime_internal.isra.0+0x4f0>
    1166:	e8 00 00 00 00       	call   116b <__strftime_internal.isra.0+0x116b>
    116b:	49 89 ed             	mov    %rbp,%r13
    116e:	48 8b 6c 24 30       	mov    0x30(%rsp),%rbp
    1173:	49 89 c4             	mov    %rax,%r12
    1176:	49 01 ed             	add    %rbp,%r13
    1179:	0f b6 55 00          	movzbl 0x0(%rbp),%edx
    117d:	49 8b 04 24          	mov    (%r12),%rax
    1181:	4c 89 f6             	mov    %r14,%rsi
    1184:	48 83 c5 01          	add    $0x1,%rbp
    1188:	8b 3c 90             	mov    (%rax,%rdx,4),%edi
    118b:	e8 00 00 00 00       	call   1190 <__strftime_internal.isra.0+0x1190>
    1190:	4c 39 ed             	cmp    %r13,%rbp
    1193:	75 e4                	jne    1179 <__strftime_internal.isra.0+0x1179>
    1195:	e9 56 f3 ff ff       	jmp    4f0 <__strftime_internal.isra.0+0x4f0>
    119a:	83 ff 45             	cmp    $0x45,%edi
    119d:	0f 84 de f4 ff ff    	je     681 <__strftime_internal.isra.0+0x681>
    11a3:	48 8b 44 24 18       	mov    0x18(%rsp),%rax
    11a8:	48 63 50 14          	movslq 0x14(%rax),%rdx
    11ac:	48 89 d1             	mov    %rdx,%rcx
    11af:	48 69 d2 1f 85 eb 51 	imul   $0x51eb851f,%rdx,%rdx
    11b6:	89 c8                	mov    %ecx,%eax
    11b8:	c1 f8 1f             	sar    $0x1f,%eax
    11bb:	48 c1 fa 25          	sar    $0x25,%rdx
    11bf:	29 c2                	sub    %eax,%edx
    11c1:	6b c2 64             	imul   $0x64,%edx,%eax
    11c4:	89 ca                	mov    %ecx,%edx
    11c6:	29 c2                	sub    %eax,%edx
    11c8:	0f 89 72 f4 ff ff    	jns    640 <__strftime_internal.isra.0+0x640>
    11ce:	89 d0                	mov    %edx,%eax
    11d0:	83 c2 64             	add    $0x64,%edx
    11d3:	f7 d8                	neg    %eax
    11d5:	81 f9 93 f8 ff ff    	cmp    $0xfffff893,%ecx
    11db:	0f 4e d0             	cmovle %eax,%edx
    11de:	e9 5d f4 ff ff       	jmp    640 <__strftime_internal.isra.0+0x640>
    11e3:	0f b6 43 01          	movzbl 0x1(%rbx),%eax
    11e7:	48 8d 53 01          	lea    0x1(%rbx),%rdx
    11eb:	b9 01 00 00 00       	mov    $0x1,%ecx
    11f0:	3c 3a                	cmp    $0x3a,%al
    11f2:	0f 84 c5 01 00 00    	je     13bd <__strftime_internal.isra.0+0x13bd>
    11f8:	3c 7a                	cmp    $0x7a,%al
    11fa:	0f 85 28 f0 ff ff    	jne    228 <__strftime_internal.isra.0+0x228>
    1200:	48 89 d3             	mov    %rdx,%rbx
    1203:	48 8b 44 24 18       	mov    0x18(%rsp),%rax
    1208:	44 8b 50 20          	mov    0x20(%rax),%r10d
    120c:	45 85 d2             	test   %r10d,%r10d
    120f:	0f 88 ca ee ff ff    	js     df <__strftime_internal.isra.0+0xdf>
    1215:	48 8b 50 28          	mov    0x28(%rax),%rdx
    1219:	41 ba 01 00 00 00    	mov    $0x1,%r10d
    121f:	85 d2                	test   %edx,%edx
    1221:	78 14                	js     1237 <__strftime_internal.isra.0+0x1237>
    1223:	41 ba 00 00 00 00    	mov    $0x0,%r10d
    1229:	75 0c                	jne    1237 <__strftime_internal.isra.0+0x1237>
    122b:	48 8b 44 24 30       	mov    0x30(%rsp),%rax
    1230:	80 38 2d             	cmpb   $0x2d,(%rax)
    1233:	41 0f 94 c2          	sete   %r10b
    1237:	48 63 c2             	movslq %edx,%rax
    123a:	41 89 d1             	mov    %edx,%r9d
    123d:	4c 69 d8 c5 b3 a2 91 	imul   $0xffffffff91a2b3c5,%rax,%r11
    1244:	41 c1 f9 1f          	sar    $0x1f,%r9d
    1248:	48 69 c0 89 88 88 88 	imul   $0xffffffff88888889,%rax,%rax
    124f:	49 c1 eb 20          	shr    $0x20,%r11
    1253:	48 c1 e8 20          	shr    $0x20,%rax
    1257:	41 01 d3             	add    %edx,%r11d
    125a:	01 d0                	add    %edx,%eax
    125c:	41 c1 fb 0b          	sar    $0xb,%r11d
    1260:	c1 f8 05             	sar    $0x5,%eax
    1263:	45 29 cb             	sub    %r9d,%r11d
    1266:	44 29 c8             	sub    %r9d,%eax
    1269:	44 89 dd             	mov    %r11d,%ebp
    126c:	4c 63 d8             	movslq %eax,%r11
    126f:	41 89 c1             	mov    %eax,%r9d
    1272:	4d 69 db 89 88 88 88 	imul   $0xffffffff88888889,%r11,%r11
    1279:	41 c1 f9 1f          	sar    $0x1f,%r9d
    127d:	49 c1 eb 20          	shr    $0x20,%r11
    1281:	41 01 c3             	add    %eax,%r11d
    1284:	41 c1 fb 05          	sar    $0x5,%r11d
    1288:	45 29 cb             	sub    %r9d,%r11d
    128b:	45 6b cb 3c          	imul   $0x3c,%r11d,%r9d
    128f:	41 89 c3             	mov    %eax,%r11d
    1292:	6b c0 3c             	imul   $0x3c,%eax,%eax
    1295:	45 29 cb             	sub    %r9d,%r11d
    1298:	29 c2                	sub    %eax,%edx
    129a:	48 83 f9 02          	cmp    $0x2,%rcx
    129e:	0f 84 8b 06 00 00    	je     192f <__strftime_internal.isra.0+0x192f>
    12a4:	0f 87 3f 03 00 00    	ja     15e9 <__strftime_internal.isra.0+0x15e9>
    12aa:	48 85 c9             	test   %rcx,%rcx
    12ad:	0f 84 91 07 00 00    	je     1a44 <__strftime_internal.isra.0+0x1a44>
    12b3:	6b d5 64             	imul   $0x64,%ebp,%edx
    12b6:	44 89 d0             	mov    %r10d,%eax
    12b9:	c6 44 24 50 01       	movb   $0x1,0x50(%rsp)
    12be:	c7 44 24 40 06 00 00 	movl   $0x6,0x40(%rsp)
    12c5:	00 
    12c6:	83 f0 01             	xor    $0x1,%eax
    12c9:	44 01 da             	add    %r11d,%edx
    12cc:	41 bb 04 00 00 00    	mov    $0x4,%r11d
    12d2:	e9 99 f3 ff ff       	jmp    670 <__strftime_internal.isra.0+0x670>
    12d7:	83 ff 45             	cmp    $0x45,%edi
    12da:	0f 84 48 ef ff ff    	je     228 <__strftime_internal.isra.0+0x228>
    12e0:	48 8b 44 24 18       	mov    0x18(%rsp),%rax
    12e5:	c7 44 24 40 02 00 00 	movl   $0x2,0x40(%rsp)
    12ec:	00 
    12ed:	8b 50 0c             	mov    0xc(%rax),%edx
    12f0:	e9 0b f6 ff ff       	jmp    900 <__strftime_internal.isra.0+0x900>
    12f5:	83 ff 45             	cmp    $0x45,%edi
    12f8:	0f 84 2a ef ff ff    	je     228 <__strftime_internal.isra.0+0x228>
    12fe:	48 8b 44 24 18       	mov    0x18(%rsp),%rax
    1303:	c6 44 24 50 00       	movb   $0x0,0x50(%rsp)
    1308:	c7 44 24 40 03 00 00 	movl   $0x3,0x40(%rsp)
    130f:	00 
    1310:	8b 40 1c             	mov    0x1c(%rax),%eax
    1313:	83 f8 ff             	cmp    $0xffffffff,%eax
    1316:	8d 50 01             	lea    0x1(%rax),%edx
    1319:	41 0f 9c c2          	setl   %r10b
    131d:	0f 9d c0             	setge  %al
    1320:	45 31 db             	xor    %r11d,%r11d
    1323:	e9 48 f3 ff ff       	jmp    670 <__strftime_internal.isra.0+0x670>
    1328:	83 ff 45             	cmp    $0x45,%edi
    132b:	0f 84 f7 ee ff ff    	je     228 <__strftime_internal.isra.0+0x228>
    1331:	48 8b 44 24 18       	mov    0x18(%rsp),%rax
    1336:	8b 50 08             	mov    0x8(%rax),%edx
    1339:	e9 16 fc ff ff       	jmp    f54 <__strftime_internal.isra.0+0xf54>
    133e:	83 ff 45             	cmp    $0x45,%edi
    1341:	0f 84 e1 ee ff ff    	je     228 <__strftime_internal.isra.0+0x228>
    1347:	48 8b 44 24 18       	mov    0x18(%rsp),%rax
    134c:	8b 50 0c             	mov    0xc(%rax),%edx
    134f:	e9 00 fc ff ff       	jmp    f54 <__strftime_internal.isra.0+0xf54>
    1354:	31 c9                	xor    %ecx,%ecx
    1356:	e9 a8 fe ff ff       	jmp    1203 <__strftime_internal.isra.0+0x1203>
    135b:	48 8d 05 00 00 00 00 	lea    0x0(%rip),%rax        # 1362 <__strftime_internal.isra.0+0x1362>
    1362:	bd ff ff ff ff       	mov    $0xffffffff,%ebp
    1367:	48 89 44 24 40       	mov    %rax,0x40(%rsp)
    136c:	e9 9d fa ff ff       	jmp    e0e <__strftime_internal.isra.0+0xe0e>
    1371:	c6 44 24 58 00       	movb   $0x0,0x58(%rsp)
    1376:	0f b6 44 24 58       	movzbl 0x58(%rsp),%eax
    137b:	40 84 ed             	test   %bpl,%bpl
    137e:	0f b6 4c 24 38       	movzbl 0x38(%rsp),%ecx
    1383:	be 70 00 00 00       	mov    $0x70,%esi
    1388:	0f 45 c5             	cmovne %ebp,%eax
    138b:	88 44 24 58          	mov    %al,0x58(%rsp)
    138f:	b8 00 00 00 00       	mov    $0x0,%eax
    1394:	0f 45 c8             	cmovne %eax,%ecx
    1397:	88 4c 24 38          	mov    %cl,0x38(%rsp)
    139b:	e9 06 f0 ff ff       	jmp    3a6 <__strftime_internal.isra.0+0x3a6>
    13a0:	c6 44 24 58 01       	movb   $0x1,0x58(%rsp)
    13a5:	eb cf                	jmp    1376 <__strftime_internal.isra.0+0x1376>
    13a7:	48 8d 05 00 00 00 00 	lea    0x0(%rip),%rax        # 13ae <__strftime_internal.isra.0+0x13ae>
    13ae:	bd ff ff ff ff       	mov    $0xffffffff,%ebp
    13b3:	48 89 44 24 40       	mov    %rax,0x40(%rsp)
    13b8:	e9 51 fa ff ff       	jmp    e0e <__strftime_internal.isra.0+0xe0e>
    13bd:	48 83 c1 01          	add    $0x1,%rcx
    13c1:	0f b6 04 0b          	movzbl (%rbx,%rcx,1),%eax
    13c5:	48 8d 14 0b          	lea    (%rbx,%rcx,1),%rdx
    13c9:	3c 3a                	cmp    $0x3a,%al
    13cb:	0f 85 27 fe ff ff    	jne    11f8 <__strftime_internal.isra.0+0x11f8>
    13d1:	eb ea                	jmp    13bd <__strftime_internal.isra.0+0x13bd>
    13d3:	0f 1f 44 00 00       	nopl   0x0(%rax,%rax,1)
    13d8:	48 8b 44 24 40       	mov    0x40(%rsp),%rax
    13dd:	45 31 ed             	xor    %r13d,%r13d
    13e0:	48 89 44 24 50       	mov    %rax,0x50(%rsp)
    13e5:	e9 43 f0 ff ff       	jmp    42d <__strftime_internal.isra.0+0x42d>
    13ea:	66 0f 1f 44 00 00    	nopw   0x0(%rax,%rax,1)
    13f0:	c6 44 24 40 2d       	movb   $0x2d,0x40(%rsp)
    13f5:	41 8d 4d ff          	lea    -0x1(%r13),%ecx
    13f9:	44 29 e1             	sub    %r12d,%ecx
    13fc:	89 cd                	mov    %ecx,%ebp
    13fe:	85 c9                	test   %ecx,%ecx
    1400:	7e 76                	jle    1478 <__strftime_internal.isra.0+0x1478>
    1402:	84 c0                	test   %al,%al
    1404:	74 72                	je     1478 <__strftime_internal.isra.0+0x1478>
    1406:	41 83 f8 5f          	cmp    $0x5f,%r8d
    140a:	0f 84 bb 01 00 00    	je     15cb <__strftime_internal.isra.0+0x15cb>
    1410:	49 83 ff fd          	cmp    $0xfffffffffffffffd,%r15
    1414:	0f 87 ee ec ff ff    	ja     108 <__strftime_internal.isra.0+0x108>
    141a:	4d 85 f6             	test   %r14,%r14
    141d:	74 21                	je     1440 <__strftime_internal.isra.0+0x1440>
    141f:	0f be 7c 24 40       	movsbl 0x40(%rsp),%edi
    1424:	4c 89 f6             	mov    %r14,%rsi
    1427:	44 89 44 24 58       	mov    %r8d,0x58(%rsp)
    142c:	4c 89 4c 24 50       	mov    %r9,0x50(%rsp)
    1431:	e8 00 00 00 00       	call   1436 <__strftime_internal.isra.0+0x1436>
    1436:	44 8b 44 24 58       	mov    0x58(%rsp),%r8d
    143b:	4c 8b 4c 24 50       	mov    0x50(%rsp),%r9
    1440:	49 63 ec             	movslq %r12d,%rbp
    1443:	49 83 c7 01          	add    $0x1,%r15
    1447:	31 c0                	xor    %eax,%eax
    1449:	49 89 ec             	mov    %rbp,%r12
    144c:	41 83 f8 2d          	cmp    $0x2d,%r8d
    1450:	0f 84 be f6 ff ff    	je     b14 <__strftime_internal.isra.0+0xb14>
    1456:	41 83 ed 01          	sub    $0x1,%r13d
    145a:	0f 88 b4 f6 ff ff    	js     b14 <__strftime_internal.isra.0+0xb14>
    1460:	e9 a2 f6 ff ff       	jmp    b07 <__strftime_internal.isra.0+0xb07>
    1465:	0f 1f 00             	nopl   (%rax)
    1468:	b8 01 00 00 00       	mov    $0x1,%eax
    146d:	41 b8 30 00 00 00    	mov    $0x30,%r8d
    1473:	e9 58 f6 ff ff       	jmp    ad0 <__strftime_internal.isra.0+0xad0>
    1478:	31 ed                	xor    %ebp,%ebp
    147a:	eb 8a                	jmp    1406 <__strftime_internal.isra.0+0x1406>
    147c:	49 89 ec             	mov    %rbp,%r12
    147f:	31 c0                	xor    %eax,%eax
    1481:	41 83 f8 2d          	cmp    $0x2d,%r8d
    1485:	0f 85 7c f6 ff ff    	jne    b07 <__strftime_internal.isra.0+0xb07>
    148b:	e9 84 f6 ff ff       	jmp    b14 <__strftime_internal.isra.0+0xb14>
    1490:	4c 89 f1             	mov    %r14,%rcx
    1493:	ba 01 00 00 00       	mov    $0x1,%edx
    1498:	48 89 ee             	mov    %rbp,%rsi
    149b:	4c 89 cf             	mov    %r9,%rdi
    149e:	e8 00 00 00 00       	call   14a3 <__strftime_internal.isra.0+0x14a3>
    14a3:	e9 28 f7 ff ff       	jmp    bd0 <__strftime_internal.isra.0+0xbd0>
    14a8:	c6 44 24 38 01       	movb   $0x1,0x38(%rsp)
    14ad:	e9 ef ec ff ff       	jmp    1a1 <__strftime_internal.isra.0+0x1a1>
    14b2:	89 c5                	mov    %eax,%ebp
    14b4:	e9 e8 ec ff ff       	jmp    1a1 <__strftime_internal.isra.0+0x1a1>
    14b9:	4d 85 ed             	test   %r13,%r13
    14bc:	0f 84 09 ee ff ff    	je     2cb <__strftime_internal.isra.0+0x2cb>
    14c2:	31 d2                	xor    %edx,%edx
    14c4:	48 89 5c 24 58       	mov    %rbx,0x58(%rsp)
    14c9:	48 89 d3             	mov    %rdx,%rbx
    14cc:	0f 1f 40 00          	nopl   0x0(%rax)
    14d0:	4c 89 f6             	mov    %r14,%rsi
    14d3:	bf 30 00 00 00       	mov    $0x30,%edi
    14d8:	48 83 c3 01          	add    $0x1,%rbx
    14dc:	e8 00 00 00 00       	call   14e1 <__strftime_internal.isra.0+0x14e1>
    14e1:	49 39 dd             	cmp    %rbx,%r13
    14e4:	75 ea                	jne    14d0 <__strftime_internal.isra.0+0x14d0>
    14e6:	e9 db ed ff ff       	jmp    2c6 <__strftime_internal.isra.0+0x2c6>
    14eb:	48 8b 74 24 40       	mov    0x40(%rsp),%rsi
    14f0:	48 8d bc 24 b1 00 00 	lea    0xb1(%rsp),%rdi
    14f7:	00 
    14f8:	4c 89 f1             	mov    %r14,%rcx
    14fb:	ba 01 00 00 00       	mov    $0x1,%edx
    1500:	e8 00 00 00 00       	call   1505 <__strftime_internal.isra.0+0x1505>
    1505:	e9 e6 ef ff ff       	jmp    4f0 <__strftime_internal.isra.0+0x4f0>
    150a:	48 83 7c 24 40 00    	cmpq   $0x0,0x40(%rsp)
    1510:	0f 84 da ef ff ff    	je     4f0 <__strftime_internal.isra.0+0x4f0>
    1516:	e8 00 00 00 00       	call   151b <__strftime_internal.isra.0+0x151b>
    151b:	4c 01 e5             	add    %r12,%rbp
    151e:	4c 8d ac 24 b1 00 00 	lea    0xb1(%rsp),%r13
    1525:	00 
    1526:	49 89 c4             	mov    %rax,%r12
    1529:	0f 1f 80 00 00 00 00 	nopl   0x0(%rax)
    1530:	41 0f b6 55 00       	movzbl 0x0(%r13),%edx
    1535:	49 8b 04 24          	mov    (%r12),%rax
    1539:	4c 89 f6             	mov    %r14,%rsi
    153c:	49 83 c5 01          	add    $0x1,%r13
    1540:	8b 3c 90             	mov    (%rax,%rdx,4),%edi
    1543:	e8 00 00 00 00       	call   1548 <__strftime_internal.isra.0+0x1548>
    1548:	49 39 ed             	cmp    %rbp,%r13
    154b:	75 e3                	jne    1530 <__strftime_internal.isra.0+0x1530>
    154d:	e9 9e ef ff ff       	jmp    4f0 <__strftime_internal.isra.0+0x4f0>
    1552:	48 89 44 24 38       	mov    %rax,0x38(%rsp)
    1557:	45 31 ed             	xor    %r13d,%r13d
    155a:	e9 09 f9 ff ff       	jmp    e68 <__strftime_internal.isra.0+0xe68>
    155f:	c6 44 24 40 2b       	movb   $0x2b,0x40(%rsp)
    1564:	e9 8c fe ff ff       	jmp    13f5 <__strftime_internal.isra.0+0x13f5>
    1569:	4d 85 ed             	test   %r13,%r13
    156c:	0f 84 29 ef ff ff    	je     49b <__strftime_internal.isra.0+0x49b>
    1572:	31 d2                	xor    %edx,%edx
    1574:	48 89 5c 24 60       	mov    %rbx,0x60(%rsp)
    1579:	48 89 d3             	mov    %rdx,%rbx
    157c:	0f 1f 40 00          	nopl   0x0(%rax)
    1580:	4c 89 f6             	mov    %r14,%rsi
    1583:	bf 30 00 00 00       	mov    $0x30,%edi
    1588:	48 83 c3 01          	add    $0x1,%rbx
    158c:	e8 00 00 00 00       	call   1591 <__strftime_internal.isra.0+0x1591>
    1591:	49 39 dd             	cmp    %rbx,%r13
    1594:	75 ea                	jne    1580 <__strftime_internal.isra.0+0x1580>
    1596:	e9 fb ee ff ff       	jmp    496 <__strftime_internal.isra.0+0x496>
    159b:	4c 89 4c 24 50       	mov    %r9,0x50(%rsp)
    15a0:	45 31 ed             	xor    %r13d,%r13d
    15a3:	48 89 5c 24 40       	mov    %rbx,0x40(%rsp)
    15a8:	4c 89 eb             	mov    %r13,%rbx
    15ab:	49 89 c5             	mov    %rax,%r13
    15ae:	66 90                	xchg   %ax,%ax
    15b0:	4c 89 f6             	mov    %r14,%rsi
    15b3:	bf 30 00 00 00       	mov    $0x30,%edi
    15b8:	48 83 c3 01          	add    $0x1,%rbx
    15bc:	e8 00 00 00 00       	call   15c1 <__strftime_internal.isra.0+0x15c1>
    15c1:	49 39 dd             	cmp    %rbx,%r13
    15c4:	75 ea                	jne    15b0 <__strftime_internal.isra.0+0x15b0>
    15c6:	e9 ab f5 ff ff       	jmp    b76 <__strftime_internal.isra.0+0xb76>
    15cb:	48 63 c5             	movslq %ebp,%rax
    15ce:	48 89 44 24 50       	mov    %rax,0x50(%rsp)
    15d3:	4d 85 f6             	test   %r14,%r14
    15d6:	0f 85 c7 00 00 00    	jne    16a3 <__strftime_internal.isra.0+0x16a3>
    15dc:	4c 03 7c 24 50       	add    0x50(%rsp),%r15
    15e1:	41 29 ed             	sub    %ebp,%r13d
    15e4:	e9 27 fe ff ff       	jmp    1410 <__strftime_internal.isra.0+0x1410>
    15e9:	48 83 f9 03          	cmp    $0x3,%rcx
    15ed:	0f 85 35 ec ff ff    	jne    228 <__strftime_internal.isra.0+0x228>
    15f3:	85 d2                	test   %edx,%edx
    15f5:	0f 85 34 03 00 00    	jne    192f <__strftime_internal.isra.0+0x192f>
    15fb:	45 85 db             	test   %r11d,%r11d
    15fe:	0f 85 af fc ff ff    	jne    12b3 <__strftime_internal.isra.0+0x12b3>
    1604:	44 89 d0             	mov    %r10d,%eax
    1607:	c6 44 24 50 01       	movb   $0x1,0x50(%rsp)
    160c:	89 ea                	mov    %ebp,%edx
    160e:	c7 44 24 40 03 00 00 	movl   $0x3,0x40(%rsp)
    1615:	00 
    1616:	83 f0 01             	xor    $0x1,%eax
    1619:	e9 52 f0 ff ff       	jmp    670 <__strftime_internal.isra.0+0x670>
    161e:	66 90                	xchg   %ax,%ax
    1620:	48 8b 44 24 40       	mov    0x40(%rsp),%rax
    1625:	45 31 e4             	xor    %r12d,%r12d
    1628:	48 89 44 24 50       	mov    %rax,0x50(%rsp)
    162d:	e9 ba fa ff ff       	jmp    10ec <__strftime_internal.isra.0+0x10ec>
    1632:	49 83 ff fd          	cmp    $0xfffffffffffffffd,%r15
    1636:	0f 87 cc ea ff ff    	ja     108 <__strftime_internal.isra.0+0x108>
    163c:	bd 01 00 00 00       	mov    $0x1,%ebp
    1641:	4d 85 f6             	test   %r14,%r14
    1644:	0f 85 c3 f9 ff ff    	jne    100d <__strftime_internal.isra.0+0x100d>
    164a:	e9 cb f9 ff ff       	jmp    101a <__strftime_internal.isra.0+0x101a>
    164f:	49 83 ff fd          	cmp    $0xfffffffffffffffd,%r15
    1653:	0f 87 af ea ff ff    	ja     108 <__strftime_internal.isra.0+0x108>
    1659:	bd 01 00 00 00       	mov    $0x1,%ebp
    165e:	4d 85 f6             	test   %r14,%r14
    1661:	0f 85 f7 f5 ff ff    	jne    c5e <__strftime_internal.isra.0+0xc5e>
    1667:	e9 ae f9 ff ff       	jmp    101a <__strftime_internal.isra.0+0x101a>
    166c:	45 31 ed             	xor    %r13d,%r13d
    166f:	44 89 44 24 58       	mov    %r8d,0x58(%rsp)
    1674:	48 89 5c 24 50       	mov    %rbx,0x50(%rsp)
    1679:	48 89 c3             	mov    %rax,%rbx
    167c:	4c 89 e8             	mov    %r13,%rax
    167f:	41 89 ed             	mov    %ebp,%r13d
    1682:	48 89 c5             	mov    %rax,%rbp
    1685:	0f 1f 00             	nopl   (%rax)
    1688:	4c 89 f6             	mov    %r14,%rsi
    168b:	bf 30 00 00 00       	mov    $0x30,%edi
    1690:	48 83 c5 01          	add    $0x1,%rbp
    1694:	e8 00 00 00 00       	call   1699 <__strftime_internal.isra.0+0x1699>
    1699:	48 39 eb             	cmp    %rbp,%rbx
    169c:	75 ea                	jne    1688 <__strftime_internal.isra.0+0x1688>
    169e:	e9 33 f8 ff ff       	jmp    ed6 <__strftime_internal.isra.0+0xed6>
    16a3:	85 ed                	test   %ebp,%ebp
    16a5:	0f 84 31 ff ff ff    	je     15dc <__strftime_internal.isra.0+0x15dc>
    16ab:	4c 89 4c 24 60       	mov    %r9,0x60(%rsp)
    16b0:	45 31 d2             	xor    %r10d,%r10d
    16b3:	44 89 44 24 68       	mov    %r8d,0x68(%rsp)
    16b8:	48 89 5c 24 58       	mov    %rbx,0x58(%rsp)
    16bd:	48 63 dd             	movslq %ebp,%rbx
    16c0:	89 6c 24 6c          	mov    %ebp,0x6c(%rsp)
    16c4:	4c 89 d5             	mov    %r10,%rbp
    16c7:	66 0f 1f 84 00 00 00 	nopw   0x0(%rax,%rax,1)
    16ce:	00 00 
    16d0:	4c 89 f6             	mov    %r14,%rsi
    16d3:	bf 20 00 00 00       	mov    $0x20,%edi
    16d8:	48 83 c5 01          	add    $0x1,%rbp
    16dc:	e8 00 00 00 00       	call   16e1 <__strftime_internal.isra.0+0x16e1>
    16e1:	48 39 dd             	cmp    %rbx,%rbp
    16e4:	75 ea                	jne    16d0 <__strftime_internal.isra.0+0x16d0>
    16e6:	48 8b 5c 24 58       	mov    0x58(%rsp),%rbx
    16eb:	4c 8b 4c 24 60       	mov    0x60(%rsp),%r9
    16f0:	44 8b 44 24 68       	mov    0x68(%rsp),%r8d
    16f5:	8b 6c 24 6c          	mov    0x6c(%rsp),%ebp
    16f9:	e9 de fe ff ff       	jmp    15dc <__strftime_internal.isra.0+0x15dc>
    16fe:	41 83 f8 2d          	cmp    $0x2d,%r8d
    1702:	0f 84 9c 01 00 00    	je     18a4 <__strftime_internal.isra.0+0x18a4>
    1708:	45 85 ed             	test   %r13d,%r13d
    170b:	0f 88 93 01 00 00    	js     18a4 <__strftime_internal.isra.0+0x18a4>
    1711:	4d 63 e5             	movslq %r13d,%r12
    1714:	bd 01 00 00 00       	mov    $0x1,%ebp
    1719:	4c 89 f8             	mov    %r15,%rax
    171c:	4d 85 e4             	test   %r12,%r12
    171f:	48 f7 d0             	not    %rax
    1722:	49 0f 45 ec          	cmovne %r12,%rbp
    1726:	48 39 c5             	cmp    %rax,%rbp
    1729:	0f 83 d9 e9 ff ff    	jae    108 <__strftime_internal.isra.0+0x108>
    172f:	4d 85 f6             	test   %r14,%r14
    1732:	0f 84 e2 f8 ff ff    	je     101a <__strftime_internal.isra.0+0x101a>
    1738:	41 83 ed 01          	sub    $0x1,%r13d
    173c:	7e 31                	jle    176f <__strftime_internal.isra.0+0x176f>
    173e:	49 83 ec 01          	sub    $0x1,%r12
    1742:	41 83 f8 30          	cmp    $0x30,%r8d
    1746:	0f 84 9f 03 00 00    	je     1aeb <__strftime_internal.isra.0+0x1aeb>
    174c:	45 31 ed             	xor    %r13d,%r13d
    174f:	41 83 f8 2b          	cmp    $0x2b,%r8d
    1753:	0f 84 92 03 00 00    	je     1aeb <__strftime_internal.isra.0+0x1aeb>
    1759:	4c 89 f6             	mov    %r14,%rsi
    175c:	bf 20 00 00 00       	mov    $0x20,%edi
    1761:	49 83 c5 01          	add    $0x1,%r13
    1765:	e8 00 00 00 00       	call   176a <__strftime_internal.isra.0+0x176a>
    176a:	4d 39 ec             	cmp    %r13,%r12
    176d:	75 ea                	jne    1759 <__strftime_internal.isra.0+0x1759>
    176f:	0f be 3b             	movsbl (%rbx),%edi
    1772:	4c 89 f6             	mov    %r14,%rsi
    1775:	e8 00 00 00 00       	call   177a <__strftime_internal.isra.0+0x177a>
    177a:	e9 9b f8 ff ff       	jmp    101a <__strftime_internal.isra.0+0x101a>
    177f:	b9 94 f8 ff ff       	mov    $0xfffff894,%ecx
    1784:	29 c1                	sub    %eax,%ecx
    1786:	41 39 c9             	cmp    %ecx,%r9d
    1789:	0f 8d 86 03 00 00    	jge    1b15 <__strftime_internal.isra.0+0x1b15>
    178f:	f7 da                	neg    %edx
    1791:	45 85 c0             	test   %r8d,%r8d
    1794:	0f 84 af ee ff ff    	je     649 <__strftime_internal.isra.0+0x649>
    179a:	41 83 f8 2b          	cmp    $0x2b,%r8d
    179e:	0f 85 b4 ee ff ff    	jne    658 <__strftime_internal.isra.0+0x658>
    17a4:	c7 44 24 40 02 00 00 	movl   $0x2,0x40(%rsp)
    17ab:	00 
    17ac:	45 31 d2             	xor    %r10d,%r10d
    17af:	44 3b 6c 24 40       	cmp    0x40(%rsp),%r13d
    17b4:	44 89 d0             	mov    %r10d,%eax
    17b7:	41 b8 2b 00 00 00    	mov    $0x2b,%r8d
    17bd:	0f 9f 44 24 50       	setg   0x50(%rsp)
    17c2:	83 f0 01             	xor    $0x1,%eax
    17c5:	e9 a3 ee ff ff       	jmp    66d <__strftime_internal.isra.0+0x66d>
    17ca:	bd 01 00 00 00       	mov    $0x1,%ebp
    17cf:	be 01 00 00 00       	mov    $0x1,%esi
    17d4:	e9 a7 ef ff ff       	jmp    780 <__strftime_internal.isra.0+0x780>
    17d9:	c7 44 24 40 04 00 00 	movl   $0x4,0x40(%rsp)
    17e0:	00 
    17e1:	b8 0f 27 00 00       	mov    $0x270f,%eax
    17e6:	41 83 f8 2b          	cmp    $0x2b,%r8d
    17ea:	0f 85 46 03 00 00    	jne    1b36 <__strftime_internal.isra.0+0x1b36>
    17f0:	39 d0                	cmp    %edx,%eax
    17f2:	73 bb                	jae    17af <__strftime_internal.isra.0+0x17af>
    17f4:	44 89 d0             	mov    %r10d,%eax
    17f7:	c6 44 24 50 01       	movb   $0x1,0x50(%rsp)
    17fc:	41 b8 2b 00 00 00    	mov    $0x2b,%r8d
    1802:	83 f0 01             	xor    $0x1,%eax
    1805:	e9 63 ee ff ff       	jmp    66d <__strftime_internal.isra.0+0x66d>
    180a:	41 83 f8 2b          	cmp    $0x2b,%r8d
    180e:	0f 85 cf f5 ff ff    	jne    de3 <__strftime_internal.isra.0+0xde3>
    1814:	c7 44 24 40 02 00 00 	movl   $0x2,0x40(%rsp)
    181b:	00 
    181c:	b8 63 00 00 00       	mov    $0x63,%eax
    1821:	eb cd                	jmp    17f0 <__strftime_internal.isra.0+0x17f0>
    1823:	83 e8 01             	sub    $0x1,%eax
    1826:	ba 6d 01 00 00       	mov    $0x16d,%edx
    182b:	a8 03                	test   $0x3,%al
    182d:	75 2e                	jne    185d <__strftime_internal.isra.0+0x185d>
    182f:	69 c8 29 5c 8f c2    	imul   $0xc28f5c29,%eax,%ecx
    1835:	ba 6e 01 00 00       	mov    $0x16e,%edx
    183a:	81 c1 50 b8 1e 05    	add    $0x51eb850,%ecx
    1840:	c1 c9 02             	ror    $0x2,%ecx
    1843:	81 f9 28 5c 8f 02    	cmp    $0x28f5c28,%ecx
    1849:	77 12                	ja     185d <__strftime_internal.isra.0+0x185d>
    184b:	99                   	cltd   
    184c:	b9 90 01 00 00       	mov    $0x190,%ecx
    1851:	f7 f9                	idiv   %ecx
    1853:	f7 da                	neg    %edx
    1855:	19 d2                	sbb    %edx,%edx
    1857:	81 c2 6e 01 00 00    	add    $0x16e,%edx
    185d:	44 01 d2             	add    %r10d,%edx
    1860:	89 d1                	mov    %edx,%ecx
    1862:	44 29 d9             	sub    %r11d,%ecx
    1865:	81 c1 7e 01 00 00    	add    $0x17e,%ecx
    186b:	48 63 c1             	movslq %ecx,%rax
    186e:	41 89 ca             	mov    %ecx,%r10d
    1871:	29 ca                	sub    %ecx,%edx
    1873:	48 69 c0 93 24 49 92 	imul   $0xffffffff92492493,%rax,%rax
    187a:	41 c1 fa 1f          	sar    $0x1f,%r10d
    187e:	48 c1 e8 20          	shr    $0x20,%rax
    1882:	01 c8                	add    %ecx,%eax
    1884:	c1 f8 02             	sar    $0x2,%eax
    1887:	44 29 d0             	sub    %r10d,%eax
    188a:	44 8d 14 c5 00 00 00 	lea    0x0(,%rax,8),%r10d
    1891:	00 
    1892:	41 29 c2             	sub    %eax,%r10d
    1895:	b8 ff ff ff ff       	mov    $0xffffffff,%eax
    189a:	42 8d 4c 12 03       	lea    0x3(%rdx,%r10,1),%ecx
    189f:	e9 41 ed ff ff       	jmp    5e5 <__strftime_internal.isra.0+0x5e5>
    18a4:	49 83 ff fd          	cmp    $0xfffffffffffffffd,%r15
    18a8:	0f 87 5a e8 ff ff    	ja     108 <__strftime_internal.isra.0+0x108>
    18ae:	bd 01 00 00 00       	mov    $0x1,%ebp
    18b3:	4d 85 f6             	test   %r14,%r14
    18b6:	0f 85 b3 fe ff ff    	jne    176f <__strftime_internal.isra.0+0x176f>
    18bc:	e9 59 f7 ff ff       	jmp    101a <__strftime_internal.isra.0+0x101a>
    18c1:	48 63 d1             	movslq %ecx,%rdx
    18c4:	c7 44 24 40 02 00 00 	movl   $0x2,0x40(%rsp)
    18cb:	00 
    18cc:	48 69 d2 93 24 49 92 	imul   $0xffffffff92492493,%rdx,%rdx
    18d3:	48 c1 ea 20          	shr    $0x20,%rdx
    18d7:	01 ca                	add    %ecx,%edx
    18d9:	c1 f9 1f             	sar    $0x1f,%ecx
    18dc:	c1 fa 02             	sar    $0x2,%edx
    18df:	29 ca                	sub    %ecx,%edx
    18e1:	83 c2 01             	add    $0x1,%edx
    18e4:	e9 17 f0 ff ff       	jmp    900 <__strftime_internal.isra.0+0x900>
    18e9:	b9 94 f8 ff ff       	mov    $0xfffff894,%ecx
    18ee:	41 8d 94 01 6c 07 00 	lea    0x76c(%r9,%rax,1),%edx
    18f5:	00 
    18f6:	29 c1                	sub    %eax,%ecx
    18f8:	41 39 c9             	cmp    %ecx,%r9d
    18fb:	41 0f 9c c2          	setl   %r10b
    18ff:	45 85 c0             	test   %r8d,%r8d
    1902:	0f 85 d1 fe ff ff    	jne    17d9 <__strftime_internal.isra.0+0x17d9>
    1908:	44 8b 44 24 2c       	mov    0x2c(%rsp),%r8d
    190d:	41 83 f8 2b          	cmp    $0x2b,%r8d
    1911:	0f 84 4e 01 00 00    	je     1a65 <__strftime_internal.isra.0+0x1a65>
    1917:	41 39 c9             	cmp    %ecx,%r9d
    191a:	c6 44 24 50 00       	movb   $0x0,0x50(%rsp)
    191f:	c7 44 24 40 04 00 00 	movl   $0x4,0x40(%rsp)
    1926:	00 
    1927:	0f 9d c0             	setge  %al
    192a:	e9 3e ed ff ff       	jmp    66d <__strftime_internal.isra.0+0x66d>
    192f:	45 6b db 64          	imul   $0x64,%r11d,%r11d
    1933:	c6 44 24 50 01       	movb   $0x1,0x50(%rsp)
    1938:	69 c5 10 27 00 00    	imul   $0x2710,%ebp,%eax
    193e:	c7 44 24 40 09 00 00 	movl   $0x9,0x40(%rsp)
    1945:	00 
    1946:	44 01 d8             	add    %r11d,%eax
    1949:	41 bb 14 00 00 00    	mov    $0x14,%r11d
    194f:	01 c2                	add    %eax,%edx
    1951:	44 89 d0             	mov    %r10d,%eax
    1954:	83 f0 01             	xor    $0x1,%eax
    1957:	e9 14 ed ff ff       	jmp    670 <__strftime_internal.isra.0+0x670>
    195c:	48 8b 74 24 40       	mov    0x40(%rsp),%rsi
    1961:	48 8b 7c 24 30       	mov    0x30(%rsp),%rdi
    1966:	4c 89 f1             	mov    %r14,%rcx
    1969:	ba 01 00 00 00       	mov    $0x1,%edx
    196e:	e8 00 00 00 00       	call   1973 <__strftime_internal.isra.0+0x1973>
    1973:	e9 78 eb ff ff       	jmp    4f0 <__strftime_internal.isra.0+0x4f0>
    1978:	48 8b 6c 24 40       	mov    0x40(%rsp),%rbp
    197d:	48 85 ed             	test   %rbp,%rbp
    1980:	0f 84 6a eb ff ff    	je     4f0 <__strftime_internal.isra.0+0x4f0>
    1986:	e8 00 00 00 00       	call   198b <__strftime_internal.isra.0+0x198b>
    198b:	49 89 ed             	mov    %rbp,%r13
    198e:	48 8b 6c 24 30       	mov    0x30(%rsp),%rbp
    1993:	49 89 c4             	mov    %rax,%r12
    1996:	49 01 ed             	add    %rbp,%r13
    1999:	0f b6 55 00          	movzbl 0x0(%rbp),%edx
    199d:	49 8b 04 24          	mov    (%r12),%rax
    19a1:	4c 89 f6             	mov    %r14,%rsi
    19a4:	48 83 c5 01          	add    $0x1,%rbp
    19a8:	8b 3c 90             	mov    (%rax,%rdx,4),%edi
    19ab:	e8 00 00 00 00       	call   19b0 <__strftime_internal.isra.0+0x19b0>
    19b0:	4c 39 ed             	cmp    %r13,%rbp
    19b3:	75 e4                	jne    1999 <__strftime_internal.isra.0+0x1999>
    19b5:	e9 36 eb ff ff       	jmp    4f0 <__strftime_internal.isra.0+0x4f0>
    19ba:	4c 89 f1             	mov    %r14,%rcx
    19bd:	ba 01 00 00 00       	mov    $0x1,%edx
    19c2:	48 89 ee             	mov    %rbp,%rsi
    19c5:	44 89 44 24 38       	mov    %r8d,0x38(%rsp)
    19ca:	48 8d bc 24 b0 00 00 	lea    0xb0(%rsp),%rdi
    19d1:	00 
    19d2:	e8 00 00 00 00       	call   19d7 <__strftime_internal.isra.0+0x19d7>
    19d7:	44 8b 44 24 38       	mov    0x38(%rsp),%r8d
    19dc:	e9 8b ee ff ff       	jmp    86c <__strftime_internal.isra.0+0x86c>
    19e1:	45 31 ed             	xor    %r13d,%r13d
    19e4:	4c 89 f6             	mov    %r14,%rsi
    19e7:	bf 30 00 00 00       	mov    $0x30,%edi
    19ec:	49 83 c5 01          	add    $0x1,%r13
    19f0:	e8 00 00 00 00       	call   19f5 <__strftime_internal.isra.0+0x19f5>
    19f5:	4d 39 ec             	cmp    %r13,%r12
    19f8:	75 ea                	jne    19e4 <__strftime_internal.isra.0+0x19e4>
    19fa:	e9 5f f2 ff ff       	jmp    c5e <__strftime_internal.isra.0+0xc5e>
    19ff:	45 31 ed             	xor    %r13d,%r13d
    1a02:	4c 89 f6             	mov    %r14,%rsi
    1a05:	bf 30 00 00 00       	mov    $0x30,%edi
    1a0a:	49 83 c5 01          	add    $0x1,%r13
    1a0e:	e8 00 00 00 00       	call   1a13 <__strftime_internal.isra.0+0x1a13>
    1a13:	4d 39 ec             	cmp    %r13,%r12
    1a16:	75 ea                	jne    1a02 <__strftime_internal.isra.0+0x1a02>
    1a18:	e9 f0 f5 ff ff       	jmp    100d <__strftime_internal.isra.0+0x100d>
    1a1d:	4d 85 e4             	test   %r12,%r12
    1a20:	0f 84 1e f7 ff ff    	je     1144 <__strftime_internal.isra.0+0x1144>
    1a26:	45 31 ed             	xor    %r13d,%r13d
    1a29:	4c 89 f6             	mov    %r14,%rsi
    1a2c:	bf 30 00 00 00       	mov    $0x30,%edi
    1a31:	49 83 c5 01          	add    $0x1,%r13
    1a35:	e8 00 00 00 00       	call   1a3a <__strftime_internal.isra.0+0x1a3a>
    1a3a:	4d 39 ec             	cmp    %r13,%r12
    1a3d:	75 ea                	jne    1a29 <__strftime_internal.isra.0+0x1a29>
    1a3f:	e9 00 f7 ff ff       	jmp    1144 <__strftime_internal.isra.0+0x1144>
    1a44:	6b d5 64             	imul   $0x64,%ebp,%edx
    1a47:	44 89 d0             	mov    %r10d,%eax
    1a4a:	c6 44 24 50 01       	movb   $0x1,0x50(%rsp)
    1a4f:	c7 44 24 40 05 00 00 	movl   $0x5,0x40(%rsp)
    1a56:	00 
    1a57:	83 f0 01             	xor    $0x1,%eax
    1a5a:	44 01 da             	add    %r11d,%edx
    1a5d:	45 31 db             	xor    %r11d,%r11d
    1a60:	e9 0b ec ff ff       	jmp    670 <__strftime_internal.isra.0+0x670>
    1a65:	c7 44 24 40 04 00 00 	movl   $0x4,0x40(%rsp)
    1a6c:	00 
    1a6d:	b8 0f 27 00 00       	mov    $0x270f,%eax
    1a72:	e9 79 fd ff ff       	jmp    17f0 <__strftime_internal.isra.0+0x17f0>
    1a77:	45 31 e4             	xor    %r12d,%r12d
    1a7a:	4c 89 f6             	mov    %r14,%rsi
    1a7d:	bf 30 00 00 00       	mov    $0x30,%edi
    1a82:	49 83 c4 01          	add    $0x1,%r12
    1a86:	e8 00 00 00 00       	call   1a8b <__strftime_internal.isra.0+0x1a8b>
    1a8b:	49 39 ec             	cmp    %rbp,%r12
    1a8e:	75 ea                	jne    1a7a <__strftime_internal.isra.0+0x1a7a>
    1a90:	e9 3b f1 ff ff       	jmp    bd0 <__strftime_internal.isra.0+0xbd0>
    1a95:	8b 84 24 08 05 00 00 	mov    0x508(%rsp),%eax
    1a9c:	44 0f b6 64 24 38    	movzbl 0x38(%rsp),%r12d
    1aa2:	31 ff                	xor    %edi,%edi
    1aa4:	4c 8d 2d 00 00 00 00 	lea    0x0(%rip),%r13        # 1aab <__strftime_internal.isra.0+0x1aab>
    1aab:	41 b8 2b 00 00 00    	mov    $0x2b,%r8d
    1ab1:	4c 89 ee             	mov    %r13,%rsi
    1ab4:	41 b9 04 00 00 00    	mov    $0x4,%r9d
    1aba:	bd 04 00 00 00       	mov    $0x4,%ebp
    1abf:	50                   	push   %rax
    1ac0:	44 89 e1             	mov    %r12d,%ecx
    1ac3:	ff 74 24 28          	push   0x28(%rsp)
    1ac7:	48 8b 54 24 28       	mov    0x28(%rsp),%rdx
    1acc:	e8 2f e5 ff ff       	call   0 <__strftime_internal.isra.0>
    1ad1:	5a                   	pop    %rdx
    1ad2:	59                   	pop    %rcx
    1ad3:	41 b8 2b 00 00 00    	mov    $0x2b,%r8d
    1ad9:	4c 89 6c 24 40       	mov    %r13,0x40(%rsp)
    1ade:	45 31 ed             	xor    %r13d,%r13d
    1ae1:	48 89 44 24 38       	mov    %rax,0x38(%rsp)
    1ae6:	e9 7d f3 ff ff       	jmp    e68 <__strftime_internal.isra.0+0xe68>
    1aeb:	45 31 ed             	xor    %r13d,%r13d
    1aee:	4c 89 f6             	mov    %r14,%rsi
    1af1:	bf 30 00 00 00       	mov    $0x30,%edi
    1af6:	49 83 c5 01          	add    $0x1,%r13
    1afa:	e8 00 00 00 00       	call   1aff <__strftime_internal.isra.0+0x1aff>
    1aff:	4d 39 ec             	cmp    %r13,%r12
    1b02:	75 ea                	jne    1aee <__strftime_internal.isra.0+0x1aee>
    1b04:	e9 66 fc ff ff       	jmp    176f <__strftime_internal.isra.0+0x176f>
    1b09:	e8 00 00 00 00       	call   1b0e <__strftime_internal.isra.0+0x1b0e>
    1b0e:	31 ed                	xor    %ebp,%ebp
    1b10:	e9 b6 ec ff ff       	jmp    7cb <__strftime_internal.isra.0+0x7cb>
    1b15:	83 c2 64             	add    $0x64,%edx
    1b18:	45 85 c0             	test   %r8d,%r8d
    1b1b:	0f 85 79 fc ff ff    	jne    179a <__strftime_internal.isra.0+0x179a>
    1b21:	8b 44 24 2c          	mov    0x2c(%rsp),%eax
    1b25:	83 f8 2b             	cmp    $0x2b,%eax
    1b28:	0f 84 76 fc ff ff    	je     17a4 <__strftime_internal.isra.0+0x17a4>
    1b2e:	41 89 c0             	mov    %eax,%r8d
    1b31:	e9 22 eb ff ff       	jmp    658 <__strftime_internal.isra.0+0x658>
    1b36:	44 89 d0             	mov    %r10d,%eax
    1b39:	c6 44 24 50 00       	movb   $0x0,0x50(%rsp)
    1b3e:	83 f0 01             	xor    $0x1,%eax
    1b41:	e9 27 eb ff ff       	jmp    66d <__strftime_internal.isra.0+0x66d>
    1b46:	41 83 f8 2d          	cmp    $0x2d,%r8d
    1b4a:	0f 84 af e5 ff ff    	je     ff <__strftime_internal.isra.0+0xff>
    1b50:	44 89 ed             	mov    %r13d,%ebp
    1b53:	4c 89 f8             	mov    %r15,%rax
    1b56:	44 29 e5             	sub    %r12d,%ebp
    1b59:	48 f7 d0             	not    %rax
    1b5c:	48 63 ed             	movslq %ebp,%rbp
    1b5f:	48 39 e8             	cmp    %rbp,%rax
    1b62:	0f 87 35 ed ff ff    	ja     89d <__strftime_internal.isra.0+0x89d>
    1b68:	e9 9b e5 ff ff       	jmp    108 <__strftime_internal.isra.0+0x108>
    1b6d:	48 8b 44 24 08       	mov    0x8(%rsp),%rax
    1b72:	c7 00 4b 00 00 00    	movl   $0x4b,(%rax)
    1b78:	e9 96 e5 ff ff       	jmp    113 <__strftime_internal.isra.0+0x113>
    1b7d:	0f 1f 00             	nopl   (%rax)

0000000000001b80 <fprintftime>:
    1b80:	f3 0f 1e fa          	endbr64 
    1b84:	48 83 ec 08          	sub    $0x8,%rsp
    1b88:	41 b9 ff ff ff ff    	mov    $0xffffffff,%r9d
    1b8e:	41 50                	push   %r8
    1b90:	45 31 c0             	xor    %r8d,%r8d
    1b93:	51                   	push   %rcx
    1b94:	31 c9                	xor    %ecx,%ecx
    1b96:	e8 65 e4 ff ff       	call   0 <__strftime_internal.isra.0>
    1b9b:	48 83 c4 18          	add    $0x18,%rsp
    1b9f:	c3                   	ret    
