
/home/lalitssrg/coreutils/lib/vasnprintf.o:     file format elf64-x86-64


Disassembly of section .text:

0000000000000000 <vasnprintf>:
       0:	f3 0f 1e fa          	endbr64 
       4:	55                   	push   %rbp
       5:	48 89 e5             	mov    %rsp,%rbp
       8:	41 57                	push   %r15
       a:	41 56                	push   %r14
       c:	4c 8d b5 00 fc ff ff 	lea    -0x400(%rbp),%r14
      13:	41 55                	push   %r13
      15:	49 89 d5             	mov    %rdx,%r13
      18:	4c 89 f2             	mov    %r14,%rdx
      1b:	41 54                	push   %r12
      1d:	49 89 cc             	mov    %rcx,%r12
      20:	53                   	push   %rbx
      21:	48 81 ec 58 04 00 00 	sub    $0x458,%rsp
      28:	48 89 bd b8 fb ff ff 	mov    %rdi,-0x448(%rbp)
      2f:	4c 89 ef             	mov    %r13,%rdi
      32:	48 89 b5 a0 fb ff ff 	mov    %rsi,-0x460(%rbp)
      39:	48 8d b5 f0 fc ff ff 	lea    -0x310(%rbp),%rsi
      40:	64 48 8b 04 25 28 00 	mov    %fs:0x28,%rax
      47:	00 00 
      49:	48 89 45 c8          	mov    %rax,-0x38(%rbp)
      4d:	31 c0                	xor    %eax,%eax
      4f:	e8 00 00 00 00       	call   54 <vasnprintf+0x54>
      54:	85 c0                	test   %eax,%eax
      56:	0f 88 c0 04 00 00    	js     51c <vasnprintf+0x51c>
      5c:	4c 89 f6             	mov    %r14,%rsi
      5f:	4c 89 e7             	mov    %r12,%rdi
      62:	e8 00 00 00 00       	call   67 <vasnprintf+0x67>
      67:	85 c0                	test   %eax,%eax
      69:	0f 88 d9 04 00 00    	js     548 <vasnprintf+0x548>
      6f:	48 8b 95 00 fd ff ff 	mov    -0x300(%rbp),%rdx
      76:	48 8d 42 07          	lea    0x7(%rdx),%rax
      7a:	48 83 fa f9          	cmp    $0xfffffffffffffff9,%rdx
      7e:	48 c7 c2 ff ff ff ff 	mov    $0xffffffffffffffff,%rdx
      85:	48 0f 43 c2          	cmovae %rdx,%rax
      89:	48 03 85 08 fd ff ff 	add    -0x2f8(%rbp),%rax
      90:	0f 82 4b 04 00 00    	jb     4e1 <vasnprintf+0x4e1>
      96:	48 89 c7             	mov    %rax,%rdi
      99:	48 83 c7 06          	add    $0x6,%rdi
      9d:	0f 82 3e 04 00 00    	jb     4e1 <vasnprintf+0x4e1>
      a3:	48 81 ff 9f 0f 00 00 	cmp    $0xf9f,%rdi
      aa:	0f 86 e0 07 00 00    	jbe    890 <vasnprintf+0x890>
      b0:	48 83 ff ff          	cmp    $0xffffffffffffffff,%rdi
      b4:	0f 84 27 04 00 00    	je     4e1 <vasnprintf+0x4e1>
      ba:	e8 00 00 00 00       	call   bf <vasnprintf+0xbf>
      bf:	48 89 85 c0 fb ff ff 	mov    %rax,-0x440(%rbp)
      c6:	48 85 c0             	test   %rax,%rax
      c9:	0f 84 12 04 00 00    	je     4e1 <vasnprintf+0x4e1>
      cf:	48 89 85 98 fb ff ff 	mov    %rax,-0x468(%rbp)
      d6:	31 db                	xor    %ebx,%ebx
      d8:	48 83 bd b8 fb ff ff 	cmpq   $0x0,-0x448(%rbp)
      df:	00 
      e0:	74 0a                	je     ec <vasnprintf+0xec>
      e2:	48 8b 85 a0 fb ff ff 	mov    -0x460(%rbp),%rax
      e9:	48 8b 18             	mov    (%rax),%rbx
      ec:	4c 8b b5 f8 fc ff ff 	mov    -0x308(%rbp),%r14
      f3:	4d 89 e8             	mov    %r13,%r8
      f6:	45 31 c9             	xor    %r9d,%r9d
      f9:	48 c7 85 a8 fb ff ff 	movq   $0x0,-0x458(%rbp)
     100:	00 00 00 00 
     104:	4c 8b bd b8 fb ff ff 	mov    -0x448(%rbp),%r15
     10b:	4d 8b 2e             	mov    (%r14),%r13
     10e:	4d 39 c5             	cmp    %r8,%r13
     111:	0f 84 cd 09 00 00    	je     ae4 <vasnprintf+0xae4>
     117:	4d 29 c5             	sub    %r8,%r13
     11a:	4d 89 cc             	mov    %r9,%r12
     11d:	48 c7 c0 ff ff ff ff 	mov    $0xffffffffffffffff,%rax
     124:	4d 01 ec             	add    %r13,%r12
     127:	4c 0f 42 e0          	cmovb  %rax,%r12
     12b:	4c 39 e3             	cmp    %r12,%rbx
     12e:	0f 83 cc 09 00 00    	jae    b00 <vasnprintf+0xb00>
     134:	48 85 db             	test   %rbx,%rbx
     137:	0f 84 b3 09 00 00    	je     af0 <vasnprintf+0xaf0>
     13d:	0f 88 7d 0d 00 00    	js     ec0 <vasnprintf+0xec0>
     143:	48 01 db             	add    %rbx,%rbx
     146:	4c 39 e3             	cmp    %r12,%rbx
     149:	49 0f 42 dc          	cmovb  %r12,%rbx
     14d:	48 83 fb ff          	cmp    $0xffffffffffffffff,%rbx
     151:	0f 84 69 0d 00 00    	je     ec0 <vasnprintf+0xec0>
     157:	4c 3b bd b8 fb ff ff 	cmp    -0x448(%rbp),%r15
     15e:	4c 89 85 d0 fb ff ff 	mov    %r8,-0x430(%rbp)
     165:	4c 89 8d d8 fb ff ff 	mov    %r9,-0x428(%rbp)
     16c:	0f 84 ce 0c 00 00    	je     e40 <vasnprintf+0xe40>
     172:	48 89 de             	mov    %rbx,%rsi
     175:	4c 89 ff             	mov    %r15,%rdi
     178:	e8 00 00 00 00       	call   17d <vasnprintf+0x17d>
     17d:	4c 8b 8d d8 fb ff ff 	mov    -0x428(%rbp),%r9
     184:	4c 8b 85 d0 fb ff ff 	mov    -0x430(%rbp),%r8
     18b:	48 85 c0             	test   %rax,%rax
     18e:	49 89 c2             	mov    %rax,%r10
     191:	0f 84 29 0d 00 00    	je     ec0 <vasnprintf+0xec0>
     197:	4b 8d 3c 0a          	lea    (%r10,%r9,1),%rdi
     19b:	4c 89 ea             	mov    %r13,%rdx
     19e:	4c 89 c6             	mov    %r8,%rsi
     1a1:	4c 89 95 d8 fb ff ff 	mov    %r10,-0x428(%rbp)
     1a8:	e8 00 00 00 00       	call   1ad <vasnprintf+0x1ad>
     1ad:	4c 8b 95 d8 fb ff ff 	mov    -0x428(%rbp),%r10
     1b4:	48 8b 85 a8 fb ff ff 	mov    -0x458(%rbp),%rax
     1bb:	48 39 85 f0 fc ff ff 	cmp    %rax,-0x310(%rbp)
     1c2:	0f 84 44 0f 00 00    	je     110c <vasnprintf+0x110c>
     1c8:	41 0f b6 56 48       	movzbl 0x48(%r14),%edx
     1cd:	49 8b 46 50          	mov    0x50(%r14),%rax
     1d1:	80 fa 25             	cmp    $0x25,%dl
     1d4:	0f 84 66 08 00 00    	je     a40 <vasnprintf+0xa40>
     1da:	48 83 f8 ff          	cmp    $0xffffffffffffffff,%rax
     1de:	0f 84 00 00 00 00    	je     1e4 <vasnprintf+0x1e4>
     1e4:	48 8b b5 08 fc ff ff 	mov    -0x3f8(%rbp),%rsi
     1eb:	48 c1 e0 05          	shl    $0x5,%rax
     1ef:	48 01 f0             	add    %rsi,%rax
     1f2:	44 8b 28             	mov    (%rax),%r13d
     1f5:	80 fa 6e             	cmp    $0x6e,%dl
     1f8:	0f 84 12 09 00 00    	je     b10 <vasnprintf+0xb10>
     1fe:	41 8b 4e 10          	mov    0x10(%r14),%ecx
     202:	80 fa 63             	cmp    $0x63,%dl
     205:	0f 84 d5 09 00 00    	je     be0 <vasnprintf+0xbe0>
     20b:	48 8b 85 c0 fb ff ff 	mov    -0x440(%rbp),%rax
     212:	48 c7 85 f8 fb ff ff 	movq   $0x0,-0x408(%rbp)
     219:	00 00 00 00 
     21d:	c6 00 25             	movb   $0x25,(%rax)
     220:	f6 c1 01             	test   $0x1,%cl
     223:	0f 85 5f 09 00 00    	jne    b88 <vasnprintf+0xb88>
     229:	48 83 c0 01          	add    $0x1,%rax
     22d:	48 89 85 d8 fb ff ff 	mov    %rax,-0x428(%rbp)
     234:	f6 c1 02             	test   $0x2,%cl
     237:	74 15                	je     24e <vasnprintf+0x24e>
     239:	48 8b 85 d8 fb ff ff 	mov    -0x428(%rbp),%rax
     240:	c6 00 2d             	movb   $0x2d,(%rax)
     243:	48 83 c0 01          	add    $0x1,%rax
     247:	48 89 85 d8 fb ff ff 	mov    %rax,-0x428(%rbp)
     24e:	f6 c1 04             	test   $0x4,%cl
     251:	74 15                	je     268 <vasnprintf+0x268>
     253:	48 8b 85 d8 fb ff ff 	mov    -0x428(%rbp),%rax
     25a:	c6 00 2b             	movb   $0x2b,(%rax)
     25d:	48 83 c0 01          	add    $0x1,%rax
     261:	48 89 85 d8 fb ff ff 	mov    %rax,-0x428(%rbp)
     268:	f6 c1 08             	test   $0x8,%cl
     26b:	74 15                	je     282 <vasnprintf+0x282>
     26d:	48 8b 85 d8 fb ff ff 	mov    -0x428(%rbp),%rax
     274:	c6 00 20             	movb   $0x20,(%rax)
     277:	48 83 c0 01          	add    $0x1,%rax
     27b:	48 89 85 d8 fb ff ff 	mov    %rax,-0x428(%rbp)
     282:	f6 c1 10             	test   $0x10,%cl
     285:	74 15                	je     29c <vasnprintf+0x29c>
     287:	48 8b 85 d8 fb ff ff 	mov    -0x428(%rbp),%rax
     28e:	c6 00 23             	movb   $0x23,(%rax)
     291:	48 83 c0 01          	add    $0x1,%rax
     295:	48 89 85 d8 fb ff ff 	mov    %rax,-0x428(%rbp)
     29c:	f6 c1 40             	test   $0x40,%cl
     29f:	74 15                	je     2b6 <vasnprintf+0x2b6>
     2a1:	48 8b 85 d8 fb ff ff 	mov    -0x428(%rbp),%rax
     2a8:	c6 00 49             	movb   $0x49,(%rax)
     2ab:	48 83 c0 01          	add    $0x1,%rax
     2af:	48 89 85 d8 fb ff ff 	mov    %rax,-0x428(%rbp)
     2b6:	83 e1 20             	and    $0x20,%ecx
     2b9:	74 15                	je     2d0 <vasnprintf+0x2d0>
     2bb:	48 8b 85 d8 fb ff ff 	mov    -0x428(%rbp),%rax
     2c2:	c6 00 30             	movb   $0x30,(%rax)
     2c5:	48 83 c0 01          	add    $0x1,%rax
     2c9:	48 89 85 d8 fb ff ff 	mov    %rax,-0x428(%rbp)
     2d0:	49 8b 76 18          	mov    0x18(%r14),%rsi
     2d4:	49 8b 46 20          	mov    0x20(%r14),%rax
     2d8:	48 39 c6             	cmp    %rax,%rsi
     2db:	74 2a                	je     307 <vasnprintf+0x307>
     2dd:	48 29 f0             	sub    %rsi,%rax
     2e0:	48 8b bd d8 fb ff ff 	mov    -0x428(%rbp),%rdi
     2e7:	4c 89 95 d0 fb ff ff 	mov    %r10,-0x430(%rbp)
     2ee:	48 89 c2             	mov    %rax,%rdx
     2f1:	49 89 c7             	mov    %rax,%r15
     2f4:	e8 00 00 00 00       	call   2f9 <vasnprintf+0x2f9>
     2f9:	4c 01 bd d8 fb ff ff 	add    %r15,-0x428(%rbp)
     300:	4c 8b 95 d0 fb ff ff 	mov    -0x430(%rbp),%r10
     307:	49 8b 76 30          	mov    0x30(%r14),%rsi
     30b:	49 8b 46 38          	mov    0x38(%r14),%rax
     30f:	48 39 c6             	cmp    %rax,%rsi
     312:	74 2a                	je     33e <vasnprintf+0x33e>
     314:	48 29 f0             	sub    %rsi,%rax
     317:	48 8b bd d8 fb ff ff 	mov    -0x428(%rbp),%rdi
     31e:	4c 89 95 d0 fb ff ff 	mov    %r10,-0x430(%rbp)
     325:	48 89 c2             	mov    %rax,%rdx
     328:	49 89 c7             	mov    %rax,%r15
     32b:	e8 00 00 00 00       	call   330 <vasnprintf+0x330>
     330:	4c 01 bd d8 fb ff ff 	add    %r15,-0x428(%rbp)
     337:	4c 8b 95 d0 fb ff ff 	mov    -0x430(%rbp),%r10
     33e:	41 83 fd 20          	cmp    $0x20,%r13d
     342:	77 4c                	ja     390 <vasnprintf+0x390>
     344:	b8 01 00 00 00       	mov    $0x1,%eax
     349:	44 89 e9             	mov    %r13d,%ecx
     34c:	48 ba 80 01 e6 47 01 	movabs $0x147e60180,%rdx
     353:	00 00 00 
     356:	48 d3 e0             	shl    %cl,%rax
     359:	48 85 d0             	test   %rdx,%rax
     35c:	0f 85 09 08 00 00    	jne    b6b <vasnprintf+0xb6b>
     362:	f6 c4 06             	test   $0x6,%ah
     365:	0f 85 eb 07 00 00    	jne    b56 <vasnprintf+0xb56>
     36b:	41 83 fd 1c          	cmp    $0x1c,%r13d
     36f:	75 1f                	jne    390 <vasnprintf+0x390>
     371:	48 8b 85 d8 fb ff ff 	mov    -0x428(%rbp),%rax
     378:	c6 00 4c             	movb   $0x4c,(%rax)
     37b:	48 83 c0 01          	add    $0x1,%rax
     37f:	48 89 85 d8 fb ff ff 	mov    %rax,-0x428(%rbp)
     386:	66 2e 0f 1f 84 00 00 	cs nopw 0x0(%rax,%rax,1)
     38d:	00 00 00 
     390:	41 0f b6 46 48       	movzbl 0x48(%r14),%eax
     395:	48 8b 8d d8 fb ff ff 	mov    -0x428(%rbp),%rcx
     39c:	88 01                	mov    %al,(%rcx)
     39e:	c6 41 01 00          	movb   $0x0,0x1(%rcx)
     3a2:	49 8b 46 28          	mov    0x28(%r14),%rax
     3a6:	48 83 f8 ff          	cmp    $0xffffffffffffffff,%rax
     3aa:	0f 84 f0 0a 00 00    	je     ea0 <vasnprintf+0xea0>
     3b0:	48 c1 e0 05          	shl    $0x5,%rax
     3b4:	48 03 85 08 fc ff ff 	add    -0x3f8(%rbp),%rax
     3bb:	83 38 05             	cmpl   $0x5,(%rax)
     3be:	0f 85 00 00 00 00    	jne    3c4 <vasnprintf+0x3c4>
     3c4:	c7 85 c8 fb ff ff 01 	movl   $0x1,-0x438(%rbp)
     3cb:	00 00 00 
     3ce:	8b 40 10             	mov    0x10(%rax),%eax
     3d1:	89 85 f8 fb ff ff    	mov    %eax,-0x408(%rbp)
     3d7:	49 8b 46 40          	mov    0x40(%r14),%rax
     3db:	48 83 f8 ff          	cmp    $0xffffffffffffffff,%rax
     3df:	74 2d                	je     40e <vasnprintf+0x40e>
     3e1:	48 c1 e0 05          	shl    $0x5,%rax
     3e5:	48 03 85 08 fc ff ff 	add    -0x3f8(%rbp),%rax
     3ec:	83 38 05             	cmpl   $0x5,(%rax)
     3ef:	0f 85 00 00 00 00    	jne    3f5 <vasnprintf+0x3f5>
     3f5:	8b 95 c8 fb ff ff    	mov    -0x438(%rbp),%edx
     3fb:	8b 40 10             	mov    0x10(%rax),%eax
     3fe:	89 84 95 f8 fb ff ff 	mov    %eax,-0x408(%rbp,%rdx,4)
     405:	8d 42 01             	lea    0x1(%rdx),%eax
     408:	89 85 c8 fb ff ff    	mov    %eax,-0x438(%rbp)
     40e:	4c 89 e0             	mov    %r12,%rax
     411:	48 83 c0 02          	add    $0x2,%rax
     415:	0f 82 b6 0a 00 00    	jb     ed1 <vasnprintf+0xed1>
     41b:	48 39 c3             	cmp    %rax,%rbx
     41e:	0f 83 bc 0a 00 00    	jae    ee0 <vasnprintf+0xee0>
     424:	48 85 db             	test   %rbx,%rbx
     427:	0f 85 c3 0a 00 00    	jne    ef0 <vasnprintf+0xef0>
     42d:	48 83 f8 0c          	cmp    $0xc,%rax
     431:	0f 87 cb 0a 00 00    	ja     f02 <vasnprintf+0xf02>
     437:	bb 0c 00 00 00       	mov    $0xc,%ebx
     43c:	4c 3b 95 b8 fb ff ff 	cmp    -0x448(%rbp),%r10
     443:	0f 84 1f 0b 00 00    	je     f68 <vasnprintf+0xf68>
     449:	4c 89 d7             	mov    %r10,%rdi
     44c:	48 89 de             	mov    %rbx,%rsi
     44f:	4c 89 95 d0 fb ff ff 	mov    %r10,-0x430(%rbp)
     456:	e8 00 00 00 00       	call   45b <vasnprintf+0x45b>
     45b:	4c 8b 95 d0 fb ff ff 	mov    -0x430(%rbp),%r10
     462:	48 85 c0             	test   %rax,%rax
     465:	49 89 c7             	mov    %rax,%r15
     468:	0f 84 42 07 00 00    	je     bb0 <vasnprintf+0xbb0>
     46e:	43 c6 04 27 00       	movb   $0x0,(%r15,%r12,1)
     473:	e8 00 00 00 00       	call   478 <vasnprintf+0x478>
     478:	44 89 ad b0 fb ff ff 	mov    %r13d,-0x450(%rbp)
     47f:	4d 89 fd             	mov    %r15,%r13
     482:	48 89 85 d0 fb ff ff 	mov    %rax,-0x430(%rbp)
     489:	8b 00                	mov    (%rax),%eax
     48b:	89 85 90 fb ff ff    	mov    %eax,-0x470(%rbp)
     491:	0f 1f 80 00 00 00 00 	nopl   0x0(%rax)
     498:	48 8b 85 d0 fb ff ff 	mov    -0x430(%rbp),%rax
     49f:	49 89 df             	mov    %rbx,%r15
     4a2:	be ff ff ff 7f       	mov    $0x7fffffff,%esi
     4a7:	c7 85 ec fb ff ff ff 	movl   $0xffffffff,-0x414(%rbp)
     4ae:	ff ff ff 
     4b1:	4d 29 e7             	sub    %r12,%r15
     4b4:	c7 00 00 00 00 00    	movl   $0x0,(%rax)
     4ba:	8b 85 b0 fb ff ff    	mov    -0x450(%rbp),%eax
     4c0:	49 39 f7             	cmp    %rsi,%r15
     4c3:	49 0f 46 f7          	cmovbe %r15,%rsi
     4c7:	83 f8 21             	cmp    $0x21,%eax
     4ca:	0f 87 00 00 00 00    	ja     4d0 <vasnprintf+0x4d0>
     4d0:	48 8d 3d 00 00 00 00 	lea    0x0(%rip),%rdi        # 4d7 <vasnprintf+0x4d7>
     4d7:	48 63 04 87          	movslq (%rdi,%rax,4),%rax
     4db:	48 01 f8             	add    %rdi,%rax
     4de:	3e ff e0             	notrack jmp *%rax
     4e1:	e8 00 00 00 00       	call   4e6 <vasnprintf+0x4e6>
     4e6:	c7 00 0c 00 00 00    	movl   $0xc,(%rax)
     4ec:	48 8b bd f8 fc ff ff 	mov    -0x308(%rbp),%rdi
     4f3:	48 8d 85 10 fd ff ff 	lea    -0x2f0(%rbp),%rax
     4fa:	48 39 c7             	cmp    %rax,%rdi
     4fd:	74 05                	je     504 <vasnprintf+0x504>
     4ff:	e8 00 00 00 00       	call   504 <vasnprintf+0x504>
     504:	48 8b bd 08 fc ff ff 	mov    -0x3f8(%rbp),%rdi
     50b:	48 8d 85 10 fc ff ff 	lea    -0x3f0(%rbp),%rax
     512:	48 39 c7             	cmp    %rax,%rdi
     515:	74 05                	je     51c <vasnprintf+0x51c>
     517:	e8 00 00 00 00       	call   51c <vasnprintf+0x51c>
     51c:	45 31 d2             	xor    %r10d,%r10d
     51f:	48 8b 45 c8          	mov    -0x38(%rbp),%rax
     523:	64 48 2b 04 25 28 00 	sub    %fs:0x28,%rax
     52a:	00 00 
     52c:	0f 85 7c 11 00 00    	jne    16ae <vasnprintf+0x16ae>
     532:	48 8d 65 d8          	lea    -0x28(%rbp),%rsp
     536:	4c 89 d0             	mov    %r10,%rax
     539:	5b                   	pop    %rbx
     53a:	41 5c                	pop    %r12
     53c:	41 5d                	pop    %r13
     53e:	41 5e                	pop    %r14
     540:	41 5f                	pop    %r15
     542:	5d                   	pop    %rbp
     543:	c3                   	ret    
     544:	0f 1f 40 00          	nopl   0x0(%rax)
     548:	e8 00 00 00 00       	call   54d <vasnprintf+0x54d>
     54d:	c7 00 16 00 00 00    	movl   $0x16,(%rax)
     553:	eb 97                	jmp    4ec <vasnprintf+0x4ec>
     555:	0f 1f 00             	nopl   (%rax)
     558:	49 8b 46 50          	mov    0x50(%r14),%rax
     55c:	4b 8d 7c 25 00       	lea    0x0(%r13,%r12,1),%rdi
     561:	48 c1 e0 05          	shl    $0x5,%rax
     565:	48 03 85 08 fc ff ff 	add    -0x3f8(%rbp),%rax
     56c:	4c 8b 48 10          	mov    0x10(%rax),%r9
     570:	8b 85 c8 fb ff ff    	mov    -0x438(%rbp),%eax
     576:	83 f8 01             	cmp    $0x1,%eax
     579:	0f 84 99 04 00 00    	je     a18 <vasnprintf+0xa18>
     57f:	83 f8 02             	cmp    $0x2,%eax
     582:	0f 84 78 04 00 00    	je     a00 <vasnprintf+0xa00>
     588:	48 83 ec 08          	sub    $0x8,%rsp
     58c:	48 8d 85 ec fb ff ff 	lea    -0x414(%rbp),%rax
     593:	50                   	push   %rax
     594:	4c 8b 85 c0 fb ff ff 	mov    -0x440(%rbp),%r8
     59b:	48 c7 c1 ff ff ff ff 	mov    $0xffffffffffffffff,%rcx
     5a2:	ba 01 00 00 00       	mov    $0x1,%edx
     5a7:	31 c0                	xor    %eax,%eax
     5a9:	48 89 b5 88 fb ff ff 	mov    %rsi,-0x478(%rbp)
     5b0:	e8 00 00 00 00       	call   5b5 <vasnprintf+0x5b5>
     5b5:	5e                   	pop    %rsi
     5b6:	48 8b b5 88 fb ff ff 	mov    -0x478(%rbp),%rsi
     5bd:	5f                   	pop    %rdi
     5be:	8b 95 ec fb ff ff    	mov    -0x414(%rbp),%edx
     5c4:	85 d2                	test   %edx,%edx
     5c6:	0f 88 18 01 00 00    	js     6e4 <vasnprintf+0x6e4>
     5cc:	48 63 ca             	movslq %edx,%rcx
     5cf:	48 39 f1             	cmp    %rsi,%rcx
     5d2:	73 0e                	jae    5e2 <vasnprintf+0x5e2>
     5d4:	4c 01 e9             	add    %r13,%rcx
     5d7:	42 80 3c 21 00       	cmpb   $0x0,(%rcx,%r12,1)
     5dc:	0f 85 00 00 00 00    	jne    5e2 <vasnprintf+0x5e2>
     5e2:	39 c2                	cmp    %eax,%edx
     5e4:	7d 08                	jge    5ee <vasnprintf+0x5ee>
     5e6:	89 85 ec fb ff ff    	mov    %eax,-0x414(%rbp)
     5ec:	89 c2                	mov    %eax,%edx
     5ee:	8d 42 01             	lea    0x1(%rdx),%eax
     5f1:	48 39 f0             	cmp    %rsi,%rax
     5f4:	0f 82 1e 09 00 00    	jb     f18 <vasnprintf+0xf18>
     5fa:	49 81 ff fe ff ff 7f 	cmp    $0x7ffffffe,%r15
     601:	0f 87 39 09 00 00    	ja     f40 <vasnprintf+0xf40>
     607:	48 85 db             	test   %rbx,%rbx
     60a:	0f 88 a0 03 00 00    	js     9b0 <vasnprintf+0x9b0>
     610:	8d 42 02             	lea    0x2(%rdx),%eax
     613:	48 8d 0c 1b          	lea    (%rbx,%rbx,1),%rcx
     617:	4c 01 e0             	add    %r12,%rax
     61a:	0f 82 a0 03 00 00    	jb     9c0 <vasnprintf+0x9c0>
     620:	48 39 c1             	cmp    %rax,%rcx
     623:	48 0f 43 c1          	cmovae %rcx,%rax
     627:	48 39 c3             	cmp    %rax,%rbx
     62a:	0f 83 68 fe ff ff    	jae    498 <vasnprintf+0x498>
     630:	48 39 c1             	cmp    %rax,%rcx
     633:	48 0f 43 c1          	cmovae %rcx,%rax
     637:	48 89 c3             	mov    %rax,%rbx
     63a:	48 83 f8 ff          	cmp    $0xffffffffffffffff,%rax
     63e:	0f 84 7c 03 00 00    	je     9c0 <vasnprintf+0x9c0>
     644:	4c 3b ad b8 fb ff ff 	cmp    -0x448(%rbp),%r13
     64b:	0f 84 7f 03 00 00    	je     9d0 <vasnprintf+0x9d0>
     651:	48 89 c6             	mov    %rax,%rsi
     654:	4c 89 ef             	mov    %r13,%rdi
     657:	e8 00 00 00 00       	call   65c <vasnprintf+0x65c>
     65c:	48 85 c0             	test   %rax,%rax
     65f:	0f 84 5b 03 00 00    	je     9c0 <vasnprintf+0x9c0>
     665:	49 89 c5             	mov    %rax,%r13
     668:	e9 2b fe ff ff       	jmp    498 <vasnprintf+0x498>
     66d:	0f 1f 00             	nopl   (%rax)
     670:	49 8b 46 50          	mov    0x50(%r14),%rax
     674:	4b 8d 7c 25 00       	lea    0x0(%r13,%r12,1),%rdi
     679:	48 c1 e0 05          	shl    $0x5,%rax
     67d:	48 03 85 08 fc ff ff 	add    -0x3f8(%rbp),%rax
     684:	44 8b 48 10          	mov    0x10(%rax),%r9d
     688:	8b 85 c8 fb ff ff    	mov    -0x438(%rbp),%eax
     68e:	83 f8 01             	cmp    $0x1,%eax
     691:	0f 84 f9 00 00 00    	je     790 <vasnprintf+0x790>
     697:	83 f8 02             	cmp    $0x2,%eax
     69a:	0f 84 40 01 00 00    	je     7e0 <vasnprintf+0x7e0>
     6a0:	48 83 ec 08          	sub    $0x8,%rsp
     6a4:	48 8d 85 ec fb ff ff 	lea    -0x414(%rbp),%rax
     6ab:	50                   	push   %rax
     6ac:	4c 8b 85 c0 fb ff ff 	mov    -0x440(%rbp),%r8
     6b3:	48 c7 c1 ff ff ff ff 	mov    $0xffffffffffffffff,%rcx
     6ba:	ba 01 00 00 00       	mov    $0x1,%edx
     6bf:	31 c0                	xor    %eax,%eax
     6c1:	48 89 b5 88 fb ff ff 	mov    %rsi,-0x478(%rbp)
     6c8:	e8 00 00 00 00       	call   6cd <vasnprintf+0x6cd>
     6cd:	5a                   	pop    %rdx
     6ce:	8b 95 ec fb ff ff    	mov    -0x414(%rbp),%edx
     6d4:	48 8b b5 88 fb ff ff 	mov    -0x478(%rbp),%rsi
     6db:	59                   	pop    %rcx
     6dc:	85 d2                	test   %edx,%edx
     6de:	0f 89 e8 fe ff ff    	jns    5cc <vasnprintf+0x5cc>
     6e4:	48 8b 8d d8 fb ff ff 	mov    -0x428(%rbp),%rcx
     6eb:	80 79 01 00          	cmpb   $0x0,0x1(%rcx)
     6ef:	0f 85 3b 03 00 00    	jne    a30 <vasnprintf+0xa30>
     6f5:	85 c0                	test   %eax,%eax
     6f7:	0f 89 e9 fe ff ff    	jns    5e6 <vasnprintf+0x5e6>
     6fd:	48 8b 85 d0 fb ff ff 	mov    -0x430(%rbp),%rax
     704:	4d 89 ef             	mov    %r13,%r15
     707:	8b 00                	mov    (%rax),%eax
     709:	85 c0                	test   %eax,%eax
     70b:	75 23                	jne    730 <vasnprintf+0x730>
     70d:	41 0f b6 46 48       	movzbl 0x48(%r14),%eax
     712:	ba 54 00 00 00       	mov    $0x54,%edx
     717:	48 8b 9d d0 fb ff ff 	mov    -0x430(%rbp),%rbx
     71e:	83 e0 ef             	and    $0xffffffef,%eax
     721:	3c 63                	cmp    $0x63,%al
     723:	b8 16 00 00 00       	mov    $0x16,%eax
     728:	0f 44 c2             	cmove  %edx,%eax
     72b:	89 03                	mov    %eax,(%rbx)
     72d:	0f 1f 00             	nopl   (%rax)
     730:	4c 3b bd b8 fb ff ff 	cmp    -0x448(%rbp),%r15
     737:	74 08                	je     741 <vasnprintf+0x741>
     739:	4c 89 ff             	mov    %r15,%rdi
     73c:	e8 00 00 00 00       	call   741 <vasnprintf+0x741>
     741:	48 8b 85 98 fb ff ff 	mov    -0x468(%rbp),%rax
     748:	48 85 c0             	test   %rax,%rax
     74b:	0f 84 9b fd ff ff    	je     4ec <vasnprintf+0x4ec>
     751:	48 89 c7             	mov    %rax,%rdi
     754:	e8 00 00 00 00       	call   759 <vasnprintf+0x759>
     759:	e9 8e fd ff ff       	jmp    4ec <vasnprintf+0x4ec>
     75e:	66 90                	xchg   %ax,%ax
     760:	49 8b 46 50          	mov    0x50(%r14),%rax
     764:	4b 8d 7c 25 00       	lea    0x0(%r13,%r12,1),%rdi
     769:	48 c1 e0 05          	shl    $0x5,%rax
     76d:	48 03 85 08 fc ff ff 	add    -0x3f8(%rbp),%rax
     774:	44 0f b6 48 10       	movzbl 0x10(%rax),%r9d
     779:	8b 85 c8 fb ff ff    	mov    -0x438(%rbp),%eax
     77f:	83 f8 01             	cmp    $0x1,%eax
     782:	0f 85 0f ff ff ff    	jne    697 <vasnprintf+0x697>
     788:	0f 1f 84 00 00 00 00 	nopl   0x0(%rax,%rax,1)
     78f:	00 
     790:	48 8d 85 ec fb ff ff 	lea    -0x414(%rbp),%rax
     797:	50                   	push   %rax
     798:	41 51                	push   %r9
     79a:	44 8b 8d f8 fb ff ff 	mov    -0x408(%rbp),%r9d
     7a1:	e9 06 ff ff ff       	jmp    6ac <vasnprintf+0x6ac>
     7a6:	66 2e 0f 1f 84 00 00 	cs nopw 0x0(%rax,%rax,1)
     7ad:	00 00 00 
     7b0:	49 8b 46 50          	mov    0x50(%r14),%rax
     7b4:	4b 8d 7c 25 00       	lea    0x0(%r13,%r12,1),%rdi
     7b9:	48 c1 e0 05          	shl    $0x5,%rax
     7bd:	48 03 85 08 fc ff ff 	add    -0x3f8(%rbp),%rax
     7c4:	44 0f be 48 10       	movsbl 0x10(%rax),%r9d
     7c9:	8b 85 c8 fb ff ff    	mov    -0x438(%rbp),%eax
     7cf:	83 f8 01             	cmp    $0x1,%eax
     7d2:	74 bc                	je     790 <vasnprintf+0x790>
     7d4:	83 f8 02             	cmp    $0x2,%eax
     7d7:	0f 85 c3 fe ff ff    	jne    6a0 <vasnprintf+0x6a0>
     7dd:	0f 1f 00             	nopl   (%rax)
     7e0:	48 83 ec 08          	sub    $0x8,%rsp
     7e4:	48 8d 85 ec fb ff ff 	lea    -0x414(%rbp),%rax
     7eb:	50                   	push   %rax
     7ec:	41 51                	push   %r9
     7ee:	8b 85 fc fb ff ff    	mov    -0x404(%rbp),%eax
     7f4:	50                   	push   %rax
     7f5:	44 8b 8d f8 fb ff ff 	mov    -0x408(%rbp),%r9d
     7fc:	4c 8b 85 c0 fb ff ff 	mov    -0x440(%rbp),%r8
     803:	48 c7 c1 ff ff ff ff 	mov    $0xffffffffffffffff,%rcx
     80a:	31 c0                	xor    %eax,%eax
     80c:	ba 01 00 00 00       	mov    $0x1,%edx
     811:	48 89 b5 88 fb ff ff 	mov    %rsi,-0x478(%rbp)
     818:	e8 00 00 00 00       	call   81d <vasnprintf+0x81d>
     81d:	48 8b b5 88 fb ff ff 	mov    -0x478(%rbp),%rsi
     824:	48 83 c4 20          	add    $0x20,%rsp
     828:	e9 91 fd ff ff       	jmp    5be <vasnprintf+0x5be>
     82d:	0f 1f 00             	nopl   (%rax)
     830:	49 8b 46 50          	mov    0x50(%r14),%rax
     834:	4b 8d 7c 25 00       	lea    0x0(%r13,%r12,1),%rdi
     839:	48 c1 e0 05          	shl    $0x5,%rax
     83d:	48 03 85 08 fc ff ff 	add    -0x3f8(%rbp),%rax
     844:	44 0f bf 48 10       	movswl 0x10(%rax),%r9d
     849:	8b 85 c8 fb ff ff    	mov    -0x438(%rbp),%eax
     84f:	83 f8 01             	cmp    $0x1,%eax
     852:	0f 85 3f fe ff ff    	jne    697 <vasnprintf+0x697>
     858:	e9 33 ff ff ff       	jmp    790 <vasnprintf+0x790>
     85d:	0f 1f 00             	nopl   (%rax)
     860:	49 8b 46 50          	mov    0x50(%r14),%rax
     864:	4b 8d 7c 25 00       	lea    0x0(%r13,%r12,1),%rdi
     869:	48 c1 e0 05          	shl    $0x5,%rax
     86d:	48 03 85 08 fc ff ff 	add    -0x3f8(%rbp),%rax
     874:	44 0f b7 48 10       	movzwl 0x10(%rax),%r9d
     879:	8b 85 c8 fb ff ff    	mov    -0x438(%rbp),%eax
     87f:	83 f8 01             	cmp    $0x1,%eax
     882:	0f 85 0f fe ff ff    	jne    697 <vasnprintf+0x697>
     888:	e9 03 ff ff ff       	jmp    790 <vasnprintf+0x790>
     88d:	0f 1f 00             	nopl   (%rax)
     890:	48 83 c0 1d          	add    $0x1d,%rax
     894:	48 89 e1             	mov    %rsp,%rcx
     897:	48 89 c2             	mov    %rax,%rdx
     89a:	48 25 00 f0 ff ff    	and    $0xfffffffffffff000,%rax
     8a0:	48 29 c1             	sub    %rax,%rcx
     8a3:	48 83 e2 f0          	and    $0xfffffffffffffff0,%rdx
     8a7:	48 39 cc             	cmp    %rcx,%rsp
     8aa:	74 15                	je     8c1 <vasnprintf+0x8c1>
     8ac:	48 81 ec 00 10 00 00 	sub    $0x1000,%rsp
     8b3:	48 83 8c 24 f8 0f 00 	orq    $0x0,0xff8(%rsp)
     8ba:	00 00 
     8bc:	48 39 cc             	cmp    %rcx,%rsp
     8bf:	75 eb                	jne    8ac <vasnprintf+0x8ac>
     8c1:	81 e2 ff 0f 00 00    	and    $0xfff,%edx
     8c7:	48 29 d4             	sub    %rdx,%rsp
     8ca:	48 85 d2             	test   %rdx,%rdx
     8cd:	0f 85 18 08 00 00    	jne    10eb <vasnprintf+0x10eb>
     8d3:	48 c7 85 98 fb ff ff 	movq   $0x0,-0x468(%rbp)
     8da:	00 00 00 00 
     8de:	48 8d 44 24 0f       	lea    0xf(%rsp),%rax
     8e3:	48 83 e0 f0          	and    $0xfffffffffffffff0,%rax
     8e7:	48 89 85 c0 fb ff ff 	mov    %rax,-0x440(%rbp)
     8ee:	e9 e3 f7 ff ff       	jmp    d6 <vasnprintf+0xd6>
     8f3:	0f 1f 44 00 00       	nopl   0x0(%rax,%rax,1)
     8f8:	49 8b 46 50          	mov    0x50(%r14),%rax
     8fc:	4b 8d 7c 25 00       	lea    0x0(%r13,%r12,1),%rdi
     901:	48 c1 e0 05          	shl    $0x5,%rax
     905:	48 03 85 08 fc ff ff 	add    -0x3f8(%rbp),%rax
     90c:	db 68 10             	fldt   0x10(%rax)
     90f:	8b 85 c8 fb ff ff    	mov    -0x438(%rbp),%eax
     915:	83 f8 01             	cmp    $0x1,%eax
     918:	0f 84 3a 07 00 00    	je     1058 <vasnprintf+0x1058>
     91e:	83 f8 02             	cmp    $0x2,%eax
     921:	0f 84 d9 06 00 00    	je     1000 <vasnprintf+0x1000>
     927:	48 83 ec 10          	sub    $0x10,%rsp
     92b:	4c 8d 8d ec fb ff ff 	lea    -0x414(%rbp),%r9
     932:	db 3c 24             	fstpt  (%rsp)
     935:	e9 5a fc ff ff       	jmp    594 <vasnprintf+0x594>
     93a:	66 0f 1f 44 00 00    	nopw   0x0(%rax,%rax,1)
     940:	49 8b 46 50          	mov    0x50(%r14),%rax
     944:	4b 8d 7c 25 00       	lea    0x0(%r13,%r12,1),%rdi
     949:	48 c1 e0 05          	shl    $0x5,%rax
     94d:	48 03 85 08 fc ff ff 	add    -0x3f8(%rbp),%rax
     954:	f2 0f 10 40 10       	movsd  0x10(%rax),%xmm0
     959:	8b 85 c8 fb ff ff    	mov    -0x438(%rbp),%eax
     95f:	83 f8 01             	cmp    $0x1,%eax
     962:	0f 84 58 07 00 00    	je     10c0 <vasnprintf+0x10c0>
     968:	83 f8 02             	cmp    $0x2,%eax
     96b:	0f 84 ff 06 00 00    	je     1070 <vasnprintf+0x1070>
     971:	4c 8b 85 c0 fb ff ff 	mov    -0x440(%rbp),%r8
     978:	ba 01 00 00 00       	mov    $0x1,%edx
     97d:	b8 01 00 00 00       	mov    $0x1,%eax
     982:	4c 8d 8d ec fb ff ff 	lea    -0x414(%rbp),%r9
     989:	48 c7 c1 ff ff ff ff 	mov    $0xffffffffffffffff,%rcx
     990:	48 89 b5 88 fb ff ff 	mov    %rsi,-0x478(%rbp)
     997:	e8 00 00 00 00       	call   99c <vasnprintf+0x99c>
     99c:	48 8b b5 88 fb ff ff 	mov    -0x478(%rbp),%rsi
     9a3:	e9 16 fc ff ff       	jmp    5be <vasnprintf+0x5be>
     9a8:	0f 1f 84 00 00 00 00 	nopl   0x0(%rax,%rax,1)
     9af:	00 
     9b0:	48 83 fb ff          	cmp    $0xffffffffffffffff,%rbx
     9b4:	0f 84 de fa ff ff    	je     498 <vasnprintf+0x498>
     9ba:	66 0f 1f 44 00 00    	nopw   0x0(%rax,%rax,1)
     9c0:	4d 89 ef             	mov    %r13,%r15
     9c3:	e9 02 02 00 00       	jmp    bca <vasnprintf+0xbca>
     9c8:	0f 1f 84 00 00 00 00 	nopl   0x0(%rax,%rax,1)
     9cf:	00 
     9d0:	48 89 c7             	mov    %rax,%rdi
     9d3:	e8 00 00 00 00       	call   9d8 <vasnprintf+0x9d8>
     9d8:	48 85 c0             	test   %rax,%rax
     9db:	74 e3                	je     9c0 <vasnprintf+0x9c0>
     9dd:	4d 85 e4             	test   %r12,%r12
     9e0:	0f 84 0b 0d 00 00    	je     16f1 <vasnprintf+0x16f1>
     9e6:	4c 89 ee             	mov    %r13,%rsi
     9e9:	4c 89 e2             	mov    %r12,%rdx
     9ec:	48 89 c7             	mov    %rax,%rdi
     9ef:	e8 00 00 00 00       	call   9f4 <vasnprintf+0x9f4>
     9f4:	49 89 c5             	mov    %rax,%r13
     9f7:	e9 9c fa ff ff       	jmp    498 <vasnprintf+0x498>
     9fc:	0f 1f 40 00          	nopl   0x0(%rax)
     a00:	48 83 ec 08          	sub    $0x8,%rsp
     a04:	48 8d 85 ec fb ff ff 	lea    -0x414(%rbp),%rax
     a0b:	50                   	push   %rax
     a0c:	41 51                	push   %r9
     a0e:	e9 db fd ff ff       	jmp    7ee <vasnprintf+0x7ee>
     a13:	0f 1f 44 00 00       	nopl   0x0(%rax,%rax,1)
     a18:	48 8d 85 ec fb ff ff 	lea    -0x414(%rbp),%rax
     a1f:	50                   	push   %rax
     a20:	41 51                	push   %r9
     a22:	e9 73 fd ff ff       	jmp    79a <vasnprintf+0x79a>
     a27:	66 0f 1f 84 00 00 00 	nopw   0x0(%rax,%rax,1)
     a2e:	00 00 
     a30:	c6 41 01 00          	movb   $0x0,0x1(%rcx)
     a34:	e9 5f fa ff ff       	jmp    498 <vasnprintf+0x498>
     a39:	0f 1f 80 00 00 00 00 	nopl   0x0(%rax)
     a40:	48 83 f8 ff          	cmp    $0xffffffffffffffff,%rax
     a44:	0f 85 00 00 00 00    	jne    a4a <vasnprintf+0xa4a>
     a4a:	4d 8d 7c 24 01       	lea    0x1(%r12),%r15
     a4f:	49 83 fc ff          	cmp    $0xffffffffffffffff,%r12
     a53:	49 c7 c1 ff ff ff ff 	mov    $0xffffffffffffffff,%r9
     a5a:	4d 0f 42 cf          	cmovb  %r15,%r9
     a5e:	4c 39 cb             	cmp    %r9,%rbx
     a61:	73 5c                	jae    abf <vasnprintf+0xabf>
     a63:	48 85 db             	test   %rbx,%rbx
     a66:	0f 84 ec 04 00 00    	je     f58 <vasnprintf+0xf58>
     a6c:	0f 88 3e 01 00 00    	js     bb0 <vasnprintf+0xbb0>
     a72:	48 01 db             	add    %rbx,%rbx
     a75:	4c 39 cb             	cmp    %r9,%rbx
     a78:	49 0f 42 d9          	cmovb  %r9,%rbx
     a7c:	48 83 fb ff          	cmp    $0xffffffffffffffff,%rbx
     a80:	0f 84 2a 01 00 00    	je     bb0 <vasnprintf+0xbb0>
     a86:	4c 3b 95 b8 fb ff ff 	cmp    -0x448(%rbp),%r10
     a8d:	0f 84 0d 05 00 00    	je     fa0 <vasnprintf+0xfa0>
     a93:	48 89 de             	mov    %rbx,%rsi
     a96:	4c 89 d7             	mov    %r10,%rdi
     a99:	4c 89 8d d0 fb ff ff 	mov    %r9,-0x430(%rbp)
     aa0:	4c 89 95 d8 fb ff ff 	mov    %r10,-0x428(%rbp)
     aa7:	e8 00 00 00 00       	call   aac <vasnprintf+0xaac>
     aac:	4c 8b 8d d0 fb ff ff 	mov    -0x430(%rbp),%r9
     ab3:	48 85 c0             	test   %rax,%rax
     ab6:	0f 84 fb 00 00 00    	je     bb7 <vasnprintf+0xbb7>
     abc:	49 89 c2             	mov    %rax,%r10
     abf:	43 c6 04 22 25       	movb   $0x25,(%r10,%r12,1)
     ac4:	4d 89 d7             	mov    %r10,%r15
     ac7:	4d 8b 46 08          	mov    0x8(%r14),%r8
     acb:	4d 8b 6e 58          	mov    0x58(%r14),%r13
     acf:	49 83 c6 58          	add    $0x58,%r14
     ad3:	48 83 85 a8 fb ff ff 	addq   $0x1,-0x458(%rbp)
     ada:	01 
     adb:	4d 39 c5             	cmp    %r8,%r13
     ade:	0f 85 33 f6 ff ff    	jne    117 <vasnprintf+0x117>
     ae4:	4d 89 cc             	mov    %r9,%r12
     ae7:	4d 89 fa             	mov    %r15,%r10
     aea:	e9 c5 f6 ff ff       	jmp    1b4 <vasnprintf+0x1b4>
     aef:	90                   	nop
     af0:	bb 0c 00 00 00       	mov    $0xc,%ebx
     af5:	e9 4c f6 ff ff       	jmp    146 <vasnprintf+0x146>
     afa:	66 0f 1f 44 00 00    	nopw   0x0(%rax,%rax,1)
     b00:	4d 89 fa             	mov    %r15,%r10
     b03:	e9 8f f6 ff ff       	jmp    197 <vasnprintf+0x197>
     b08:	0f 1f 84 00 00 00 00 	nopl   0x0(%rax,%rax,1)
     b0f:	00 
     b10:	41 83 ed 22          	sub    $0x22,%r13d
     b14:	41 83 fd 0c          	cmp    $0xc,%r13d
     b18:	0f 87 00 00 00 00    	ja     b1e <vasnprintf+0xb1e>
     b1e:	48 8d 0d 00 00 00 00 	lea    0x0(%rip),%rcx        # b25 <vasnprintf+0xb25>
     b25:	48 8b 40 10          	mov    0x10(%rax),%rax
     b29:	4a 63 14 a9          	movslq (%rcx,%r13,4),%rdx
     b2d:	48 01 ca             	add    %rcx,%rdx
     b30:	3e ff e2             	notrack jmp *%rdx
     b33:	0f 1f 44 00 00       	nopl   0x0(%rax,%rax,1)
     b38:	4c 89 20             	mov    %r12,(%rax)
     b3b:	4d 89 e1             	mov    %r12,%r9
     b3e:	4d 89 d7             	mov    %r10,%r15
     b41:	eb 84                	jmp    ac7 <vasnprintf+0xac7>
     b43:	0f 1f 44 00 00       	nopl   0x0(%rax,%rax,1)
     b48:	44 88 20             	mov    %r12b,(%rax)
     b4b:	4d 89 e1             	mov    %r12,%r9
     b4e:	4d 89 d7             	mov    %r10,%r15
     b51:	e9 71 ff ff ff       	jmp    ac7 <vasnprintf+0xac7>
     b56:	48 8b 85 d8 fb ff ff 	mov    -0x428(%rbp),%rax
     b5d:	c6 00 6c             	movb   $0x6c,(%rax)
     b60:	48 83 c0 01          	add    $0x1,%rax
     b64:	48 89 85 d8 fb ff ff 	mov    %rax,-0x428(%rbp)
     b6b:	48 8b 85 d8 fb ff ff 	mov    -0x428(%rbp),%rax
     b72:	c6 00 6c             	movb   $0x6c,(%rax)
     b75:	48 83 c0 01          	add    $0x1,%rax
     b79:	48 89 85 d8 fb ff ff 	mov    %rax,-0x428(%rbp)
     b80:	e9 0b f8 ff ff       	jmp    390 <vasnprintf+0x390>
     b85:	0f 1f 00             	nopl   (%rax)
     b88:	48 8b 85 c0 fb ff ff 	mov    -0x440(%rbp),%rax
     b8f:	48 8d 50 02          	lea    0x2(%rax),%rdx
     b93:	c6 40 01 27          	movb   $0x27,0x1(%rax)
     b97:	48 89 95 d8 fb ff ff 	mov    %rdx,-0x428(%rbp)
     b9e:	e9 91 f6 ff ff       	jmp    234 <vasnprintf+0x234>
     ba3:	48 83 fb ff          	cmp    $0xffffffffffffffff,%rbx
     ba7:	0f 84 61 06 00 00    	je     120e <vasnprintf+0x120e>
     bad:	0f 1f 00             	nopl   (%rax)
     bb0:	4c 89 95 d8 fb ff ff 	mov    %r10,-0x428(%rbp)
     bb7:	e8 00 00 00 00       	call   bbc <vasnprintf+0xbbc>
     bbc:	4c 8b bd d8 fb ff ff 	mov    -0x428(%rbp),%r15
     bc3:	48 89 85 d0 fb ff ff 	mov    %rax,-0x430(%rbp)
     bca:	48 8b 85 d0 fb ff ff 	mov    -0x430(%rbp),%rax
     bd1:	c7 00 0c 00 00 00    	movl   $0xc,(%rax)
     bd7:	e9 54 fb ff ff       	jmp    730 <vasnprintf+0x730>
     bdc:	0f 1f 40 00          	nopl   0x0(%rax)
     be0:	41 83 fd 1e          	cmp    $0x1e,%r13d
     be4:	0f 85 21 f6 ff ff    	jne    20b <vasnprintf+0x20b>
     bea:	49 8b 56 18          	mov    0x18(%r14),%rdx
     bee:	49 8b 7e 20          	mov    0x20(%r14),%rdi
     bf2:	48 39 fa             	cmp    %rdi,%rdx
     bf5:	0f 84 fb 04 00 00    	je     10f6 <vasnprintf+0x10f6>
     bfb:	4d 8b 46 28          	mov    0x28(%r14),%r8
     bff:	49 83 f8 ff          	cmp    $0xffffffffffffffff,%r8
     c03:	0f 84 70 07 00 00    	je     1379 <vasnprintf+0x1379>
     c09:	49 c1 e0 05          	shl    $0x5,%r8
     c0d:	4c 01 c6             	add    %r8,%rsi
     c10:	83 3e 05             	cmpl   $0x5,(%rsi)
     c13:	0f 85 00 00 00 00    	jne    c19 <vasnprintf+0xc19>
     c19:	8b 40 10             	mov    0x10(%rax),%eax
     c1c:	4c 63 6e 10          	movslq 0x10(%rsi),%r13
     c20:	89 85 d8 fb ff ff    	mov    %eax,-0x428(%rbp)
     c26:	45 85 ed             	test   %r13d,%r13d
     c29:	79 06                	jns    c31 <vasnprintf+0xc31>
     c2b:	83 c9 02             	or     $0x2,%ecx
     c2e:	49 f7 dd             	neg    %r13
     c31:	44 8b 9d d8 fb ff ff 	mov    -0x428(%rbp),%r11d
     c38:	45 85 db             	test   %r11d,%r11d
     c3b:	0f 85 d5 05 00 00    	jne    1216 <vasnprintf+0x1216>
     c41:	45 31 c0             	xor    %r8d,%r8d
     c44:	4c 89 e0             	mov    %r12,%rax
     c47:	4d 89 e1             	mov    %r12,%r9
     c4a:	4d 85 ed             	test   %r13,%r13
     c4d:	0f 84 dd 00 00 00    	je     d30 <vasnprintf+0xd30>
     c53:	f6 c1 02             	test   $0x2,%cl
     c56:	0f 85 c5 00 00 00    	jne    d21 <vasnprintf+0xd21>
     c5c:	4d 89 e9             	mov    %r13,%r9
     c5f:	4d 89 e7             	mov    %r12,%r15
     c62:	4d 29 c1             	sub    %r8,%r9
     c65:	4d 01 cf             	add    %r9,%r15
     c68:	0f 82 45 0a 00 00    	jb     16b3 <vasnprintf+0x16b3>
     c6e:	4c 39 fb             	cmp    %r15,%rbx
     c71:	73 72                	jae    ce5 <vasnprintf+0xce5>
     c73:	48 85 db             	test   %rbx,%rbx
     c76:	0f 85 b8 07 00 00    	jne    1434 <vasnprintf+0x1434>
     c7c:	49 83 ff 0c          	cmp    $0xc,%r15
     c80:	0f 87 c0 07 00 00    	ja     1446 <vasnprintf+0x1446>
     c86:	bb 0c 00 00 00       	mov    $0xc,%ebx
     c8b:	4c 3b 95 b8 fb ff ff 	cmp    -0x448(%rbp),%r10
     c92:	0f 84 0c 09 00 00    	je     15a4 <vasnprintf+0x15a4>
     c98:	4c 89 d7             	mov    %r10,%rdi
     c9b:	48 89 de             	mov    %rbx,%rsi
     c9e:	4c 89 85 90 fb ff ff 	mov    %r8,-0x470(%rbp)
     ca5:	89 8d b0 fb ff ff    	mov    %ecx,-0x450(%rbp)
     cab:	4c 89 8d c8 fb ff ff 	mov    %r9,-0x438(%rbp)
     cb2:	4c 89 95 d0 fb ff ff 	mov    %r10,-0x430(%rbp)
     cb9:	e8 00 00 00 00       	call   cbe <vasnprintf+0xcbe>
     cbe:	4c 8b 95 d0 fb ff ff 	mov    -0x430(%rbp),%r10
     cc5:	4c 8b 8d c8 fb ff ff 	mov    -0x438(%rbp),%r9
     ccc:	48 85 c0             	test   %rax,%rax
     ccf:	8b 8d b0 fb ff ff    	mov    -0x450(%rbp),%ecx
     cd5:	4c 8b 85 90 fb ff ff 	mov    -0x470(%rbp),%r8
     cdc:	0f 84 ce fe ff ff    	je     bb0 <vasnprintf+0xbb0>
     ce2:	49 89 c2             	mov    %rax,%r10
     ce5:	4b 8d 3c 22          	lea    (%r10,%r12,1),%rdi
     ce9:	4c 89 ca             	mov    %r9,%rdx
     cec:	4d 89 fc             	mov    %r15,%r12
     cef:	be 20 00 00 00       	mov    $0x20,%esi
     cf4:	4c 89 85 b0 fb ff ff 	mov    %r8,-0x450(%rbp)
     cfb:	89 8d c8 fb ff ff    	mov    %ecx,-0x438(%rbp)
     d01:	4c 89 95 d0 fb ff ff 	mov    %r10,-0x430(%rbp)
     d08:	e8 00 00 00 00       	call   d0d <vasnprintf+0xd0d>
     d0d:	4c 8b 85 b0 fb ff ff 	mov    -0x450(%rbp),%r8
     d14:	8b 8d c8 fb ff ff    	mov    -0x438(%rbp),%ecx
     d1a:	4c 8b 95 d0 fb ff ff 	mov    -0x430(%rbp),%r10
     d21:	4c 89 c0             	mov    %r8,%rax
     d24:	4d 89 e1             	mov    %r12,%r9
     d27:	4c 01 e0             	add    %r12,%rax
     d2a:	0f 82 73 fe ff ff    	jb     ba3 <vasnprintf+0xba3>
     d30:	48 39 c3             	cmp    %rax,%rbx
     d33:	0f 83 d5 04 00 00    	jae    120e <vasnprintf+0x120e>
     d39:	48 85 db             	test   %rbx,%rbx
     d3c:	0f 85 a1 06 00 00    	jne    13e3 <vasnprintf+0x13e3>
     d42:	48 83 f8 0c          	cmp    $0xc,%rax
     d46:	0f 87 a9 06 00 00    	ja     13f5 <vasnprintf+0x13f5>
     d4c:	bb 0c 00 00 00       	mov    $0xc,%ebx
     d51:	4c 39 95 b8 fb ff ff 	cmp    %r10,-0x448(%rbp)
     d58:	0f 84 fa 06 00 00    	je     1458 <vasnprintf+0x1458>
     d5e:	4c 89 d7             	mov    %r10,%rdi
     d61:	48 89 de             	mov    %rbx,%rsi
     d64:	4c 89 8d 90 fb ff ff 	mov    %r9,-0x470(%rbp)
     d6b:	4c 89 85 b0 fb ff ff 	mov    %r8,-0x450(%rbp)
     d72:	89 8d c8 fb ff ff    	mov    %ecx,-0x438(%rbp)
     d78:	4c 89 95 d0 fb ff ff 	mov    %r10,-0x430(%rbp)
     d7f:	e8 00 00 00 00       	call   d84 <vasnprintf+0xd84>
     d84:	4c 8b 95 d0 fb ff ff 	mov    -0x430(%rbp),%r10
     d8b:	8b 8d c8 fb ff ff    	mov    -0x438(%rbp),%ecx
     d91:	48 85 c0             	test   %rax,%rax
     d94:	4c 8b 85 b0 fb ff ff 	mov    -0x450(%rbp),%r8
     d9b:	4c 8b 8d 90 fb ff ff 	mov    -0x470(%rbp),%r9
     da2:	49 89 c7             	mov    %rax,%r15
     da5:	0f 84 05 fe ff ff    	je     bb0 <vasnprintf+0xbb0>
     dab:	4d 85 c0             	test   %r8,%r8
     dae:	0f 85 77 05 00 00    	jne    132b <vasnprintf+0x132b>
     db4:	4d 39 e8             	cmp    %r13,%r8
     db7:	0f 83 0a fd ff ff    	jae    ac7 <vasnprintf+0xac7>
     dbd:	83 e1 02             	and    $0x2,%ecx
     dc0:	0f 84 01 fd ff ff    	je     ac7 <vasnprintf+0xac7>
     dc6:	4d 29 c5             	sub    %r8,%r13
     dc9:	4d 89 cc             	mov    %r9,%r12
     dcc:	4d 01 ec             	add    %r13,%r12
     dcf:	0f 82 da 00 00 00    	jb     eaf <vasnprintf+0xeaf>
     dd5:	4c 39 e3             	cmp    %r12,%rbx
     dd8:	73 4a                	jae    e24 <vasnprintf+0xe24>
     dda:	48 85 db             	test   %rbx,%rbx
     ddd:	0f 85 05 07 00 00    	jne    14e8 <vasnprintf+0x14e8>
     de3:	49 83 fc 0c          	cmp    $0xc,%r12
     de7:	0f 87 0d 07 00 00    	ja     14fa <vasnprintf+0x14fa>
     ded:	bb 0c 00 00 00       	mov    $0xc,%ebx
     df2:	4c 3b bd b8 fb ff ff 	cmp    -0x448(%rbp),%r15
     df9:	4c 89 8d d8 fb ff ff 	mov    %r9,-0x428(%rbp)
     e00:	0f 84 06 07 00 00    	je     150c <vasnprintf+0x150c>
     e06:	48 89 de             	mov    %rbx,%rsi
     e09:	4c 89 ff             	mov    %r15,%rdi
     e0c:	e8 00 00 00 00       	call   e11 <vasnprintf+0xe11>
     e11:	4c 8b 8d d8 fb ff ff 	mov    -0x428(%rbp),%r9
     e18:	48 85 c0             	test   %rax,%rax
     e1b:	0f 84 9f 00 00 00    	je     ec0 <vasnprintf+0xec0>
     e21:	49 89 c7             	mov    %rax,%r15
     e24:	4b 8d 3c 0f          	lea    (%r15,%r9,1),%rdi
     e28:	4c 89 ea             	mov    %r13,%rdx
     e2b:	be 20 00 00 00       	mov    $0x20,%esi
     e30:	e8 00 00 00 00       	call   e35 <vasnprintf+0xe35>
     e35:	4d 89 e1             	mov    %r12,%r9
     e38:	e9 8a fc ff ff       	jmp    ac7 <vasnprintf+0xac7>
     e3d:	0f 1f 00             	nopl   (%rax)
     e40:	48 89 df             	mov    %rbx,%rdi
     e43:	e8 00 00 00 00       	call   e48 <vasnprintf+0xe48>
     e48:	4c 8b 8d d8 fb ff ff 	mov    -0x428(%rbp),%r9
     e4f:	4c 8b 85 d0 fb ff ff 	mov    -0x430(%rbp),%r8
     e56:	48 85 c0             	test   %rax,%rax
     e59:	49 89 c2             	mov    %rax,%r10
     e5c:	74 62                	je     ec0 <vasnprintf+0xec0>
     e5e:	4d 85 c9             	test   %r9,%r9
     e61:	0f 84 30 f3 ff ff    	je     197 <vasnprintf+0x197>
     e67:	48 8b b5 b8 fb ff ff 	mov    -0x448(%rbp),%rsi
     e6e:	4c 89 ca             	mov    %r9,%rdx
     e71:	48 89 c7             	mov    %rax,%rdi
     e74:	4c 89 85 d0 fb ff ff 	mov    %r8,-0x430(%rbp)
     e7b:	4c 89 8d d8 fb ff ff 	mov    %r9,-0x428(%rbp)
     e82:	e8 00 00 00 00       	call   e87 <vasnprintf+0xe87>
     e87:	4c 8b 8d d8 fb ff ff 	mov    -0x428(%rbp),%r9
     e8e:	4c 8b 85 d0 fb ff ff 	mov    -0x430(%rbp),%r8
     e95:	49 89 c2             	mov    %rax,%r10
     e98:	e9 fa f2 ff ff       	jmp    197 <vasnprintf+0x197>
     e9d:	0f 1f 00             	nopl   (%rax)
     ea0:	c7 85 c8 fb ff ff 00 	movl   $0x0,-0x438(%rbp)
     ea7:	00 00 00 
     eaa:	e9 28 f5 ff ff       	jmp    3d7 <vasnprintf+0x3d7>
     eaf:	48 83 fb ff          	cmp    $0xffffffffffffffff,%rbx
     eb3:	0f 84 6b ff ff ff    	je     e24 <vasnprintf+0xe24>
     eb9:	0f 1f 80 00 00 00 00 	nopl   0x0(%rax)
     ec0:	e8 00 00 00 00       	call   ec5 <vasnprintf+0xec5>
     ec5:	48 89 85 d0 fb ff ff 	mov    %rax,-0x430(%rbp)
     ecc:	e9 f9 fc ff ff       	jmp    bca <vasnprintf+0xbca>
     ed1:	48 83 fb ff          	cmp    $0xffffffffffffffff,%rbx
     ed5:	0f 85 d5 fc ff ff    	jne    bb0 <vasnprintf+0xbb0>
     edb:	0f 1f 44 00 00       	nopl   0x0(%rax,%rax,1)
     ee0:	4d 89 d7             	mov    %r10,%r15
     ee3:	e9 86 f5 ff ff       	jmp    46e <vasnprintf+0x46e>
     ee8:	0f 1f 84 00 00 00 00 	nopl   0x0(%rax,%rax,1)
     eef:	00 
     ef0:	0f 88 ba fc ff ff    	js     bb0 <vasnprintf+0xbb0>
     ef6:	48 01 db             	add    %rbx,%rbx
     ef9:	48 39 c3             	cmp    %rax,%rbx
     efc:	0f 83 3a f5 ff ff    	jae    43c <vasnprintf+0x43c>
     f02:	48 83 f8 ff          	cmp    $0xffffffffffffffff,%rax
     f06:	0f 84 a4 fc ff ff    	je     bb0 <vasnprintf+0xbb0>
     f0c:	48 89 c3             	mov    %rax,%rbx
     f0f:	e9 28 f5 ff ff       	jmp    43c <vasnprintf+0x43c>
     f14:	0f 1f 40 00          	nopl   0x0(%rax)
     f18:	48 63 c2             	movslq %edx,%rax
     f1b:	8b 95 90 fb ff ff    	mov    -0x470(%rbp),%edx
     f21:	4d 89 ef             	mov    %r13,%r15
     f24:	4e 8d 0c 20          	lea    (%rax,%r12,1),%r9
     f28:	48 8b 85 d0 fb ff ff 	mov    -0x430(%rbp),%rax
     f2f:	89 10                	mov    %edx,(%rax)
     f31:	e9 91 fb ff ff       	jmp    ac7 <vasnprintf+0xac7>
     f36:	66 2e 0f 1f 84 00 00 	cs nopw 0x0(%rax,%rax,1)
     f3d:	00 00 00 
     f40:	48 8b 85 d0 fb ff ff 	mov    -0x430(%rbp),%rax
     f47:	4d 89 ef             	mov    %r13,%r15
     f4a:	c7 00 4b 00 00 00    	movl   $0x4b,(%rax)
     f50:	e9 db f7 ff ff       	jmp    730 <vasnprintf+0x730>
     f55:	0f 1f 00             	nopl   (%rax)
     f58:	bb 0c 00 00 00       	mov    $0xc,%ebx
     f5d:	e9 13 fb ff ff       	jmp    a75 <vasnprintf+0xa75>
     f62:	66 0f 1f 44 00 00    	nopw   0x0(%rax,%rax,1)
     f68:	48 89 df             	mov    %rbx,%rdi
     f6b:	e8 00 00 00 00       	call   f70 <vasnprintf+0xf70>
     f70:	49 89 c7             	mov    %rax,%r15
     f73:	48 85 c0             	test   %rax,%rax
     f76:	0f 84 7d 07 00 00    	je     16f9 <vasnprintf+0x16f9>
     f7c:	4d 85 e4             	test   %r12,%r12
     f7f:	0f 84 e9 f4 ff ff    	je     46e <vasnprintf+0x46e>
     f85:	48 8b b5 b8 fb ff ff 	mov    -0x448(%rbp),%rsi
     f8c:	4c 89 e2             	mov    %r12,%rdx
     f8f:	48 89 c7             	mov    %rax,%rdi
     f92:	e8 00 00 00 00       	call   f97 <vasnprintf+0xf97>
     f97:	e9 d2 f4 ff ff       	jmp    46e <vasnprintf+0x46e>
     f9c:	0f 1f 40 00          	nopl   0x0(%rax)
     fa0:	48 89 df             	mov    %rbx,%rdi
     fa3:	4c 89 95 d0 fb ff ff 	mov    %r10,-0x430(%rbp)
     faa:	4c 89 8d d8 fb ff ff 	mov    %r9,-0x428(%rbp)
     fb1:	e8 00 00 00 00       	call   fb6 <vasnprintf+0xfb6>
     fb6:	4c 8b 8d d8 fb ff ff 	mov    -0x428(%rbp),%r9
     fbd:	4c 8b 95 d0 fb ff ff 	mov    -0x430(%rbp),%r10
     fc4:	48 85 c0             	test   %rax,%rax
     fc7:	0f 84 2c 07 00 00    	je     16f9 <vasnprintf+0x16f9>
     fcd:	4d 85 e4             	test   %r12,%r12
     fd0:	0f 84 13 07 00 00    	je     16e9 <vasnprintf+0x16e9>
     fd6:	4c 89 d6             	mov    %r10,%rsi
     fd9:	4c 89 e2             	mov    %r12,%rdx
     fdc:	48 89 c7             	mov    %rax,%rdi
     fdf:	4c 89 8d d8 fb ff ff 	mov    %r9,-0x428(%rbp)
     fe6:	e8 00 00 00 00       	call   feb <vasnprintf+0xfeb>
     feb:	4c 8b 8d d8 fb ff ff 	mov    -0x428(%rbp),%r9
     ff2:	49 89 c2             	mov    %rax,%r10
     ff5:	e9 c5 fa ff ff       	jmp    abf <vasnprintf+0xabf>
     ffa:	66 0f 1f 44 00 00    	nopw   0x0(%rax,%rax,1)
    1000:	48 83 ec 08          	sub    $0x8,%rsp
    1004:	48 8d 85 ec fb ff ff 	lea    -0x414(%rbp),%rax
    100b:	44 8b 8d f8 fb ff ff 	mov    -0x408(%rbp),%r9d
    1012:	4c 8b 85 c0 fb ff ff 	mov    -0x440(%rbp),%r8
    1019:	50                   	push   %rax
    101a:	8b 85 fc fb ff ff    	mov    -0x404(%rbp),%eax
    1020:	48 c7 c1 ff ff ff ff 	mov    $0xffffffffffffffff,%rcx
    1027:	ba 01 00 00 00       	mov    $0x1,%edx
    102c:	48 89 b5 88 fb ff ff 	mov    %rsi,-0x478(%rbp)
    1033:	48 83 ec 18          	sub    $0x18,%rsp
    1037:	db 7c 24 08          	fstpt  0x8(%rsp)
    103b:	50                   	push   %rax
    103c:	31 c0                	xor    %eax,%eax
    103e:	e8 00 00 00 00       	call   1043 <vasnprintf+0x1043>
    1043:	48 8b b5 88 fb ff ff 	mov    -0x478(%rbp),%rsi
    104a:	48 83 c4 30          	add    $0x30,%rsp
    104e:	e9 6b f5 ff ff       	jmp    5be <vasnprintf+0x5be>
    1053:	0f 1f 44 00 00       	nopl   0x0(%rax,%rax,1)
    1058:	48 83 ec 08          	sub    $0x8,%rsp
    105c:	48 8d 85 ec fb ff ff 	lea    -0x414(%rbp),%rax
    1063:	50                   	push   %rax
    1064:	48 83 ec 10          	sub    $0x10,%rsp
    1068:	db 3c 24             	fstpt  (%rsp)
    106b:	e9 85 f7 ff ff       	jmp    7f5 <vasnprintf+0x7f5>
    1070:	48 8d 85 ec fb ff ff 	lea    -0x414(%rbp),%rax
    1077:	50                   	push   %rax
    1078:	8b 85 fc fb ff ff    	mov    -0x404(%rbp),%eax
    107e:	50                   	push   %rax
    107f:	44 8b 8d f8 fb ff ff 	mov    -0x408(%rbp),%r9d
    1086:	ba 01 00 00 00       	mov    $0x1,%edx
    108b:	b8 01 00 00 00       	mov    $0x1,%eax
    1090:	4c 8b 85 c0 fb ff ff 	mov    -0x440(%rbp),%r8
    1097:	48 c7 c1 ff ff ff ff 	mov    $0xffffffffffffffff,%rcx
    109e:	48 89 b5 88 fb ff ff 	mov    %rsi,-0x478(%rbp)
    10a5:	e8 00 00 00 00       	call   10aa <vasnprintf+0x10aa>
    10aa:	41 58                	pop    %r8
    10ac:	48 8b b5 88 fb ff ff 	mov    -0x478(%rbp),%rsi
    10b3:	41 59                	pop    %r9
    10b5:	e9 04 f5 ff ff       	jmp    5be <vasnprintf+0x5be>
    10ba:	66 0f 1f 44 00 00    	nopw   0x0(%rax,%rax,1)
    10c0:	48 83 ec 08          	sub    $0x8,%rsp
    10c4:	48 8d 85 ec fb ff ff 	lea    -0x414(%rbp),%rax
    10cb:	50                   	push   %rax
    10cc:	eb b1                	jmp    107f <vasnprintf+0x107f>
    10ce:	66 44 89 20          	mov    %r12w,(%rax)
    10d2:	4d 89 e1             	mov    %r12,%r9
    10d5:	4d 89 d7             	mov    %r10,%r15
    10d8:	e9 ea f9 ff ff       	jmp    ac7 <vasnprintf+0xac7>
    10dd:	44 89 20             	mov    %r12d,(%rax)
    10e0:	4d 89 e1             	mov    %r12,%r9
    10e3:	4d 89 d7             	mov    %r10,%r15
    10e6:	e9 dc f9 ff ff       	jmp    ac7 <vasnprintf+0xac7>
    10eb:	48 83 4c 14 f8 00    	orq    $0x0,-0x8(%rsp,%rdx,1)
    10f1:	e9 dd f7 ff ff       	jmp    8d3 <vasnprintf+0x8d3>
    10f6:	8b 70 10             	mov    0x10(%rax),%esi
    10f9:	85 f6                	test   %esi,%esi
    10fb:	0f 85 69 01 00 00    	jne    126a <vasnprintf+0x126a>
    1101:	4d 89 e1             	mov    %r12,%r9
    1104:	4d 89 d7             	mov    %r10,%r15
    1107:	e9 bb f9 ff ff       	jmp    ac7 <vasnprintf+0xac7>
    110c:	4d 89 e5             	mov    %r12,%r13
    110f:	49 83 c5 01          	add    $0x1,%r13
    1113:	0f 82 f8 05 00 00    	jb     1711 <vasnprintf+0x1711>
    1119:	4c 39 eb             	cmp    %r13,%rbx
    111c:	73 43                	jae    1161 <vasnprintf+0x1161>
    111e:	48 85 db             	test   %rbx,%rbx
    1121:	0f 85 e9 02 00 00    	jne    1410 <vasnprintf+0x1410>
    1127:	49 83 fd 0c          	cmp    $0xc,%r13
    112b:	0f 87 f1 02 00 00    	ja     1422 <vasnprintf+0x1422>
    1131:	bb 0c 00 00 00       	mov    $0xc,%ebx
    1136:	4c 3b 95 b8 fb ff ff 	cmp    -0x448(%rbp),%r10
    113d:	0f 84 0e 04 00 00    	je     1551 <vasnprintf+0x1551>
    1143:	4c 89 d7             	mov    %r10,%rdi
    1146:	48 89 de             	mov    %rbx,%rsi
    1149:	4c 89 95 d8 fb ff ff 	mov    %r10,-0x428(%rbp)
    1150:	e8 00 00 00 00       	call   1155 <vasnprintf+0x1155>
    1155:	49 89 c2             	mov    %rax,%r10
    1158:	48 85 c0             	test   %rax,%rax
    115b:	0f 84 56 fa ff ff    	je     bb7 <vasnprintf+0xbb7>
    1161:	43 c6 04 22 00       	movb   $0x0,(%r10,%r12,1)
    1166:	4c 39 eb             	cmp    %r13,%rbx
    1169:	76 29                	jbe    1194 <vasnprintf+0x1194>
    116b:	4c 3b 95 b8 fb ff ff 	cmp    -0x448(%rbp),%r10
    1172:	74 20                	je     1194 <vasnprintf+0x1194>
    1174:	4c 89 d7             	mov    %r10,%rdi
    1177:	4c 89 ee             	mov    %r13,%rsi
    117a:	4c 89 95 d8 fb ff ff 	mov    %r10,-0x428(%rbp)
    1181:	e8 00 00 00 00       	call   1186 <vasnprintf+0x1186>
    1186:	4c 8b 95 d8 fb ff ff 	mov    -0x428(%rbp),%r10
    118d:	48 85 c0             	test   %rax,%rax
    1190:	4c 0f 45 d0          	cmovne %rax,%r10
    1194:	48 8b bd 98 fb ff ff 	mov    -0x468(%rbp),%rdi
    119b:	48 85 ff             	test   %rdi,%rdi
    119e:	74 13                	je     11b3 <vasnprintf+0x11b3>
    11a0:	4c 89 95 d8 fb ff ff 	mov    %r10,-0x428(%rbp)
    11a7:	e8 00 00 00 00       	call   11ac <vasnprintf+0x11ac>
    11ac:	4c 8b 95 d8 fb ff ff 	mov    -0x428(%rbp),%r10
    11b3:	48 8b bd f8 fc ff ff 	mov    -0x308(%rbp),%rdi
    11ba:	48 8d 85 10 fd ff ff 	lea    -0x2f0(%rbp),%rax
    11c1:	48 39 c7             	cmp    %rax,%rdi
    11c4:	74 13                	je     11d9 <vasnprintf+0x11d9>
    11c6:	4c 89 95 d8 fb ff ff 	mov    %r10,-0x428(%rbp)
    11cd:	e8 00 00 00 00       	call   11d2 <vasnprintf+0x11d2>
    11d2:	4c 8b 95 d8 fb ff ff 	mov    -0x428(%rbp),%r10
    11d9:	48 8b bd 08 fc ff ff 	mov    -0x3f8(%rbp),%rdi
    11e0:	48 8d 85 10 fc ff ff 	lea    -0x3f0(%rbp),%rax
    11e7:	48 39 c7             	cmp    %rax,%rdi
    11ea:	74 13                	je     11ff <vasnprintf+0x11ff>
    11ec:	4c 89 95 d8 fb ff ff 	mov    %r10,-0x428(%rbp)
    11f3:	e8 00 00 00 00       	call   11f8 <vasnprintf+0x11f8>
    11f8:	4c 8b 95 d8 fb ff ff 	mov    -0x428(%rbp),%r10
    11ff:	48 8b 85 a0 fb ff ff 	mov    -0x460(%rbp),%rax
    1206:	4c 89 20             	mov    %r12,(%rax)
    1209:	e9 11 f3 ff ff       	jmp    51f <vasnprintf+0x51f>
    120e:	4d 89 d7             	mov    %r10,%r15
    1211:	e9 95 fb ff ff       	jmp    dab <vasnprintf+0xdab>
    1216:	8b b5 d8 fb ff ff    	mov    -0x428(%rbp),%esi
    121c:	48 8d 95 f8 fb ff ff 	lea    -0x408(%rbp),%rdx
    1223:	48 8d 7d 80          	lea    -0x80(%rbp),%rdi
    1227:	4c 89 95 c8 fb ff ff 	mov    %r10,-0x438(%rbp)
    122e:	89 8d d0 fb ff ff    	mov    %ecx,-0x430(%rbp)
    1234:	48 c7 85 f8 fb ff ff 	movq   $0x0,-0x408(%rbp)
    123b:	00 00 00 00 
    123f:	e8 00 00 00 00       	call   1244 <vasnprintf+0x1244>
    1244:	4c 8b 95 c8 fb ff ff 	mov    -0x438(%rbp),%r10
    124b:	85 c0                	test   %eax,%eax
    124d:	0f 88 3d 04 00 00    	js     1690 <vasnprintf+0x1690>
    1253:	4c 63 c0             	movslq %eax,%r8
    1256:	8b 8d d0 fb ff ff    	mov    -0x430(%rbp),%ecx
    125c:	4d 39 e8             	cmp    %r13,%r8
    125f:	0f 82 ee f9 ff ff    	jb     c53 <vasnprintf+0xc53>
    1265:	e9 b7 fa ff ff       	jmp    d21 <vasnprintf+0xd21>
    126a:	4c 8d 7d 80          	lea    -0x80(%rbp),%r15
    126e:	48 8d 95 f8 fb ff ff 	lea    -0x408(%rbp),%rdx
    1275:	4c 89 95 d8 fb ff ff 	mov    %r10,-0x428(%rbp)
    127c:	48 c7 85 f8 fb ff ff 	movq   $0x0,-0x408(%rbp)
    1283:	00 00 00 00 
    1287:	4c 89 ff             	mov    %r15,%rdi
    128a:	e8 00 00 00 00       	call   128f <vasnprintf+0x128f>
    128f:	4c 8b 95 d8 fb ff ff 	mov    -0x428(%rbp),%r10
    1296:	85 c0                	test   %eax,%eax
    1298:	0f 88 f2 03 00 00    	js     1690 <vasnprintf+0x1690>
    129e:	48 98                	cltq   
    12a0:	48 89 85 d8 fb ff ff 	mov    %rax,-0x428(%rbp)
    12a7:	4c 01 e0             	add    %r12,%rax
    12aa:	49 89 c5             	mov    %rax,%r13
    12ad:	0f 82 17 04 00 00    	jb     16ca <vasnprintf+0x16ca>
    12b3:	48 39 c3             	cmp    %rax,%rbx
    12b6:	73 4a                	jae    1302 <vasnprintf+0x1302>
    12b8:	48 85 db             	test   %rbx,%rbx
    12bb:	0f 85 71 03 00 00    	jne    1632 <vasnprintf+0x1632>
    12c1:	48 83 f8 0c          	cmp    $0xc,%rax
    12c5:	0f 87 79 03 00 00    	ja     1644 <vasnprintf+0x1644>
    12cb:	bb 0c 00 00 00       	mov    $0xc,%ebx
    12d0:	4c 3b 95 b8 fb ff ff 	cmp    -0x448(%rbp),%r10
    12d7:	0f 84 79 03 00 00    	je     1656 <vasnprintf+0x1656>
    12dd:	4c 89 d7             	mov    %r10,%rdi
    12e0:	48 89 de             	mov    %rbx,%rsi
    12e3:	4c 89 95 d0 fb ff ff 	mov    %r10,-0x430(%rbp)
    12ea:	e8 00 00 00 00       	call   12ef <vasnprintf+0x12ef>
    12ef:	4c 8b 95 d0 fb ff ff 	mov    -0x430(%rbp),%r10
    12f6:	48 85 c0             	test   %rax,%rax
    12f9:	0f 84 b1 f8 ff ff    	je     bb0 <vasnprintf+0xbb0>
    12ff:	49 89 c2             	mov    %rax,%r10
    1302:	48 8b 95 d8 fb ff ff 	mov    -0x428(%rbp),%rdx
    1309:	4b 8d 3c 22          	lea    (%r10,%r12,1),%rdi
    130d:	4c 89 fe             	mov    %r15,%rsi
    1310:	4c 89 95 d0 fb ff ff 	mov    %r10,-0x430(%rbp)
    1317:	4d 89 ec             	mov    %r13,%r12
    131a:	e8 00 00 00 00       	call   131f <vasnprintf+0x131f>
    131f:	4c 8b 95 d0 fb ff ff 	mov    -0x430(%rbp),%r10
    1326:	e9 d6 fd ff ff       	jmp    1101 <vasnprintf+0x1101>
    132b:	8b b5 d8 fb ff ff    	mov    -0x428(%rbp),%esi
    1331:	48 8d 95 f0 fb ff ff 	lea    -0x410(%rbp),%rdx
    1338:	4b 8d 3c 27          	lea    (%r15,%r12,1),%rdi
    133c:	4c 89 85 c8 fb ff ff 	mov    %r8,-0x438(%rbp)
    1343:	89 8d d0 fb ff ff    	mov    %ecx,-0x430(%rbp)
    1349:	48 c7 85 f0 fb ff ff 	movq   $0x0,-0x410(%rbp)
    1350:	00 00 00 00 
    1354:	e8 00 00 00 00       	call   1359 <vasnprintf+0x1359>
    1359:	85 c0                	test   %eax,%eax
    135b:	0f 8e 00 00 00 00    	jle    1361 <vasnprintf+0x1361>
    1361:	48 98                	cltq   
    1363:	8b 8d d0 fb ff ff    	mov    -0x430(%rbp),%ecx
    1369:	4c 8b 85 c8 fb ff ff 	mov    -0x438(%rbp),%r8
    1370:	4d 8d 0c 04          	lea    (%r12,%rax,1),%r9
    1374:	e9 3b fa ff ff       	jmp    db4 <vasnprintf+0xdb4>
    1379:	49 b8 99 99 99 99 99 	movabs $0x1999999999999999,%r8
    1380:	99 99 19 
    1383:	45 31 ed             	xor    %r13d,%r13d
    1386:	eb 09                	jmp    1391 <vasnprintf+0x1391>
    1388:	48 39 d7             	cmp    %rdx,%rdi
    138b:	0f 84 05 02 00 00    	je     1596 <vasnprintf+0x1596>
    1391:	48 8d 72 01          	lea    0x1(%rdx),%rsi
    1395:	0f be 12             	movsbl (%rdx),%edx
    1398:	83 ea 30             	sub    $0x30,%edx
    139b:	48 63 d2             	movslq %edx,%rdx
    139e:	4d 39 c5             	cmp    %r8,%r13
    13a1:	0f 87 35 01 00 00    	ja     14dc <vasnprintf+0x14dc>
    13a7:	4f 8d 4c ad 00       	lea    0x0(%r13,%r13,4),%r9
    13ac:	4d 01 c9             	add    %r9,%r9
    13af:	4c 01 ca             	add    %r9,%rdx
    13b2:	49 89 d5             	mov    %rdx,%r13
    13b5:	48 89 f2             	mov    %rsi,%rdx
    13b8:	73 ce                	jae    1388 <vasnprintf+0x1388>
    13ba:	48 39 f7             	cmp    %rsi,%rdi
    13bd:	0f 84 cc 01 00 00    	je     158f <vasnprintf+0x158f>
    13c3:	80 3e 30             	cmpb   $0x30,(%rsi)
    13c6:	48 8d 56 01          	lea    0x1(%rsi),%rdx
    13ca:	75 09                	jne    13d5 <vasnprintf+0x13d5>
    13cc:	49 c7 c5 ff ff ff ff 	mov    $0xffffffffffffffff,%r13
    13d3:	eb b3                	jmp    1388 <vasnprintf+0x1388>
    13d5:	48 39 d7             	cmp    %rdx,%rdi
    13d8:	0f 84 b1 01 00 00    	je     158f <vasnprintf+0x158f>
    13de:	48 89 d6             	mov    %rdx,%rsi
    13e1:	eb e0                	jmp    13c3 <vasnprintf+0x13c3>
    13e3:	0f 88 c7 f7 ff ff    	js     bb0 <vasnprintf+0xbb0>
    13e9:	48 01 db             	add    %rbx,%rbx
    13ec:	48 39 c3             	cmp    %rax,%rbx
    13ef:	0f 83 5c f9 ff ff    	jae    d51 <vasnprintf+0xd51>
    13f5:	4c 39 e0             	cmp    %r12,%rax
    13f8:	0f 82 b2 f7 ff ff    	jb     bb0 <vasnprintf+0xbb0>
    13fe:	48 83 f8 ff          	cmp    $0xffffffffffffffff,%rax
    1402:	0f 84 a8 f7 ff ff    	je     bb0 <vasnprintf+0xbb0>
    1408:	48 89 c3             	mov    %rax,%rbx
    140b:	e9 41 f9 ff ff       	jmp    d51 <vasnprintf+0xd51>
    1410:	0f 88 9a f7 ff ff    	js     bb0 <vasnprintf+0xbb0>
    1416:	48 01 db             	add    %rbx,%rbx
    1419:	4c 39 eb             	cmp    %r13,%rbx
    141c:	0f 83 14 fd ff ff    	jae    1136 <vasnprintf+0x1136>
    1422:	49 83 fd ff          	cmp    $0xffffffffffffffff,%r13
    1426:	0f 84 84 f7 ff ff    	je     bb0 <vasnprintf+0xbb0>
    142c:	4c 89 eb             	mov    %r13,%rbx
    142f:	e9 02 fd ff ff       	jmp    1136 <vasnprintf+0x1136>
    1434:	0f 88 76 f7 ff ff    	js     bb0 <vasnprintf+0xbb0>
    143a:	48 01 db             	add    %rbx,%rbx
    143d:	4c 39 fb             	cmp    %r15,%rbx
    1440:	0f 83 45 f8 ff ff    	jae    c8b <vasnprintf+0xc8b>
    1446:	49 83 ff ff          	cmp    $0xffffffffffffffff,%r15
    144a:	0f 84 60 f7 ff ff    	je     bb0 <vasnprintf+0xbb0>
    1450:	4c 89 fb             	mov    %r15,%rbx
    1453:	e9 33 f8 ff ff       	jmp    c8b <vasnprintf+0xc8b>
    1458:	48 89 df             	mov    %rbx,%rdi
    145b:	4c 89 8d b0 fb ff ff 	mov    %r9,-0x450(%rbp)
    1462:	4c 89 85 c8 fb ff ff 	mov    %r8,-0x438(%rbp)
    1469:	89 8d d0 fb ff ff    	mov    %ecx,-0x430(%rbp)
    146f:	e8 00 00 00 00       	call   1474 <vasnprintf+0x1474>
    1474:	8b 8d d0 fb ff ff    	mov    -0x430(%rbp),%ecx
    147a:	4c 8b 85 c8 fb ff ff 	mov    -0x438(%rbp),%r8
    1481:	48 85 c0             	test   %rax,%rax
    1484:	4c 8b 8d b0 fb ff ff 	mov    -0x450(%rbp),%r9
    148b:	49 89 c7             	mov    %rax,%r15
    148e:	0f 84 65 02 00 00    	je     16f9 <vasnprintf+0x16f9>
    1494:	4d 85 e4             	test   %r12,%r12
    1497:	0f 84 0e f9 ff ff    	je     dab <vasnprintf+0xdab>
    149d:	48 8b b5 b8 fb ff ff 	mov    -0x448(%rbp),%rsi
    14a4:	4c 89 e2             	mov    %r12,%rdx
    14a7:	48 89 c7             	mov    %rax,%rdi
    14aa:	4c 89 8d b0 fb ff ff 	mov    %r9,-0x450(%rbp)
    14b1:	4c 89 85 c8 fb ff ff 	mov    %r8,-0x438(%rbp)
    14b8:	89 8d d0 fb ff ff    	mov    %ecx,-0x430(%rbp)
    14be:	e8 00 00 00 00       	call   14c3 <vasnprintf+0x14c3>
    14c3:	8b 8d d0 fb ff ff    	mov    -0x430(%rbp),%ecx
    14c9:	4c 8b 85 c8 fb ff ff 	mov    -0x438(%rbp),%r8
    14d0:	4c 8b 8d b0 fb ff ff 	mov    -0x450(%rbp),%r9
    14d7:	e9 cf f8 ff ff       	jmp    dab <vasnprintf+0xdab>
    14dc:	49 c7 c1 ff ff ff ff 	mov    $0xffffffffffffffff,%r9
    14e3:	e9 c7 fe ff ff       	jmp    13af <vasnprintf+0x13af>
    14e8:	0f 88 d2 f9 ff ff    	js     ec0 <vasnprintf+0xec0>
    14ee:	48 01 db             	add    %rbx,%rbx
    14f1:	4c 39 e3             	cmp    %r12,%rbx
    14f4:	0f 83 f8 f8 ff ff    	jae    df2 <vasnprintf+0xdf2>
    14fa:	49 83 fc ff          	cmp    $0xffffffffffffffff,%r12
    14fe:	0f 84 bc f9 ff ff    	je     ec0 <vasnprintf+0xec0>
    1504:	4c 89 e3             	mov    %r12,%rbx
    1507:	e9 e6 f8 ff ff       	jmp    df2 <vasnprintf+0xdf2>
    150c:	48 89 df             	mov    %rbx,%rdi
    150f:	e8 00 00 00 00       	call   1514 <vasnprintf+0x1514>
    1514:	4c 8b 8d d8 fb ff ff 	mov    -0x428(%rbp),%r9
    151b:	48 85 c0             	test   %rax,%rax
    151e:	0f 84 9c f9 ff ff    	je     ec0 <vasnprintf+0xec0>
    1524:	4d 85 c9             	test   %r9,%r9
    1527:	0f 84 f3 01 00 00    	je     1720 <vasnprintf+0x1720>
    152d:	4c 89 ca             	mov    %r9,%rdx
    1530:	4c 89 fe             	mov    %r15,%rsi
    1533:	48 89 c7             	mov    %rax,%rdi
    1536:	4c 89 8d d8 fb ff ff 	mov    %r9,-0x428(%rbp)
    153d:	e8 00 00 00 00       	call   1542 <vasnprintf+0x1542>
    1542:	4c 8b 8d d8 fb ff ff 	mov    -0x428(%rbp),%r9
    1549:	49 89 c7             	mov    %rax,%r15
    154c:	e9 d3 f8 ff ff       	jmp    e24 <vasnprintf+0xe24>
    1551:	48 89 df             	mov    %rbx,%rdi
    1554:	4c 89 95 d8 fb ff ff 	mov    %r10,-0x428(%rbp)
    155b:	e8 00 00 00 00       	call   1560 <vasnprintf+0x1560>
    1560:	4c 8b 95 d8 fb ff ff 	mov    -0x428(%rbp),%r10
    1567:	48 85 c0             	test   %rax,%rax
    156a:	0f 84 89 01 00 00    	je     16f9 <vasnprintf+0x16f9>
    1570:	4d 85 e4             	test   %r12,%r12
    1573:	0f 84 60 01 00 00    	je     16d9 <vasnprintf+0x16d9>
    1579:	4c 89 d6             	mov    %r10,%rsi
    157c:	4c 89 e2             	mov    %r12,%rdx
    157f:	48 89 c7             	mov    %rax,%rdi
    1582:	e8 00 00 00 00       	call   1587 <vasnprintf+0x1587>
    1587:	49 89 c2             	mov    %rax,%r10
    158a:	e9 d2 fb ff ff       	jmp    1161 <vasnprintf+0x1161>
    158f:	49 c7 c5 ff ff ff ff 	mov    $0xffffffffffffffff,%r13
    1596:	8b 40 10             	mov    0x10(%rax),%eax
    1599:	89 85 d8 fb ff ff    	mov    %eax,-0x428(%rbp)
    159f:	e9 8d f6 ff ff       	jmp    c31 <vasnprintf+0xc31>
    15a4:	48 89 df             	mov    %rbx,%rdi
    15a7:	4c 89 95 90 fb ff ff 	mov    %r10,-0x470(%rbp)
    15ae:	4c 89 85 b0 fb ff ff 	mov    %r8,-0x450(%rbp)
    15b5:	89 8d c8 fb ff ff    	mov    %ecx,-0x438(%rbp)
    15bb:	4c 89 8d d0 fb ff ff 	mov    %r9,-0x430(%rbp)
    15c2:	e8 00 00 00 00       	call   15c7 <vasnprintf+0x15c7>
    15c7:	4c 8b 8d d0 fb ff ff 	mov    -0x430(%rbp),%r9
    15ce:	8b 8d c8 fb ff ff    	mov    -0x438(%rbp),%ecx
    15d4:	48 85 c0             	test   %rax,%rax
    15d7:	4c 8b 85 b0 fb ff ff 	mov    -0x450(%rbp),%r8
    15de:	4c 8b 95 90 fb ff ff 	mov    -0x470(%rbp),%r10
    15e5:	48 89 c7             	mov    %rax,%rdi
    15e8:	0f 84 0b 01 00 00    	je     16f9 <vasnprintf+0x16f9>
    15ee:	4d 85 e4             	test   %r12,%r12
    15f1:	0f 84 cb 00 00 00    	je     16c2 <vasnprintf+0x16c2>
    15f7:	4c 89 d6             	mov    %r10,%rsi
    15fa:	4c 89 e2             	mov    %r12,%rdx
    15fd:	4c 89 85 b0 fb ff ff 	mov    %r8,-0x450(%rbp)
    1604:	89 8d c8 fb ff ff    	mov    %ecx,-0x438(%rbp)
    160a:	4c 89 8d d0 fb ff ff 	mov    %r9,-0x430(%rbp)
    1611:	e8 00 00 00 00       	call   1616 <vasnprintf+0x1616>
    1616:	4c 8b 8d d0 fb ff ff 	mov    -0x430(%rbp),%r9
    161d:	8b 8d c8 fb ff ff    	mov    -0x438(%rbp),%ecx
    1623:	4c 8b 85 b0 fb ff ff 	mov    -0x450(%rbp),%r8
    162a:	49 89 c2             	mov    %rax,%r10
    162d:	e9 b3 f6 ff ff       	jmp    ce5 <vasnprintf+0xce5>
    1632:	0f 88 78 f5 ff ff    	js     bb0 <vasnprintf+0xbb0>
    1638:	48 01 db             	add    %rbx,%rbx
    163b:	48 39 c3             	cmp    %rax,%rbx
    163e:	0f 83 8c fc ff ff    	jae    12d0 <vasnprintf+0x12d0>
    1644:	49 83 fd ff          	cmp    $0xffffffffffffffff,%r13
    1648:	0f 84 62 f5 ff ff    	je     bb0 <vasnprintf+0xbb0>
    164e:	4c 89 eb             	mov    %r13,%rbx
    1651:	e9 7a fc ff ff       	jmp    12d0 <vasnprintf+0x12d0>
    1656:	48 89 df             	mov    %rbx,%rdi
    1659:	4c 89 95 d0 fb ff ff 	mov    %r10,-0x430(%rbp)
    1660:	e8 00 00 00 00       	call   1665 <vasnprintf+0x1665>
    1665:	4c 8b 95 d0 fb ff ff 	mov    -0x430(%rbp),%r10
    166c:	48 85 c0             	test   %rax,%rax
    166f:	0f 84 3b f5 ff ff    	je     bb0 <vasnprintf+0xbb0>
    1675:	4d 85 e4             	test   %r12,%r12
    1678:	74 67                	je     16e1 <vasnprintf+0x16e1>
    167a:	4c 89 d6             	mov    %r10,%rsi
    167d:	4c 89 e2             	mov    %r12,%rdx
    1680:	48 89 c7             	mov    %rax,%rdi
    1683:	e8 00 00 00 00       	call   1688 <vasnprintf+0x1688>
    1688:	49 89 c2             	mov    %rax,%r10
    168b:	e9 72 fc ff ff       	jmp    1302 <vasnprintf+0x1302>
    1690:	4c 89 95 d8 fb ff ff 	mov    %r10,-0x428(%rbp)
    1697:	e8 00 00 00 00       	call   169c <vasnprintf+0x169c>
    169c:	4c 8b bd d8 fb ff ff 	mov    -0x428(%rbp),%r15
    16a3:	c7 00 54 00 00 00    	movl   $0x54,(%rax)
    16a9:	e9 82 f0 ff ff       	jmp    730 <vasnprintf+0x730>
    16ae:	e8 00 00 00 00       	call   16b3 <vasnprintf+0x16b3>
    16b3:	48 83 fb ff          	cmp    $0xffffffffffffffff,%rbx
    16b7:	0f 85 f3 f4 ff ff    	jne    bb0 <vasnprintf+0xbb0>
    16bd:	e9 23 f6 ff ff       	jmp    ce5 <vasnprintf+0xce5>
    16c2:	49 89 c2             	mov    %rax,%r10
    16c5:	e9 1b f6 ff ff       	jmp    ce5 <vasnprintf+0xce5>
    16ca:	48 83 fb ff          	cmp    $0xffffffffffffffff,%rbx
    16ce:	0f 85 dc f4 ff ff    	jne    bb0 <vasnprintf+0xbb0>
    16d4:	e9 29 fc ff ff       	jmp    1302 <vasnprintf+0x1302>
    16d9:	49 89 c2             	mov    %rax,%r10
    16dc:	e9 80 fa ff ff       	jmp    1161 <vasnprintf+0x1161>
    16e1:	49 89 c2             	mov    %rax,%r10
    16e4:	e9 19 fc ff ff       	jmp    1302 <vasnprintf+0x1302>
    16e9:	49 89 c2             	mov    %rax,%r10
    16ec:	e9 ce f3 ff ff       	jmp    abf <vasnprintf+0xabf>
    16f1:	49 89 c5             	mov    %rax,%r13
    16f4:	e9 9f ed ff ff       	jmp    498 <vasnprintf+0x498>
    16f9:	e8 00 00 00 00       	call   16fe <vasnprintf+0x16fe>
    16fe:	4c 8b bd b8 fb ff ff 	mov    -0x448(%rbp),%r15
    1705:	48 89 85 d0 fb ff ff 	mov    %rax,-0x430(%rbp)
    170c:	e9 b9 f4 ff ff       	jmp    bca <vasnprintf+0xbca>
    1711:	48 83 fb ff          	cmp    $0xffffffffffffffff,%rbx
    1715:	0f 84 46 fa ff ff    	je     1161 <vasnprintf+0x1161>
    171b:	e9 90 f4 ff ff       	jmp    bb0 <vasnprintf+0xbb0>
    1720:	49 89 c7             	mov    %rax,%r15
    1723:	e9 fc f6 ff ff       	jmp    e24 <vasnprintf+0xe24>

Disassembly of section .text.unlikely:

0000000000000000 <vasnprintf.cold>:
   0:	e8 00 00 00 00       	call   5 <vasnprintf.cold+0x5>
   5:	e8 00 00 00 00       	call   a <vasnprintf.cold+0xa>
